libcubeb.so.0:_RINvMNtCs9WsFjTlRn02_4core3stre18trim_start_matchesReECsdQXj5kOXdfq_14rustc_demangle
libcubeb.so.0:_RINvMNtCs9WsFjTlRn02_4core5sliceSh11copy_withinINtNtNtB5_3ops5range14RangeInclusivejEECsbW7JIls3BXH_11miniz_oxide
libcubeb.so.0:_RINvMNtCs9WsFjTlRn02_4core6optionINtB3_6OptionRINtNtB5_4cell4CellhEE3zipBI_ECsbW7JIls3BXH_11miniz_oxide
libcubeb.so.0:_RINvMNtCs9WsFjTlRn02_4core6optionINtB3_6OptionTRINtNtB5_4cell4CellhEBJ_EE3zipBJ_ECsbW7JIls3BXH_11miniz_oxide
libcubeb.so.0:_RINvMNtNtNtCs19MuVdBY7V6_5alloc11collections5btree4nodeINtB3_8LeafNodeyNtNtNtCsl0orcaMmsPI_5gimli4read6abbrev12AbbreviationE3newNtNtB9_5alloc6GlobalEB1d_
libcubeb.so.0:_RINvMs0_NtNtNtCs19MuVdBY7V6_5alloc11collections5btree6searchINtNtB8_4node7NodeRefNtNtBZ_6marker3MutyNtNtNtCsl0orcaMmsPI_5gimli4read6abbrev12AbbreviationNtB1j_14LeafOrInternalE14find_key_indexyEB1G_
libcubeb.so.0:_RINvMs0_NtNtNtCs19MuVdBY7V6_5alloc11collections5btree6searchINtNtB8_4node7NodeRefNtNtBZ_6marker5ImmutyNtNtNtCsl0orcaMmsPI_5gimli4read6abbrev12AbbreviationNtB1j_14LeafOrInternalE14find_key_indexyEB1I_
libcubeb.so.0:_RINvMs5_NtNtCs9WsFjTlRn02_4core3fmt8buildersNtB6_9DebugList7entriesRNtNtNtCsl0orcaMmsPI_5gimli4read6abbrev22AttributeSpecificationINtNtNtBa_5slice4iter4IterB14_EEB1a_
libcubeb.so.0:_RINvMs5_NtNtCs9WsFjTlRn02_4core3fmt8buildersNtB6_9DebugList7entriesRhINtNtNtBa_5slice4iter4IterhEECsdQXj5kOXdfq_14rustc_demangle
libcubeb.so.0:_RINvMs5_NtNtCsjj3dQwFOuTb_3std2io5errorNtB6_5Error3newNtNtNtCs9WsFjTlRn02_4core3num5error15TryFromIntErrorEBa_
libcubeb.so.0:_RINvMs5_NtNtCsjj3dQwFOuTb_3std2io5errorNtB6_5Error3newReEBa_
libcubeb.so.0:_RINvMs8_NtNtNtCs19MuVdBY7V6_5alloc11collections5btree4nodeINtB6_7NodeRefNtNtB6_6marker5OwnedyNtNtNtCsl0orcaMmsPI_5gimli4read6abbrev12AbbreviationNtB1a_4LeafE13from_new_leafNtNtBc_5alloc6GlobalEB1z_
libcubeb.so.0:_RINvMs9_NtNtNtCs19MuVdBY7V6_5alloc11collections5btree4nodeINtB6_7NodeRefNtNtB6_6marker5OwnedyNtNtNtCsl0orcaMmsPI_5gimli4read6abbrev12AbbreviationNtB1a_8InternalE12new_internalNtNtBc_5alloc6GlobalEB1z_
libcubeb.so.0:_RINvMs9_NtNtNtCs19MuVdBY7V6_5alloc11collections5btree4nodeINtB6_7NodeRefNtNtB6_6marker5OwnedyNtNtNtCsl0orcaMmsPI_5gimli4read6abbrev12AbbreviationNtB1a_8InternalE17from_new_internalNtNtBc_5alloc6GlobalEB1z_
libcubeb.so.0:_RINvMsK_NtNtNtCs19MuVdBY7V6_5alloc11collections5btree4nodeINtB6_6HandleINtB6_7NodeRefNtNtB6_6marker3MutyNtNtNtCsl0orcaMmsPI_5gimli4read6abbrev12AbbreviationNtB1n_4LeafENtB1n_4EdgeE6insertNtNtBc_5alloc6GlobalEB1K_
libcubeb.so.0:_RINvMsM_NtNtNtCs19MuVdBY7V6_5alloc11collections5btree4nodeINtB6_6HandleINtB6_7NodeRefNtNtB6_6marker3MutyNtNtNtCsl0orcaMmsPI_5gimli4read6abbrev12AbbreviationNtB1n_8InternalENtB1n_4EdgeE6insertNtNtBc_5alloc6GlobalEB1K_
libcubeb.so.0:_RINvMsN_NtNtNtCs19MuVdBY7V6_5alloc11collections5btree4nodeINtB6_6HandleINtB6_7NodeRefNtNtB6_6marker3MutyNtNtNtCsl0orcaMmsPI_5gimli4read6abbrev12AbbreviationNtB1n_4LeafENtB1n_4EdgeE16insert_recursingNtNtBc_5alloc6GlobalNCNvMs6_NtNtB8_3map5entryINtB3C_11VacantEntryyB1E_E12insert_entry0EB1K_
libcubeb.so.0:_RINvMsV_NtNtNtCs19MuVdBY7V6_5alloc11collections5btree4nodeINtB6_6HandleINtB6_7NodeRefNtNtB6_6marker3MutyNtNtNtCsl0orcaMmsPI_5gimli4read6abbrev12AbbreviationNtB1n_4LeafENtB1n_2KVE5splitNtNtBc_5alloc6GlobalEB1K_
libcubeb.so.0:_RINvMsW_NtNtNtCs19MuVdBY7V6_5alloc11collections5btree4nodeINtB6_6HandleINtB6_7NodeRefNtNtB6_6marker3MutyNtNtNtCsl0orcaMmsPI_5gimli4read6abbrev12AbbreviationNtB1n_8InternalENtB1n_2KVE5splitNtNtBc_5alloc6GlobalEB1K_
libcubeb.so.0:_RINvMs_NtNtNtCs19MuVdBY7V6_5alloc11collections5btree4nodeINtB5_12InternalNodeyNtNtNtCsl0orcaMmsPI_5gimli4read6abbrev12AbbreviationE3newNtNtBb_5alloc6GlobalEB1k_
libcubeb.so.0:_RINvMs_NtNtNtCs19MuVdBY7V6_5alloc11collections5btree6searchINtNtB7_4node7NodeRefNtNtBY_6marker3MutyNtNtNtCsl0orcaMmsPI_5gimli4read6abbrev12AbbreviationNtB1i_14LeafOrInternalE11search_treeyEB1F_
libcubeb.so.0:_RINvMs_NtNtNtCs19MuVdBY7V6_5alloc11collections5btree6searchINtNtB7_4node7NodeRefNtNtBY_6marker5ImmutyNtNtNtCsl0orcaMmsPI_5gimli4read6abbrev12AbbreviationNtB1i_14LeafOrInternalE11search_treeyEB1H_
libcubeb.so.0:_RINvMsi_NtNtNtCs19MuVdBY7V6_5alloc11collections5btree3mapINtB6_8BTreeMapyNtNtNtCsl0orcaMmsPI_5gimli4read6abbrev12AbbreviationE3getyEB1f_
libcubeb.so.0:_RINvMsp_NtNtNtCs19MuVdBY7V6_5alloc11collections5btree4nodeINtB6_7NodeRefNtNtB6_6marker3MutyNtNtNtCsl0orcaMmsPI_5gimli4read6abbrev12AbbreviationNtB1a_8InternalE30correct_childrens_parent_linksINtNtNtCs9WsFjTlRn02_4core3ops5range14RangeInclusivejEEB1x_
libcubeb.so.0:_RINvMsp_NtNtNtCs19MuVdBY7V6_5alloc11collections5btree4nodeINtB6_7NodeRefNtNtB6_6marker3MutyNtNtNtCsl0orcaMmsPI_5gimli4read6abbrev12AbbreviationNtB1a_8InternalE30correct_childrens_parent_linksINtNtNtCs9WsFjTlRn02_4core3ops5range5RangejEEB1x_
libcubeb.so.0:_RINvNtCs9WsFjTlRn02_4core5slice20copy_from_slice_implhECsbW7JIls3BXH_11miniz_oxide
libcubeb.so.0:_RINvNtCs9WsFjTlRn02_4core6escape14escape_unicodeKja_ECsdQXj5kOXdfq_14rustc_demangle
libcubeb.so.0:_RINvNtCs9WsFjTlRn02_4core9panicking13assert_failedAhj4_RShECsjj3dQwFOuTb_3std
libcubeb.so.0:_RINvNtCs9WsFjTlRn02_4core9panicking13assert_failedINtNtB4_6option6OptionjEBM_EB4_
libcubeb.so.0:_RINvNtCs9WsFjTlRn02_4core9panicking13assert_failedjjEB4_
libcubeb.so.0:_RINvNtCs9WsFjTlRn02_4core9panicking13assert_failedllECsjj3dQwFOuTb_3std
libcubeb.so.0:_RINvNtCs9WsFjTlRn02_4core9panicking13assert_failedssECsjj3dQwFOuTb_3std
libcubeb.so.0:_RINvNtCs9WsFjTlRn02_4core9panicking13assert_failedyyEB4_
libcubeb.so.0:_RINvNtCsjj3dQwFOuTb_3std9panicking11begin_panicReEB4_
libcubeb.so.0:_RINvNtNtCs9WsFjTlRn02_4core5slice5index5rangeINtNtNtB6_3ops5range14RangeInclusivejEECsbW7JIls3BXH_11miniz_oxide
libcubeb.so.0:_RINvNtNtCsjj3dQwFOuTb_3std3sys9backtrace26___rust_end_short_backtraceNCINvNtB6_9panicking11begin_panicReE0zEB6_
libcubeb.so.0:_RINvNtNtCsjj3dQwFOuTb_3std3sys9backtrace26___rust_end_short_backtraceNCNvNtB6_5alloc8rust_oom0zEB6_
libcubeb.so.0:_RINvNtNtCsjj3dQwFOuTb_3std3sys9backtrace26___rust_end_short_backtraceNCNvNtB6_9panicking13panic_handler0zEB6_
libcubeb.so.0:_RINvNtNtNtCs19MuVdBY7V6_5alloc11collections5btree4node12slice_insertINtNtNtCs9WsFjTlRn02_4core3ptr8non_null7NonNullINtB2_8LeafNodeyNtNtNtCsl0orcaMmsPI_5gimli4read6abbrev12AbbreviationEEEB2b_
libcubeb.so.0:_RINvNtNtNtCs19MuVdBY7V6_5alloc11collections5btree4node12slice_insertNtNtNtCsl0orcaMmsPI_5gimli4read6abbrev12AbbreviationEB1a_
libcubeb.so.0:_RINvNtNtNtCs19MuVdBY7V6_5alloc11collections5btree4node12slice_insertyECsl0orcaMmsPI_5gimli
libcubeb.so.0:_RINvNtNtNtCs19MuVdBY7V6_5alloc11collections5btree4node13move_to_sliceINtNtNtCs9WsFjTlRn02_4core3ptr8non_null7NonNullINtB2_8LeafNodeyNtNtNtCsl0orcaMmsPI_5gimli4read6abbrev12AbbreviationEEEB2c_
libcubeb.so.0:_RINvNtNtNtCs19MuVdBY7V6_5alloc11collections5btree4node13move_to_sliceNtNtNtCsl0orcaMmsPI_5gimli4read6abbrev12AbbreviationEB1b_
libcubeb.so.0:_RINvNtNtNtCs19MuVdBY7V6_5alloc11collections5btree4node13move_to_sliceyECsl0orcaMmsPI_5gimli
libcubeb.so.0:_RINvNtNtNtCs9WsFjTlRn02_4core5slice4sort6stable14driftsort_mainNtNtCsl7GZAtFfcQj_9addr2line4line12LineSequenceNCINvMNtCs19MuVdBY7V6_5alloc5sliceSBZ_11sort_by_keyyNCINvMs_B11_NtB11_5Lines5parseINtNtNtCsl0orcaMmsPI_5gimli4read12endian_slice11EndianSliceNtNtB3b_9endianity12LittleEndianEEs_0E0INtNtB1S_3vec3VecBZ_EECsjj3dQwFOuTb_3std
libcubeb.so.0:_RINvNtNtNtCs9WsFjTlRn02_4core5slice4sort6stable14driftsort_mainNtNtCsl7GZAtFfcQj_9addr2line4unit9UnitRangeNCINvMNtCs19MuVdBY7V6_5alloc5sliceSBZ_11sort_by_keyyNCNvMs_B11_INtB11_8ResUnitsINtNtNtCsl0orcaMmsPI_5gimli4read12endian_slice11EndianSliceNtNtB34_9endianity12LittleEndianEE5parses2_0E0INtNtB1O_3vec3VecBZ_EECsjj3dQwFOuTb_3std
libcubeb.so.0:_RINvNtNtNtCs9WsFjTlRn02_4core5slice4sort6stable14driftsort_mainNtNtCsl7GZAtFfcQj_9addr2line8function15FunctionAddressNCINvMNtCs19MuVdBY7V6_5alloc5sliceSBZ_11sort_by_keyyNCNvMs0_B11_INtB11_9FunctionsINtNtNtCsl0orcaMmsPI_5gimli4read12endian_slice11EndianSliceNtNtB3h_9endianity12LittleEndianEE5parses_0E0INtNtB1Z_3vec3VecBZ_EECsjj3dQwFOuTb_3std
libcubeb.so.0:_RINvNtNtNtCs9WsFjTlRn02_4core5slice4sort6stable14driftsort_mainNtNtCsl7GZAtFfcQj_9addr2line8function22InlinedFunctionAddressNCINvMNtCs19MuVdBY7V6_5alloc5sliceSBZ_7sort_byNCNvMs1_B11_INtB11_8FunctionINtNtNtCsl0orcaMmsPI_5gimli4read12endian_slice11EndianSliceNtNtB3h_9endianity12LittleEndianEE5parse0E0INtNtB26_3vec3VecBZ_EECsjj3dQwFOuTb_3std
libcubeb.so.0:_RINvNtNtNtCs9WsFjTlRn02_4core5slice4sort6stable14driftsort_mainTNtNtCsl0orcaMmsPI_5gimli6common15DebugInfoOffsetNtB12_18DebugArangesOffsetENCINvMNtCs19MuVdBY7V6_5alloc5sliceSBZ_11sort_by_keyB10_NCNvMs_NtCsl7GZAtFfcQj_9addr2line4unitINtB3d_8ResUnitsINtNtNtB14_4read12endian_slice11EndianSliceNtNtB14_9endianity12LittleEndianEE5parse0E0INtNtB2l_3vec3VecBZ_EECsjj3dQwFOuTb_3std
libcubeb.so.0:_RINvNtNtNtCs9WsFjTlRn02_4core5slice4sort8unstable7ipnsortNtNtNtNtNtCsjj3dQwFOuTb_3std12backtrace_rs9symbolize5gimli3elf9ParsedSymNCINvMB6_SBT_20sort_unstable_by_keyyNCNvMs_BV_NtBV_6Object5parses1_0E0EB13_
libcubeb.so.0:_RINvNtNtNtNtCs9WsFjTlRn02_4core5slice4sort6stable9quicksort9quicksortNtNtCsl7GZAtFfcQj_9addr2line4line12LineSequenceNCINvMNtCs19MuVdBY7V6_5alloc5sliceSB15_11sort_by_keyyNCINvMs_B17_NtB17_5Lines5parseINtNtNtCsl0orcaMmsPI_5gimli4read12endian_slice11EndianSliceNtNtB3i_9endianity12LittleEndianEEs_0E0ECsjj3dQwFOuTb_3std
libcubeb.so.0:_RINvNtNtNtNtCs9WsFjTlRn02_4core5slice4sort6stable9quicksort9quicksortNtNtCsl7GZAtFfcQj_9addr2line4unit9UnitRangeNCINvMNtCs19MuVdBY7V6_5alloc5sliceSB15_11sort_by_keyyNCNvMs_B17_INtB17_8ResUnitsINtNtNtCsl0orcaMmsPI_5gimli4read12endian_slice11EndianSliceNtNtB3b_9endianity12LittleEndianEE5parses2_0E0ECsjj3dQwFOuTb_3std
libcubeb.so.0:_RINvNtNtNtNtCs9WsFjTlRn02_4core5slice4sort6stable9quicksort9quicksortNtNtCsl7GZAtFfcQj_9addr2line8function15FunctionAddressNCINvMNtCs19MuVdBY7V6_5alloc5sliceSB15_11sort_by_keyyNCNvMs0_B17_INtB17_9FunctionsINtNtNtCsl0orcaMmsPI_5gimli4read12endian_slice11EndianSliceNtNtB3o_9endianity12LittleEndianEE5parses_0E0ECsjj3dQwFOuTb_3std
libcubeb.so.0:_RINvNtNtNtNtCs9WsFjTlRn02_4core5slice4sort6stable9quicksort9quicksortNtNtCsl7GZAtFfcQj_9addr2line8function22InlinedFunctionAddressNCINvMNtCs19MuVdBY7V6_5alloc5sliceSB15_7sort_byNCNvMs1_B17_INtB17_8FunctionINtNtNtCsl0orcaMmsPI_5gimli4read12endian_slice11EndianSliceNtNtB3o_9endianity12LittleEndianEE5parse0E0ECsjj3dQwFOuTb_3std
libcubeb.so.0:_RINvNtNtNtNtCs9WsFjTlRn02_4core5slice4sort6stable9quicksort9quicksortTNtNtCsl0orcaMmsPI_5gimli6common15DebugInfoOffsetNtB18_18DebugArangesOffsetENCINvMNtCs19MuVdBY7V6_5alloc5sliceSB15_11sort_by_keyB16_NCNvMs_NtCsl7GZAtFfcQj_9addr2line4unitINtB3k_8ResUnitsINtNtNtB1a_4read12endian_slice11EndianSliceNtNtB1a_9endianity12LittleEndianEE5parse0E0ECsjj3dQwFOuTb_3std
libcubeb.so.0:_RINvNtNtNtNtCs9WsFjTlRn02_4core5slice4sort8unstable8heapsort8heapsortNtNtNtNtNtCsjj3dQwFOuTb_3std12backtrace_rs9symbolize5gimli3elf9ParsedSymNCINvMB8_SB15_20sort_unstable_by_keyyNCNvMs_B17_NtB17_6Object5parses1_0E0EB1f_
libcubeb.so.0:_RINvNvMs2_NtCs19MuVdBY7V6_5alloc7raw_vecINtB8_11RawVecInnerpE7reserve21do_reserve_and_handleNtNtBa_5alloc6GlobalECsl7GZAtFfcQj_9addr2line
libcubeb.so.0:_RINvXs0_NtNtNtCs9WsFjTlRn02_4core4iter8adapters6copiedINtB6_6CopiedINtNtNtBc_5slice4iter4IterhEENtNtNtBa_6traits12double_ended19DoubleEndedIterator9try_rfoldjNCINvNvNtNtB1A_8iterator8Iterator9rposition5checkhNCNvMs2_NtCsdQXj5kOXdfq_14rustc_demangle2v0NtB3s_6Parser5ident0E0INtNtNtBc_3ops12control_flow11ControlFlowjjEEB3u_
libcubeb.so.0:_RNvCs8mP8X8mqjxT_7___rustc10rust_panic
libcubeb.so.0:_RNvCs8mP8X8mqjxT_7___rustc12___rust_abort
libcubeb.so.0:_RNvCs8mP8X8mqjxT_7___rustc12___rust_alloc
libcubeb.so.0:_RNvCs8mP8X8mqjxT_7___rustc14___rust_dealloc
libcubeb.so.0:_RNvCs8mP8X8mqjxT_7___rustc14___rust_realloc
libcubeb.so.0:_RNvCs8mP8X8mqjxT_7___rustc17___rust_drop_panic
libcubeb.so.0:_RNvCs8mP8X8mqjxT_7___rustc17rust_begin_unwind
libcubeb.so.0:_RNvCs8mP8X8mqjxT_7___rustc18___rust_start_panic
libcubeb.so.0:_RNvCs8mP8X8mqjxT_7___rustc19___rust_alloc_zeroed
libcubeb.so.0:_RNvCs8mP8X8mqjxT_7___rustc20___rust_panic_cleanup
libcubeb.so.0:_RNvCs8mP8X8mqjxT_7___rustc24___rust_foreign_exception
libcubeb.so.0:_RNvCs8mP8X8mqjxT_7___rustc25___rdl_alloc_error_handler
libcubeb.so.0:_RNvCs8mP8X8mqjxT_7___rustc26___rust_alloc_error_handler
libcubeb.so.0:_RNvCs8mP8X8mqjxT_7___rustc35___rust_no_alloc_shim_is_unstable_v2
libcubeb.so.0:_RNvCs8mP8X8mqjxT_7___rustc42___rust_alloc_error_handler_should_panic_v2
libcubeb.so.0:_RNvCsb8JgZz1BG6n_6adler213adler32_slice
libcubeb.so.0:_RNvCsdQXj5kOXdfq_14rustc_demangle12try_demangle
libcubeb.so.0:_RNvCsdQXj5kOXdfq_14rustc_demangle8demangle
libcubeb.so.0:_RNvMCsb8JgZz1BG6n_6adler2NtB2_7Adler3211write_slice
libcubeb.so.0:_RNvMNtCs19MuVdBY7V6_5alloc6stringNtB2_6String10from_utf16
libcubeb.so.0:_RNvMNtCs19MuVdBY7V6_5alloc6stringNtB2_6String11try_reserve
libcubeb.so.0:_RNvMNtCs19MuVdBY7V6_5alloc6stringNtB2_6String12from_utf16be
libcubeb.so.0:_RNvMNtCs19MuVdBY7V6_5alloc6stringNtB2_6String12from_utf16le
libcubeb.so.0:_RNvMNtCs19MuVdBY7V6_5alloc6stringNtB2_6String15from_utf8_lossy
libcubeb.so.0:_RNvMNtCs19MuVdBY7V6_5alloc6stringNtB2_6String17try_reserve_exact
libcubeb.so.0:_RNvMNtCs19MuVdBY7V6_5alloc6stringNtB2_6String18from_utf16be_lossy
libcubeb.so.0:_RNvMNtCs19MuVdBY7V6_5alloc6stringNtB2_6String18from_utf16le_lossy
libcubeb.so.0:_RNvMNtCs19MuVdBY7V6_5alloc6stringNtB2_6String21from_utf8_lossy_owned
libcubeb.so.0:_RNvMNtCs9WsFjTlRn02_4core3stre12escape_debug
libcubeb.so.0:_RNvMNtCs9WsFjTlRn02_4core3stre12substr_range
libcubeb.so.0:_RNvMNtCs9WsFjTlRn02_4core3stre13from_utf8_mut
libcubeb.so.0:_RNvMNtCs9WsFjTlRn02_4core3stre22split_at_mut_unchecked
libcubeb.so.0:_RNvMNtCs9WsFjTlRn02_4core3stre9from_utf8
libcubeb.so.0:_RNvMNtCs9WsFjTlRn02_4core5sliceSh11starts_withCsdQXj5kOXdfq_14rustc_demangle
libcubeb.so.0:_RNvMNtCs9WsFjTlRn02_4core5sliceSh11starts_withCsl7GZAtFfcQj_9addr2line
libcubeb.so.0:_RNvMNtCs9WsFjTlRn02_4core5sliceSh9ends_withCsl7GZAtFfcQj_9addr2line
libcubeb.so.0:_RNvMNtCs9WsFjTlRn02_4core6escapeINtB2_15EscapeIterInnerKja_NtB2_12MaybeEscapedE9backslashCsdQXj5kOXdfq_14rustc_demangle
libcubeb.so.0:_RNvMNtCsjj3dQwFOuTb_3std4timeNtB2_7Instant11checked_add
libcubeb.so.0:_RNvMNtCsjj3dQwFOuTb_3std4timeNtB2_7Instant11checked_sub
libcubeb.so.0:_RNvMNtCsjj3dQwFOuTb_3std4timeNtB2_7Instant14duration_since
libcubeb.so.0:_RNvMNtCsjj3dQwFOuTb_3std4timeNtB2_7Instant22checked_duration_since
libcubeb.so.0:_RNvMNtCsjj3dQwFOuTb_3std4timeNtB2_7Instant25saturating_duration_since
libcubeb.so.0:_RNvMNtCsjj3dQwFOuTb_3std4timeNtB2_7Instant3now
libcubeb.so.0:_RNvMNtCsjj3dQwFOuTb_3std4timeNtB2_7Instant7elapsed
libcubeb.so.0:_RNvMNtNtCs19MuVdBY7V6_5alloc3ffi5c_strNtB2_19FromVecWithNulError8as_bytes
libcubeb.so.0:_RNvMNtNtCs9WsFjTlRn02_4core3num3fmtNtB2_4Part5write
libcubeb.so.0:_RNvMNtNtCs9WsFjTlRn02_4core3num9diy_floatNtB2_2Fp12normalize_to
libcubeb.so.0:_RNvMNtNtCs9WsFjTlRn02_4core5alloc6layoutNtB2_6Layout19is_size_align_valid
libcubeb.so.0:_RNvMNtNtCsjj3dQwFOuTb_3std3net3tcpNtB2_9TcpStream10local_addr
libcubeb.so.0:_RNvMNtNtCsjj3dQwFOuTb_3std3net3tcpNtB2_9TcpStream10set_linger
libcubeb.so.0:_RNvMNtNtCsjj3dQwFOuTb_3std3net3tcpNtB2_9TcpStream10take_error
libcubeb.so.0:_RNvMNtNtCsjj3dQwFOuTb_3std3net3tcpNtB2_9TcpStream11set_nodelay
libcubeb.so.0:_RNvMNtNtCsjj3dQwFOuTb_3std3net3tcpNtB2_9TcpStream12read_timeout
libcubeb.so.0:_RNvMNtNtCsjj3dQwFOuTb_3std3net3tcpNtB2_9TcpStream13write_timeout
libcubeb.so.0:_RNvMNtNtCsjj3dQwFOuTb_3std3net3tcpNtB2_9TcpStream15connect_timeout
libcubeb.so.0:_RNvMNtNtCsjj3dQwFOuTb_3std3net3tcpNtB2_9TcpStream15set_nonblocking
libcubeb.so.0:_RNvMNtNtCsjj3dQwFOuTb_3std3net3tcpNtB2_9TcpStream16set_read_timeout
libcubeb.so.0:_RNvMNtNtCsjj3dQwFOuTb_3std3net3tcpNtB2_9TcpStream17set_write_timeout
libcubeb.so.0:_RNvMNtNtCsjj3dQwFOuTb_3std3net3tcpNtB2_9TcpStream3ttl
libcubeb.so.0:_RNvMNtNtCsjj3dQwFOuTb_3std3net3tcpNtB2_9TcpStream4peek
libcubeb.so.0:_RNvMNtNtCsjj3dQwFOuTb_3std3net3tcpNtB2_9TcpStream6linger
libcubeb.so.0:_RNvMNtNtCsjj3dQwFOuTb_3std3net3tcpNtB2_9TcpStream7nodelay
libcubeb.so.0:_RNvMNtNtCsjj3dQwFOuTb_3std3net3tcpNtB2_9TcpStream7set_ttl
libcubeb.so.0:_RNvMNtNtCsjj3dQwFOuTb_3std3net3tcpNtB2_9TcpStream8shutdown
libcubeb.so.0:_RNvMNtNtCsjj3dQwFOuTb_3std3net3tcpNtB2_9TcpStream9peer_addr
libcubeb.so.0:_RNvMNtNtCsjj3dQwFOuTb_3std3net3tcpNtB2_9TcpStream9try_clone
libcubeb.so.0:_RNvMNtNtCsjj3dQwFOuTb_3std3net3udpNtB2_9UdpSocket10local_addr
libcubeb.so.0:_RNvMNtNtCsjj3dQwFOuTb_3std3net3udpNtB2_9UdpSocket10take_error
libcubeb.so.0:_RNvMNtNtCsjj3dQwFOuTb_3std3net3udpNtB2_9UdpSocket12read_timeout
libcubeb.so.0:_RNvMNtNtCsjj3dQwFOuTb_3std3net3udpNtB2_9UdpSocket13set_broadcast
libcubeb.so.0:_RNvMNtNtCsjj3dQwFOuTb_3std3net3udpNtB2_9UdpSocket13write_timeout
libcubeb.so.0:_RNvMNtNtCsjj3dQwFOuTb_3std3net3udpNtB2_9UdpSocket15set_nonblocking
libcubeb.so.0:_RNvMNtNtCsjj3dQwFOuTb_3std3net3udpNtB2_9UdpSocket16multicast_ttl_v4
libcubeb.so.0:_RNvMNtNtCsjj3dQwFOuTb_3std3net3udpNtB2_9UdpSocket16set_read_timeout
libcubeb.so.0:_RNvMNtNtCsjj3dQwFOuTb_3std3net3udpNtB2_9UdpSocket17join_multicast_v4
libcubeb.so.0:_RNvMNtNtCsjj3dQwFOuTb_3std3net3udpNtB2_9UdpSocket17join_multicast_v6
libcubeb.so.0:_RNvMNtNtCsjj3dQwFOuTb_3std3net3udpNtB2_9UdpSocket17multicast_loop_v4
libcubeb.so.0:_RNvMNtNtCsjj3dQwFOuTb_3std3net3udpNtB2_9UdpSocket17multicast_loop_v6
libcubeb.so.0:_RNvMNtNtCsjj3dQwFOuTb_3std3net3udpNtB2_9UdpSocket17set_write_timeout
libcubeb.so.0:_RNvMNtNtCsjj3dQwFOuTb_3std3net3udpNtB2_9UdpSocket18leave_multicast_v4
libcubeb.so.0:_RNvMNtNtCsjj3dQwFOuTb_3std3net3udpNtB2_9UdpSocket18leave_multicast_v6
libcubeb.so.0:_RNvMNtNtCsjj3dQwFOuTb_3std3net3udpNtB2_9UdpSocket20set_multicast_ttl_v4
libcubeb.so.0:_RNvMNtNtCsjj3dQwFOuTb_3std3net3udpNtB2_9UdpSocket21set_multicast_loop_v4
libcubeb.so.0:_RNvMNtNtCsjj3dQwFOuTb_3std3net3udpNtB2_9UdpSocket21set_multicast_loop_v6
libcubeb.so.0:_RNvMNtNtCsjj3dQwFOuTb_3std3net3udpNtB2_9UdpSocket3ttl
libcubeb.so.0:_RNvMNtNtCsjj3dQwFOuTb_3std3net3udpNtB2_9UdpSocket4peek
libcubeb.so.0:_RNvMNtNtCsjj3dQwFOuTb_3std3net3udpNtB2_9UdpSocket4recv
libcubeb.so.0:_RNvMNtNtCsjj3dQwFOuTb_3std3net3udpNtB2_9UdpSocket4send
libcubeb.so.0:_RNvMNtNtCsjj3dQwFOuTb_3std3net3udpNtB2_9UdpSocket7set_ttl
libcubeb.so.0:_RNvMNtNtCsjj3dQwFOuTb_3std3net3udpNtB2_9UdpSocket9broadcast
libcubeb.so.0:_RNvMNtNtCsjj3dQwFOuTb_3std3net3udpNtB2_9UdpSocket9peek_from
libcubeb.so.0:_RNvMNtNtCsjj3dQwFOuTb_3std3net3udpNtB2_9UdpSocket9peer_addr
libcubeb.so.0:_RNvMNtNtCsjj3dQwFOuTb_3std3net3udpNtB2_9UdpSocket9recv_from
libcubeb.so.0:_RNvMNtNtCsjj3dQwFOuTb_3std3net3udpNtB2_9UdpSocket9try_clone
libcubeb.so.0:_RNvMNtNtCsjj3dQwFOuTb_3std6thread2idNtB2_8ThreadId3new
libcubeb.so.0:_RNvMNtNtCsjj3dQwFOuTb_3std6thread6scopedNtB2_9ScopeData29decrement_num_running_threads
libcubeb.so.0:_RNvMNtNtCsjj3dQwFOuTb_3std6thread6scopedNtB2_9ScopeData29increment_num_running_threads
libcubeb.so.0:_RNvMNtNtCsjj3dQwFOuTb_3std6thread7builderNtB2_7Builder4name
libcubeb.so.0:_RNvMNtNtNtCs9WsFjTlRn02_4core3num6bignum5testsNtB2_6Big8x310bit_length
libcubeb.so.0:_RNvMNtNtNtCs9WsFjTlRn02_4core3num6bignum5testsNtB2_6Big8x310mul_digits
libcubeb.so.0:_RNvMNtNtNtCs9WsFjTlRn02_4core3num6bignum5testsNtB2_6Big8x313div_rem_small
libcubeb.so.0:_RNvMNtNtNtCs9WsFjTlRn02_4core3num6bignum5testsNtB2_6Big8x33add
libcubeb.so.0:_RNvMNtNtNtCs9WsFjTlRn02_4core3num6bignum5testsNtB2_6Big8x33sub
libcubeb.so.0:_RNvMNtNtNtCs9WsFjTlRn02_4core3num6bignum5testsNtB2_6Big8x36digits
libcubeb.so.0:_RNvMNtNtNtCs9WsFjTlRn02_4core3num6bignum5testsNtB2_6Big8x37get_bit
libcubeb.so.0:_RNvMNtNtNtCs9WsFjTlRn02_4core3num6bignum5testsNtB2_6Big8x37is_zero
libcubeb.so.0:_RNvMNtNtNtCs9WsFjTlRn02_4core3num6bignum5testsNtB2_6Big8x38from_u64
libcubeb.so.0:_RNvMNtNtNtCs9WsFjTlRn02_4core3num6bignum5testsNtB2_6Big8x38mul_pow2
libcubeb.so.0:_RNvMNtNtNtCs9WsFjTlRn02_4core3num6bignum5testsNtB2_6Big8x38mul_pow5
libcubeb.so.0:_RNvMNtNtNtCs9WsFjTlRn02_4core3num6bignum5testsNtB2_6Big8x39add_small
libcubeb.so.0:_RNvMNtNtNtCs9WsFjTlRn02_4core3num6bignum5testsNtB2_6Big8x39mul_small
libcubeb.so.0:_RNvMNtNtNtCs9WsFjTlRn02_4core4iter8adapters3zipINtB2_3ZipINtNtNtB8_5slice4iter4ItertEINtBW_7IterMutmEE9super_nthCsbW7JIls3BXH_11miniz_oxide
libcubeb.so.0:_RNvMNtNtNtCsjj3dQwFOuTb_3std2os5linux7processNtB2_5PidFd4kill
libcubeb.so.0:_RNvMNtNtNtCsjj3dQwFOuTb_3std2os5linux7processNtB2_5PidFd4wait
libcubeb.so.0:_RNvMNtNtNtCsjj3dQwFOuTb_3std2os5linux7processNtB2_5PidFd8try_wait
libcubeb.so.0:_RNvMNtNtNtCsjj3dQwFOuTb_3std3sys2fd4unixNtB2_8FileDesc11read_buf_at
libcubeb.so.0:_RNvMNtNtNtCsjj3dQwFOuTb_3std3sys2fd4unixNtB2_8FileDesc11read_to_end
libcubeb.so.0:_RNvMNtNtNtCsjj3dQwFOuTb_3std3sys2fd4unixNtB2_8FileDesc11set_cloexec
libcubeb.so.0:_RNvMNtNtNtCsjj3dQwFOuTb_3std3sys2fd4unixNtB2_8FileDesc13read_vectored
libcubeb.so.0:_RNvMNtNtNtCsjj3dQwFOuTb_3std3sys2fd4unixNtB2_8FileDesc14write_vectored
libcubeb.so.0:_RNvMNtNtNtCsjj3dQwFOuTb_3std3sys2fd4unixNtB2_8FileDesc15set_nonblocking
libcubeb.so.0:_RNvMNtNtNtCsjj3dQwFOuTb_3std3sys2fd4unixNtB2_8FileDesc16read_vectored_at
libcubeb.so.0:_RNvMNtNtNtCsjj3dQwFOuTb_3std3sys2fd4unixNtB2_8FileDesc17write_vectored_at
libcubeb.so.0:_RNvMNtNtNtCsjj3dQwFOuTb_3std3sys2fd4unixNtB2_8FileDesc4read
libcubeb.so.0:_RNvMNtNtNtCsjj3dQwFOuTb_3std3sys2fd4unixNtB2_8FileDesc5write
libcubeb.so.0:_RNvMNtNtNtCsjj3dQwFOuTb_3std3sys2fd4unixNtB2_8FileDesc7read_at
libcubeb.so.0:_RNvMNtNtNtCsjj3dQwFOuTb_3std3sys2fd4unixNtB2_8FileDesc8read_buf
libcubeb.so.0:_RNvMNtNtNtCsjj3dQwFOuTb_3std3sys2fd4unixNtB2_8FileDesc8write_at
libcubeb.so.0:_RNvMNtNtNtCsjj3dQwFOuTb_3std4sync4mpmc7contextNtB2_7Context3new
libcubeb.so.0:_RNvMNtNtNtCsjj3dQwFOuTb_3std4sync6poison7condvarNtB2_7Condvar10notify_all
libcubeb.so.0:_RNvMNtNtNtCsjj3dQwFOuTb_3std4sync6poison7condvarNtB2_7Condvar10notify_one
libcubeb.so.0:_RNvMNtNtNtCsjj3dQwFOuTb_3std4sync9nonpoison7condvarNtB2_7Condvar10notify_all
libcubeb.so.0:_RNvMNtNtNtCsjj3dQwFOuTb_3std4sync9nonpoison7condvarNtB2_7Condvar10notify_one
libcubeb.so.0:_RNvMNtNtNtNtCsjj3dQwFOuTb_3std2io8buffered9bufreader6bufferNtB2_6Buffer9backshift
libcubeb.so.0:_RNvMNtNtNtNtCsjj3dQwFOuTb_3std2os4unix3net4addrNtB2_10SocketAddr10from_parts
libcubeb.so.0:_RNvMNtNtNtNtCsjj3dQwFOuTb_3std2os4unix3net4addrNtB2_10SocketAddr10is_unnamed
libcubeb.so.0:_RNvMNtNtNtNtCsjj3dQwFOuTb_3std2os4unix3net4addrNtB2_10SocketAddr11as_pathname
libcubeb.so.0:_RNvMNtNtNtNtCsjj3dQwFOuTb_3std3sys4sync5mutex5futexNtB2_5Mutex14lock_contended
libcubeb.so.0:_RNvMNtNtNtNtCsjj3dQwFOuTb_3std3sys4sync5mutex5futexNtB2_5Mutex4wake
libcubeb.so.0:_RNvMNtNtNtNtCsjj3dQwFOuTb_3std3sys4sync6rwlock5futexNtB2_6RwLock14read_contended
libcubeb.so.0:_RNvMNtNtNtNtCsjj3dQwFOuTb_3std3sys4sync6rwlock5futexNtB2_6RwLock15write_contended
libcubeb.so.0:_RNvMNtNtNtNtCsjj3dQwFOuTb_3std3sys4sync6rwlock5futexNtB2_6RwLock22wake_writer_or_readers
libcubeb.so.0:_RNvMNtNtNtNtCsjj3dQwFOuTb_3std3sys4sync7condvar5futexNtB2_7Condvar12wait_timeout
libcubeb.so.0:_RNvMNtNtNtNtCsjj3dQwFOuTb_3std3sys4sync7condvar5futexNtB2_7Condvar4wait
libcubeb.so.0:_RNvMNtNtNtNtNtCsjj3dQwFOuTb_3std3sys3net10connection6socket4unixNtB2_6Socket3new
libcubeb.so.0:_RNvMNvMs_NtNtNtCsjj3dQwFOuTb_3std2io8buffered9bufwriterINtB7_9BufWriterpE9flush_bufNtB2_8BufGuard9remaining
libcubeb.so.0:_RNvMs0_NtCs19MuVdBY7V6_5alloc7raw_vecINtB5_6RawVecINtNtB7_3vec3VechEE8grow_oneCsjj3dQwFOuTb_3std
libcubeb.so.0:_RNvMs0_NtCs19MuVdBY7V6_5alloc7raw_vecINtB5_6RawVecINtNtB7_5boxed3BoxDINtNtNtCs9WsFjTlRn02_4core3ops8function5FnMutuEp6OutputINtNtB1c_6result6ResultuNtNtNtCsjj3dQwFOuTb_3std2io5error5ErrorENtNtB1c_6marker4SendNtB32_4SyncEL_EE8grow_oneB2s_
libcubeb.so.0:_RNvMs0_NtCs19MuVdBY7V6_5alloc7raw_vecINtB5_6RawVecINtNtCsl7GZAtFfcQj_9addr2line4unit7ResUnitINtNtNtCsl0orcaMmsPI_5gimli4read12endian_slice11EndianSliceNtNtB1z_9endianity12LittleEndianEEE8grow_oneCsjj3dQwFOuTb_3std
libcubeb.so.0:_RNvMs0_NtCs19MuVdBY7V6_5alloc7raw_vecINtB5_6RawVecINtNtCsl7GZAtFfcQj_9addr2line4unit7SupUnitINtNtNtCsl0orcaMmsPI_5gimli4read12endian_slice11EndianSliceNtNtB1z_9endianity12LittleEndianEEE8grow_oneCsjj3dQwFOuTb_3std
libcubeb.so.0:_RNvMs0_NtCs19MuVdBY7V6_5alloc7raw_vecINtB5_6RawVecINtNtCsl7GZAtFfcQj_9addr2line8function12LazyFunctionINtNtNtCsl0orcaMmsPI_5gimli4read12endian_slice11EndianSliceNtNtB1J_9endianity12LittleEndianEEE8grow_oneCsjj3dQwFOuTb_3std
libcubeb.so.0:_RNvMs0_NtCs19MuVdBY7V6_5alloc7raw_vecINtB5_6RawVecINtNtCsl7GZAtFfcQj_9addr2line8function15InlinedFunctionINtNtNtCsl0orcaMmsPI_5gimli4read12endian_slice11EndianSliceNtNtB1M_9endianity12LittleEndianEEE8grow_oneCsjj3dQwFOuTb_3std
libcubeb.so.0:_RNvMs0_NtCs19MuVdBY7V6_5alloc7raw_vecINtB5_6RawVecINtNtNtCsl0orcaMmsPI_5gimli4read4line9FileEntryINtNtBR_12endian_slice11EndianSliceNtNtBT_9endianity12LittleEndianEjEE8grow_oneCsjj3dQwFOuTb_3std
libcubeb.so.0:_RNvMs0_NtCs19MuVdBY7V6_5alloc7raw_vecINtB5_6RawVecINtNtNtCsl0orcaMmsPI_5gimli4read4unit14AttributeValueINtNtBR_12endian_slice11EndianSliceNtNtBT_9endianity12LittleEndianEjEE8grow_oneCsjj3dQwFOuTb_3std
libcubeb.so.0:_RNvMs0_NtCs19MuVdBY7V6_5alloc7raw_vecINtB5_6RawVecNtNtB7_6string6StringE8grow_oneCsjj3dQwFOuTb_3std
libcubeb.so.0:_RNvMs0_NtCs19MuVdBY7V6_5alloc7raw_vecINtB5_6RawVecNtNtCsjj3dQwFOuTb_3std9backtrace14BacktraceFrameE8grow_oneBQ_
libcubeb.so.0:_RNvMs0_NtCs19MuVdBY7V6_5alloc7raw_vecINtB5_6RawVecNtNtCsjj3dQwFOuTb_3std9backtrace15BacktraceSymbolE8grow_oneBQ_
libcubeb.so.0:_RNvMs0_NtCs19MuVdBY7V6_5alloc7raw_vecINtB5_6RawVecNtNtCsl7GZAtFfcQj_9addr2line4line12LineSequenceE8grow_oneCsjj3dQwFOuTb_3std
libcubeb.so.0:_RNvMs0_NtCs19MuVdBY7V6_5alloc7raw_vecINtB5_6RawVecNtNtCsl7GZAtFfcQj_9addr2line4line7LineRowE8grow_oneCsjj3dQwFOuTb_3std
libcubeb.so.0:_RNvMs0_NtCs19MuVdBY7V6_5alloc7raw_vecINtB5_6RawVecNtNtCsl7GZAtFfcQj_9addr2line4unit9UnitRangeE8grow_oneCsjj3dQwFOuTb_3std
libcubeb.so.0:_RNvMs0_NtCs19MuVdBY7V6_5alloc7raw_vecINtB5_6RawVecNtNtCsl7GZAtFfcQj_9addr2line8function15FunctionAddressE8grow_oneCsjj3dQwFOuTb_3std
libcubeb.so.0:_RNvMs0_NtCs19MuVdBY7V6_5alloc7raw_vecINtB5_6RawVecNtNtCsl7GZAtFfcQj_9addr2line8function22InlinedFunctionAddressE8grow_oneCsjj3dQwFOuTb_3std
libcubeb.so.0:_RNvMs0_NtCs19MuVdBY7V6_5alloc7raw_vecINtB5_6RawVecNtNtNtCsjj3dQwFOuTb_3std3ffi6os_str8OsStringE8grow_oneBS_
libcubeb.so.0:_RNvMs0_NtCs19MuVdBY7V6_5alloc7raw_vecINtB5_6RawVecNtNtNtCsl0orcaMmsPI_5gimli4read4line15FileEntryFormatE8grow_oneCsjj3dQwFOuTb_3std
libcubeb.so.0:_RNvMs0_NtCs19MuVdBY7V6_5alloc7raw_vecINtB5_6RawVecNtNtNtCsl0orcaMmsPI_5gimli4read6abbrev12AbbreviationE8grow_oneBS_
libcubeb.so.0:_RNvMs0_NtCs19MuVdBY7V6_5alloc7raw_vecINtB5_6RawVecNtNtNtCsl0orcaMmsPI_5gimli4read6abbrev22AttributeSpecificationE8grow_oneBS_
libcubeb.so.0:_RNvMs0_NtCs19MuVdBY7V6_5alloc7raw_vecINtB5_6RawVecNtNtNtNtCsjj3dQwFOuTb_3std12backtrace_rs9symbolize5gimli7LibraryE8grow_oneBU_
libcubeb.so.0:_RNvMs0_NtCs19MuVdBY7V6_5alloc7raw_vecINtB5_6RawVecNtNtNtNtNtCsjj3dQwFOuTb_3std12backtrace_rs9symbolize5gimli19parse_running_mmaps9MapsEntryE8grow_oneBW_
libcubeb.so.0:_RNvMs0_NtCs19MuVdBY7V6_5alloc7raw_vecINtB5_6RawVecNtNtNtNtNtCsjj3dQwFOuTb_3std12backtrace_rs9symbolize5gimli4mmap4MmapE8grow_oneBW_
libcubeb.so.0:_RNvMs0_NtCs19MuVdBY7V6_5alloc7raw_vecINtB5_6RawVecPaE8grow_oneCsjj3dQwFOuTb_3std
libcubeb.so.0:_RNvMs0_NtCs19MuVdBY7V6_5alloc7raw_vecINtB5_6RawVecRINtNtCsl7GZAtFfcQj_9addr2line8function15InlinedFunctionINtNtNtCsl0orcaMmsPI_5gimli4read12endian_slice11EndianSliceNtNtB1N_9endianity12LittleEndianEEE8grow_oneCsjj3dQwFOuTb_3std
libcubeb.so.0:_RNvMs0_NtCs19MuVdBY7V6_5alloc7raw_vecINtB5_6RawVecTNtNtCsl0orcaMmsPI_5gimli6common15DebugInfoOffsetNtBP_18DebugArangesOffsetEE8grow_oneCsjj3dQwFOuTb_3std
libcubeb.so.0:_RNvMs0_NtCs19MuVdBY7V6_5alloc7raw_vecINtB5_6RawVecTNtNtNtCsjj3dQwFOuTb_3std3ffi6os_str8OsStringBN_EE8grow_oneBT_
libcubeb.so.0:_RNvMs0_NtCs19MuVdBY7V6_5alloc7raw_vecINtB5_6RawVecTOhFUKCBN_EuENtNtCsjj3dQwFOuTb_3std5alloc6SystemE8grow_oneB13_
libcubeb.so.0:_RNvMs0_NtCs19MuVdBY7V6_5alloc7raw_vecINtB5_6RawVechE8grow_oneB7_
libcubeb.so.0:_RNvMs0_NtCs9WsFjTlRn02_4core6escapeINtB5_15EscapeIterInnerKja_NtB5_12MaybeEscapedE4nextCsdQXj5kOXdfq_14rustc_demangle
libcubeb.so.0:_RNvMs0_NtNtCs9WsFjTlRn02_4core3fmt3numo11format_into
libcubeb.so.0:_RNvMs0_NtNtCs9WsFjTlRn02_4core3fmt3numo4__fmt
libcubeb.so.0:_RNvMs0_NtNtCsjj3dQwFOuTb_3std3ffi6os_strNtB5_8OsString17into_boxed_os_str
libcubeb.so.0:_RNvMs0_NtNtCsjj3dQwFOuTb_3std4sync4onceNtB5_4Once10wait_force
libcubeb.so.0:_RNvMs0_NtNtCsjj3dQwFOuTb_3std4sync4onceNtB5_4Once4wait
libcubeb.so.0:_RNvMs0_NtNtCsjj3dQwFOuTb_3std4sync7barrierNtB5_7Barrier4wait
libcubeb.so.0:_RNvMs0_NtNtNtCs9WsFjTlRn02_4core3fmt3num3imph4__fmt
libcubeb.so.0:_RNvMs0_NtNtNtCsjj3dQwFOuTb_3std2os2fd5ownedNtB5_10BorrowedFd18try_clone_to_owned
libcubeb.so.0:_RNvMs0_NtNtNtCsjj3dQwFOuTb_3std3sys6thread4unixNtB5_6Thread3new
libcubeb.so.0:_RNvMs0_NtNtNtCsjj3dQwFOuTb_3std3sys6thread4unixNtB5_6Thread4join
libcubeb.so.0:_RNvMs0_NtNtNtNtCsjj3dQwFOuTb_3std2os4unix3net6streamNtB5_10UnixStream10local_addr
libcubeb.so.0:_RNvMs0_NtNtNtNtCsjj3dQwFOuTb_3std2os4unix3net6streamNtB5_10UnixStream10take_error
libcubeb.so.0:_RNvMs0_NtNtNtNtCsjj3dQwFOuTb_3std2os4unix3net6streamNtB5_10UnixStream12connect_addr
libcubeb.so.0:_RNvMs0_NtNtNtNtCsjj3dQwFOuTb_3std2os4unix3net6streamNtB5_10UnixStream12read_timeout
libcubeb.so.0:_RNvMs0_NtNtNtNtCsjj3dQwFOuTb_3std2os4unix3net6streamNtB5_10UnixStream13write_timeout
libcubeb.so.0:_RNvMs0_NtNtNtNtCsjj3dQwFOuTb_3std2os4unix3net6streamNtB5_10UnixStream15set_nonblocking
libcubeb.so.0:_RNvMs0_NtNtNtNtCsjj3dQwFOuTb_3std2os4unix3net6streamNtB5_10UnixStream16set_read_timeout
libcubeb.so.0:_RNvMs0_NtNtNtNtCsjj3dQwFOuTb_3std2os4unix3net6streamNtB5_10UnixStream17set_write_timeout
libcubeb.so.0:_RNvMs0_NtNtNtNtCsjj3dQwFOuTb_3std2os4unix3net6streamNtB5_10UnixStream28recv_vectored_with_ancillary
libcubeb.so.0:_RNvMs0_NtNtNtNtCsjj3dQwFOuTb_3std2os4unix3net6streamNtB5_10UnixStream28send_vectored_with_ancillary
libcubeb.so.0:_RNvMs0_NtNtNtNtCsjj3dQwFOuTb_3std2os4unix3net6streamNtB5_10UnixStream4pair
libcubeb.so.0:_RNvMs0_NtNtNtNtCsjj3dQwFOuTb_3std2os4unix3net6streamNtB5_10UnixStream4peek
libcubeb.so.0:_RNvMs0_NtNtNtNtCsjj3dQwFOuTb_3std2os4unix3net6streamNtB5_10UnixStream8set_mark
libcubeb.so.0:_RNvMs0_NtNtNtNtCsjj3dQwFOuTb_3std2os4unix3net6streamNtB5_10UnixStream8shutdown
libcubeb.so.0:_RNvMs0_NtNtNtNtCsjj3dQwFOuTb_3std2os4unix3net6streamNtB5_10UnixStream9peer_addr
libcubeb.so.0:_RNvMs0_NtNtNtNtCsjj3dQwFOuTb_3std2os4unix3net6streamNtB5_10UnixStream9peer_cred
libcubeb.so.0:_RNvMs0_NtNtNtNtCsjj3dQwFOuTb_3std2os4unix3net6streamNtB5_10UnixStream9try_clone
libcubeb.so.0:_RNvMs0_NtNtNtNtCsjj3dQwFOuTb_3std2os4unix3net8datagramNtB5_12UnixDatagram10local_addr
libcubeb.so.0:_RNvMs0_NtNtNtNtCsjj3dQwFOuTb_3std2os4unix3net8datagramNtB5_12UnixDatagram10take_error
libcubeb.so.0:_RNvMs0_NtNtNtNtCsjj3dQwFOuTb_3std2os4unix3net8datagramNtB5_12UnixDatagram12connect_addr
libcubeb.so.0:_RNvMs0_NtNtNtNtCsjj3dQwFOuTb_3std2os4unix3net8datagramNtB5_12UnixDatagram12read_timeout
libcubeb.so.0:_RNvMs0_NtNtNtNtCsjj3dQwFOuTb_3std2os4unix3net8datagramNtB5_12UnixDatagram12send_to_addr
libcubeb.so.0:_RNvMs0_NtNtNtNtCsjj3dQwFOuTb_3std2os4unix3net8datagramNtB5_12UnixDatagram13write_timeout
libcubeb.so.0:_RNvMs0_NtNtNtNtCsjj3dQwFOuTb_3std2os4unix3net8datagramNtB5_12UnixDatagram15set_nonblocking
libcubeb.so.0:_RNvMs0_NtNtNtNtCsjj3dQwFOuTb_3std2os4unix3net8datagramNtB5_12UnixDatagram16set_read_timeout
libcubeb.so.0:_RNvMs0_NtNtNtNtCsjj3dQwFOuTb_3std2os4unix3net8datagramNtB5_12UnixDatagram17set_write_timeout
libcubeb.so.0:_RNvMs0_NtNtNtNtCsjj3dQwFOuTb_3std2os4unix3net8datagramNtB5_12UnixDatagram28recv_vectored_with_ancillary
libcubeb.so.0:_RNvMs0_NtNtNtNtCsjj3dQwFOuTb_3std2os4unix3net8datagramNtB5_12UnixDatagram28send_vectored_with_ancillary
libcubeb.so.0:_RNvMs0_NtNtNtNtCsjj3dQwFOuTb_3std2os4unix3net8datagramNtB5_12UnixDatagram33recv_vectored_with_ancillary_from
libcubeb.so.0:_RNvMs0_NtNtNtNtCsjj3dQwFOuTb_3std2os4unix3net8datagramNtB5_12UnixDatagram4pair
libcubeb.so.0:_RNvMs0_NtNtNtNtCsjj3dQwFOuTb_3std2os4unix3net8datagramNtB5_12UnixDatagram4peek
libcubeb.so.0:_RNvMs0_NtNtNtNtCsjj3dQwFOuTb_3std2os4unix3net8datagramNtB5_12UnixDatagram4recv
libcubeb.so.0:_RNvMs0_NtNtNtNtCsjj3dQwFOuTb_3std2os4unix3net8datagramNtB5_12UnixDatagram4send
libcubeb.so.0:_RNvMs0_NtNtNtNtCsjj3dQwFOuTb_3std2os4unix3net8datagramNtB5_12UnixDatagram7unbound
libcubeb.so.0:_RNvMs0_NtNtNtNtCsjj3dQwFOuTb_3std2os4unix3net8datagramNtB5_12UnixDatagram8set_mark
libcubeb.so.0:_RNvMs0_NtNtNtNtCsjj3dQwFOuTb_3std2os4unix3net8datagramNtB5_12UnixDatagram8shutdown
libcubeb.so.0:_RNvMs0_NtNtNtNtCsjj3dQwFOuTb_3std2os4unix3net8datagramNtB5_12UnixDatagram9bind_addr
libcubeb.so.0:_RNvMs0_NtNtNtNtCsjj3dQwFOuTb_3std2os4unix3net8datagramNtB5_12UnixDatagram9peek_from
libcubeb.so.0:_RNvMs0_NtNtNtNtCsjj3dQwFOuTb_3std2os4unix3net8datagramNtB5_12UnixDatagram9peer_addr
libcubeb.so.0:_RNvMs0_NtNtNtNtCsjj3dQwFOuTb_3std2os4unix3net8datagramNtB5_12UnixDatagram9recv_from
libcubeb.so.0:_RNvMs0_NtNtNtNtCsjj3dQwFOuTb_3std2os4unix3net8datagramNtB5_12UnixDatagram9try_clone
libcubeb.so.0:_RNvMs0_NtNtNtNtCsjj3dQwFOuTb_3std3sys4sync4once5futexNtB5_4Once4call
libcubeb.so.0:_RNvMs16_NtCs19MuVdBY7V6_5alloc6stringNtB6_5Drain6as_str
libcubeb.so.0:_RNvMs16_NtCsjj3dQwFOuTb_3std4pathNtB6_4Path10__ends_with
libcubeb.so.0:_RNvMs16_NtCsjj3dQwFOuTb_3std4pathNtB6_4Path10components
libcubeb.so.0:_RNvMs16_NtCsjj3dQwFOuTb_3std4pathNtB6_4Path10is_symlink
libcubeb.so.0:_RNvMs16_NtCsjj3dQwFOuTb_3std4pathNtB6_4Path11file_prefix
libcubeb.so.0:_RNvMs16_NtCsjj3dQwFOuTb_3std4pathNtB6_4Path11is_absolute
libcubeb.so.0:_RNvMs16_NtCsjj3dQwFOuTb_3std4pathNtB6_4Path11to_path_buf
libcubeb.so.0:_RNvMs16_NtCsjj3dQwFOuTb_3std4pathNtB6_4Path12__starts_with
libcubeb.so.0:_RNvMs16_NtCsjj3dQwFOuTb_3std4pathNtB6_4Path13__strip_prefix
libcubeb.so.0:_RNvMs16_NtCsjj3dQwFOuTb_3std4pathNtB6_4Path13into_path_buf
libcubeb.so.0:_RNvMs16_NtCsjj3dQwFOuTb_3std4pathNtB6_4Path15__with_extension
libcubeb.so.0:_RNvMs16_NtCsjj3dQwFOuTb_3std4pathNtB6_4Path15__with_file_name
libcubeb.so.0:_RNvMs16_NtCsjj3dQwFOuTb_3std4pathNtB6_4Path19normalize_lexically
libcubeb.so.0:_RNvMs16_NtCsjj3dQwFOuTb_3std4pathNtB6_4Path5__join
libcubeb.so.0:_RNvMs16_NtCsjj3dQwFOuTb_3std4pathNtB6_4Path6is_dir
libcubeb.so.0:_RNvMs16_NtCsjj3dQwFOuTb_3std4pathNtB6_4Path6parent
libcubeb.so.0:_RNvMs16_NtCsjj3dQwFOuTb_3std4pathNtB6_4Path7is_file
libcubeb.so.0:_RNvMs16_NtCsjj3dQwFOuTb_3std4pathNtB6_4Path9extension
libcubeb.so.0:_RNvMs16_NtCsjj3dQwFOuTb_3std4pathNtB6_4Path9file_name
libcubeb.so.0:_RNvMs16_NtCsjj3dQwFOuTb_3std4pathNtB6_4Path9file_stem
libcubeb.so.0:_RNvMs1_NtNtCs9WsFjTlRn02_4core3fmt3numn11format_into
libcubeb.so.0:_RNvMs1_NtNtCs9WsFjTlRn02_4core3fmt8buildersNtB5_11DebugStruct21finish_non_exhaustive
libcubeb.so.0:_RNvMs1_NtNtCs9WsFjTlRn02_4core3fmt8buildersNtB5_11DebugStruct5field
libcubeb.so.0:_RNvMs1_NtNtCs9WsFjTlRn02_4core3fmt8buildersNtB5_11DebugStruct6finish
libcubeb.so.0:_RNvMs1_NtNtCs9WsFjTlRn02_4core3net6parserNtNtB7_7ip_addr8Ipv4Addr11parse_ascii
libcubeb.so.0:_RNvMs1_NtNtCsjj3dQwFOuTb_3std2io5stdioNtB5_5Stdin4lock
libcubeb.so.0:_RNvMs1_NtNtCsjj3dQwFOuTb_3std2io5stdioNtB5_5Stdin5lines
libcubeb.so.0:_RNvMs1_NtNtCsjj3dQwFOuTb_3std2io5stdioNtB5_5Stdin9read_line
libcubeb.so.0:_RNvMs1_NtNtNtCs9WsFjTlRn02_4core3fmt3num3impa11format_into
libcubeb.so.0:_RNvMs2_NtCs19MuVdBY7V6_5alloc4wtf8NtB5_7Wtf8Buf11into_string
libcubeb.so.0:_RNvMs2_NtCs19MuVdBY7V6_5alloc4wtf8NtB5_7Wtf8Buf17into_string_lossy
libcubeb.so.0:_RNvMs2_NtCs19MuVdBY7V6_5alloc4wtf8NtB5_7Wtf8Buf25push_code_point_unchecked
libcubeb.so.0:_RNvMs2_NtCs19MuVdBY7V6_5alloc4wtf8NtB5_7Wtf8Buf5clear
libcubeb.so.0:_RNvMs2_NtCs19MuVdBY7V6_5alloc4wtf8NtB5_7Wtf8Buf8from_box
libcubeb.so.0:_RNvMs2_NtCs19MuVdBY7V6_5alloc4wtf8NtB5_7Wtf8Buf9from_wide
libcubeb.so.0:_RNvMs2_NtCs19MuVdBY7V6_5alloc7raw_vecNtB5_11RawVecInner10deallocateCsl0orcaMmsPI_5gimli
libcubeb.so.0:_RNvMs2_NtCs19MuVdBY7V6_5alloc7raw_vecNtB5_11RawVecInner11finish_growCsl0orcaMmsPI_5gimli
libcubeb.so.0:_RNvMs2_NtCs19MuVdBY7V6_5alloc7raw_vecNtB5_11RawVecInner14grow_amortizedCsl0orcaMmsPI_5gimli
libcubeb.so.0:_RNvMs2_NtCs19MuVdBY7V6_5alloc7raw_vecNtB5_11RawVecInner15try_allocate_inCsl0orcaMmsPI_5gimli
libcubeb.so.0:_RNvMs2_NtCsjj3dQwFOuTb_3std2fsNtB5_4File11lock_shared
libcubeb.so.0:_RNvMs2_NtCsjj3dQwFOuTb_3std2fsNtB5_4File15set_permissions
libcubeb.so.0:_RNvMs2_NtCsjj3dQwFOuTb_3std2fsNtB5_4File15try_lock_shared
libcubeb.so.0:_RNvMs2_NtCsjj3dQwFOuTb_3std2fsNtB5_4File4lock
libcubeb.so.0:_RNvMs2_NtCsjj3dQwFOuTb_3std2fsNtB5_4File6unlock
libcubeb.so.0:_RNvMs2_NtCsjj3dQwFOuTb_3std2fsNtB5_4File7set_len
libcubeb.so.0:_RNvMs2_NtCsjj3dQwFOuTb_3std2fsNtB5_4File8metadata
libcubeb.so.0:_RNvMs2_NtCsjj3dQwFOuTb_3std2fsNtB5_4File8sync_all
libcubeb.so.0:_RNvMs2_NtCsjj3dQwFOuTb_3std2fsNtB5_4File8try_lock
libcubeb.so.0:_RNvMs2_NtCsjj3dQwFOuTb_3std2fsNtB5_4File9set_times
libcubeb.so.0:_RNvMs2_NtCsjj3dQwFOuTb_3std2fsNtB5_4File9sync_data
libcubeb.so.0:_RNvMs2_NtCsjj3dQwFOuTb_3std2fsNtB5_4File9try_clone
libcubeb.so.0:_RNvMs2_NtCsjj3dQwFOuTb_3std2ioNtB5_10IoSliceMut10into_slice
libcubeb.so.0:_RNvMs2_NtCsjj3dQwFOuTb_3std9backtraceNtB5_9Backtrace13force_capture
libcubeb.so.0:_RNvMs2_NtCsjj3dQwFOuTb_3std9backtraceNtB5_9Backtrace7capture
libcubeb.so.0:_RNvMs2_NtNtCs9WsFjTlRn02_4core3fmt8buildersNtB5_10DebugTuple21finish_non_exhaustive
libcubeb.so.0:_RNvMs2_NtNtCs9WsFjTlRn02_4core3fmt8buildersNtB5_10DebugTuple5field
libcubeb.so.0:_RNvMs2_NtNtCs9WsFjTlRn02_4core3fmt8buildersNtB5_10DebugTuple6finish
libcubeb.so.0:_RNvMs2_NtNtCs9WsFjTlRn02_4core3num6bignumNtB5_8Big32x4010bit_length
libcubeb.so.0:_RNvMs2_NtNtCs9WsFjTlRn02_4core3num6bignumNtB5_8Big32x4010mul_digits
libcubeb.so.0:_RNvMs2_NtNtCs9WsFjTlRn02_4core3num6bignumNtB5_8Big32x4013div_rem_small
libcubeb.so.0:_RNvMs2_NtNtCs9WsFjTlRn02_4core3num6bignumNtB5_8Big32x403add
libcubeb.so.0:_RNvMs2_NtNtCs9WsFjTlRn02_4core3num6bignumNtB5_8Big32x403sub
libcubeb.so.0:_RNvMs2_NtNtCs9WsFjTlRn02_4core3num6bignumNtB5_8Big32x406digits
libcubeb.so.0:_RNvMs2_NtNtCs9WsFjTlRn02_4core3num6bignumNtB5_8Big32x407get_bit
libcubeb.so.0:_RNvMs2_NtNtCs9WsFjTlRn02_4core3num6bignumNtB5_8Big32x407is_zero
libcubeb.so.0:_RNvMs2_NtNtCs9WsFjTlRn02_4core3num6bignumNtB5_8Big32x408from_u64
libcubeb.so.0:_RNvMs2_NtNtCs9WsFjTlRn02_4core3num6bignumNtB5_8Big32x408mul_pow2
libcubeb.so.0:_RNvMs2_NtNtCs9WsFjTlRn02_4core3num6bignumNtB5_8Big32x408mul_pow5
libcubeb.so.0:_RNvMs2_NtNtCs9WsFjTlRn02_4core3num6bignumNtB5_8Big32x409add_small
libcubeb.so.0:_RNvMs2_NtNtCs9WsFjTlRn02_4core3num6bignumNtB5_8Big32x409mul_small
libcubeb.so.0:_RNvMs2_NtNtCsjj3dQwFOuTb_3std2io4pipeNtB5_10PipeReader9try_clone
libcubeb.so.0:_RNvMs2_NtNtNtCs9WsFjTlRn02_4core3fmt3num3imph11format_into
libcubeb.so.0:_RNvMs3_NtCsjj3dQwFOuTb_3std9backtraceNtB5_9Backtrace6frames
libcubeb.so.0:_RNvMs3_NtNtCs9WsFjTlRn02_4core3ffi5c_strNtB5_4CStr19from_bytes_with_nul
libcubeb.so.0:_RNvMs3_NtNtCs9WsFjTlRn02_4core3ffi5c_strNtB5_4CStr20from_bytes_until_nul
libcubeb.so.0:_RNvMs3_NtNtCs9WsFjTlRn02_4core3ffi5c_strNtB5_4CStr6to_str
libcubeb.so.0:_RNvMs3_NtNtCs9WsFjTlRn02_4core3net6parserNtNtB7_7ip_addr8Ipv6Addr11parse_ascii
libcubeb.so.0:_RNvMs3_NtNtCsjj3dQwFOuTb_3std2io4pipeNtB5_10PipeWriter9try_clone
libcubeb.so.0:_RNvMs4_NtNtCs9WsFjTlRn02_4core3fmt8buildersNtB5_8DebugSet21finish_non_exhaustive
libcubeb.so.0:_RNvMs4_NtNtCs9WsFjTlRn02_4core3fmt8buildersNtB5_8DebugSet5entry
libcubeb.so.0:_RNvMs4_NtNtCs9WsFjTlRn02_4core3fmt8buildersNtB5_8DebugSet6finish
libcubeb.so.0:_RNvMs4_NtNtCsl0orcaMmsPI_5gimli4read6abbrevNtB5_13Abbreviations6insert
libcubeb.so.0:_RNvMs5_NtCs19MuVdBY7V6_5alloc4wtf8NtNtCs9WsFjTlRn02_4core4wtf84Wtf810clone_into
libcubeb.so.0:_RNvMs5_NtCs19MuVdBY7V6_5alloc4wtf8NtNtCs9WsFjTlRn02_4core4wtf84Wtf815to_string_lossy
libcubeb.so.0:_RNvMs5_NtCs19MuVdBY7V6_5alloc4wtf8NtNtCs9WsFjTlRn02_4core4wtf84Wtf87into_rc
libcubeb.so.0:_RNvMs5_NtCs19MuVdBY7V6_5alloc4wtf8NtNtCs9WsFjTlRn02_4core4wtf84Wtf88into_arc
libcubeb.so.0:_RNvMs5_NtCs19MuVdBY7V6_5alloc4wtf8NtNtCs9WsFjTlRn02_4core4wtf84Wtf88into_box
libcubeb.so.0:_RNvMs5_NtCs19MuVdBY7V6_5alloc4wtf8NtNtCs9WsFjTlRn02_4core4wtf84Wtf88to_owned
libcubeb.so.0:_RNvMs5_NtCsjj3dQwFOuTb_3std4timeNtB5_10SystemTime11checked_add
libcubeb.so.0:_RNvMs5_NtCsjj3dQwFOuTb_3std4timeNtB5_10SystemTime11checked_sub
libcubeb.so.0:_RNvMs5_NtCsjj3dQwFOuTb_3std4timeNtB5_10SystemTime14duration_since
libcubeb.so.0:_RNvMs5_NtCsjj3dQwFOuTb_3std4timeNtB5_10SystemTime3now
libcubeb.so.0:_RNvMs5_NtCsjj3dQwFOuTb_3std4timeNtB5_10SystemTime7elapsed
libcubeb.so.0:_RNvMs5_NtNtCs9WsFjTlRn02_4core3fmt8buildersNtB5_9DebugList21finish_non_exhaustive
libcubeb.so.0:_RNvMs5_NtNtCs9WsFjTlRn02_4core3fmt8buildersNtB5_9DebugList5entry
libcubeb.so.0:_RNvMs5_NtNtCs9WsFjTlRn02_4core3fmt8buildersNtB5_9DebugList6finish
libcubeb.so.0:_RNvMs5_NtNtCs9WsFjTlRn02_4core3net6parserNtNtB7_11socket_addr12SocketAddrV411parse_ascii
libcubeb.so.0:_RNvMs5_NtNtCsjj3dQwFOuTb_3std2io5errorNtB5_5Error4__new
libcubeb.so.0:_RNvMs5_NtNtCsl0orcaMmsPI_5gimli4read6abbrevNtB5_12Abbreviation3new
libcubeb.so.0:_RNvMs5_NtNtNtCs9WsFjTlRn02_4core3fmt3num3impt4__fmt
libcubeb.so.0:_RNvMs5_NtNtNtNtCsjj3dQwFOuTb_3std2os4unix3net9ancillaryNtB5_15SocketAncillary7add_fds
libcubeb.so.0:_RNvMs5_NtNtNtNtCsjj3dQwFOuTb_3std2os4unix3net9ancillaryNtB5_15SocketAncillary8messages
libcubeb.so.0:_RNvMs5_NtNtNtNtCsjj3dQwFOuTb_3std2os4unix3net9ancillaryNtB5_15SocketAncillary9add_creds
libcubeb.so.0:_RNvMs6_NtNtCs9WsFjTlRn02_4core3fmt8buildersNtB5_8DebugMap21finish_non_exhaustive
libcubeb.so.0:_RNvMs6_NtNtCs9WsFjTlRn02_4core3fmt8buildersNtB5_8DebugMap3key
libcubeb.so.0:_RNvMs6_NtNtCs9WsFjTlRn02_4core3fmt8buildersNtB5_8DebugMap5entry
libcubeb.so.0:_RNvMs6_NtNtCs9WsFjTlRn02_4core3fmt8buildersNtB5_8DebugMap5value
libcubeb.so.0:_RNvMs6_NtNtCs9WsFjTlRn02_4core3fmt8buildersNtB5_8DebugMap6finish
libcubeb.so.0:_RNvMs6_NtNtCsl0orcaMmsPI_5gimli4read6abbrevNtB5_10Attributes4push
libcubeb.so.0:_RNvMs6_NtNtNtCs9WsFjTlRn02_4core3fmt3num3imps11format_into
libcubeb.so.0:_RNvMs6_NtNtNtNtCs19MuVdBY7V6_5alloc11collections5btree3map5entryINtB5_11VacantEntryyNtNtNtCsl0orcaMmsPI_5gimli4read6abbrev12AbbreviationE12insert_entryB1q_
libcubeb.so.0:_RNvMs7_NtNtCs9WsFjTlRn02_4core3net6parserNtNtB7_11socket_addr12SocketAddrV611parse_ascii
libcubeb.so.0:_RNvMs7_NtNtCsjj3dQwFOuTb_3std3net3tcpNtB5_11TcpListener10local_addr
libcubeb.so.0:_RNvMs7_NtNtCsjj3dQwFOuTb_3std3net3tcpNtB5_11TcpListener10take_error
libcubeb.so.0:_RNvMs7_NtNtCsjj3dQwFOuTb_3std3net3tcpNtB5_11TcpListener11set_only_v6
libcubeb.so.0:_RNvMs7_NtNtCsjj3dQwFOuTb_3std3net3tcpNtB5_11TcpListener15set_nonblocking
libcubeb.so.0:_RNvMs7_NtNtCsjj3dQwFOuTb_3std3net3tcpNtB5_11TcpListener3ttl
libcubeb.so.0:_RNvMs7_NtNtCsjj3dQwFOuTb_3std3net3tcpNtB5_11TcpListener6accept
libcubeb.so.0:_RNvMs7_NtNtCsjj3dQwFOuTb_3std3net3tcpNtB5_11TcpListener7only_v6
libcubeb.so.0:_RNvMs7_NtNtCsjj3dQwFOuTb_3std3net3tcpNtB5_11TcpListener7set_ttl
libcubeb.so.0:_RNvMs7_NtNtCsjj3dQwFOuTb_3std3net3tcpNtB5_11TcpListener9try_clone
libcubeb.so.0:_RNvMs7_NtNtNtCs9WsFjTlRn02_4core3fmt3num3impt11format_into
libcubeb.so.0:_RNvMs7_NtNtNtNtCs19MuVdBY7V6_5alloc11collections5btree3map5entryINtB5_13OccupiedEntryyNtNtNtCsl0orcaMmsPI_5gimli4read6abbrev12AbbreviationE8into_mutB1s_
libcubeb.so.0:_RNvMs8_NtCsjj3dQwFOuTb_3std2ioNtB5_7IoSlice8as_slice
libcubeb.so.0:_RNvMs8_NtCsjj3dQwFOuTb_3std4pathNtB5_10Components7as_path
libcubeb.so.0:_RNvMs9_NtNtCs9WsFjTlRn02_4core3net6parserNtNtB7_11socket_addr10SocketAddr11parse_ascii
libcubeb.so.0:_RNvMsA_NtCsjj3dQwFOuTb_3std2fsNtB5_10DirBuilder7__create
libcubeb.so.0:_RNvMsD_NtNtCs19MuVdBY7V6_5alloc3ffi5c_strNtNtNtCs9WsFjTlRn02_4core3ffi5c_str4CStr13into_c_string
libcubeb.so.0:_RNvMsD_NtNtCs19MuVdBY7V6_5alloc3ffi5c_strNtNtNtCs9WsFjTlRn02_4core3ffi5c_str4CStr15to_string_lossy
libcubeb.so.0:_RNvMsJ_NtNtNtCs19MuVdBY7V6_5alloc11collections5btree4nodeINtB5_6HandleINtB5_7NodeRefNtNtB5_6marker3MutyNtNtNtCsl0orcaMmsPI_5gimli4read6abbrev12AbbreviationNtB1m_4LeafENtB1m_4EdgeE10insert_fitB1J_
libcubeb.so.0:_RNvMsL_NtNtNtCs19MuVdBY7V6_5alloc11collections5btree4nodeINtB5_6HandleINtB5_7NodeRefNtNtB5_6marker3MutyNtNtNtCsl0orcaMmsPI_5gimli4read6abbrev12AbbreviationNtB1m_8InternalENtB1m_4EdgeE19correct_parent_linkB1J_
libcubeb.so.0:_RNvMsM_NtNtNtCs19MuVdBY7V6_5alloc11collections5btree4nodeINtB5_6HandleINtB5_7NodeRefNtNtB5_6marker3MutyNtNtNtCsl0orcaMmsPI_5gimli4read6abbrev12AbbreviationNtB1m_8InternalENtB1m_4EdgeE10insert_fitB1J_
libcubeb.so.0:_RNvMsN_NtCsjj3dQwFOuTb_3std7processNtB5_15ExitStatusError12code_nonzero
libcubeb.so.0:_RNvMsN_NtCsjj3dQwFOuTb_3std7processNtB5_15ExitStatusError4code
libcubeb.so.0:_RNvMsO_NtNtNtCs19MuVdBY7V6_5alloc11collections5btree4nodeINtB5_6HandleINtB5_7NodeRefNtNtB5_6marker3MutyNtNtNtCsl0orcaMmsPI_5gimli4read6abbrev12AbbreviationNtB1m_8InternalENtB1m_4EdgeE7descendB1J_
libcubeb.so.0:_RNvMsO_NtNtNtCs19MuVdBY7V6_5alloc11collections5btree4nodeINtB5_6HandleINtB5_7NodeRefNtNtB5_6marker5ImmutyNtNtNtCsl0orcaMmsPI_5gimli4read6abbrev12AbbreviationNtB1m_8InternalENtB1m_4EdgeE7descendB1L_
libcubeb.so.0:_RNvMsP_NtNtNtCs19MuVdBY7V6_5alloc11collections5btree4nodeINtB5_6HandleINtB5_7NodeRefNtNtB5_6marker5ImmutyNtNtNtCsl0orcaMmsPI_5gimli4read6abbrev12AbbreviationNtB1m_14LeafOrInternalENtB1m_2KVE7into_kvB1L_
libcubeb.so.0:_RNvMsQ_NtNtNtCs19MuVdBY7V6_5alloc11collections5btree4nodeINtB5_6HandleINtB5_7NodeRefNtNtB5_6marker3MutyNtNtNtCsl0orcaMmsPI_5gimli4read6abbrev12AbbreviationNtB1m_14LeafOrInternalENtB1m_2KVE12into_val_mutB1J_
libcubeb.so.0:_RNvMsS_NtCsjj3dQwFOuTb_3std7processNtB5_8ExitCode12exit_process
libcubeb.so.0:_RNvMsU_NtNtNtCs19MuVdBY7V6_5alloc11collections5btree4nodeINtB5_6HandleINtB5_7NodeRefNtNtB5_6marker3MutyNtNtNtCsl0orcaMmsPI_5gimli4read6abbrev12AbbreviationNtB1m_4LeafENtB1m_2KVE15split_leaf_dataB1J_
libcubeb.so.0:_RNvMsU_NtNtNtCs19MuVdBY7V6_5alloc11collections5btree4nodeINtB5_6HandleINtB5_7NodeRefNtNtB5_6marker3MutyNtNtNtCsl0orcaMmsPI_5gimli4read6abbrev12AbbreviationNtB1m_8InternalENtB1m_2KVE15split_leaf_dataB1J_
libcubeb.so.0:_RNvMsY_NtCsjj3dQwFOuTb_3std7processNtB5_5Child16wait_with_output
libcubeb.so.0:_RNvMsY_NtCsjj3dQwFOuTb_3std7processNtB5_5Child4kill
libcubeb.so.0:_RNvMsY_NtCsjj3dQwFOuTb_3std7processNtB5_5Child4wait
libcubeb.so.0:_RNvMsY_NtCsjj3dQwFOuTb_3std7processNtB5_5Child8try_wait
libcubeb.so.0:_RNvMs_NtCs19MuVdBY7V6_5alloc3vecINtB4_3VechE7reserveCsl7GZAtFfcQj_9addr2line
libcubeb.so.0:_RNvMs_NtCs19MuVdBY7V6_5alloc5boxedINtB4_3BoxINtNtNtNtB6_11collections5btree4node12InternalNodeyNtNtNtCsl0orcaMmsPI_5gimli4read6abbrev12AbbreviationEE13new_uninit_inB1B_
libcubeb.so.0:_RNvMs_NtCs19MuVdBY7V6_5alloc5boxedINtB4_3BoxINtNtNtNtB6_11collections5btree4node12InternalNodeyNtNtNtCsl0orcaMmsPI_5gimli4read6abbrev12AbbreviationEE17try_new_uninit_inB1B_
libcubeb.so.0:_RNvMs_NtCs19MuVdBY7V6_5alloc5boxedINtB4_3BoxINtNtNtNtB6_11collections5btree4node8LeafNodeyNtNtNtCsl0orcaMmsPI_5gimli4read6abbrev12AbbreviationEE13new_uninit_inB1w_
libcubeb.so.0:_RNvMs_NtCs19MuVdBY7V6_5alloc5boxedINtB4_3BoxINtNtNtNtB6_11collections5btree4node8LeafNodeyNtNtNtCsl0orcaMmsPI_5gimli4read6abbrev12AbbreviationEE17try_new_uninit_inB1w_
libcubeb.so.0:_RNvMs_NtCs19MuVdBY7V6_5alloc6stringNtB4_13FromUtf8Error15into_utf8_lossy
libcubeb.so.0:_RNvMs_NtCs19MuVdBY7V6_5alloc6stringNtB4_13FromUtf8Error8as_bytes
libcubeb.so.0:_RNvMs_NtCs9WsFjTlRn02_4core3fmtNtB4_17FormattingOptions8get_fill
libcubeb.so.0:_RNvMs_NtCsl0orcaMmsPI_5gimli4readNtB4_5Error11description
libcubeb.so.0:_RNvMs_NtCsl7GZAtFfcQj_9addr2line4lineNtB4_5Lines13find_location
libcubeb.so.0:_RNvMs_NtCsl7GZAtFfcQj_9addr2line4lineNtB4_5Lines19find_location_range
libcubeb.so.0:_RNvMs_NtNtCs19MuVdBY7V6_5alloc3ffi5c_strNtB4_7CString10into_bytes
libcubeb.so.0:_RNvMs_NtNtCs19MuVdBY7V6_5alloc3ffi5c_strNtB4_7CString11into_string
libcubeb.so.0:_RNvMs_NtNtCs19MuVdBY7V6_5alloc3ffi5c_strNtB4_7CString16into_boxed_c_str
libcubeb.so.0:_RNvMs_NtNtCs19MuVdBY7V6_5alloc3ffi5c_strNtB4_7CString17from_vec_with_nul
libcubeb.so.0:_RNvMs_NtNtCs19MuVdBY7V6_5alloc3ffi5c_strNtB4_7CString18from_vec_unchecked
libcubeb.so.0:_RNvMs_NtNtCs19MuVdBY7V6_5alloc3ffi5c_strNtB4_7CString19__from_vec_unchecked
libcubeb.so.0:_RNvMs_NtNtCs19MuVdBY7V6_5alloc3ffi5c_strNtB4_7CString19into_bytes_with_nul
libcubeb.so.0:_RNvMs_NtNtCs19MuVdBY7V6_5alloc3ffi5c_strNtB4_7CString27from_vec_with_nul_unchecked
libcubeb.so.0:_RNvMs_NtNtCs19MuVdBY7V6_5alloc3ffi5c_strNtB4_7CString8from_raw
libcubeb.so.0:_RNvMs_NtNtCs9WsFjTlRn02_4core3fmt8buildersNtB4_10PadAdapter4wrap
libcubeb.so.0:_RNvMs_NtNtCs9WsFjTlRn02_4core3net6parserNtNtB6_7ip_addr6IpAddr11parse_ascii
libcubeb.so.0:_RNvMs_NtNtCs9WsFjTlRn02_4core3num3fmtNtB4_9Formatted3len
libcubeb.so.0:_RNvMs_NtNtCs9WsFjTlRn02_4core3num3fmtNtB4_9Formatted5write
libcubeb.so.0:_RNvMs_NtNtCsjj3dQwFOuTb_3std12backtrace_rs9symbolizeNtB4_6Symbol12filename_raw
libcubeb.so.0:_RNvMs_NtNtCsjj3dQwFOuTb_3std12backtrace_rs9symbolizeNtB4_6Symbol4name
libcubeb.so.0:_RNvMs_NtNtCsjj3dQwFOuTb_3std6thread6threadNtB4_6Thread12park_timeout
libcubeb.so.0:_RNvMs_NtNtCsjj3dQwFOuTb_3std6thread6threadNtB4_6Thread3new
libcubeb.so.0:_RNvMs_NtNtCsjj3dQwFOuTb_3std6thread6threadNtB4_6Thread4name
libcubeb.so.0:_RNvMs_NtNtCsjj3dQwFOuTb_3std6thread6threadNtB4_6Thread4park
libcubeb.so.0:_RNvMs_NtNtCsjj3dQwFOuTb_3std6thread6threadNtB4_6Thread8from_raw
libcubeb.so.0:_RNvMs_NtNtCsjj3dQwFOuTb_3std6thread9spawnhookNtB4_15ChildSpawnHooks3run
libcubeb.so.0:_RNvMs_NtNtNtCs9WsFjTlRn02_4core3num7dec2flt11decimal_seqNtB4_10DecimalSeq10left_shift
libcubeb.so.0:_RNvMs_NtNtNtCs9WsFjTlRn02_4core3num7dec2flt11decimal_seqNtB4_10DecimalSeq11right_shift
libcubeb.so.0:_RNvMs_NtNtNtCs9WsFjTlRn02_4core3num7dec2flt11decimal_seqNtB4_10DecimalSeq4trim
libcubeb.so.0:_RNvMs_NtNtNtCs9WsFjTlRn02_4core3num7dec2flt11decimal_seqNtB4_10DecimalSeq5round
libcubeb.so.0:_RNvMs_NtNtNtCsjj3dQwFOuTb_3std2io8buffered9bufwriterINtB4_9BufWriterNtNtB8_5stdio9StdoutRawE10write_coldBa_
libcubeb.so.0:_RNvMs_NtNtNtCsjj3dQwFOuTb_3std2io8buffered9bufwriterINtB4_9BufWriterNtNtB8_5stdio9StdoutRawE14write_all_coldBa_
libcubeb.so.0:_RNvMs_NtNtNtCsjj3dQwFOuTb_3std2os2fd5ownedNtB4_7OwnedFd9try_clone
libcubeb.so.0:_RNvMs_NtNtNtCsjj3dQwFOuTb_3std3sys7process3envNtB4_10CommandEnv3set
libcubeb.so.0:_RNvMs_NtNtNtCsjj3dQwFOuTb_3std3sys7process3envNtB4_10CommandEnv6remove
libcubeb.so.0:_RNvMs_NtNtNtNtCsjj3dQwFOuTb_3std2os4unix3net8listenerNtB4_12UnixListener10local_addr
libcubeb.so.0:_RNvMs_NtNtNtNtCsjj3dQwFOuTb_3std2os4unix3net8listenerNtB4_12UnixListener10take_error
libcubeb.so.0:_RNvMs_NtNtNtNtCsjj3dQwFOuTb_3std2os4unix3net8listenerNtB4_12UnixListener15set_nonblocking
libcubeb.so.0:_RNvMs_NtNtNtNtCsjj3dQwFOuTb_3std2os4unix3net8listenerNtB4_12UnixListener6accept
libcubeb.so.0:_RNvMs_NtNtNtNtCsjj3dQwFOuTb_3std2os4unix3net8listenerNtB4_12UnixListener9bind_addr
libcubeb.so.0:_RNvMs_NtNtNtNtCsjj3dQwFOuTb_3std2os4unix3net8listenerNtB4_12UnixListener9try_clone
libcubeb.so.0:_RNvMs_NtNtNtNtCsjj3dQwFOuTb_3std3sys7process4unix6commonNtB4_7Command3arg
libcubeb.so.0:_RNvMs_NtNtNtNtCsjj3dQwFOuTb_3std3sys7process4unix6commonNtB4_7Command3cwd
libcubeb.so.0:_RNvMs_NtNtNtNtCsjj3dQwFOuTb_3std3sys7process4unix6commonNtB4_7Command3new
libcubeb.so.0:_RNvMs_NtNtNtNtCsjj3dQwFOuTb_3std3sys7process4unix6commonNtB4_7Command5stdin
libcubeb.so.0:_RNvMs_NtNtNtNtCsjj3dQwFOuTb_3std3sys7process4unix6commonNtB4_7Command6chroot
libcubeb.so.0:_RNvMs_NtNtNtNtCsjj3dQwFOuTb_3std3sys7process4unix6commonNtB4_7Command6stderr
libcubeb.so.0:_RNvMs_NtNtNtNtCsjj3dQwFOuTb_3std3sys7process4unix6commonNtB4_7Command6stdout
libcubeb.so.0:_RNvMs_NtNtNtNtCsjj3dQwFOuTb_3std3sys7process4unix6commonNtB4_7Command8pre_exec
libcubeb.so.0:_RNvMs_NtNtNtNtCsjj3dQwFOuTb_3std3sys7process4unix6commonNtB4_7Command9set_arg_0
libcubeb.so.0:_RNvMsa_NtCs9WsFjTlRn02_4core3fmtNtB5_9Formatter10debug_list
libcubeb.so.0:_RNvMsa_NtCs9WsFjTlRn02_4core3fmtNtB5_9Formatter11debug_tuple
libcubeb.so.0:_RNvMsa_NtCs9WsFjTlRn02_4core3fmtNtB5_9Formatter12debug_struct
libcubeb.so.0:_RNvMsa_NtCs9WsFjTlRn02_4core3fmtNtB5_9Formatter12pad_integral
libcubeb.so.0:_RNvMsa_NtCs9WsFjTlRn02_4core3fmtNtB5_9Formatter25debug_tuple_field1_finish
libcubeb.so.0:_RNvMsa_NtCs9WsFjTlRn02_4core3fmtNtB5_9Formatter25debug_tuple_field2_finish
libcubeb.so.0:_RNvMsa_NtCs9WsFjTlRn02_4core3fmtNtB5_9Formatter25debug_tuple_field3_finish
libcubeb.so.0:_RNvMsa_NtCs9WsFjTlRn02_4core3fmtNtB5_9Formatter25debug_tuple_field4_finish
libcubeb.so.0:_RNvMsa_NtCs9WsFjTlRn02_4core3fmtNtB5_9Formatter25debug_tuple_field5_finish
libcubeb.so.0:_RNvMsa_NtCs9WsFjTlRn02_4core3fmtNtB5_9Formatter25debug_tuple_fields_finish
libcubeb.so.0:_RNvMsa_NtCs9WsFjTlRn02_4core3fmtNtB5_9Formatter26debug_struct_field1_finish
libcubeb.so.0:_RNvMsa_NtCs9WsFjTlRn02_4core3fmtNtB5_9Formatter26debug_struct_field2_finish
libcubeb.so.0:_RNvMsa_NtCs9WsFjTlRn02_4core3fmtNtB5_9Formatter26debug_struct_field3_finish
libcubeb.so.0:_RNvMsa_NtCs9WsFjTlRn02_4core3fmtNtB5_9Formatter26debug_struct_field4_finish
libcubeb.so.0:_RNvMsa_NtCs9WsFjTlRn02_4core3fmtNtB5_9Formatter26debug_struct_field5_finish
libcubeb.so.0:_RNvMsa_NtCs9WsFjTlRn02_4core3fmtNtB5_9Formatter26debug_struct_fields_finish
libcubeb.so.0:_RNvMsa_NtCs9WsFjTlRn02_4core3fmtNtB5_9Formatter3pad
libcubeb.so.0:_RNvMsa_NtCs9WsFjTlRn02_4core3fmtNtB5_9Formatter4fill
libcubeb.so.0:_RNvMsa_NtCs9WsFjTlRn02_4core3fmtNtB5_9Formatter9debug_map
libcubeb.so.0:_RNvMsa_NtCs9WsFjTlRn02_4core3fmtNtB5_9Formatter9debug_set
libcubeb.so.0:_RNvMsa_NtCs9WsFjTlRn02_4core3fmtNtB5_9Formatter9write_str
libcubeb.so.0:_RNvMsa_NtNtCsjj3dQwFOuTb_3std2io5stdioNtB5_6Stdout4lock
libcubeb.so.0:_RNvMsa_NtNtNtCs9WsFjTlRn02_4core3fmt3num3impm4__fmt
libcubeb.so.0:_RNvMsa_NtNtNtNtCsjj3dQwFOuTb_3std3sys3net10connection6socketNtB5_9UdpSocket7send_to
libcubeb.so.0:_RNvMsb_NtNtNtCs9WsFjTlRn02_4core3fmt3num3impl11format_into
libcubeb.so.0:_RNvMsc_NtNtNtCs9WsFjTlRn02_4core3fmt3num3impm11format_into
libcubeb.so.0:_RNvMsf_NtNtNtCs9WsFjTlRn02_4core3fmt3num3impy4__fmt
libcubeb.so.0:_RNvMsg_NtCsjj3dQwFOuTb_3std2fsNtB5_11OpenOptions5__open
libcubeb.so.0:_RNvMsg_NtNtNtCs19MuVdBY7V6_5alloc11collections5btree4nodeINtB5_7NodeRefNtNtB5_6marker5ImmutyNtNtNtCsl0orcaMmsPI_5gimli4read6abbrev12AbbreviationNtB19_14LeafOrInternalE4keysB1y_
libcubeb.so.0:_RNvMsg_NtNtNtCs9WsFjTlRn02_4core3fmt3num3impx11format_into
libcubeb.so.0:_RNvMsh_NtNtNtCs9WsFjTlRn02_4core3fmt3num3impy11format_into
libcubeb.so.0:_RNvMsi_NtNtNtCs19MuVdBY7V6_5alloc11collections5btree3mapINtB5_8BTreeMapyNtNtNtCsl0orcaMmsPI_5gimli4read6abbrev12AbbreviationE5entryB1e_
libcubeb.so.0:_RNvMsi_NtNtNtCsjj3dQwFOuTb_3std3sys2fs4unixNtB5_4File13read_vectored
libcubeb.so.0:_RNvMsi_NtNtNtCsjj3dQwFOuTb_3std3sys2fs4unixNtB5_4File4read
libcubeb.so.0:_RNvMsi_NtNtNtCsjj3dQwFOuTb_3std3sys2fs4unixNtB5_4File8read_buf
libcubeb.so.0:_RNvMsj_NtCsjj3dQwFOuTb_3std2fsNtB5_8Metadata7created
libcubeb.so.0:_RNvMsj_NtCsjj3dQwFOuTb_3std2fsNtB5_8Metadata8accessed
libcubeb.so.0:_RNvMsj_NtCsjj3dQwFOuTb_3std2fsNtB5_8Metadata8modified
libcubeb.so.0:_RNvMsk_NtCsjj3dQwFOuTb_3std7processNtB5_7Command11get_program
libcubeb.so.0:_RNvMsk_NtCsjj3dQwFOuTb_3std7processNtB5_7Command15get_current_dir
libcubeb.so.0:_RNvMsk_NtCsjj3dQwFOuTb_3std7processNtB5_7Command5spawn
libcubeb.so.0:_RNvMsk_NtCsjj3dQwFOuTb_3std7processNtB5_7Command6output
libcubeb.so.0:_RNvMsk_NtCsjj3dQwFOuTb_3std7processNtB5_7Command6status
libcubeb.so.0:_RNvMsk_NtCsjj3dQwFOuTb_3std7processNtB5_7Command8get_args
libcubeb.so.0:_RNvMsk_NtCsjj3dQwFOuTb_3std7processNtB5_7Command9env_clear
libcubeb.so.0:_RNvMsk_NtNtCsjj3dQwFOuTb_3std2io5stdioNtB5_6Stderr4lock
libcubeb.so.0:_RNvMsk_NtNtNtCs9WsFjTlRn02_4core3fmt3num3impj4__fmt
libcubeb.so.0:_RNvMsl_NtNtCsjj3dQwFOuTb_3std3ffi6os_strNtB5_5OsStr14into_os_string
libcubeb.so.0:_RNvMsl_NtNtCsjj3dQwFOuTb_3std3ffi6os_strNtB5_5OsStr18to_ascii_lowercase
libcubeb.so.0:_RNvMsl_NtNtCsjj3dQwFOuTb_3std3ffi6os_strNtB5_5OsStr18to_ascii_uppercase
libcubeb.so.0:_RNvMsl_NtNtNtCs9WsFjTlRn02_4core3fmt3num3impi11format_into
libcubeb.so.0:_RNvMsm_NtNtNtCs9WsFjTlRn02_4core3fmt3num3impj11format_into
libcubeb.so.0:_RNvMsn_NtCs19MuVdBY7V6_5alloc4syncINtB5_3ArcINtNtNtCsl0orcaMmsPI_5gimli4read5dwarf5DwarfINtNtBL_12endian_slice11EndianSliceNtNtBN_9endianity12LittleEndianEEE9drop_slowCsjj3dQwFOuTb_3std
libcubeb.so.0:_RNvMsn_NtCs19MuVdBY7V6_5alloc4syncINtB5_3ArcINtNtNtNtCsjj3dQwFOuTb_3std4sync6poison5mutex5MutexINtNtB7_3vec3VechEEE9drop_slowBP_
libcubeb.so.0:_RNvMsn_NtCs19MuVdBY7V6_5alloc4syncINtB5_3ArcNtNtNtCsjj3dQwFOuTb_3std6thread6thread5InnerNtNtBM_5alloc6SystemE9drop_slowBM_
libcubeb.so.0:_RNvMsn_NtCs19MuVdBY7V6_5alloc4syncINtB5_3ArcNtNtNtCsjj3dQwFOuTb_3std6thread9spawnhook9SpawnHookE9drop_slowBM_
libcubeb.so.0:_RNvMsn_NtCs19MuVdBY7V6_5alloc4syncINtB5_3ArcNtNtNtCsl0orcaMmsPI_5gimli4read6abbrev13AbbreviationsE9drop_slowCsjj3dQwFOuTb_3std
libcubeb.so.0:_RNvMsn_NtCs19MuVdBY7V6_5alloc4syncINtB5_3ArcNtNtNtNtCsjj3dQwFOuTb_3std3sys2fs4unix12InnerReadDirE9drop_slowBO_
libcubeb.so.0:_RNvMsr_NtCsjj3dQwFOuTb_3std4pathNtB5_7PathBuf14__add_extension
libcubeb.so.0:_RNvMsr_NtCsjj3dQwFOuTb_3std4pathNtB5_7PathBuf14__set_extension
libcubeb.so.0:_RNvMsr_NtCsjj3dQwFOuTb_3std4pathNtB5_7PathBuf14__set_file_name
libcubeb.so.0:_RNvMsr_NtCsjj3dQwFOuTb_3std4pathNtB5_7PathBuf16pop_trailing_sep
libcubeb.so.0:_RNvMsr_NtCsjj3dQwFOuTb_3std4pathNtB5_7PathBuf16set_trailing_sep
libcubeb.so.0:_RNvMsr_NtCsjj3dQwFOuTb_3std4pathNtB5_7PathBuf17push_trailing_sep
libcubeb.so.0:_RNvMsr_NtCsjj3dQwFOuTb_3std4pathNtB5_7PathBuf3pop
libcubeb.so.0:_RNvMsr_NtCsjj3dQwFOuTb_3std4pathNtB5_7PathBuf5__push
libcubeb.so.0:_RNvMst_NtCsjj3dQwFOuTb_3std7processNtB5_6Output7exit_ok
libcubeb.so.0:_RNvMsu_NtNtCs9WsFjTlRn02_4core3str7patternNtB5_11StrSearcher3new
libcubeb.so.0:_RNvMsu_NtNtNtCs19MuVdBY7V6_5alloc11collections5btree4nodeINtB5_7NodeRefNtNtB5_6marker3MutyNtNtNtCsl0orcaMmsPI_5gimli4read6abbrev12AbbreviationNtB19_4LeafE16push_with_handleB1w_
libcubeb.so.0:_RNvMsv_NtNtNtCs19MuVdBY7V6_5alloc11collections5btree4nodeINtB5_7NodeRefNtNtB5_6marker3MutyNtNtNtCsl0orcaMmsPI_5gimli4read6abbrev12AbbreviationNtB19_8InternalE4pushB1w_
libcubeb.so.0:_RNvMsx_NtCsjj3dQwFOuTb_3std2fsNtB5_8DirEntry4path
libcubeb.so.0:_RNvMsx_NtCsjj3dQwFOuTb_3std2fsNtB5_8DirEntry8metadata
libcubeb.so.0:_RNvMsx_NtCsjj3dQwFOuTb_3std2fsNtB5_8DirEntry9file_name
libcubeb.so.0:_RNvMsx_NtCsjj3dQwFOuTb_3std2fsNtB5_8DirEntry9file_type
libcubeb.so.0:_RNvNCNKNvNtNtCsjj3dQwFOuTb_3std6thread9spawnhook11SPAWN_HOOKS0023___RUST_STD_INTERNAL_VAL
libcubeb.so.0:_RNvNCNKNvNvMNtNtCsjj3dQwFOuTb_3std4hash6randomNtBa_11RandomState3new4KEYS0s_023___RUST_STD_INTERNAL_VAL
libcubeb.so.0:_RNvNCNKNvNvMNtNtNtCsjj3dQwFOuTb_3std4sync4mpmc7contextNtBa_7Context4with7CONTEXT0023___RUST_STD_INTERNAL_VAL
libcubeb.so.0:_RNvNCNKNvNvNtNtNtCsjj3dQwFOuTb_3std4sync4mpmc5waker17current_thread_id5DUMMY0s_023___RUST_STD_INTERNAL_VAL
libcubeb.so.0:_RNvNCNvNtNtCsjj3dQwFOuTb_3std6thread9lifecycle15spawn_unchecked03MIN
libcubeb.so.0:_RNvNtCs19MuVdBY7V6_5alloc2rc32rc_inner_layout_for_value_layout
libcubeb.so.0:_RNvNtCs19MuVdBY7V6_5alloc4sync18STATIC_INNER_SLICE
libcubeb.so.0:_RNvNtCs19MuVdBY7V6_5alloc4sync32arcinner_layout_for_value_layout
libcubeb.so.0:_RNvNtCs19MuVdBY7V6_5alloc5alloc18handle_alloc_error
libcubeb.so.0:_RNvNtCs19MuVdBY7V6_5alloc7raw_vec12handle_error
libcubeb.so.0:_RNvNtCs9WsFjTlRn02_4core3fmt17pointer_fmt_inner
libcubeb.so.0:_RNvNtCs9WsFjTlRn02_4core3fmt5write
libcubeb.so.0:_RNvNtCs9WsFjTlRn02_4core3num22from_ascii_radix_panic
libcubeb.so.0:_RNvNtCs9WsFjTlRn02_4core3str16slice_error_fail
libcubeb.so.0:_RNvNtCs9WsFjTlRn02_4core3str19slice_error_fail_ct
libcubeb.so.0:_RNvNtCs9WsFjTlRn02_4core3str19slice_error_fail_rt
libcubeb.so.0:_RNvNtCs9WsFjTlRn02_4core4cell22panic_already_borrowed
libcubeb.so.0:_RNvNtCs9WsFjTlRn02_4core4cell30panic_already_mutably_borrowed
libcubeb.so.0:_RNvNtCs9WsFjTlRn02_4core4wtf816slice_error_fail
libcubeb.so.0:_RNvNtCs9WsFjTlRn02_4core5ascii14escape_default
libcubeb.so.0:_RNvNtCs9WsFjTlRn02_4core6option13expect_failed
libcubeb.so.0:_RNvNtCs9WsFjTlRn02_4core6option13unwrap_failed
libcubeb.so.0:_RNvNtCs9WsFjTlRn02_4core6result13unwrap_failed
libcubeb.so.0:_RNvNtCs9WsFjTlRn02_4core9panicking14panic_nounwind
libcubeb.so.0:_RNvNtCs9WsFjTlRn02_4core9panicking15const_panic_fmt
libcubeb.so.0:_RNvNtCs9WsFjTlRn02_4core9panicking16panic_in_cleanup
libcubeb.so.0:_RNvNtCs9WsFjTlRn02_4core9panicking18panic_bounds_check
libcubeb.so.0:_RNvNtCs9WsFjTlRn02_4core9panicking18panic_nounwind_fmt
libcubeb.so.0:_RNvNtCs9WsFjTlRn02_4core9panicking19assert_failed_inner
libcubeb.so.0:_RNvNtCs9WsFjTlRn02_4core9panicking19panic_cannot_unwind
libcubeb.so.0:_RNvNtCs9WsFjTlRn02_4core9panicking26panic_nounwind_nobacktrace
libcubeb.so.0:_RNvNtCs9WsFjTlRn02_4core9panicking30panic_null_pointer_dereference
libcubeb.so.0:_RNvNtCs9WsFjTlRn02_4core9panicking31panic_invalid_enum_construction
libcubeb.so.0:_RNvNtCs9WsFjTlRn02_4core9panicking36panic_misaligned_pointer_dereference
libcubeb.so.0:_RNvNtCs9WsFjTlRn02_4core9panicking5panic
libcubeb.so.0:_RNvNtCs9WsFjTlRn02_4core9panicking9panic_fmt
libcubeb.so.0:_RNvNtCsbW7JIls3BXH_11miniz_oxide6shared14update_adler32
libcubeb.so.0:_RNvNtCsjj3dQwFOuTb_3std2rt19lang_start_internal
libcubeb.so.0:_RNvNtCsjj3dQwFOuTb_3std3env11current_dir
libcubeb.so.0:_RNvNtCsjj3dQwFOuTb_3std3env11current_exe
libcubeb.so.0:_RNvNtCsjj3dQwFOuTb_3std3env4__var
libcubeb.so.0:_RNvNtCsjj3dQwFOuTb_3std3env4args
libcubeb.so.0:_RNvNtCsjj3dQwFOuTb_3std3env4vars
libcubeb.so.0:_RNvNtCsjj3dQwFOuTb_3std3env7__var_os
libcubeb.so.0:_RNvNtCsjj3dQwFOuTb_3std3env7args_os
libcubeb.so.0:_RNvNtCsjj3dQwFOuTb_3std3env7vars_os
libcubeb.so.0:_RNvNtCsjj3dQwFOuTb_3std3env8home_dir
libcubeb.so.0:_RNvNtCsjj3dQwFOuTb_3std3env8temp_dir
libcubeb.so.0:_RNvNtCsjj3dQwFOuTb_3std4path18compare_components
libcubeb.so.0:_RNvNtCsjj3dQwFOuTb_3std5alloc20set_alloc_error_hook
libcubeb.so.0:_RNvNtCsjj3dQwFOuTb_3std5alloc24default_alloc_error_hook
libcubeb.so.0:_RNvNtCsjj3dQwFOuTb_3std5alloc4HOOK
libcubeb.so.0:_RNvNtCsjj3dQwFOuTb_3std5alloc8rust_oom
libcubeb.so.0:_RNvNtCsjj3dQwFOuTb_3std5panic13resume_unwind
libcubeb.so.0:_RNvNtCsjj3dQwFOuTb_3std5panic19get_backtrace_style
libcubeb.so.0:_RNvNtCsjj3dQwFOuTb_3std5panic19set_backtrace_style
libcubeb.so.0:_RNvNtCsjj3dQwFOuTb_3std7process2id
libcubeb.so.0:_RNvNtCsjj3dQwFOuTb_3std7process4exit
libcubeb.so.0:_RNvNtCsjj3dQwFOuTb_3std7process5abort
libcubeb.so.0:_RNvNtCsjj3dQwFOuTb_3std9panicking11EMPTY_PANIC
libcubeb.so.0:_RNvNtCsjj3dQwFOuTb_3std9panicking12default_hook
libcubeb.so.0:_RNvNtCsjj3dQwFOuTb_3std9panicking14payload_as_str
libcubeb.so.0:_RNvNtCsjj3dQwFOuTb_3std9panicking15panic_with_hook
libcubeb.so.0:_RNvNtCsjj3dQwFOuTb_3std9panicking4HOOK
libcubeb.so.0:_RNvNtCsjj3dQwFOuTb_3std9panicking8set_hook
libcubeb.so.0:_RNvNtCsjj3dQwFOuTb_3std9panicking9take_hook
libcubeb.so.0:_RNvNtCsl7GZAtFfcQj_9addr2line4line9path_push
libcubeb.so.0:_RNvNtCsl7GZAtFfcQj_9addr2line5frame13demangle_auto
libcubeb.so.0:_RNvNtNtCs9WsFjTlRn02_4core3num14overflow_panic3add
libcubeb.so.0:_RNvNtNtCs9WsFjTlRn02_4core3num14overflow_panic3div
libcubeb.so.0:_RNvNtNtCs9WsFjTlRn02_4core3num14overflow_panic3mul
libcubeb.so.0:_RNvNtNtCs9WsFjTlRn02_4core3num14overflow_panic3neg
libcubeb.so.0:_RNvNtNtCs9WsFjTlRn02_4core3num14overflow_panic3rem
libcubeb.so.0:_RNvNtNtCs9WsFjTlRn02_4core3num14overflow_panic3shl
libcubeb.so.0:_RNvNtNtCs9WsFjTlRn02_4core3num14overflow_panic3shr
libcubeb.so.0:_RNvNtNtCs9WsFjTlRn02_4core3num14overflow_panic3sub
libcubeb.so.0:_RNvNtNtCs9WsFjTlRn02_4core3num7flt2dec17digits_to_dec_str
libcubeb.so.0:_RNvNtNtCs9WsFjTlRn02_4core3num7flt2dec17digits_to_exp_str
libcubeb.so.0:_RNvNtNtCs9WsFjTlRn02_4core3num7flt2dec8round_up
libcubeb.so.0:_RNvNtNtCs9WsFjTlRn02_4core3num8int_sqrt27panic_for_negative_argument
libcubeb.so.0:_RNvNtNtCs9WsFjTlRn02_4core3num9int_log1030panic_for_nonpositive_argument
libcubeb.so.0:_RNvNtNtCs9WsFjTlRn02_4core3str5count14do_count_chars
libcubeb.so.0:_RNvNtNtCs9WsFjTlRn02_4core3str5count23char_count_general_case
libcubeb.so.0:_RNvNtNtCs9WsFjTlRn02_4core3str6traits23str_index_overflow_fail
libcubeb.so.0:_RNvNtNtCs9WsFjTlRn02_4core3str8converts13from_utf8_mut
libcubeb.so.0:_RNvNtNtCs9WsFjTlRn02_4core3str8converts9from_utf8
libcubeb.so.0:_RNvNtNtCs9WsFjTlRn02_4core4cell4lazy14panic_poisoned
libcubeb.so.0:_RNvNtNtCs9WsFjTlRn02_4core5slice5index16into_slice_range
libcubeb.so.0:_RNvNtNtCs9WsFjTlRn02_4core5slice5index16slice_index_fail
libcubeb.so.0:_RNvNtNtCs9WsFjTlRn02_4core5slice6memchr14memchr_aligned
libcubeb.so.0:_RNvNtNtCs9WsFjTlRn02_4core5slice6memchr7memrchr
libcubeb.so.0:_RNvNtNtCs9WsFjTlRn02_4core7unicode9printable12is_printable
libcubeb.so.0:_RNvNtNtCs9WsFjTlRn02_4core9panicking11panic_const23panic_const_div_by_zero
libcubeb.so.0:_RNvNtNtCs9WsFjTlRn02_4core9panicking11panic_const23panic_const_gen_fn_none
libcubeb.so.0:_RNvNtNtCs9WsFjTlRn02_4core9panicking11panic_const23panic_const_rem_by_zero
libcubeb.so.0:_RNvNtNtCs9WsFjTlRn02_4core9panicking11panic_const24panic_const_add_overflow
libcubeb.so.0:_RNvNtNtCs9WsFjTlRn02_4core9panicking11panic_const24panic_const_div_overflow
libcubeb.so.0:_RNvNtNtCs9WsFjTlRn02_4core9panicking11panic_const24panic_const_mul_overflow
libcubeb.so.0:_RNvNtNtCs9WsFjTlRn02_4core9panicking11panic_const24panic_const_neg_overflow
libcubeb.so.0:_RNvNtNtCs9WsFjTlRn02_4core9panicking11panic_const24panic_const_rem_overflow
libcubeb.so.0:_RNvNtNtCs9WsFjTlRn02_4core9panicking11panic_const24panic_const_shl_overflow
libcubeb.so.0:_RNvNtNtCs9WsFjTlRn02_4core9panicking11panic_const24panic_const_shr_overflow
libcubeb.so.0:_RNvNtNtCs9WsFjTlRn02_4core9panicking11panic_const24panic_const_sub_overflow
libcubeb.so.0:_RNvNtNtCs9WsFjTlRn02_4core9panicking11panic_const28panic_const_async_fn_resumed
libcubeb.so.0:_RNvNtNtCs9WsFjTlRn02_4core9panicking11panic_const28panic_const_gen_fn_none_drop
libcubeb.so.0:_RNvNtNtCs9WsFjTlRn02_4core9panicking11panic_const29panic_const_coroutine_resumed
libcubeb.so.0:_RNvNtNtCs9WsFjTlRn02_4core9panicking11panic_const29panic_const_gen_fn_none_panic
libcubeb.so.0:_RNvNtNtCs9WsFjTlRn02_4core9panicking11panic_const32panic_const_async_gen_fn_resumed
libcubeb.so.0:_RNvNtNtCs9WsFjTlRn02_4core9panicking11panic_const33panic_const_async_fn_resumed_drop
libcubeb.so.0:_RNvNtNtCs9WsFjTlRn02_4core9panicking11panic_const34panic_const_async_fn_resumed_panic
libcubeb.so.0:_RNvNtNtCs9WsFjTlRn02_4core9panicking11panic_const34panic_const_coroutine_resumed_drop
libcubeb.so.0:_RNvNtNtCs9WsFjTlRn02_4core9panicking11panic_const35panic_const_coroutine_resumed_panic
libcubeb.so.0:_RNvNtNtCs9WsFjTlRn02_4core9panicking11panic_const37panic_const_async_gen_fn_resumed_drop
libcubeb.so.0:_RNvNtNtCs9WsFjTlRn02_4core9panicking11panic_const38panic_const_async_gen_fn_resumed_panic
libcubeb.so.0:_RNvNtNtCsbW7JIls3BXH_11miniz_oxide7inflate4core10decompress
libcubeb.so.0:_RNvNtNtCsjj3dQwFOuTb_3std2io5stdio18set_output_capture
libcubeb.so.0:_RNvNtNtCsjj3dQwFOuTb_3std2io5stdio22try_set_output_capture
libcubeb.so.0:_RNvNtNtCsjj3dQwFOuTb_3std2io5stdio23attempt_print_to_stderr
libcubeb.so.0:_RNvNtNtCsjj3dQwFOuTb_3std2io5stdio5stdin
libcubeb.so.0:_RNvNtNtCsjj3dQwFOuTb_3std2io5stdio6__print
libcubeb.so.0:_RNvNtNtCsjj3dQwFOuTb_3std2io5stdio6stdout
libcubeb.so.0:_RNvNtNtCsjj3dQwFOuTb_3std2io5stdio7__eprint
libcubeb.so.0:_RNvNtNtCsjj3dQwFOuTb_3std3net8hostname8hostname
libcubeb.so.0:_RNvNtNtCsjj3dQwFOuTb_3std3sys2fs10remove_dir
libcubeb.so.0:_RNvNtNtCsjj3dQwFOuTb_3std3sys2fs11remove_file
libcubeb.so.0:_RNvNtNtCsjj3dQwFOuTb_3std3sys2fs12canonicalize
libcubeb.so.0:_RNvNtNtCsjj3dQwFOuTb_3std3sys2fs14remove_dir_all
libcubeb.so.0:_RNvNtNtCsjj3dQwFOuTb_3std3sys2fs15set_permissions
libcubeb.so.0:_RNvNtNtCsjj3dQwFOuTb_3std3sys2fs16symlink_metadata
libcubeb.so.0:_RNvNtNtCsjj3dQwFOuTb_3std3sys2fs18set_times_nofollow
libcubeb.so.0:_RNvNtNtCsjj3dQwFOuTb_3std3sys2fs24set_permissions_nofollow
libcubeb.so.0:_RNvNtNtCsjj3dQwFOuTb_3std3sys2fs4copy
libcubeb.so.0:_RNvNtNtCsjj3dQwFOuTb_3std3sys2fs6exists
libcubeb.so.0:_RNvNtNtCsjj3dQwFOuTb_3std3sys2fs6rename
libcubeb.so.0:_RNvNtNtCsjj3dQwFOuTb_3std3sys2fs7symlink
libcubeb.so.0:_RNvNtNtCsjj3dQwFOuTb_3std3sys2fs8metadata
libcubeb.so.0:_RNvNtNtCsjj3dQwFOuTb_3std3sys2fs8read_dir
libcubeb.so.0:_RNvNtNtCsjj3dQwFOuTb_3std3sys2fs9hard_link
libcubeb.so.0:_RNvNtNtCsjj3dQwFOuTb_3std3sys2fs9read_link
libcubeb.so.0:_RNvNtNtCsjj3dQwFOuTb_3std3sys2fs9set_times
libcubeb.so.0:_RNvNtNtCsjj3dQwFOuTb_3std3sys5alloc16realloc_fallback
libcubeb.so.0:_RNvNtNtCsjj3dQwFOuTb_3std3sys9backtrace4lock
libcubeb.so.0:_RNvNtNtCsjj3dQwFOuTb_3std4sync9lazy_lock14panic_poisoned
libcubeb.so.0:_RNvNtNtCsjj3dQwFOuTb_3std6thread5local18panic_access_error
libcubeb.so.0:_RNvNtNtCsjj3dQwFOuTb_3std6thread7current18current_or_unnamed
libcubeb.so.0:_RNvNtNtCsjj3dQwFOuTb_3std6thread7current7CURRENT
libcubeb.so.0:_RNvNtNtCsjj3dQwFOuTb_3std6thread7current7current
libcubeb.so.0:_RNvNtNtCsjj3dQwFOuTb_3std6thread9functions11sleep_until
libcubeb.so.0:_RNvNtNtCsjj3dQwFOuTb_3std6thread9functions12park_timeout
libcubeb.so.0:_RNvNtNtCsjj3dQwFOuTb_3std6thread9functions15park_timeout_ms
libcubeb.so.0:_RNvNtNtCsjj3dQwFOuTb_3std6thread9functions21available_parallelism
libcubeb.so.0:_RNvNtNtCsjj3dQwFOuTb_3std6thread9functions4park
libcubeb.so.0:_RNvNtNtCsjj3dQwFOuTb_3std6thread9functions5sleep
libcubeb.so.0:_RNvNtNtCsjj3dQwFOuTb_3std6thread9functions8sleep_ms
libcubeb.so.0:_RNvNtNtCsjj3dQwFOuTb_3std6thread9functions9yield_now
libcubeb.so.0:_RNvNtNtCsjj3dQwFOuTb_3std6thread9spawnhook15run_spawn_hooks
libcubeb.so.0:_RNvNtNtCsjj3dQwFOuTb_3std9panicking11panic_count17is_zero_slow_path
libcubeb.so.0:_RNvNtNtCsjj3dQwFOuTb_3std9panicking11panic_count18GLOBAL_PANIC_COUNT
libcubeb.so.0:_RNvNtNtCsjj3dQwFOuTb_3std9panicking11panic_count19finished_panic_hook
libcubeb.so.0:_RNvNtNtCsjj3dQwFOuTb_3std9panicking11panic_count8decrease
libcubeb.so.0:_RNvNtNtCsjj3dQwFOuTb_3std9panicking11panic_count8increase
libcubeb.so.0:_RNvNtNtCsjj3dQwFOuTb_3std9panicking11panic_count9get_count
libcubeb.so.0:_RNvNtNtNtCs9WsFjTlRn02_4core3num7dec2flt11decimal_seq17parse_decimal_seq
libcubeb.so.0:_RNvNtNtNtCs9WsFjTlRn02_4core3num7dec2flt5parse12parse_number
libcubeb.so.0:_RNvNtNtNtCs9WsFjTlRn02_4core3num7dec2flt6lemire22compute_product_approx
libcubeb.so.0:_RNvNtNtNtCs9WsFjTlRn02_4core7unicode12unicode_data10alphabetic11lookup_slow
libcubeb.so.0:_RNvNtNtNtCs9WsFjTlRn02_4core7unicode12unicode_data11conversions8to_lower
libcubeb.so.0:_RNvNtNtNtCs9WsFjTlRn02_4core7unicode12unicode_data11conversions8to_upper
libcubeb.so.0:_RNvNtNtNtCs9WsFjTlRn02_4core7unicode12unicode_data11white_space14WHITESPACE_MAP
libcubeb.so.0:_RNvNtNtNtCs9WsFjTlRn02_4core7unicode12unicode_data14case_ignorable11lookup_slow
libcubeb.so.0:_RNvNtNtNtCs9WsFjTlRn02_4core7unicode12unicode_data15grapheme_extend11lookup_slow
libcubeb.so.0:_RNvNtNtNtCs9WsFjTlRn02_4core7unicode12unicode_data1n11lookup_slow
libcubeb.so.0:_RNvNtNtNtCs9WsFjTlRn02_4core7unicode12unicode_data5cased11lookup_slow
libcubeb.so.0:_RNvNtNtNtCs9WsFjTlRn02_4core7unicode12unicode_data9lowercase14BITSET_MAPPING
libcubeb.so.0:_RNvNtNtNtCs9WsFjTlRn02_4core7unicode12unicode_data9lowercase16BITSET_CANONICAL
libcubeb.so.0:_RNvNtNtNtCs9WsFjTlRn02_4core7unicode12unicode_data9lowercase17BITSET_CHUNKS_MAP
libcubeb.so.0:_RNvNtNtNtCs9WsFjTlRn02_4core7unicode12unicode_data9lowercase19BITSET_INDEX_CHUNKS
libcubeb.so.0:_RNvNtNtNtCs9WsFjTlRn02_4core7unicode12unicode_data9lowercase6lookup
libcubeb.so.0:_RNvNtNtNtCs9WsFjTlRn02_4core7unicode12unicode_data9uppercase14BITSET_MAPPING
libcubeb.so.0:_RNvNtNtNtCs9WsFjTlRn02_4core7unicode12unicode_data9uppercase16BITSET_CANONICAL
libcubeb.so.0:_RNvNtNtNtCs9WsFjTlRn02_4core7unicode12unicode_data9uppercase17BITSET_CHUNKS_MAP
libcubeb.so.0:_RNvNtNtNtCs9WsFjTlRn02_4core7unicode12unicode_data9uppercase19BITSET_INDEX_CHUNKS
libcubeb.so.0:_RNvNtNtNtCs9WsFjTlRn02_4core7unicode12unicode_data9uppercase6lookup
libcubeb.so.0:_RNvNtNtNtCsjj3dQwFOuTb_3std12backtrace_rs9symbolize5gimli7resolve
libcubeb.so.0:_RNvNtNtNtCsjj3dQwFOuTb_3std2os4unix7process9parent_id
libcubeb.so.0:_RNvNtNtNtCsjj3dQwFOuTb_3std3sys2fs4unix5chown
libcubeb.so.0:_RNvNtNtNtCsjj3dQwFOuTb_3std3sys2fs4unix6chroot
libcubeb.so.0:_RNvNtNtNtCsjj3dQwFOuTb_3std3sys2fs4unix6fchown
libcubeb.so.0:_RNvNtNtNtCsjj3dQwFOuTb_3std3sys2fs4unix6lchown
libcubeb.so.0:_RNvNtNtNtCsjj3dQwFOuTb_3std3sys2fs4unix6mkfifo
libcubeb.so.0:_RNvNtNtNtCsjj3dQwFOuTb_3std3sys3env4unix6setenv
libcubeb.so.0:_RNvNtNtNtCsjj3dQwFOuTb_3std3sys3env4unix8unsetenv
libcubeb.so.0:_RNvNtNtNtCsjj3dQwFOuTb_3std3sys4path4unix8absolute
libcubeb.so.0:_RNvNtNtNtCsjj3dQwFOuTb_3std3sys6random5linux19hashmap_random_keys
libcubeb.so.0:_RNvNtNtNtCsjj3dQwFOuTb_3std6thread7current2id2ID
libcubeb.so.0:_RNvNtNtNtNtCs9WsFjTlRn02_4core3num7flt2dec8strategy5grisu12CACHED_POW10
libcubeb.so.0:_RNvNtNtNtNtCs9WsFjTlRn02_4core3num7flt2dec8strategy5grisu12cached_power
libcubeb.so.0:_RNvNtNtNtNtCs9WsFjTlRn02_4core3num7flt2dec8strategy5grisu12format_exact
libcubeb.so.0:_RNvNtNtNtNtCs9WsFjTlRn02_4core3num7flt2dec8strategy5grisu15format_shortest
libcubeb.so.0:_RNvNtNtNtNtCs9WsFjTlRn02_4core3num7flt2dec8strategy5grisu16format_exact_opt
libcubeb.so.0:_RNvNtNtNtNtCs9WsFjTlRn02_4core3num7flt2dec8strategy5grisu19format_shortest_opt
libcubeb.so.0:_RNvNtNtNtNtCs9WsFjTlRn02_4core3num7flt2dec8strategy6dragon12format_exact
libcubeb.so.0:_RNvNtNtNtNtCs9WsFjTlRn02_4core3num7flt2dec8strategy6dragon15format_shortest
libcubeb.so.0:_RNvNtNtNtNtCs9WsFjTlRn02_4core3num7flt2dec8strategy6dragon9mul_pow10
libcubeb.so.0:_RNvNtNtNtNtCs9WsFjTlRn02_4core5slice4sort6shared9smallsort22panic_on_ord_violation
libcubeb.so.0:_RNvNtNtNtNtCs9WsFjTlRn02_4core5slice4sort6stable5drift11sqrt_approx
libcubeb.so.0:_RNvNtNtNtNtCsjj3dQwFOuTb_3std2os4unix3net4addr11sockaddr_un
libcubeb.so.0:_RNvNtNtNtNtCsjj3dQwFOuTb_3std2os4unix3net9ancillary31send_vectored_with_ancillary_to
libcubeb.so.0:_RNvNtNtNtNtCsjj3dQwFOuTb_3std3sys12thread_local11destructors10linux_like8register
libcubeb.so.0:_RNvNtNtNtNtCsjj3dQwFOuTb_3std3sys2io11kernel_copy5linux15sendfile_splice
libcubeb.so.0:_RNvNtNtNtNtCsjj3dQwFOuTb_3std3sys2io11kernel_copy5linux18copy_regular_files
libcubeb.so.0:_RNvNtNtNtNtCsjj3dQwFOuTb_3std3sys3pal4unix2os5chdir
libcubeb.so.0:_RNvNtNtNtNtCsjj3dQwFOuTb_3std3sys3pal4unix4pipe9anon_pipe
libcubeb.so.0:_RNvNtNtNtNtCsjj3dQwFOuTb_3std3sys3pal4unix5futex10futex_wake
libcubeb.so.0:_RNvNtNtNtNtCsjj3dQwFOuTb_3std3sys3pal4unix5futex14futex_wake_all
libcubeb.so.0:_RNvNtNtNtNtCsjj3dQwFOuTb_3std3sys4args4unix3imp15ARGV_INIT_ARRAY
libcubeb.so.0:_RNvNvMNtCs9WsFjTlRn02_4core5sliceSp16align_to_offsets3gcd
libcubeb.so.0:_RNvNvMs3_NtNtNtNtCsjj3dQwFOuTb_3std3sys3net10connection6socketNtB7_9TcpStream7connect5inner
libcubeb.so.0:_RNvNvMs6_NtNtCs9WsFjTlRn02_4core4task4wakeNtB7_5Waker11from_fn_ptr6VTABLE
libcubeb.so.0:_RNvNvMs7_NtNtNtCsjj3dQwFOuTb_3std3sys6os_str5bytesNtB7_5Slice21check_public_boundary9slow_path
libcubeb.so.0:_RNvNvMs7_NtNtNtNtCsjj3dQwFOuTb_3std3sys3net10connection6socketNtB7_11TcpListener4bind5inner
libcubeb.so.0:_RNvNvMs_NtCs19MuVdBY7V6_5alloc3vecINtB6_3VecppE10insert_mut13assert_failed
libcubeb.so.0:_RNvNvMs_NtCs19MuVdBY7V6_5alloc3vecINtB6_3VecppE11swap_remove13assert_failed
libcubeb.so.0:_RNvNvMs_NtCs19MuVdBY7V6_5alloc3vecINtB6_3VecppE6remove13assert_failed
libcubeb.so.0:_RNvNvMs_NtCs19MuVdBY7V6_5alloc3vecINtB6_3VecppE9split_off13assert_failed
libcubeb.so.0:_RNvNvMsa_NtNtNtNtCsjj3dQwFOuTb_3std3sys3net10connection6socketNtB7_9UdpSocket4bind5inner
libcubeb.so.0:_RNvNvMsa_NtNtNtNtCsjj3dQwFOuTb_3std3sys3net10connection6socketNtB7_9UdpSocket7connect5inner
libcubeb.so.0:_RNvNvMsb_NtNtCs9WsFjTlRn02_4core4task4wakeNtB7_10LocalWaker11from_fn_ptr6VTABLE
libcubeb.so.0:_RNvNvNtCs19MuVdBY7V6_5alloc3fmt6format12format_inner
libcubeb.so.0:_RNvNvNtCs19MuVdBY7V6_5alloc5alloc18handle_alloc_error8ct_error
libcubeb.so.0:_RNvNvNtCs9WsFjTlRn02_4core5slice20copy_from_slice_impl17len_mismatch_fail
libcubeb.so.0:_RNvNvNtCsjj3dQwFOuTb_3std2fs14read_to_string5inner
libcubeb.so.0:_RNvNvNtCsjj3dQwFOuTb_3std2fs4read5inner
libcubeb.so.0:_RNvNvNtCsjj3dQwFOuTb_3std2fs5write5inner
libcubeb.so.0:_RNvNvNtCsjj3dQwFOuTb_3std9panicking12catch_unwind7cleanup
libcubeb.so.0:_RNvNvNtNtCsjj3dQwFOuTb_3std2io5stdio6stderr8INSTANCE
libcubeb.so.0:_RNvNvNtNtNtCs3FjoG2k32lL_6memchr4arch6x86_646memchr10memchr_raw2FN
libcubeb.so.0:_RNvNvNtNtNtCs3FjoG2k32lL_6memchr4arch6x86_646memchr10memchr_raw6detect
libcubeb.so.0:_RNvNvNtNtNtCs3FjoG2k32lL_6memchr4arch6x86_646memchr11memchr2_raw2FN
libcubeb.so.0:_RNvNvNtNtNtCs3FjoG2k32lL_6memchr4arch6x86_646memchr11memchr2_raw6detect
libcubeb.so.0:_RNvNvNtNtNtCs3FjoG2k32lL_6memchr4arch6x86_646memchr11memchr3_raw2FN
libcubeb.so.0:_RNvNvNtNtNtCs3FjoG2k32lL_6memchr4arch6x86_646memchr11memchr3_raw6detect
libcubeb.so.0:_RNvNvNtNtNtCs3FjoG2k32lL_6memchr4arch6x86_646memchr11memrchr_raw2FN
libcubeb.so.0:_RNvNvNtNtNtCs3FjoG2k32lL_6memchr4arch6x86_646memchr11memrchr_raw6detect
libcubeb.so.0:_RNvNvNtNtNtCs3FjoG2k32lL_6memchr4arch6x86_646memchr12memrchr2_raw2FN
libcubeb.so.0:_RNvNvNtNtNtCs3FjoG2k32lL_6memchr4arch6x86_646memchr12memrchr2_raw6detect
libcubeb.so.0:_RNvNvNtNtNtCs3FjoG2k32lL_6memchr4arch6x86_646memchr12memrchr3_raw2FN
libcubeb.so.0:_RNvNvNtNtNtCs3FjoG2k32lL_6memchr4arch6x86_646memchr12memrchr3_raw6detect
libcubeb.so.0:_RNvNvNtNtNtCs3FjoG2k32lL_6memchr4arch6x86_646memchr9count_raw2FN
libcubeb.so.0:_RNvNvNtNtNtCs3FjoG2k32lL_6memchr4arch6x86_646memchr9count_raw6detect
libcubeb.so.0:_RNvNvNtNtNtNtCsjj3dQwFOuTb_3std3sys3pal4unix2os11split_paths12into_pathbuf
libcubeb.so.0:_RNvNvNtNtNtNtCsjj3dQwFOuTb_3std3sys4args4unix3imp15ARGV_INIT_ARRAY12init_wrapper
libcubeb.so.0:_RNvNvNvMNtCs9WsFjTlRn02_4core3f32f5clamp8do_panic7runtime
libcubeb.so.0:_RNvNvNvMNtCs9WsFjTlRn02_4core3f64d5clamp8do_panic7runtime
libcubeb.so.0:_RNvNvNvNtCs9WsFjTlRn02_4core3mem11conjure_zst8do_panic7runtime
libcubeb.so.0:_RNvNvNvNtCs9WsFjTlRn02_4core3num22from_ascii_radix_panic8do_panic7runtime
libcubeb.so.0:_RNvNvNvNtCs9WsFjTlRn02_4core4cell22panic_already_borrowed8do_panic7runtime
libcubeb.so.0:_RNvNvNvNtCs9WsFjTlRn02_4core4cell30panic_already_mutably_borrowed8do_panic7runtime
libcubeb.so.0:_RNvNvNvNtNtCs9WsFjTlRn02_4core4char7methods15encode_utf8_raw8do_panic7runtime
libcubeb.so.0:_RNvNvNvNtNtCs9WsFjTlRn02_4core4char7methods16encode_utf16_raw8do_panic7runtime
libcubeb.so.0:_RNvNvNvNtNtCs9WsFjTlRn02_4core5slice5index16slice_index_fail8do_panic7runtime
libcubeb.so.0:_RNvNvNvNtNtCs9WsFjTlRn02_4core5slice5index16slice_index_fails0_8do_panic7runtime
libcubeb.so.0:_RNvNvNvNtNtCs9WsFjTlRn02_4core5slice5index16slice_index_fails1_8do_panic7runtime
libcubeb.so.0:_RNvNvNvNtNtCs9WsFjTlRn02_4core5slice5index16slice_index_fails_8do_panic7runtime
libcubeb.so.0:_RNvNvNvNvNtCs9WsFjTlRn02_4core5slice20copy_from_slice_impl17len_mismatch_fail8do_panic7runtime
libcubeb.so.0:_RNvXNtCs19MuVdBY7V6_5alloc4wtf8NtB2_7Wtf8BufNtNtNtCs9WsFjTlRn02_4core3ops5deref5Deref5deref
libcubeb.so.0:_RNvXNtCs9WsFjTlRn02_4core3ffiNtB2_6c_voidNtNtB4_3fmt5Debug3fmt
libcubeb.so.0:_RNvXNtCs9WsFjTlRn02_4core3fmtQNtB2_9FormatterNtB2_5Write9write_strCsdQXj5kOXdfq_14rustc_demangle
libcubeb.so.0:_RNvXNtCs9WsFjTlRn02_4core3patcNtB2_12RangePattern7sub_one
libcubeb.so.0:_RNvXNtCsdQXj5kOXdfq_14rustc_demangle2v0NtB2_8DemangleNtNtCs9WsFjTlRn02_4core3fmt7Display3fmt
libcubeb.so.0:_RNvXNtCsdQXj5kOXdfq_14rustc_demangle6legacyNtB2_8DemangleNtNtCs9WsFjTlRn02_4core3fmt7Display3fmt
libcubeb.so.0:_RNvXNtCsjj3dQwFOuTb_3std2ioNtB2_5GuardNtNtNtCs9WsFjTlRn02_4core3ops4drop4Drop4drop
libcubeb.so.0:_RNvXNtCsjj3dQwFOuTb_3std3envNtB2_4VarsNtNtNtNtCs9WsFjTlRn02_4core4iter6traits8iterator8Iterator4next
libcubeb.so.0:_RNvXNtCsjj3dQwFOuTb_3std3envNtB2_4VarsNtNtNtNtCs9WsFjTlRn02_4core4iter6traits8iterator8Iterator9size_hint
libcubeb.so.0:_RNvXNtCsjj3dQwFOuTb_3std6randomNtB2_19DefaultRandomSourceNtNtCs9WsFjTlRn02_4core6random12RandomSource10fill_bytes
libcubeb.so.0:_RNvXNtCsjj3dQwFOuTb_3std9backtraceNtB2_9BacktraceNtNtCs9WsFjTlRn02_4core3fmt5Debug3fmt
libcubeb.so.0:_RNvXNtNtCs9WsFjTlRn02_4core2io12borrowed_bufNtB2_11BorrowedBufNtNtB6_3fmt5Debug3fmt
libcubeb.so.0:_RNvXNtNtCs9WsFjTlRn02_4core3ffi5c_strNtB2_21FromBytesWithNulErrorNtNtB6_3fmt7Display3fmt
libcubeb.so.0:_RNvXNtNtCs9WsFjTlRn02_4core3fmt3numoNtB4_7Display3fmt
libcubeb.so.0:_RNvXNtNtCs9WsFjTlRn02_4core3num5errorNtB2_15TryFromIntErrorNtNtB6_3fmt7Display3fmt
libcubeb.so.0:_RNvXNtNtCs9WsFjTlRn02_4core3num6bignumhNtB2_7FullOps12full_div_rem
libcubeb.so.0:_RNvXNtNtCs9WsFjTlRn02_4core3ops5rangeNtB2_9RangeFullNtNtB6_3fmt5Debug3fmt
libcubeb.so.0:_RNvXNtNtCsjBqvstResB3_6object4read8read_refRShNtB2_7ReadRef19read_bytes_at_until
libcubeb.so.0:_RNvXNtNtCsjj3dQwFOuTb_3std2io5errorNtB2_5ErrorNtNtCs9WsFjTlRn02_4core3fmt5Debug3fmt
libcubeb.so.0:_RNvXNtNtCsjj3dQwFOuTb_3std2io5stdioNtB2_8StdinRawNtB4_4Read10read_exact
libcubeb.so.0:_RNvXNtNtCsjj3dQwFOuTb_3std2io5stdioNtB2_8StdinRawNtB4_4Read11read_to_end
libcubeb.so.0:_RNvXNtNtCsjj3dQwFOuTb_3std2io5stdioNtB2_8StdinRawNtB4_4Read13read_vectored
libcubeb.so.0:_RNvXNtNtCsjj3dQwFOuTb_3std2io5stdioNtB2_8StdinRawNtB4_4Read14read_buf_exact
libcubeb.so.0:_RNvXNtNtCsjj3dQwFOuTb_3std2io5stdioNtB2_8StdinRawNtB4_4Read14read_to_string
libcubeb.so.0:_RNvXNtNtCsjj3dQwFOuTb_3std2io5stdioNtB2_8StdinRawNtB4_4Read4read
libcubeb.so.0:_RNvXNtNtCsjj3dQwFOuTb_3std2io5stdioNtB2_8StdinRawNtB4_4Read8read_buf
libcubeb.so.0:_RNvXNtNtCsjj3dQwFOuTb_3std4sync9nonpoisonNtB2_10WouldBlockNtNtCs9WsFjTlRn02_4core3fmt5Debug3fmt
libcubeb.so.0:_RNvXNtNtCsjj3dQwFOuTb_3std6thread9functionsNtB2_10PanicGuardNtNtNtCs9WsFjTlRn02_4core3ops4drop4Drop4drop
libcubeb.so.0:_RNvXNtNtCsjj3dQwFOuTb_3std6thread9spawnhookNtB2_10SpawnHooksNtNtNtCs9WsFjTlRn02_4core3ops4drop4Drop4drop
libcubeb.so.0:_RNvXNtNtNtCs9WsFjTlRn02_4core3fmt3num3imphNtB6_7Display3fmt
libcubeb.so.0:_RNvXNtNtNtCsjj3dQwFOuTb_3std2os4unix2fsNtNtB8_2fs4FileNtB2_7FileExt11read_buf_at
libcubeb.so.0:_RNvXNtNtNtCsjj3dQwFOuTb_3std2os4unix2fsNtNtB8_2fs4FileNtB2_7FileExt16read_vectored_at
libcubeb.so.0:_RNvXNtNtNtCsjj3dQwFOuTb_3std2os4unix2fsNtNtB8_2fs4FileNtB2_7FileExt17write_vectored_at
libcubeb.so.0:_RNvXNtNtNtCsjj3dQwFOuTb_3std2os4unix2fsNtNtB8_2fs4FileNtB2_7FileExt7read_at
libcubeb.so.0:_RNvXNtNtNtCsjj3dQwFOuTb_3std2os4unix2fsNtNtB8_2fs4FileNtB2_7FileExt8write_at
libcubeb.so.0:_RNvXNtNtNtCsjj3dQwFOuTb_3std2os4unix7processNtNtB8_7process7CommandNtB2_10CommandExt4exec
libcubeb.so.0:_RNvXNtNtNtCsjj3dQwFOuTb_3std2os4unix7processNtNtB8_7process7CommandNtB2_10CommandExt6groups
libcubeb.so.0:_RNvXNtNtNtCsjj3dQwFOuTb_3std3sys7process3envNtB2_10CommandEnvNtNtCs9WsFjTlRn02_4core3fmt5Debug3fmt
libcubeb.so.0:_RNvXNtNtNtCsjj3dQwFOuTb_3std6thread6thread18thread_name_stringNtB2_16ThreadNameStringINtNtCs9WsFjTlRn02_4core7convert4FromNtNtCs19MuVdBY7V6_5alloc6string6StringE4from
libcubeb.so.0:_RNvXNtNtNtNtCsjj3dQwFOuTb_3std2os3net9linux_ext6socketNtNtNtNtB8_4unix3net8datagram12UnixDatagramNtB2_13UnixSocketExt12set_passcred
libcubeb.so.0:_RNvXNtNtNtNtCsjj3dQwFOuTb_3std2os3net9linux_ext6socketNtNtNtNtB8_4unix3net8datagram12UnixDatagramNtB2_13UnixSocketExt8passcred
libcubeb.so.0:_RNvXNtNtNtNtCsjj3dQwFOuTb_3std2os4unix3net8listenerNtB2_12UnixListenerNtNtCs9WsFjTlRn02_4core3fmt5Debug3fmt
libcubeb.so.0:_RNvXNtNtNtNtCsjj3dQwFOuTb_3std3sys2fs4unix3cfmNtB2_18CachedFileMetadataNtNtBa_2io4Read11read_to_end
libcubeb.so.0:_RNvXNtNtNtNtCsjj3dQwFOuTb_3std3sys2fs4unix3cfmNtB2_18CachedFileMetadataNtNtBa_2io4Read13read_vectored
libcubeb.so.0:_RNvXNtNtNtNtCsjj3dQwFOuTb_3std3sys2fs4unix3cfmNtB2_18CachedFileMetadataNtNtBa_2io4Read14read_to_string
libcubeb.so.0:_RNvXNtNtNtNtCsjj3dQwFOuTb_3std3sys2fs4unix3cfmNtB2_18CachedFileMetadataNtNtBa_2io4Read4read
libcubeb.so.0:_RNvXNtNtNtNtCsjj3dQwFOuTb_3std3sys2fs4unix3cfmNtB2_18CachedFileMetadataNtNtBa_2io4Read8read_buf
libcubeb.so.0:_RNvXNtNtNtNtCsjj3dQwFOuTb_3std3sys3pal4unix2osNtB2_14JoinPathsErrorNtNtCs9WsFjTlRn02_4core3fmt7Display3fmt
libcubeb.so.0:_RNvXNtNtNtNtNtCsjj3dQwFOuTb_3std3sys3pal4unix14stack_overflow11thread_infoNtB2_12UnlockOnDropNtNtNtCs9WsFjTlRn02_4core3ops4drop4Drop4drop
libcubeb.so.0:_RNvXNtNtNtNtNtCsjj3dQwFOuTb_3std3sys7process4unix4unix15linux_child_extNtNtBc_7process5ChildNtNtNtNtBc_2os5linux7process8ChildExt10into_pidfd
libcubeb.so.0:_RNvXNtNtNtNtNtCsjj3dQwFOuTb_3std3sys7process4unix4unix15linux_child_extNtNtBc_7process5ChildNtNtNtNtBc_2os5linux7process8ChildExt5pidfd
libcubeb.so.0:_RNvXNvMNtCs19MuVdBY7V6_5alloc6stringNtB5_6String6retainNtB2_12SetLenOnDropNtNtNtCs9WsFjTlRn02_4core3ops4drop4Drop4drop
libcubeb.so.0:_RNvXNvMNtNtCsjj3dQwFOuTb_3std3sys9backtraceNtB5_13BacktraceLock5printNtB2_16DisplayBacktraceNtNtCs9WsFjTlRn02_4core3fmt7Display3fmt
libcubeb.so.0:_RNvXNvMNtNtNtNtCsjj3dQwFOuTb_3std3sys7process4unix4unixNtNtB7_6common7Command11posix_spawnNtB2_21PosixSpawnFileActionsNtNtNtCs9WsFjTlRn02_4core3ops4drop4Drop4drop
libcubeb.so.0:_RNvXNvNtCs9WsFjTlRn02_4core4hint20select_unpredictableINtB2_11DropOnPanicjENtNtNtB6_3ops4drop4Drop4dropCsl7GZAtFfcQj_9addr2line
libcubeb.so.0:_RNvXNvNtCs9WsFjTlRn02_4core9panicking21assert_matches_failedNtB2_7PatternNtNtB6_3fmt5Debug3fmt
libcubeb.so.0:_RNvXNvNtCsjj3dQwFOuTb_3std9panicking13resume_unwindNtB2_9RewrapBoxNtNtCs9WsFjTlRn02_4core5panic12PanicPayload8take_box
libcubeb.so.0:_RNvXNvXs7_NtCsjj3dQwFOuTb_3std4pathNtB8_10ComponentsNtNtCs9WsFjTlRn02_4core3fmt5Debug3fmtNtB2_11DebugHelperBO_3fmt
libcubeb.so.0:_RNvXNvXsb_NtCsjj3dQwFOuTb_3std4pathNtB8_4IterNtNtCs9WsFjTlRn02_4core3fmt5Debug3fmtNtB2_11DebugHelperBH_3fmt
libcubeb.so.0:_RNvXNvXsd_NtCs9WsFjTlRn02_4core4wtf8NtB8_10EncodeWideNtNtBa_3fmt5Debug3fmtNtB2_8CodeUnitBP_3fmt
libcubeb.so.0:_RNvXs0_Csb8JgZz1BG6n_6adler2NtB5_7Adler32NtNtCs9WsFjTlRn02_4core4hash6Hasher5write
libcubeb.so.0:_RNvXs0_CsdQXj5kOXdfq_14rustc_demangleINtB5_21SizeLimitedFmtAdapterQNtNtCs9WsFjTlRn02_4core3fmt9FormatterENtB15_5Write9write_strB5_
libcubeb.so.0:_RNvXs0_NtCs19MuVdBY7V6_5alloc6stringNtB5_13FromUtf8ErrorNtNtCs9WsFjTlRn02_4core3fmt7Display3fmt
libcubeb.so.0:_RNvXs0_NtCs9WsFjTlRn02_4core3anyDNtB5_3AnyNtNtB7_6marker4SendEL_NtNtB7_3fmt5Debug3fmt
libcubeb.so.0:_RNvXs0_NtCsdQXj5kOXdfq_14rustc_demangle2v0NtB5_5IdentNtNtCs9WsFjTlRn02_4core3fmt7Display3fmt
libcubeb.so.0:_RNvXs0_NtCsjj3dQwFOuTb_3std2fsNtB5_12TryLockErrorNtNtCs9WsFjTlRn02_4core3fmt7Display3fmt
libcubeb.so.0:_RNvXs0_NtCsjj3dQwFOuTb_3std3envNtB5_6VarsOsNtNtNtNtCs9WsFjTlRn02_4core4iter6traits8iterator8Iterator4next
libcubeb.so.0:_RNvXs0_NtCsjj3dQwFOuTb_3std3envNtB5_6VarsOsNtNtNtNtCs9WsFjTlRn02_4core4iter6traits8iterator8Iterator9size_hint
libcubeb.so.0:_RNvXs0_NtCsjj3dQwFOuTb_3std4timeNtB5_7InstantINtNtNtCs9WsFjTlRn02_4core3ops5arith9AddAssignNtNtBO_4time8DurationE10add_assign
libcubeb.so.0:_RNvXs0_NtCsjj3dQwFOuTb_3std9backtraceNtB5_15BacktraceSymbolNtNtCs9WsFjTlRn02_4core3fmt5Debug3fmt
libcubeb.so.0:_RNvXs0_NtCsl7GZAtFfcQj_9addr2line4lineNtB5_21LineLocationRangeIterNtNtNtNtCs9WsFjTlRn02_4core4iter6traits8iterator8Iterator4next
libcubeb.so.0:_RNvXs0_NtNtCs9WsFjTlRn02_4core3ffi5c_strNtB5_22FromBytesUntilNulErrorNtNtB9_3fmt7Display3fmt
libcubeb.so.0:_RNvXs0_NtNtCs9WsFjTlRn02_4core3fmt8buildersNtB5_10PadAdapterNtB7_5Write10write_char
libcubeb.so.0:_RNvXs0_NtNtCs9WsFjTlRn02_4core3fmt8buildersNtB5_10PadAdapterNtB7_5Write9write_str
libcubeb.so.0:_RNvXs0_NtNtCs9WsFjTlRn02_4core3net6parserNtNtB7_7ip_addr6IpAddrNtNtNtB9_3str6traits7FromStr8from_str
libcubeb.so.0:_RNvXs0_NtNtCs9WsFjTlRn02_4core3num6bignummNtB5_7FullOps12full_div_rem
libcubeb.so.0:_RNvXs0_NtNtCs9WsFjTlRn02_4core3num7dec2fltC3f16NtNtNtB9_3str6traits7FromStr8from_str
libcubeb.so.0:_RNvXs0_NtNtCs9WsFjTlRn02_4core3str5lossyNtB5_5DebugNtNtB9_3fmt5Debug3fmt
libcubeb.so.0:_RNvXs0_NtNtCs9WsFjTlRn02_4core5alloc6layoutNtB5_11LayoutErrorNtNtB9_3fmt7Display3fmt
libcubeb.so.0:_RNvXs0_NtNtCs9WsFjTlRn02_4core5ascii10ascii_charNtB5_9AsciiCharNtNtB9_3fmt7Display3fmt
libcubeb.so.0:_RNvXs0_NtNtCs9WsFjTlRn02_4core5slice5asciiNtB5_11EscapeAsciiNtNtNtNtB9_4iter6traits12double_ended19DoubleEndedIterator9next_back
libcubeb.so.0:_RNvXs0_NtNtCsjj3dQwFOuTb_3std12backtrace_rs9symbolizeNtB5_6SymbolNtNtCs9WsFjTlRn02_4core3fmt5Debug3fmt
libcubeb.so.0:_RNvXs0_NtNtCsjj3dQwFOuTb_3std2io5errorNtB5_5ErrorINtNtCs9WsFjTlRn02_4core7convert4FromNtNtNtCs19MuVdBY7V6_5alloc3ffi5c_str8NulErrorE4from
libcubeb.so.0:_RNvXs0_NtNtCsjj3dQwFOuTb_3std2io5stdioNtB5_9StderrRawNtB7_5Write14write_vectored
libcubeb.so.0:_RNvXs0_NtNtCsjj3dQwFOuTb_3std2io5stdioNtB5_9StderrRawNtB7_5Write18write_all_vectored
libcubeb.so.0:_RNvXs0_NtNtCsjj3dQwFOuTb_3std2io5stdioNtB5_9StderrRawNtB7_5Write5flush
libcubeb.so.0:_RNvXs0_NtNtCsjj3dQwFOuTb_3std2io5stdioNtB5_9StderrRawNtB7_5Write5write
libcubeb.so.0:_RNvXs0_NtNtCsjj3dQwFOuTb_3std2io5stdioNtB5_9StderrRawNtB7_5Write9write_all
libcubeb.so.0:_RNvXs0_NtNtCsjj3dQwFOuTb_3std2io5stdioNtB5_9StderrRawNtB7_5Write9write_fmt
libcubeb.so.0:_RNvXs0_NtNtCsjj3dQwFOuTb_3std3net3tcpNtB5_9TcpStreamNtNtB9_2io5Write14write_vectored
libcubeb.so.0:_RNvXs0_NtNtCsjj3dQwFOuTb_3std3net3tcpNtB5_9TcpStreamNtNtB9_2io5Write5write
libcubeb.so.0:_RNvXs0_NtNtCsjj3dQwFOuTb_3std6thread5localNtB5_11AccessErrorNtNtCs9WsFjTlRn02_4core3fmt7Display3fmt
libcubeb.so.0:_RNvXs0_NtNtCsjj3dQwFOuTb_3std6thread6threadNtB5_6ThreadNtNtCs9WsFjTlRn02_4core3fmt5Debug3fmt
libcubeb.so.0:_RNvXs0_NtNtNtCs9WsFjTlRn02_4core3num7dec2flt5floatdNtB5_8RawFloat15pow10_fast_path
libcubeb.so.0:_RNvXs0_NtNtNtCsjj3dQwFOuTb_3std2os4unix7processNtNtBb_7process15ExitStatusErrorNtB5_13ExitStatusExt8from_raw
libcubeb.so.0:_RNvXs0_NtNtNtCsjj3dQwFOuTb_3std3sys7process3envNtB5_11CommandEnvsNtNtNtNtCs9WsFjTlRn02_4core4iter6traits8iterator8Iterator4next
libcubeb.so.0:_RNvXs0_NtNtNtNtCsjj3dQwFOuTb_3std12backtrace_rs9symbolize5gimli4mmapNtB5_4MmapNtNtNtCs9WsFjTlRn02_4core3ops4drop4Drop4drop
libcubeb.so.0:_RNvXs0_NtNtNtNtCsjj3dQwFOuTb_3std2os4unix3net4addrNtB5_10SocketAddrNtNtNtNtBb_3net9linux_ext4addr13SocketAddrExt16as_abstract_name
libcubeb.so.0:_RNvXs0_NtNtNtNtCsjj3dQwFOuTb_3std3sys7process4unix4unixNtB5_10ExitStatusNtNtCs9WsFjTlRn02_4core3fmt5Debug3fmt
libcubeb.so.0:_RNvXs0_NtNtNtNtNtCsjj3dQwFOuTb_3std3sys7process4unix6common13cstring_arrayNtB5_12CStringArrayNtNtCs9WsFjTlRn02_4core3fmt5Debug3fmt
libcubeb.so.0:_RNvXs0_NvMs_NtNtCs19MuVdBY7V6_5alloc3ffi5c_strNtBa_7CString3newReNtB5_11SpecNewImpl13spec_new_impl
libcubeb.so.0:_RNvXs0_NvNtCsjj3dQwFOuTb_3std9panicking13panic_handlerNtB5_19FormatStringPayloadNtNtCs9WsFjTlRn02_4core3fmt7Display3fmt
libcubeb.so.0:_RNvXs0_NvXsf_NtNtCs19MuVdBY7V6_5alloc5boxed7convertINtBd_3BoxDNtNtCs9WsFjTlRn02_4core5error5ErrorNtNtB12_6marker4SendNtB1z_4SyncEL_EINtNtB12_7convert4FromNtNtBf_6string6StringE4fromNtB5_11StringErrorNtNtB12_3fmt5Debug3fmt
libcubeb.so.0:_RNvXs10_NtNtCs9WsFjTlRn02_4core3fmt3numnNtB8_8LowerExp3fmt
libcubeb.so.0:_RNvXs11_NtNtCs9WsFjTlRn02_4core3fmt3numoNtB8_8LowerExp3fmt
libcubeb.so.0:_RNvXs11_NtNtCs9WsFjTlRn02_4core3num7nonzeroINtB6_7NonZerotENtNtNtBa_3str6traits7FromStr8from_str
libcubeb.so.0:_RNvXs12_NtCs19MuVdBY7V6_5alloc6stringNtB6_5DrainNtNtCs9WsFjTlRn02_4core3fmt5Debug3fmt
libcubeb.so.0:_RNvXs12_NtNtCs9WsFjTlRn02_4core3fmt3numnNtB8_8UpperExp3fmt
libcubeb.so.0:_RNvXs13_NtNtCs9WsFjTlRn02_4core3fmt3numoNtB8_8UpperExp3fmt
libcubeb.so.0:_RNvXs13_NtNtCs9WsFjTlRn02_4core3num11niche_typesNtB6_15NonZeroI16InnerNtNtBa_3fmt5Debug3fmt
libcubeb.so.0:_RNvXs14_NtNtCs9WsFjTlRn02_4core3net7ip_addrNtB6_8Ipv4AddrNtNtNtBa_3ops3bit12BitAndAssign13bitand_assign
libcubeb.so.0:_RNvXs14_NtNtCs9WsFjTlRn02_4core4sync6atomicNtB6_9AtomicI32NtNtBa_3fmt5Debug3fmt
libcubeb.so.0:_RNvXs15_NtCs19MuVdBY7V6_5alloc6stringNtB6_5DrainNtNtNtCs9WsFjTlRn02_4core3ops4drop4Drop4drop
libcubeb.so.0:_RNvXs15_NtNtCs9WsFjTlRn02_4core3net7ip_addrNtB6_8Ipv4AddrINtNtNtBa_3ops3bit12BitAndAssignRBF_E13bitand_assign
libcubeb.so.0:_RNvXs17_NtCs19MuVdBY7V6_5alloc6stringNtB6_5DrainINtNtCs9WsFjTlRn02_4core7convert5AsRefeE6as_ref
libcubeb.so.0:_RNvXs18_NtCs19MuVdBY7V6_5alloc6stringNtB6_5DrainINtNtCs9WsFjTlRn02_4core7convert5AsRefShE6as_ref
libcubeb.so.0:_RNvXs18_NtNtCs9WsFjTlRn02_4core3num7nonzeroINtB6_7NonZeromENtNtNtBa_3str6traits7FromStr8from_str
libcubeb.so.0:_RNvXs19_NtCs19MuVdBY7V6_5alloc6stringNtB6_5DrainNtNtNtNtCs9WsFjTlRn02_4core4iter6traits8iterator8Iterator9size_hint
libcubeb.so.0:_RNvXs19_NtCsjj3dQwFOuTb_3std4pathNtB6_4PathNtNtCs9WsFjTlRn02_4core3fmt5Debug3fmt
libcubeb.so.0:_RNvXs19_NtNtCs9WsFjTlRn02_4core4sync6atomicNtB6_9AtomicU32NtNtBa_3fmt5Debug3fmt
libcubeb.so.0:_RNvXs1A_NtNtCs9WsFjTlRn02_4core3num7nonzeroINtB6_7NonZeroaENtNtNtBa_3str6traits7FromStr8from_str
libcubeb.so.0:_RNvXs1E_NtNtCs9WsFjTlRn02_4core3num7nonzeroINtB6_7NonZerosENtNtNtBa_3str6traits7FromStr8from_str
libcubeb.so.0:_RNvXs1I_NtNtCs9WsFjTlRn02_4core3num7nonzeroINtB6_7NonZerolENtNtNtBa_3str6traits7FromStr8from_str
libcubeb.so.0:_RNvXs1K_NtNtNtCs19MuVdBY7V6_5alloc11collections5btree3mapNtB6_17UnorderedKeyErrorNtNtCs9WsFjTlRn02_4core3fmt7Display3fmt
libcubeb.so.0:_RNvXs1M_NtNtCs9WsFjTlRn02_4core3num7nonzeroINtB6_7NonZeroxENtNtNtBa_3str6traits7FromStr8from_str
libcubeb.so.0:_RNvXs1Q_NtNtCs9WsFjTlRn02_4core3num7nonzeroINtB6_7NonZeronENtNtNtBa_3str6traits7FromStr8from_str
libcubeb.so.0:_RNvXs1U_NtNtCs9WsFjTlRn02_4core3num7nonzeroINtB6_7NonZeroiENtNtNtBa_3str6traits7FromStr8from_str
libcubeb.so.0:_RNvXs1_CsdQXj5kOXdfq_14rustc_demangleNtB5_8DemangleNtNtCs9WsFjTlRn02_4core3fmt7Display3fmt
libcubeb.so.0:_RNvXs1_NtCs19MuVdBY7V6_5alloc11collectionsNtB5_15TryReserveErrorNtNtCs9WsFjTlRn02_4core3fmt7Display3fmt
libcubeb.so.0:_RNvXs1_NtCs19MuVdBY7V6_5alloc4wtf8NtB5_7Wtf8BufNtNtCs9WsFjTlRn02_4core3fmt7Display3fmt
libcubeb.so.0:_RNvXs1_NtCs19MuVdBY7V6_5alloc6stringNtB5_14FromUtf16ErrorNtNtCs9WsFjTlRn02_4core3fmt7Display3fmt
libcubeb.so.0:_RNvXs1_NtCs19MuVdBY7V6_5alloc7raw_vecINtB5_6RawVecNtNtNtCsl0orcaMmsPI_5gimli4read6abbrev22AttributeSpecificationENtNtNtCs9WsFjTlRn02_4core3ops4drop4Drop4dropBS_
libcubeb.so.0:_RNvXs1_NtCs19MuVdBY7V6_5alloc7raw_vecINtB5_6RawVechENtNtNtCs9WsFjTlRn02_4core3ops4drop4Drop4dropCsl0orcaMmsPI_5gimli
libcubeb.so.0:_RNvXs1_NtCs9WsFjTlRn02_4core3anyDNtB5_3AnyNtNtB7_6marker4SendNtBG_4SyncEL_NtNtB7_3fmt5Debug3fmt
libcubeb.so.0:_RNvXs1_NtCs9WsFjTlRn02_4core4wtf8NtB5_4Wtf8NtNtB7_3fmt5Debug3fmt
libcubeb.so.0:_RNvXs1_NtCs9WsFjTlRn02_4core5cloneNtNtNtB7_3ffi5c_str4CStrNtB5_13CloneToUninit15clone_to_uninit
libcubeb.so.0:_RNvXs1_NtCsjj3dQwFOuTb_3std2ioNtB5_10IoSliceMutNtNtCs9WsFjTlRn02_4core3fmt5Debug3fmt
libcubeb.so.0:_RNvXs1_NtCsjj3dQwFOuTb_3std3envNtB5_6VarsOsNtNtCs9WsFjTlRn02_4core3fmt5Debug3fmt
libcubeb.so.0:_RNvXs1_NtCsjj3dQwFOuTb_3std4timeNtB5_7InstantINtNtNtCs9WsFjTlRn02_4core3ops5arith3SubNtNtBO_4time8DurationE3sub
libcubeb.so.0:_RNvXs1_NtCsjj3dQwFOuTb_3std7processNtB5_5ChildINtNtB7_10sys_common9IntoInnerNtNtNtNtNtB7_3sys7process4unix4unix7ProcessE10into_inner
libcubeb.so.0:_RNvXs1_NtCsjj3dQwFOuTb_3std9backtraceNtB5_11BytesOrWideNtNtCs9WsFjTlRn02_4core3fmt5Debug3fmt
libcubeb.so.0:_RNvXs1_NtNtCs9WsFjTlRn02_4core3ffi5c_strNtB5_4CStrNtNtB9_3fmt5Debug3fmt
libcubeb.so.0:_RNvXs1_NtNtCs9WsFjTlRn02_4core3mem15transmutabilityNtB5_6AssumeNtNtNtB9_3ops5arith3Sub3sub
libcubeb.so.0:_RNvXs1_NtNtCs9WsFjTlRn02_4core3num6bignumyNtB5_7FullOps12full_div_rem
libcubeb.so.0:_RNvXs1_NtNtCs9WsFjTlRn02_4core3num7dec2fltfNtNtNtB9_3str6traits7FromStr8from_str
libcubeb.so.0:_RNvXs1_NtNtCs9WsFjTlRn02_4core3str5errorNtB5_14ParseBoolErrorNtNtB9_3fmt7Display3fmt
libcubeb.so.0:_RNvXs1_NtNtCs9WsFjTlRn02_4core4char6decodeNtB5_16DecodeUtf16ErrorNtNtB9_3fmt7Display3fmt
libcubeb.so.0:_RNvXs1_NtNtCs9WsFjTlRn02_4core4task4wakeNtB5_7ContextNtNtB9_3fmt5Debug3fmt
libcubeb.so.0:_RNvXs1_NtNtCs9WsFjTlRn02_4core5ascii10ascii_charNtB5_9AsciiCharNtNtB9_3fmt5Debug3fmt
libcubeb.so.0:_RNvXs1_NtNtCs9WsFjTlRn02_4core5panic8locationNtB5_8LocationNtNtB9_3cmp10PartialOrd11partial_cmp
libcubeb.so.0:_RNvXs1_NtNtCs9WsFjTlRn02_4core6marker8varianceNtB5_24PhantomCovariantLifetimeNtNtB9_3fmt5Debug3fmt
libcubeb.so.0:_RNvXs1_NtNtCsjj3dQwFOuTb_3std3net3tcpRNtB5_9TcpStreamNtNtB9_2io4Read13read_vectored
libcubeb.so.0:_RNvXs1_NtNtCsjj3dQwFOuTb_3std3net3tcpRNtB5_9TcpStreamNtNtB9_2io4Read4read
libcubeb.so.0:_RNvXs1_NtNtCsjj3dQwFOuTb_3std3net3tcpRNtB5_9TcpStreamNtNtB9_2io4Read8read_buf
libcubeb.so.0:_RNvXs1_NtNtCsjj3dQwFOuTb_3std4sync4onceNtB5_4OnceNtNtCs9WsFjTlRn02_4core3fmt5Debug3fmt
libcubeb.so.0:_RNvXs1_NtNtCsjj3dQwFOuTb_3std4sync7barrierNtB5_17BarrierWaitResultNtNtCs9WsFjTlRn02_4core3fmt5Debug3fmt
libcubeb.so.0:_RNvXs1_NtNtNtCs9WsFjTlRn02_4core3num6bignum5testsNtB5_6Big8x3NtNtBb_3cmp10PartialOrd11partial_cmp
libcubeb.so.0:_RNvXs1_NtNtNtCs9WsFjTlRn02_4core4iter8adapters6copiedINtB5_6CopiedINtNtNtBb_5slice4iter4IterhEENtNtNtB9_6traits10exact_size17ExactSizeIterator3lenCsdQXj5kOXdfq_14rustc_demangle
libcubeb.so.0:_RNvXs1_NtNtNtCsjj3dQwFOuTb_3std12backtrace_rs9backtrace9libunwindNtB5_5FrameNtNtCs9WsFjTlRn02_4core5clone5Clone5clone
libcubeb.so.0:_RNvXs1_NtNtNtCsjj3dQwFOuTb_3std2os4unix7processNtNtBb_7process5ChildNtB5_8ChildExt11send_signal
libcubeb.so.0:_RNvXs1_NtNtNtCsjj3dQwFOuTb_3std3sys4args6commonNtB5_4ArgsNtNtCs9WsFjTlRn02_4core3fmt5Debug3fmt
libcubeb.so.0:_RNvXs1_NtNtNtCsjj3dQwFOuTb_3std3sys5stdio4unixNtB5_6StdoutNtNtBb_2io5Write14write_vectored
libcubeb.so.0:_RNvXs1_NtNtNtCsjj3dQwFOuTb_3std3sys5stdio4unixNtB5_6StdoutNtNtBb_2io5Write5write
libcubeb.so.0:_RNvXs1_NtNtNtCsjj3dQwFOuTb_3std3sys6os_str5bytesNtB5_3BufNtNtCs9WsFjTlRn02_4core3fmt5Debug3fmt
libcubeb.so.0:_RNvXs1_NtNtNtCsjj3dQwFOuTb_3std3sys6thread4unixNtB5_6ThreadNtNtNtCs9WsFjTlRn02_4core3ops4drop4Drop4drop
libcubeb.so.0:_RNvXs1_NtNtNtNtCsjj3dQwFOuTb_3std2os4unix3net4addrNtB5_10SocketAddrNtNtCs9WsFjTlRn02_4core3fmt5Debug3fmt
libcubeb.so.0:_RNvXs1_NtNtNtNtCsjj3dQwFOuTb_3std2os4unix3net6streamNtB5_10UnixStreamNtNtBd_2io4Read13read_vectored
libcubeb.so.0:_RNvXs1_NtNtNtNtCsjj3dQwFOuTb_3std2os4unix3net6streamNtB5_10UnixStreamNtNtBd_2io4Read4read
libcubeb.so.0:_RNvXs1_NtNtNtNtCsjj3dQwFOuTb_3std2os4unix3net6streamNtB5_10UnixStreamNtNtBd_2io4Read8read_buf
libcubeb.so.0:_RNvXs1_NtNtNtNtCsjj3dQwFOuTb_3std2os4unix3net9ancillaryNtB5_9ScmRightsNtNtNtNtCs9WsFjTlRn02_4core4iter6traits8iterator8Iterator4next
libcubeb.so.0:_RNvXs1_NtNtNtNtCsjj3dQwFOuTb_3std3sys3pal4unix4pipeNtB5_8AnonPipeNtNtNtNtBd_2os2fd5owned4AsFd5as_fd
libcubeb.so.0:_RNvXs1_NvMs_NtNtCs19MuVdBY7V6_5alloc3ffi5c_strNtBa_7CString3newQShNtB5_11SpecNewImpl13spec_new_impl
libcubeb.so.0:_RNvXs1_NvNtCsjj3dQwFOuTb_3std9panicking13panic_handlerNtB5_16StaticStrPayloadNtNtCs9WsFjTlRn02_4core5panic12PanicPayload8take_box
libcubeb.so.0:_RNvXs1a_NtCsjj3dQwFOuTb_3std4pathNtB6_7DisplayNtNtCs9WsFjTlRn02_4core3fmt5Debug3fmt
libcubeb.so.0:_RNvXs1a_NtNtCs9WsFjTlRn02_4core3net7ip_addrNtB6_8Ipv4AddrNtNtNtBa_3ops3bit11BitOrAssign12bitor_assign
libcubeb.so.0:_RNvXs1a_NtNtCs9WsFjTlRn02_4core3num11niche_typesNtB6_15NonZeroI32InnerNtNtBa_3fmt5Debug3fmt
libcubeb.so.0:_RNvXs1b_NtCsjj3dQwFOuTb_3std4pathNtB6_7DisplayNtNtCs9WsFjTlRn02_4core3fmt7Display3fmt
libcubeb.so.0:_RNvXs1b_NtNtCs9WsFjTlRn02_4core3net7ip_addrNtB6_8Ipv4AddrINtNtNtBa_3ops3bit11BitOrAssignRBF_E12bitor_assign
libcubeb.so.0:_RNvXs1e_NtNtCs9WsFjTlRn02_4core4sync6atomicNtB6_9AtomicI64NtNtBa_3fmt5Debug3fmt
libcubeb.so.0:_RNvXs1f_NtNtCs9WsFjTlRn02_4core3num7nonzeroINtB6_7NonZeroyENtNtNtBa_3str6traits7FromStr8from_str
libcubeb.so.0:_RNvXs1g_NtCs9WsFjTlRn02_4core3fmtRNtNtNtB8_3num5error12IntErrorKindNtB6_5Debug3fmtCsdQXj5kOXdfq_14rustc_demangle
libcubeb.so.0:_RNvXs1g_NtCs9WsFjTlRn02_4core3fmtRNtNtNtCsl0orcaMmsPI_5gimli4read6abbrev22AttributeSpecificationNtB6_5Debug3fmtBC_
libcubeb.so.0:_RNvXs1g_NtCs9WsFjTlRn02_4core3fmtReNtB6_5Debug3fmtCsdQXj5kOXdfq_14rustc_demangle
libcubeb.so.0:_RNvXs1g_NtCs9WsFjTlRn02_4core3fmtRhNtB6_5Debug3fmtCsdQXj5kOXdfq_14rustc_demangle
libcubeb.so.0:_RNvXs1g_NtCs9WsFjTlRn02_4core3fmtRtNtB6_5Debug3fmtCsl0orcaMmsPI_5gimli
libcubeb.so.0:_RNvXs1g_NtCs9WsFjTlRn02_4core3fmtRuNtB6_5Debug3fmtCsdQXj5kOXdfq_14rustc_demangle
libcubeb.so.0:_RNvXs1g_NtCs9WsFjTlRn02_4core3fmtRxNtB6_5Debug3fmtCsl0orcaMmsPI_5gimli
libcubeb.so.0:_RNvXs1g_NtNtCs9WsFjTlRn02_4core3net7ip_addrNtB6_8Ipv6AddrNtNtNtBa_3ops3bit12BitAndAssign13bitand_assign
libcubeb.so.0:_RNvXs1h_NtCs9WsFjTlRn02_4core3fmtQShNtB6_5Debug3fmtCsdQXj5kOXdfq_14rustc_demangle
libcubeb.so.0:_RNvXs1h_NtNtCs9WsFjTlRn02_4core3net7ip_addrNtB6_8Ipv6AddrINtNtNtBa_3ops3bit12BitAndAssignRBF_E13bitand_assign
libcubeb.so.0:_RNvXs1h_NtNtCs9WsFjTlRn02_4core3num11niche_typesNtB6_15NonZeroI64InnerNtNtBa_3fmt5Debug3fmt
libcubeb.so.0:_RNvXs1i_NtCs9WsFjTlRn02_4core3fmtRNtCsdQXj5kOXdfq_14rustc_demangle13DemangleStyleNtB6_7Display3fmtBy_
libcubeb.so.0:_RNvXs1i_NtCs9WsFjTlRn02_4core3fmtReNtB6_7Display3fmtCsdQXj5kOXdfq_14rustc_demangle
libcubeb.so.0:_RNvXs1j_NtNtCs9WsFjTlRn02_4core4sync6atomicNtB6_9AtomicU64NtNtBa_3fmt5Debug3fmt
libcubeb.so.0:_RNvXs1m_NtNtCs9WsFjTlRn02_4core3net7ip_addrNtB6_8Ipv6AddrNtNtNtBa_3ops3bit11BitOrAssign12bitor_assign
libcubeb.so.0:_RNvXs1m_NtNtCs9WsFjTlRn02_4core3num7nonzeroINtB6_7NonZerooENtNtNtBa_3str6traits7FromStr8from_str
libcubeb.so.0:_RNvXs1n_NtNtCs9WsFjTlRn02_4core3net7ip_addrNtB6_8Ipv6AddrINtNtNtBa_3ops3bit11BitOrAssignRBF_E12bitor_assign
libcubeb.so.0:_RNvXs1o_NtNtCs9WsFjTlRn02_4core3num11niche_typesNtB6_16NonZeroI128InnerNtNtBa_3fmt5Debug3fmt
libcubeb.so.0:_RNvXs1o_NtNtCs9WsFjTlRn02_4core4sync6atomicNtB6_11AtomicIsizeNtNtBa_3fmt5Debug3fmt
libcubeb.so.0:_RNvXs1t_NtNtCs9WsFjTlRn02_4core3num7nonzeroINtB6_7NonZerojENtNtNtBa_3str6traits7FromStr8from_str
libcubeb.so.0:_RNvXs1t_NtNtCs9WsFjTlRn02_4core4sync6atomicNtB6_11AtomicUsizeNtNtBa_3fmt5Debug3fmt
libcubeb.so.0:_RNvXs1u_NtCsjj3dQwFOuTb_3std4pathNtB6_16StripPrefixErrorNtNtCs9WsFjTlRn02_4core3fmt7Display3fmt
libcubeb.so.0:_RNvXs1v_NtNtCs9WsFjTlRn02_4core3num11niche_typesNtB6_16NonZeroCharInnerNtNtBa_3fmt5Debug3fmt
libcubeb.so.0:_RNvXs1w_NtCsjj3dQwFOuTb_3std4pathNtB6_14NormalizeErrorNtNtCs9WsFjTlRn02_4core3fmt7Display3fmt
libcubeb.so.0:_RNvXs20_NtNtCs9WsFjTlRn02_4core3str4iterNtB6_11EscapeDebugNtNtBa_3fmt7Display3fmt
libcubeb.so.0:_RNvXs23_NtNtCs9WsFjTlRn02_4core3str4iterNtB6_13EscapeDefaultNtNtBa_3fmt7Display3fmt
libcubeb.so.0:_RNvXs26_NtNtCs9WsFjTlRn02_4core3str4iterNtB6_13EscapeUnicodeNtNtBa_3fmt7Display3fmt
libcubeb.so.0:_RNvXs2R_NtNtCs9WsFjTlRn02_4core3num11niche_typesNtB6_13U32NotAllOnesNtNtBa_3fmt5Debug3fmt
libcubeb.so.0:_RNvXs2Y_NtNtCs9WsFjTlRn02_4core3num11niche_typesNtB6_13I32NotAllOnesNtNtBa_3fmt5Debug3fmt
libcubeb.so.0:_RNvXs2_CsdQXj5kOXdfq_14rustc_demangleNtB5_8DemangleNtNtCs9WsFjTlRn02_4core3fmt5Debug3fmt
libcubeb.so.0:_RNvXs2_NtCs9WsFjTlRn02_4core4bstrNtB5_7ByteStrNtNtB7_3fmt5Debug3fmt
libcubeb.so.0:_RNvXs2_NtCs9WsFjTlRn02_4core4charNtB5_13EscapeUnicodeNtNtB7_3fmt7Display3fmt
libcubeb.so.0:_RNvXs2_NtCs9WsFjTlRn02_4core4wtf8NtB5_4Wtf8NtNtB7_3fmt7Display3fmt
libcubeb.so.0:_RNvXs2_NtCsjj3dQwFOuTb_3std3envNtB5_8VarErrorNtNtCs9WsFjTlRn02_4core3fmt7Display3fmt
libcubeb.so.0:_RNvXs2_NtCsjj3dQwFOuTb_3std4timeNtB5_7InstantINtNtNtCs9WsFjTlRn02_4core3ops5arith9SubAssignNtNtBO_4time8DurationE10sub_assign
libcubeb.so.0:_RNvXs2_NtCsjj3dQwFOuTb_3std7processNtB5_5ChildNtNtCs9WsFjTlRn02_4core3fmt5Debug3fmt
libcubeb.so.0:_RNvXs2_NtNtCs19MuVdBY7V6_5alloc3ffi5c_strNtB5_7CStringNtNtCs9WsFjTlRn02_4core3fmt5Debug3fmt
libcubeb.so.0:_RNvXs2_NtNtCs19MuVdBY7V6_5alloc3vec11spec_extendINtB7_3VechEINtB5_10SpecExtendRhINtNtNtCs9WsFjTlRn02_4core5slice4iter4IterhEE11spec_extendCsl7GZAtFfcQj_9addr2line
libcubeb.so.0:_RNvXs2_NtNtCs9WsFjTlRn02_4core3fmt3numjNtB7_6Binary3fmt
libcubeb.so.0:_RNvXs2_NtNtCs9WsFjTlRn02_4core3fmt5floatfNtB7_5Debug3fmt
libcubeb.so.0:_RNvXs2_NtNtCs9WsFjTlRn02_4core3net6parserNtNtB7_7ip_addr8Ipv4AddrNtNtNtB9_3str6traits7FromStr8from_str
libcubeb.so.0:_RNvXs2_NtNtCs9WsFjTlRn02_4core3net7ip_addrNtB5_6IpAddrNtNtB9_3fmt7Display3fmt
libcubeb.so.0:_RNvXs2_NtNtCs9WsFjTlRn02_4core3num7dec2fltdNtNtNtB9_3str6traits7FromStr8from_str
libcubeb.so.0:_RNvXs2_NtNtCs9WsFjTlRn02_4core3str5lossyNtB5_10Utf8ChunksNtNtNtNtB9_4iter6traits8iterator8Iterator4next
libcubeb.so.0:_RNvXs2_NtNtCs9WsFjTlRn02_4core5slice3cmpSNtNtNtCsl0orcaMmsPI_5gimli4read6abbrev22AttributeSpecificationINtB5_14SlicePartialEqBD_E5equalBJ_
libcubeb.so.0:_RNvXs2_NtNtCs9WsFjTlRn02_4core5slice5asciiNtB5_11EscapeAsciiNtNtB9_3fmt7Display3fmt
libcubeb.so.0:_RNvXs2_NtNtCsjj3dQwFOuTb_3std12backtrace_rs9symbolizeNtB5_10SymbolNameNtNtCs9WsFjTlRn02_4core3fmt7Display3fmt
libcubeb.so.0:_RNvXs2_NtNtCsjj3dQwFOuTb_3std2io5stdioNtB5_5StdinNtNtCs9WsFjTlRn02_4core3fmt5Debug3fmt
libcubeb.so.0:_RNvXs2_NtNtCsjj3dQwFOuTb_3std3net3tcpRNtB5_9TcpStreamNtNtB9_2io5Write14write_vectored
libcubeb.so.0:_RNvXs2_NtNtCsjj3dQwFOuTb_3std3net3tcpRNtB5_9TcpStreamNtNtB9_2io5Write5write
libcubeb.so.0:_RNvXs2_NtNtCsjj3dQwFOuTb_3std3net3udpNtB5_9UdpSocketNtNtCs9WsFjTlRn02_4core3fmt5Debug3fmt
libcubeb.so.0:_RNvXs2_NtNtCsjj3dQwFOuTb_3std6thread6scopedNtB5_5ScopeNtNtCs9WsFjTlRn02_4core3fmt5Debug3fmt
libcubeb.so.0:_RNvXs2_NtNtCsl0orcaMmsPI_5gimli4read12endian_sliceNtB5_10DebugBytesNtNtCs9WsFjTlRn02_4core3fmt5Debug3fmt
libcubeb.so.0:_RNvXs2_NtNtNtCs9WsFjTlRn02_4core3num6bignum5testsNtB5_6Big8x3NtNtBb_3cmp3Ord3cmp
libcubeb.so.0:_RNvXs2_NtNtNtCsjj3dQwFOuTb_3std12backtrace_rs9backtrace9libunwindNtB5_4BombNtNtNtCs9WsFjTlRn02_4core3ops4drop4Drop4drop
libcubeb.so.0:_RNvXs2_NtNtNtCsjj3dQwFOuTb_3std2io8buffered9bufwriterNtB5_14WriterPanickedNtNtCs9WsFjTlRn02_4core3fmt7Display3fmt
libcubeb.so.0:_RNvXs2_NtNtNtCsjj3dQwFOuTb_3std3sys3env6commonNtB5_3EnvNtNtNtNtCs9WsFjTlRn02_4core4iter6traits8iterator8Iterator4next
libcubeb.so.0:_RNvXs2_NtNtNtCsjj3dQwFOuTb_3std3sys3env6commonNtB5_3EnvNtNtNtNtCs9WsFjTlRn02_4core4iter6traits8iterator8Iterator9size_hint
libcubeb.so.0:_RNvXs2_NtNtNtCsjj3dQwFOuTb_3std3sys6os_str5bytesNtB5_3BufNtNtCs9WsFjTlRn02_4core3fmt7Display3fmt
libcubeb.so.0:_RNvXs2_NtNtNtNtCsjj3dQwFOuTb_3std2os4unix3net6streamRNtB5_10UnixStreamNtNtBd_2io4Read13read_vectored
libcubeb.so.0:_RNvXs2_NtNtNtNtCsjj3dQwFOuTb_3std2os4unix3net6streamRNtB5_10UnixStreamNtNtBd_2io4Read4read
libcubeb.so.0:_RNvXs2_NtNtNtNtCsjj3dQwFOuTb_3std2os4unix3net6streamRNtB5_10UnixStreamNtNtBd_2io4Read8read_buf
libcubeb.so.0:_RNvXs2_NtNtNtNtCsjj3dQwFOuTb_3std2os4unix3net9ancillaryNtB5_14ScmCredentialsNtNtNtNtCs9WsFjTlRn02_4core4iter6traits8iterator8Iterator4next
libcubeb.so.0:_RNvXs2_NtNtNtNtCsjj3dQwFOuTb_3std3sys3net10connection6socketNtB5_10LookupHostNtNtNtCs9WsFjTlRn02_4core3ops4drop4Drop4drop
libcubeb.so.0:_RNvXs2_NtNtNtNtCsjj3dQwFOuTb_3std3sys3pal4unix4timeNtB5_7InstantNtNtCs9WsFjTlRn02_4core3fmt5Debug3fmt
libcubeb.so.0:_RNvXs2_NtNtNtNtNtCsjj3dQwFOuTb_3std3sys3net10connection6socket4unixNtB5_6SocketNtNtNtNtBf_2os2fd5owned4AsFd5as_fd
libcubeb.so.0:_RNvXs2_NtNtNtNtNtCsjj3dQwFOuTb_3std3sys3pal4unix5linux5pidfdNtB5_5PidFdNtNtNtNtBf_2os2fd3raw9FromRawFd11from_raw_fd
libcubeb.so.0:_RNvXs2_NvNtCsjj3dQwFOuTb_3std9panicking13panic_handlerNtB5_16StaticStrPayloadNtNtCs9WsFjTlRn02_4core3fmt7Display3fmt
libcubeb.so.0:_RNvXs2k_NtNtCs9WsFjTlRn02_4core3num11niche_typesNtB6_14UsizeNoHighBitNtNtBa_3fmt5Debug3fmt
libcubeb.so.0:_RNvXs2r_NtNtCs9WsFjTlRn02_4core3num11niche_typesNtB6_17NonZeroUsizeInnerNtNtBa_3fmt5Debug3fmt
libcubeb.so.0:_RNvXs2y_NtNtCs9WsFjTlRn02_4core3num11niche_typesNtB6_17NonZeroIsizeInnerNtNtBa_3fmt5Debug3fmt
libcubeb.so.0:_RNvXs35_NtNtCs9WsFjTlRn02_4core3num11niche_typesNtB6_13U64NotAllOnesNtNtBa_3fmt5Debug3fmt
libcubeb.so.0:_RNvXs3_NtCs9WsFjTlRn02_4core4bstrNtB5_7ByteStrNtNtB7_3fmt7Display3fmt
libcubeb.so.0:_RNvXs3_NtCs9WsFjTlRn02_4core5asciiNtB5_13EscapeDefaultNtNtB7_3fmt7Display3fmt
libcubeb.so.0:_RNvXs3_NtCsjj3dQwFOuTb_3std4timeNtB5_7InstantNtNtNtCs9WsFjTlRn02_4core3ops5arith3Sub3sub
libcubeb.so.0:_RNvXs3_NtCsjj3dQwFOuTb_3std7processNtB5_10ChildStdinNtNtB7_2io5Write14write_vectored
libcubeb.so.0:_RNvXs3_NtCsjj3dQwFOuTb_3std7processNtB5_10ChildStdinNtNtB7_2io5Write5write
libcubeb.so.0:_RNvXs3_NtNtCs9WsFjTlRn02_4core3fmt3numiNtB7_6Binary3fmt
libcubeb.so.0:_RNvXs3_NtNtCs9WsFjTlRn02_4core3fmt5floatfNtB7_7Display3fmt
libcubeb.so.0:_RNvXs3_NtNtCs9WsFjTlRn02_4core3net7ip_addrNtB5_6IpAddrNtNtB9_3fmt5Debug3fmt
libcubeb.so.0:_RNvXs3_NtNtCs9WsFjTlRn02_4core3num5errorNtB5_13ParseIntErrorNtNtB9_3fmt7Display3fmt
libcubeb.so.0:_RNvXs3_NtNtCs9WsFjTlRn02_4core5panic8locationNtB5_8LocationNtNtB9_3fmt5Debug3fmt
libcubeb.so.0:_RNvXs3_NtNtCs9WsFjTlRn02_4core5slice5asciiNtB5_11EscapeAsciiNtNtB9_3fmt5Debug3fmt
libcubeb.so.0:_RNvXs3_NtNtCsjj3dQwFOuTb_3std12backtrace_rs9symbolizeNtB5_10SymbolNameNtNtCs9WsFjTlRn02_4core3fmt5Debug3fmt
libcubeb.so.0:_RNvXs3_NtNtCsjj3dQwFOuTb_3std2io5errorNtB5_9ErrorKindNtNtCs9WsFjTlRn02_4core3fmt7Display3fmt
libcubeb.so.0:_RNvXs3_NtNtCsjj3dQwFOuTb_3std2io5stdioNtB5_5StdinNtB7_4Read10read_exact
libcubeb.so.0:_RNvXs3_NtNtCsjj3dQwFOuTb_3std2io5stdioNtB5_5StdinNtB7_4Read11read_to_end
libcubeb.so.0:_RNvXs3_NtNtCsjj3dQwFOuTb_3std2io5stdioNtB5_5StdinNtB7_4Read13read_vectored
libcubeb.so.0:_RNvXs3_NtNtCsjj3dQwFOuTb_3std2io5stdioNtB5_5StdinNtB7_4Read14read_buf_exact
libcubeb.so.0:_RNvXs3_NtNtCsjj3dQwFOuTb_3std2io5stdioNtB5_5StdinNtB7_4Read14read_to_string
libcubeb.so.0:_RNvXs3_NtNtCsjj3dQwFOuTb_3std2io5stdioNtB5_5StdinNtB7_4Read4read
libcubeb.so.0:_RNvXs3_NtNtCsjj3dQwFOuTb_3std2io5stdioNtB5_5StdinNtB7_4Read8read_buf
libcubeb.so.0:_RNvXs3_NtNtCsjj3dQwFOuTb_3std4sync4onceNtB5_9OnceStateNtNtCs9WsFjTlRn02_4core3fmt5Debug3fmt
libcubeb.so.0:_RNvXs3_NtNtCsl0orcaMmsPI_5gimli4read12endian_sliceNtB5_9DebugByteNtNtCs9WsFjTlRn02_4core3fmt5Debug3fmt
libcubeb.so.0:_RNvXs3_NtNtNtCs9WsFjTlRn02_4core3fmt3num3imptNtB9_7Display3fmt
libcubeb.so.0:_RNvXs3_NtNtNtCs9WsFjTlRn02_4core4iter8adapters3zipINtB5_3ZipINtNtNtBb_5slice4iter4ItertEINtBZ_7IterMutmEEINtB5_7ZipImplBW_B1o_E3newCsbW7JIls3BXH_11miniz_oxide
libcubeb.so.0:_RNvXs3_NtNtNtCsjj3dQwFOuTb_3std2io8buffered9bufwriterNtB5_14WriterPanickedNtNtCs9WsFjTlRn02_4core3fmt5Debug3fmt
libcubeb.so.0:_RNvXs3_NtNtNtCsjj3dQwFOuTb_3std2os5linux7processNtB5_5PidFdNtNtNtB9_2fd3raw9FromRawFd11from_raw_fd
libcubeb.so.0:_RNvXs3_NtNtNtCsjj3dQwFOuTb_3std3sys2fd4unixNtB5_8FileDescNtNtNtNtBb_2os2fd5owned4AsFd5as_fd
libcubeb.so.0:_RNvXs3_NtNtNtCsjj3dQwFOuTb_3std3sys5stdio4unixNtB5_6StderrNtNtBb_2io5Write14write_vectored
libcubeb.so.0:_RNvXs3_NtNtNtCsjj3dQwFOuTb_3std3sys5stdio4unixNtB5_6StderrNtNtBb_2io5Write5write
libcubeb.so.0:_RNvXs3_NtNtNtCsjj3dQwFOuTb_3std3sys6os_str5bytesNtB5_5SliceNtNtCs9WsFjTlRn02_4core3fmt5Debug3fmt
libcubeb.so.0:_RNvXs3_NtNtNtNtCsjj3dQwFOuTb_3std2os4unix3net6streamNtB5_10UnixStreamNtNtBd_2io5Write14write_vectored
libcubeb.so.0:_RNvXs3_NtNtNtNtCsjj3dQwFOuTb_3std2os4unix3net6streamNtB5_10UnixStreamNtNtBd_2io5Write5write
libcubeb.so.0:_RNvXs3_NtNtNtNtCsjj3dQwFOuTb_3std3sys2io11kernel_copy5linuxNtNtBd_2fs4FileNtB5_8CopyRead10properties
libcubeb.so.0:_RNvXs3_NtNtNtNtCsjj3dQwFOuTb_3std3sys3pal4unix4pipeNtB5_8AnonPipeNtNtNtNtBd_2os2fd3raw9FromRawFd11from_raw_fd
libcubeb.so.0:_RNvXs3_NtNtNtNtCsjj3dQwFOuTb_3std3sys7process4unix4unixNtB5_10ExitStatusNtNtCs9WsFjTlRn02_4core3fmt7Display3fmt
libcubeb.so.0:_RNvXs3_NtNtNtNtNtCsjj3dQwFOuTb_3std3sys7process4unix6common13cstring_arrayNtB5_12CStringArrayNtNtNtCs9WsFjTlRn02_4core3ops4drop4Drop4drop
libcubeb.so.0:_RNvXs3c_NtNtCs9WsFjTlRn02_4core3num11niche_typesNtB6_13I64NotAllOnesNtNtBa_3fmt5Debug3fmt
libcubeb.so.0:_RNvXs3z_NtNtCs9WsFjTlRn02_4core3num11niche_typesNtB6_14CodePointInnerNtNtBa_3fmt5Debug3fmt
libcubeb.so.0:_RNvXs4_NtCs19MuVdBY7V6_5alloc6stringNtB5_6StringNtNtCs9WsFjTlRn02_4core5clone5Clone10clone_from
libcubeb.so.0:_RNvXs4_NtCs19MuVdBY7V6_5alloc6stringNtB5_6StringNtNtCs9WsFjTlRn02_4core5clone5Clone5clone
libcubeb.so.0:_RNvXs4_NtCs9WsFjTlRn02_4core3pataNtB5_12RangePattern7sub_one
libcubeb.so.0:_RNvXs4_NtCs9WsFjTlRn02_4core5asciiNtB5_13EscapeDefaultNtNtB7_3fmt5Debug3fmt
libcubeb.so.0:_RNvXs4_NtCs9WsFjTlRn02_4core5errorNtB5_7RequestNtNtB7_3fmt5Debug3fmt
libcubeb.so.0:_RNvXs4_NtCsjj3dQwFOuTb_3std3envNtB5_10SplitPathsNtNtNtNtCs9WsFjTlRn02_4core4iter6traits8iterator8Iterator4next
libcubeb.so.0:_RNvXs4_NtCsjj3dQwFOuTb_3std4timeNtB5_7InstantNtNtCs9WsFjTlRn02_4core3fmt5Debug3fmt
libcubeb.so.0:_RNvXs4_NtCsjj3dQwFOuTb_3std7processRNtB5_10ChildStdinNtNtB7_2io5Write14write_vectored
libcubeb.so.0:_RNvXs4_NtCsjj3dQwFOuTb_3std7processRNtB5_10ChildStdinNtNtB7_2io5Write5write
libcubeb.so.0:_RNvXs4_NtCsjj3dQwFOuTb_3std9backtraceNtB5_9BacktraceNtNtCs9WsFjTlRn02_4core3fmt7Display3fmt
libcubeb.so.0:_RNvXs4_NtNtCs19MuVdBY7V6_5alloc3ffi5c_strNtB5_7CStringNtNtCs9WsFjTlRn02_4core7default7Default7default
libcubeb.so.0:_RNvXs4_NtNtCs9WsFjTlRn02_4core3fmt3numjNtB7_5Octal3fmt
libcubeb.so.0:_RNvXs4_NtNtCs9WsFjTlRn02_4core3fmt5floatfNtB7_8LowerExp3fmt
libcubeb.so.0:_RNvXs4_NtNtCs9WsFjTlRn02_4core3net11socket_addrNtB5_10SocketAddrNtNtB9_3fmt7Display3fmt
libcubeb.so.0:_RNvXs4_NtNtCs9WsFjTlRn02_4core3net6parserNtNtB7_7ip_addr8Ipv6AddrNtNtNtB9_3str6traits7FromStr8from_str
libcubeb.so.0:_RNvXs4_NtNtCs9WsFjTlRn02_4core3str5lossyNtB5_10Utf8ChunksNtNtB9_3fmt5Debug3fmt
libcubeb.so.0:_RNvXs4_NtNtCsjj3dQwFOuTb_3std2io4copyINtNtCs19MuVdBY7V6_5alloc3vec3VechENtB5_18BufferedWriterSpec11buffer_size
libcubeb.so.0:_RNvXs4_NtNtCsjj3dQwFOuTb_3std2io4pipeRNtB5_10PipeReaderNtB7_4Read11read_to_end
libcubeb.so.0:_RNvXs4_NtNtCsjj3dQwFOuTb_3std2io4pipeRNtB5_10PipeReaderNtB7_4Read13read_vectored
libcubeb.so.0:_RNvXs4_NtNtCsjj3dQwFOuTb_3std2io4pipeRNtB5_10PipeReaderNtB7_4Read4read
libcubeb.so.0:_RNvXs4_NtNtCsjj3dQwFOuTb_3std2io4pipeRNtB5_10PipeReaderNtB7_4Read8read_buf
libcubeb.so.0:_RNvXs4_NtNtCsjj3dQwFOuTb_3std2io5stdioRNtB5_5StdinNtB7_4Read10read_exact
libcubeb.so.0:_RNvXs4_NtNtCsjj3dQwFOuTb_3std2io5stdioRNtB5_5StdinNtB7_4Read11read_to_end
libcubeb.so.0:_RNvXs4_NtNtCsjj3dQwFOuTb_3std2io5stdioRNtB5_5StdinNtB7_4Read13read_vectored
libcubeb.so.0:_RNvXs4_NtNtCsjj3dQwFOuTb_3std2io5stdioRNtB5_5StdinNtB7_4Read14read_buf_exact
libcubeb.so.0:_RNvXs4_NtNtCsjj3dQwFOuTb_3std2io5stdioRNtB5_5StdinNtB7_4Read14read_to_string
libcubeb.so.0:_RNvXs4_NtNtCsjj3dQwFOuTb_3std2io5stdioRNtB5_5StdinNtB7_4Read4read
libcubeb.so.0:_RNvXs4_NtNtCsjj3dQwFOuTb_3std2io5stdioRNtB5_5StdinNtB7_4Read8read_buf
libcubeb.so.0:_RNvXs4_NtNtCsjj3dQwFOuTb_3std3net11socket_addrTRetENtB5_13ToSocketAddrs15to_socket_addrs
libcubeb.so.0:_RNvXs4_NtNtCsjj3dQwFOuTb_3std4hash6randomNtB5_11RandomStateNtNtCs9WsFjTlRn02_4core3fmt5Debug3fmt
libcubeb.so.0:_RNvXs4_NtNtCsl0orcaMmsPI_5gimli4read12endian_sliceNtB5_8DebugLenNtNtCs9WsFjTlRn02_4core3fmt5Debug3fmt
libcubeb.so.0:_RNvXs4_NtNtNtCs9WsFjTlRn02_4core3fmt3num3impsNtB9_7Display3fmt
libcubeb.so.0:_RNvXs4_NtNtNtCsjj3dQwFOuTb_3std3sys6os_str5bytesNtB5_5SliceNtNtCs9WsFjTlRn02_4core3fmt7Display3fmt
libcubeb.so.0:_RNvXs4_NtNtNtNtCsjj3dQwFOuTb_3std2os4unix3net6streamRNtB5_10UnixStreamNtNtBd_2io5Write14write_vectored
libcubeb.so.0:_RNvXs4_NtNtNtNtCsjj3dQwFOuTb_3std2os4unix3net6streamRNtB5_10UnixStreamNtNtBd_2io5Write5write
libcubeb.so.0:_RNvXs4_NtNtNtNtCsjj3dQwFOuTb_3std2os4unix3net9ancillaryNtB5_8MessagesNtNtNtNtCs9WsFjTlRn02_4core4iter6traits8iterator8Iterator4next
libcubeb.so.0:_RNvXs4_NtNtNtNtCsjj3dQwFOuTb_3std3sys2io11kernel_copy5linuxRNtNtBd_2fs4FileNtB5_8CopyRead10properties
libcubeb.so.0:_RNvXs4_NtNtNtNtNtCsjj3dQwFOuTb_3std3sys7process4unix6common13cstring_arrayNtB5_11CStringIterNtNtNtNtCs9WsFjTlRn02_4core4iter6traits8iterator8Iterator4next
libcubeb.so.0:_RNvXs4_NtNtNtNtNtCsjj3dQwFOuTb_3std3sys7process4unix6common13cstring_arrayNtB5_11CStringIterNtNtNtNtCs9WsFjTlRn02_4core4iter6traits8iterator8Iterator9size_hint
libcubeb.so.0:_RNvXs5_NtCs9WsFjTlRn02_4core3patsNtB5_12RangePattern7sub_one
libcubeb.so.0:_RNvXs5_NtCsjj3dQwFOuTb_3std3envNtB5_10SplitPathsNtNtCs9WsFjTlRn02_4core3fmt5Debug3fmt
libcubeb.so.0:_RNvXs5_NtNtCs9WsFjTlRn02_4core3fmt3numiNtB7_5Octal3fmt
libcubeb.so.0:_RNvXs5_NtNtCs9WsFjTlRn02_4core3fmt5floatfNtB7_8UpperExp3fmt
libcubeb.so.0:_RNvXs5_NtNtCs9WsFjTlRn02_4core3net11socket_addrNtB5_10SocketAddrNtNtB9_3fmt5Debug3fmt
libcubeb.so.0:_RNvXs5_NtNtCs9WsFjTlRn02_4core3num6bignumNtB5_8Big32x40NtNtB9_3cmp10PartialOrd11partial_cmp
libcubeb.so.0:_RNvXs5_NtNtCs9WsFjTlRn02_4core4char7convertNtB5_14ParseCharErrorNtNtB9_3fmt7Display3fmt
libcubeb.so.0:_RNvXs5_NtNtCs9WsFjTlRn02_4core6marker8varianceNtB5_28PhantomContravariantLifetimeNtNtB9_3fmt5Debug3fmt
libcubeb.so.0:_RNvXs5_NtNtCsjj3dQwFOuTb_3std2io4pipeNtB5_10PipeReaderNtB7_4Read11read_to_end
libcubeb.so.0:_RNvXs5_NtNtCsjj3dQwFOuTb_3std2io4pipeNtB5_10PipeReaderNtB7_4Read13read_vectored
libcubeb.so.0:_RNvXs5_NtNtCsjj3dQwFOuTb_3std2io4pipeNtB5_10PipeReaderNtB7_4Read4read
libcubeb.so.0:_RNvXs5_NtNtCsjj3dQwFOuTb_3std2io4pipeNtB5_10PipeReaderNtB7_4Read8read_buf
libcubeb.so.0:_RNvXs5_NtNtCsjj3dQwFOuTb_3std3net11socket_addrTNtNtCs19MuVdBY7V6_5alloc6string6StringtENtB5_13ToSocketAddrs15to_socket_addrs
libcubeb.so.0:_RNvXs5_NtNtNtCs9WsFjTlRn02_4core3num6bignum5testsNtB5_6Big8x3NtNtBb_3fmt5Debug3fmt
libcubeb.so.0:_RNvXs5_NtNtNtCsjj3dQwFOuTb_3std2os4unix2fsNtNtBb_2fs8DirEntryNtB5_12DirEntryExt213file_name_ref
libcubeb.so.0:_RNvXs5_NtNtNtCsjj3dQwFOuTb_3std2os5linux7processNtB5_5PidFdNtNtNtB9_2fd5owned4AsFd5as_fd
libcubeb.so.0:_RNvXs5_NtNtNtNtCsjj3dQwFOuTb_3std3sys2io11kernel_copy5linuxNtNtBd_2fs4FileNtB5_9CopyWrite10properties
libcubeb.so.0:_RNvXs5_NtNtNtNtCsjj3dQwFOuTb_3std3sys7process4unix4unixNtB5_15ExitStatusErrorNtNtCs9WsFjTlRn02_4core3fmt5Debug3fmt
libcubeb.so.0:_RNvXs5_NtNtNtNtNtCsjj3dQwFOuTb_3std3sys3net10connection6socket4unixNtB5_6SocketNtNtNtNtBf_2os2fd3raw9FromRawFd11from_raw_fd
libcubeb.so.0:_RNvXs5_NtNtNtNtNtCsjj3dQwFOuTb_3std3sys7process4unix6common13cstring_arrayNtB5_11CStringIterNtNtNtNtCs9WsFjTlRn02_4core4iter6traits10exact_size17ExactSizeIterator3len
libcubeb.so.0:_RNvXs6_NtCs9WsFjTlRn02_4core3patlNtB5_12RangePattern7sub_one
libcubeb.so.0:_RNvXs6_NtCsjj3dQwFOuTb_3std2fsNtB5_4FileNtNtCs9WsFjTlRn02_4core3fmt5Debug3fmt
libcubeb.so.0:_RNvXs6_NtCsjj3dQwFOuTb_3std3envNtB5_14JoinPathsErrorNtNtCs9WsFjTlRn02_4core3fmt7Display3fmt
libcubeb.so.0:_RNvXs6_NtCsjj3dQwFOuTb_3std4timeNtB5_10SystemTimeINtNtNtCs9WsFjTlRn02_4core3ops5arith3AddNtNtBS_4time8DurationE3add
libcubeb.so.0:_RNvXs6_NtNtCs9WsFjTlRn02_4core3fmt3numjNtB7_8LowerHex3fmt
libcubeb.so.0:_RNvXs6_NtNtCs9WsFjTlRn02_4core3fmt5floatdNtB7_5Debug3fmt
libcubeb.so.0:_RNvXs6_NtNtCs9WsFjTlRn02_4core3net11socket_addrNtB5_12SocketAddrV4NtNtB9_3fmt7Display3fmt
libcubeb.so.0:_RNvXs6_NtNtCs9WsFjTlRn02_4core3net6parserNtNtB7_11socket_addr12SocketAddrV4NtNtNtB9_3str6traits7FromStr8from_str
libcubeb.so.0:_RNvXs6_NtNtCs9WsFjTlRn02_4core3net7ip_addrNtB5_8Ipv4AddrNtNtB9_3fmt7Display3fmt
libcubeb.so.0:_RNvXs6_NtNtCs9WsFjTlRn02_4core3num6bignumNtB5_8Big32x40NtNtB9_3cmp3Ord3cmp
libcubeb.so.0:_RNvXs6_NtNtCsjj3dQwFOuTb_3std2io4pipeRNtB5_10PipeWriterNtB7_5Write14write_vectored
libcubeb.so.0:_RNvXs6_NtNtCsjj3dQwFOuTb_3std2io4pipeRNtB5_10PipeWriterNtB7_5Write5write
libcubeb.so.0:_RNvXs6_NtNtCsjj3dQwFOuTb_3std2io4utilNtB5_6RepeatNtNtCs9WsFjTlRn02_4core3fmt5Debug3fmt
libcubeb.so.0:_RNvXs6_NtNtCsjj3dQwFOuTb_3std2io5errorNtNtB5_14repr_bitpacked4ReprNtNtCs9WsFjTlRn02_4core3fmt5Debug3fmt
libcubeb.so.0:_RNvXs6_NtNtCsjj3dQwFOuTb_3std2io5stdioNtB5_9StdinLockNtB7_4Read10read_exact
libcubeb.so.0:_RNvXs6_NtNtCsjj3dQwFOuTb_3std2io5stdioNtB5_9StdinLockNtB7_4Read11read_to_end
libcubeb.so.0:_RNvXs6_NtNtCsjj3dQwFOuTb_3std2io5stdioNtB5_9StdinLockNtB7_4Read13read_vectored
libcubeb.so.0:_RNvXs6_NtNtCsjj3dQwFOuTb_3std2io5stdioNtB5_9StdinLockNtB7_4Read14read_buf_exact
libcubeb.so.0:_RNvXs6_NtNtCsjj3dQwFOuTb_3std2io5stdioNtB5_9StdinLockNtB7_4Read14read_to_string
libcubeb.so.0:_RNvXs6_NtNtCsjj3dQwFOuTb_3std2io5stdioNtB5_9StdinLockNtB7_4Read4read
libcubeb.so.0:_RNvXs6_NtNtCsjj3dQwFOuTb_3std2io5stdioNtB5_9StdinLockNtB7_4Read8read_buf
libcubeb.so.0:_RNvXs6_NtNtCsjj3dQwFOuTb_3std3net11socket_addreNtB5_13ToSocketAddrs15to_socket_addrs
libcubeb.so.0:_RNvXs6_NtNtCsjj3dQwFOuTb_3std3net3tcpNtB5_9TcpStreamNtNtCs9WsFjTlRn02_4core3fmt5Debug3fmt
libcubeb.so.0:_RNvXs6_NtNtNtCsjj3dQwFOuTb_3std2os2fd5ownedNtB5_10BorrowedFdNtNtCs9WsFjTlRn02_4core3fmt5Debug3fmt
libcubeb.so.0:_RNvXs6_NtNtNtCsjj3dQwFOuTb_3std3sys2fd4unixNtB5_8FileDescNtNtNtNtBb_2os2fd3raw9FromRawFd11from_raw_fd
libcubeb.so.0:_RNvXs6_NtNtNtNtCsjj3dQwFOuTb_3std3sys2io11kernel_copy5linuxRNtNtBd_2fs4FileNtB5_9CopyWrite10properties
libcubeb.so.0:_RNvXs6_NtNtNtNtCsjj3dQwFOuTb_3std3sys3net10connection6socketNtB5_9TcpStreamNtNtCs9WsFjTlRn02_4core3fmt5Debug3fmt
libcubeb.so.0:_RNvXs7_NtCs9WsFjTlRn02_4core3fmtNtB5_9ArgumentsNtB5_5Debug3fmt
libcubeb.so.0:_RNvXs7_NtCs9WsFjTlRn02_4core3patxNtB5_12RangePattern7sub_one
libcubeb.so.0:_RNvXs7_NtCsjj3dQwFOuTb_3std2fsRNtB5_4FileNtNtB7_2io4Read11read_to_end
libcubeb.so.0:_RNvXs7_NtCsjj3dQwFOuTb_3std2fsRNtB5_4FileNtNtB7_2io4Read14read_to_string
libcubeb.so.0:_RNvXs7_NtCsjj3dQwFOuTb_3std2ioNtB5_7IoSliceNtNtCs9WsFjTlRn02_4core3fmt5Debug3fmt
libcubeb.so.0:_RNvXs7_NtCsjj3dQwFOuTb_3std4pathNtB5_10ComponentsNtNtCs9WsFjTlRn02_4core3fmt5Debug3fmt
libcubeb.so.0:_RNvXs7_NtCsjj3dQwFOuTb_3std4timeNtB5_10SystemTimeINtNtNtCs9WsFjTlRn02_4core3ops5arith9AddAssignNtNtBS_4time8DurationE10add_assign
libcubeb.so.0:_RNvXs7_NtNtCs19MuVdBY7V6_5alloc3ffi5c_strINtNtB9_5boxed3BoxNtNtNtCs9WsFjTlRn02_4core3ffi5c_str4CStrEINtNtB11_7convert4FromRBV_E4from
libcubeb.so.0:_RNvXs7_NtNtCs9WsFjTlRn02_4core3fmt3numiNtB7_8LowerHex3fmt
libcubeb.so.0:_RNvXs7_NtNtCs9WsFjTlRn02_4core3fmt5floatdNtB7_7Display3fmt
libcubeb.so.0:_RNvXs7_NtNtCs9WsFjTlRn02_4core3net11socket_addrNtB5_12SocketAddrV4NtNtB9_3fmt5Debug3fmt
libcubeb.so.0:_RNvXs7_NtNtCs9WsFjTlRn02_4core3net7ip_addrNtB5_8Ipv4AddrNtNtB9_3fmt5Debug3fmt
libcubeb.so.0:_RNvXs7_NtNtCs9WsFjTlRn02_4core4sync6atomicNtB5_10AtomicBoolNtNtB9_3fmt5Debug3fmt
libcubeb.so.0:_RNvXs7_NtNtCsjj3dQwFOuTb_3std2io4pipeNtB5_10PipeWriterNtB7_5Write14write_vectored
libcubeb.so.0:_RNvXs7_NtNtCsjj3dQwFOuTb_3std2io4pipeNtB5_10PipeWriterNtB7_5Write5write
libcubeb.so.0:_RNvXs7_NtNtCsjj3dQwFOuTb_3std2io5errorNtB5_5ErrorNtNtCs9WsFjTlRn02_4core3fmt7Display3fmt
libcubeb.so.0:_RNvXs7_NtNtCsl0orcaMmsPI_5gimli4read6abbrevNtB5_10AttributesNtNtCs9WsFjTlRn02_4core3fmt5Debug3fmt
libcubeb.so.0:_RNvXs7_NtNtNtCsjj3dQwFOuTb_3std2os2fd5ownedNtB5_7OwnedFdNtNtCs9WsFjTlRn02_4core3fmt5Debug3fmt
libcubeb.so.0:_RNvXs7_NtNtNtNtCsjj3dQwFOuTb_3std2os4unix3net8listenerNtB5_8IncomingNtNtNtNtCs9WsFjTlRn02_4core4iter6traits8iterator8Iterator4next
libcubeb.so.0:_RNvXs7_NtNtNtNtCsjj3dQwFOuTb_3std3sys7process4unix6commonNtB5_7CommandNtNtCs9WsFjTlRn02_4core3fmt5Debug3fmt
libcubeb.so.0:_RNvXs8_NtCs9WsFjTlRn02_4core3fmtNtB5_9ArgumentsNtB5_7Display3fmt
libcubeb.so.0:_RNvXs8_NtCs9WsFjTlRn02_4core3patnNtB5_12RangePattern7sub_one
libcubeb.so.0:_RNvXs8_NtCs9WsFjTlRn02_4core5errorNtB5_6SourceNtNtNtNtB7_4iter6traits8iterator8Iterator4next
libcubeb.so.0:_RNvXs8_NtCsjj3dQwFOuTb_3std2fsRNtB5_4FileNtNtB7_2io5Write14write_vectored
libcubeb.so.0:_RNvXs8_NtCsjj3dQwFOuTb_3std2fsRNtB5_4FileNtNtB7_2io5Write5write
libcubeb.so.0:_RNvXs8_NtCsjj3dQwFOuTb_3std4timeNtB5_10SystemTimeINtNtNtCs9WsFjTlRn02_4core3ops5arith3SubNtNtBS_4time8DurationE3sub
libcubeb.so.0:_RNvXs8_NtCsjj3dQwFOuTb_3std7processNtB5_10ChildStdinNtNtCs9WsFjTlRn02_4core3fmt5Debug3fmt
libcubeb.so.0:_RNvXs8_NtNtCs19MuVdBY7V6_5alloc3ffi5c_strINtNtB9_5boxed3BoxNtNtNtCs9WsFjTlRn02_4core3ffi5c_str4CStrEINtNtB11_7convert4FromQBV_E4from
libcubeb.so.0:_RNvXs8_NtNtCs9WsFjTlRn02_4core3fmt3numjNtB7_8UpperHex3fmt
libcubeb.so.0:_RNvXs8_NtNtCs9WsFjTlRn02_4core3fmt5floatdNtB7_8LowerExp3fmt
libcubeb.so.0:_RNvXs8_NtNtCs9WsFjTlRn02_4core3net11socket_addrNtB5_12SocketAddrV6NtNtB9_3fmt7Display3fmt
libcubeb.so.0:_RNvXs8_NtNtCs9WsFjTlRn02_4core3net6parserNtNtB7_11socket_addr12SocketAddrV6NtNtNtB9_3str6traits7FromStr8from_str
libcubeb.so.0:_RNvXs8_NtNtCs9WsFjTlRn02_4core4char7convertNtB5_16CharTryFromErrorNtNtB9_3fmt7Display3fmt
libcubeb.so.0:_RNvXs8_NtNtCsjj3dQwFOuTb_3std2io5errorNtB5_5ErrorNtNtCs9WsFjTlRn02_4core5error5Error5cause
libcubeb.so.0:_RNvXs8_NtNtCsjj3dQwFOuTb_3std2io5errorNtB5_5ErrorNtNtCs9WsFjTlRn02_4core5error5Error6source
libcubeb.so.0:_RNvXs8_NtNtCsjj3dQwFOuTb_3std2io5stdioNtB5_9StdinLockNtB7_7BufRead10read_until
libcubeb.so.0:_RNvXs8_NtNtCsjj3dQwFOuTb_3std2io5stdioNtB5_9StdinLockNtB7_7BufRead7consume
libcubeb.so.0:_RNvXs8_NtNtCsjj3dQwFOuTb_3std2io5stdioNtB5_9StdinLockNtB7_7BufRead8fill_buf
libcubeb.so.0:_RNvXs8_NtNtCsjj3dQwFOuTb_3std2io5stdioNtB5_9StdinLockNtB7_7BufRead9read_line
libcubeb.so.0:_RNvXs8_NtNtCsjj3dQwFOuTb_3std3net3tcpNtB5_8IncomingNtNtNtNtCs9WsFjTlRn02_4core4iter6traits8iterator8Iterator4next
libcubeb.so.0:_RNvXs8_NtNtCsl0orcaMmsPI_5gimli4read6abbrevNtB5_10AttributesNtNtCs9WsFjTlRn02_4core3cmp9PartialEq2eq
libcubeb.so.0:_RNvXs8_NtNtNtCs9WsFjTlRn02_4core3fmt3num3impmNtB9_7Display3fmt
libcubeb.so.0:_RNvXs8_NtNtNtNtCsjj3dQwFOuTb_3std3sys7process4unix6commonNtB5_8ExitCodeNtNtCs9WsFjTlRn02_4core3fmt5Debug3fmt
libcubeb.so.0:_RNvXs9_NtCs9WsFjTlRn02_4core3patiNtB5_12RangePattern7sub_one
libcubeb.so.0:_RNvXs9_NtCs9WsFjTlRn02_4core5sliceNtB5_19GetDisjointMutErrorNtNtB7_3fmt7Display3fmt
libcubeb.so.0:_RNvXs9_NtCsjj3dQwFOuTb_3std2fsRNtB5_4FileNtNtB7_2io4Seek10stream_len
libcubeb.so.0:_RNvXs9_NtCsjj3dQwFOuTb_3std2fsRNtB5_4FileNtNtB7_2io4Seek15stream_position
libcubeb.so.0:_RNvXs9_NtCsjj3dQwFOuTb_3std2fsRNtB5_4FileNtNtB7_2io4Seek4seek
libcubeb.so.0:_RNvXs9_NtCsjj3dQwFOuTb_3std4timeNtB5_10SystemTimeINtNtNtCs9WsFjTlRn02_4core3ops5arith9SubAssignNtNtBS_4time8DurationE10sub_assign
libcubeb.so.0:_RNvXs9_NtCsjj3dQwFOuTb_3std7processNtB5_11ChildStdoutNtNtB7_2io4Read11read_to_end
libcubeb.so.0:_RNvXs9_NtCsjj3dQwFOuTb_3std7processNtB5_11ChildStdoutNtNtB7_2io4Read13read_vectored
libcubeb.so.0:_RNvXs9_NtCsjj3dQwFOuTb_3std7processNtB5_11ChildStdoutNtNtB7_2io4Read4read
libcubeb.so.0:_RNvXs9_NtCsjj3dQwFOuTb_3std7processNtB5_11ChildStdoutNtNtB7_2io4Read8read_buf
libcubeb.so.0:_RNvXs9_NtNtCs9WsFjTlRn02_4core3fmt3numiNtB7_8UpperHex3fmt
libcubeb.so.0:_RNvXs9_NtNtCs9WsFjTlRn02_4core3fmt5floatdNtB7_8UpperExp3fmt
libcubeb.so.0:_RNvXs9_NtNtCs9WsFjTlRn02_4core3net11socket_addrNtB5_12SocketAddrV6NtNtB9_3fmt5Debug3fmt
libcubeb.so.0:_RNvXs9_NtNtCs9WsFjTlRn02_4core3num6bignumNtB5_8Big32x40NtNtB9_3fmt5Debug3fmt
libcubeb.so.0:_RNvXs9_NtNtCs9WsFjTlRn02_4core4task4wakeNtB5_5WakerNtNtB9_3fmt5Debug3fmt
libcubeb.so.0:_RNvXs9_NtNtCs9WsFjTlRn02_4core6marker8varianceNtB5_24PhantomInvariantLifetimeNtNtB9_3fmt5Debug3fmt
libcubeb.so.0:_RNvXs9_NtNtCsjj3dQwFOuTb_3std2io5stdioNtB5_9StdinLockNtNtCs9WsFjTlRn02_4core3fmt5Debug3fmt
libcubeb.so.0:_RNvXs9_NtNtCsjj3dQwFOuTb_3std3ffi6os_strNtB5_8OsStringNtNtCs9WsFjTlRn02_4core3fmt5Debug3fmt
libcubeb.so.0:_RNvXs9_NtNtCsjj3dQwFOuTb_3std3net11socket_addrNtNtCs19MuVdBY7V6_5alloc6string6StringNtB5_13ToSocketAddrs15to_socket_addrs
libcubeb.so.0:_RNvXs9_NtNtNtCs9WsFjTlRn02_4core3fmt3num3implNtB9_7Display3fmt
libcubeb.so.0:_RNvXs9_NtNtNtCsjj3dQwFOuTb_3std3sys2fs4unixNtB5_8FileTypeNtNtCs9WsFjTlRn02_4core3fmt5Debug3fmt
libcubeb.so.0:_RNvXs9_NtNtNtNtCsjj3dQwFOuTb_3std3sys3net10connection6socketNtB5_11TcpListenerNtNtCs9WsFjTlRn02_4core3fmt5Debug3fmt
libcubeb.so.0:_RNvXsA_NtNtCs9WsFjTlRn02_4core3fmt3numyNtB7_5Octal3fmt
libcubeb.so.0:_RNvXsA_NtNtNtCs9WsFjTlRn02_4core3fmt3num3impyNtB9_8LowerExp3fmt
libcubeb.so.0:_RNvXsA_NtNtNtCsjj3dQwFOuTb_3std2os2fd5ownedNtNtNtBb_2io4pipe10PipeWriterNtB5_4AsFd5as_fd
libcubeb.so.0:_RNvXsB_NtNtCs9WsFjTlRn02_4core3fmt3numxNtB7_5Octal3fmt
libcubeb.so.0:_RNvXsB_NtNtCs9WsFjTlRn02_4core3num11niche_typesNtB5_15NonZeroU32InnerNtNtB9_3fmt5Debug3fmt
libcubeb.so.0:_RNvXsB_NtNtNtCs9WsFjTlRn02_4core3fmt3num3impxNtB9_8UpperExp3fmt
libcubeb.so.0:_RNvXsC_NtNtCs9WsFjTlRn02_4core3fmt3numyNtB7_8LowerHex3fmt
libcubeb.so.0:_RNvXsC_NtNtNtCs9WsFjTlRn02_4core3fmt3num3impyNtB9_8UpperExp3fmt
libcubeb.so.0:_RNvXsD_NtCs19MuVdBY7V6_5alloc3vecINtB5_3VechEINtNtCs9WsFjTlRn02_4core7convert4FromReE4from
libcubeb.so.0:_RNvXsD_NtNtCs9WsFjTlRn02_4core3fmt3numxNtB7_8LowerHex3fmt
libcubeb.so.0:_RNvXsD_NtNtCsjj3dQwFOuTb_3std3ffi6os_strReINtNtCs9WsFjTlRn02_4core7convert7TryFromRNtB5_5OsStrE8try_from
libcubeb.so.0:_RNvXsD_NtNtNtCs9WsFjTlRn02_4core3fmt3num3impiNtB9_8LowerExp3fmt
libcubeb.so.0:_RNvXsE_NtCs9WsFjTlRn02_4core4charNtB5_11ToUppercaseNtNtNtNtB7_4iter6traits8iterator8Iterator10advance_by
libcubeb.so.0:_RNvXsE_NtCs9WsFjTlRn02_4core4charNtB5_11ToUppercaseNtNtNtNtB7_4iter6traits8iterator8Iterator24___iterator_get_unchecked
libcubeb.so.0:_RNvXsE_NtCs9WsFjTlRn02_4core4charNtB5_11ToUppercaseNtNtNtNtB7_4iter6traits8iterator8Iterator4last
libcubeb.so.0:_RNvXsE_NtCs9WsFjTlRn02_4core4charNtB5_11ToUppercaseNtNtNtNtB7_4iter6traits8iterator8Iterator4next
libcubeb.so.0:_RNvXsE_NtCs9WsFjTlRn02_4core4charNtB5_11ToUppercaseNtNtNtNtB7_4iter6traits8iterator8Iterator5count
libcubeb.so.0:_RNvXsE_NtNtCs9WsFjTlRn02_4core3fmt3numyNtB7_8UpperHex3fmt
libcubeb.so.0:_RNvXsE_NtNtNtCs9WsFjTlRn02_4core3fmt3num3impjNtB9_8LowerExp3fmt
libcubeb.so.0:_RNvXsF_NtCs9WsFjTlRn02_4core4charNtB5_11ToUppercaseNtNtNtNtB7_4iter6traits12double_ended19DoubleEndedIterator15advance_back_by
libcubeb.so.0:_RNvXsF_NtCs9WsFjTlRn02_4core4charNtB5_11ToUppercaseNtNtNtNtB7_4iter6traits12double_ended19DoubleEndedIterator9next_back
libcubeb.so.0:_RNvXsF_NtNtCs9WsFjTlRn02_4core3fmt3numxNtB7_8UpperHex3fmt
libcubeb.so.0:_RNvXsF_NtNtNtCs9WsFjTlRn02_4core3fmt3num3impiNtB9_8UpperExp3fmt
libcubeb.so.0:_RNvXsG_NtCsjj3dQwFOuTb_3std4pathNtB5_7PathBufNtNtCs9WsFjTlRn02_4core3fmt5Debug3fmt
libcubeb.so.0:_RNvXsG_NtNtCs9WsFjTlRn02_4core3fmt3numoNtB7_6Binary3fmt
libcubeb.so.0:_RNvXsG_NtNtNtCs9WsFjTlRn02_4core3fmt3num3impjNtB9_8UpperExp3fmt
libcubeb.so.0:_RNvXsH_NtNtCs9WsFjTlRn02_4core3fmt3numnNtB7_6Binary3fmt
libcubeb.so.0:_RNvXsI_NtNtCs9WsFjTlRn02_4core3fmt3numoNtB7_5Octal3fmt
libcubeb.so.0:_RNvXsI_NtNtCs9WsFjTlRn02_4core3num11niche_typesNtB5_15NonZeroU64InnerNtNtB9_3fmt5Debug3fmt
libcubeb.so.0:_RNvXsJ_NtNtCs9WsFjTlRn02_4core3fmt3numnNtB7_5Octal3fmt
libcubeb.so.0:_RNvXsK_NtCs19MuVdBY7V6_5alloc6stringNtB5_6StringINtNtCs9WsFjTlRn02_4core7convert4FromINtNtB7_5boxed3BoxeEE4from
libcubeb.so.0:_RNvXsK_NtNtCs9WsFjTlRn02_4core3fmt3numoNtB7_8LowerHex3fmt
libcubeb.so.0:_RNvXsK_NtNtCs9WsFjTlRn02_4core4sync6atomicNtB5_8AtomicI8NtNtB9_3fmt5Debug3fmt
libcubeb.so.0:_RNvXsL_NtCs19MuVdBY7V6_5alloc6stringINtNtB7_5boxed3BoxeEINtNtCs9WsFjTlRn02_4core7convert4FromNtB5_6StringE4from
libcubeb.so.0:_RNvXsL_NtCsjj3dQwFOuTb_3std7processNtB5_10ExitStatusNtNtCs9WsFjTlRn02_4core3fmt7Display3fmt
libcubeb.so.0:_RNvXsL_NtNtCs9WsFjTlRn02_4core3fmt3numnNtB7_8LowerHex3fmt
libcubeb.so.0:_RNvXsM_NtCs19MuVdBY7V6_5alloc6stringNtB5_6StringINtNtCs9WsFjTlRn02_4core7convert4FromINtNtB7_6borrow3CoweEE4from
libcubeb.so.0:_RNvXsM_NtNtCs9WsFjTlRn02_4core3fmt3numoNtB7_8UpperHex3fmt
libcubeb.so.0:_RNvXsN_NtNtCs9WsFjTlRn02_4core3fmt3numnNtB7_8UpperHex3fmt
libcubeb.so.0:_RNvXsN_NtNtCs9WsFjTlRn02_4core3str4iterNtB5_11EncodeUtf16NtNtB9_3fmt5Debug3fmt
libcubeb.so.0:_RNvXsO_NtNtCsjj3dQwFOuTb_3std3ffi6os_strNtB5_5OsStrNtNtCs9WsFjTlRn02_4core3fmt5Debug3fmt
libcubeb.so.0:_RNvXsP_NtCsjj3dQwFOuTb_3std7processNtB5_15ExitStatusErrorNtNtCs9WsFjTlRn02_4core3fmt7Display3fmt
libcubeb.so.0:_RNvXsP_NtNtCs9WsFjTlRn02_4core3num11niche_typesNtB5_16NonZeroU128InnerNtNtB9_3fmt5Debug3fmt
libcubeb.so.0:_RNvXsP_NtNtCs9WsFjTlRn02_4core4sync6atomicNtB5_8AtomicU8NtNtB9_3fmt5Debug3fmt
libcubeb.so.0:_RNvXsP_NtNtCsjj3dQwFOuTb_3std3ffi6os_strNtB5_7DisplayNtNtCs9WsFjTlRn02_4core3fmt5Debug3fmt
libcubeb.so.0:_RNvXsQ_NtNtCsjj3dQwFOuTb_3std3ffi6os_strNtB5_7DisplayNtNtCs9WsFjTlRn02_4core3fmt7Display3fmt
libcubeb.so.0:_RNvXsU_NtNtCs9WsFjTlRn02_4core3num7nonzeroINtB5_7NonZerohENtNtNtB9_3str6traits7FromStr8from_str
libcubeb.so.0:_RNvXsU_NtNtCs9WsFjTlRn02_4core4sync6atomicNtB5_9AtomicI16NtNtB9_3fmt5Debug3fmt
libcubeb.so.0:_RNvXsV_NtCs19MuVdBY7V6_5alloc6stringNtB5_6StringINtNtCs9WsFjTlRn02_4core7convert7TryFromINtNtB7_3vec3VechEE8try_from
libcubeb.so.0:_RNvXsV_NtCs9WsFjTlRn02_4core5arrayAhj4_NtNtB7_7default7Default7defaultCsbW7JIls3BXH_11miniz_oxide
libcubeb.so.0:_RNvXsW_NtNtCs9WsFjTlRn02_4core3num11niche_typesNtB5_14NonZeroI8InnerNtNtB9_3fmt5Debug3fmt
libcubeb.so.0:_RNvXsX_NtCs19MuVdBY7V6_5alloc6stringNtB5_9IntoCharsNtNtCs9WsFjTlRn02_4core3fmt5Debug3fmt
libcubeb.so.0:_RNvXsX_NtCs9WsFjTlRn02_4core5arrayAhj2_NtNtB7_7default7Default7defaultCsbW7JIls3BXH_11miniz_oxide
libcubeb.so.0:_RNvXsZ_NtNtCs9WsFjTlRn02_4core4sync6atomicNtB5_9AtomicU16NtNtB9_3fmt5Debug3fmt
libcubeb.so.0:_RNvXs_CsdQXj5kOXdfq_14rustc_demangleNtB4_13DemangleStyleNtNtCs9WsFjTlRn02_4core3fmt7Display3fmt
libcubeb.so.0:_RNvXs_NtCs19MuVdBY7V6_5alloc4wtf8NtB4_7Wtf8BufNtNtNtCs9WsFjTlRn02_4core3ops5deref8DerefMut9deref_mut
libcubeb.so.0:_RNvXs_NtCs9WsFjTlRn02_4core3anyDNtB4_3AnyEL_NtNtB6_3fmt5Debug3fmt
libcubeb.so.0:_RNvXs_NtCs9WsFjTlRn02_4core5allocNtB4_10AllocErrorNtNtB6_3fmt7Display3fmt
libcubeb.so.0:_RNvXs_NtCsjj3dQwFOuTb_3std2fsNtB4_12TryLockErrorNtNtCs9WsFjTlRn02_4core3fmt5Debug3fmt
libcubeb.so.0:_RNvXs_NtCsjj3dQwFOuTb_3std3envNtB4_4VarsNtNtCs9WsFjTlRn02_4core3fmt5Debug3fmt
libcubeb.so.0:_RNvXs_NtCsjj3dQwFOuTb_3std4timeNtB4_7InstantINtNtNtCs9WsFjTlRn02_4core3ops5arith3AddNtNtBN_4time8DurationE3add
libcubeb.so.0:_RNvXs_NtCsjj3dQwFOuTb_3std5panicNtB4_13PanicHookInfoNtNtCs9WsFjTlRn02_4core3fmt7Display3fmt
libcubeb.so.0:_RNvXs_NtCsjj3dQwFOuTb_3std9backtraceNtB4_14BacktraceFrameNtNtCs9WsFjTlRn02_4core3fmt5Debug3fmt
libcubeb.so.0:_RNvXs_NtNtCs9WsFjTlRn02_4core3fmt3numnNtB6_7Display3fmt
libcubeb.so.0:_RNvXs_NtNtCs9WsFjTlRn02_4core3num6bignumtNtB4_7FullOps12full_div_rem
libcubeb.so.0:_RNvXs_NtNtCs9WsFjTlRn02_4core3num7dec2fltNtB4_15ParseFloatErrorNtNtB8_3fmt7Display3fmt
libcubeb.so.0:_RNvXs_NtNtCs9WsFjTlRn02_4core3ptr9alignmentNtB4_9AlignmentNtNtB8_3fmt5Debug3fmt
libcubeb.so.0:_RNvXs_NtNtCs9WsFjTlRn02_4core3str4iterNtB4_5CharsNtNtB8_3fmt5Debug3fmt
libcubeb.so.0:_RNvXs_NtNtCs9WsFjTlRn02_4core3str5errorNtB4_9Utf8ErrorNtNtB8_3fmt7Display3fmt
libcubeb.so.0:_RNvXs_NtNtCs9WsFjTlRn02_4core5panic10panic_infoNtB4_9PanicInfoNtNtB8_3fmt7Display3fmt
libcubeb.so.0:_RNvXs_NtNtCsjj3dQwFOuTb_3std10sys_common4wstrNtB4_9WStrUnitsNtNtNtNtCs9WsFjTlRn02_4core4iter6traits8iterator8Iterator4next
libcubeb.so.0:_RNvXs_NtNtCsjj3dQwFOuTb_3std12backtrace_rs9backtraceNtB4_5FrameNtNtCs9WsFjTlRn02_4core3fmt5Debug3fmt
libcubeb.so.0:_RNvXs_NtNtCsjj3dQwFOuTb_3std2io5stdioNtB4_9StdoutRawNtB6_5Write14write_vectored
libcubeb.so.0:_RNvXs_NtNtCsjj3dQwFOuTb_3std2io5stdioNtB4_9StdoutRawNtB6_5Write18write_all_vectored
libcubeb.so.0:_RNvXs_NtNtCsjj3dQwFOuTb_3std2io5stdioNtB4_9StdoutRawNtB6_5Write5flush
libcubeb.so.0:_RNvXs_NtNtCsjj3dQwFOuTb_3std2io5stdioNtB4_9StdoutRawNtB6_5Write5write
libcubeb.so.0:_RNvXs_NtNtCsjj3dQwFOuTb_3std2io5stdioNtB4_9StdoutRawNtB6_5Write9write_all
libcubeb.so.0:_RNvXs_NtNtCsjj3dQwFOuTb_3std2io5stdioNtB4_9StdoutRawNtB6_5Write9write_fmt
libcubeb.so.0:_RNvXs_NtNtCsjj3dQwFOuTb_3std3net3tcpNtB4_9TcpStreamNtNtB8_2io4Read13read_vectored
libcubeb.so.0:_RNvXs_NtNtCsjj3dQwFOuTb_3std3net3tcpNtB4_9TcpStreamNtNtB8_2io4Read4read
libcubeb.so.0:_RNvXs_NtNtCsjj3dQwFOuTb_3std3net3tcpNtB4_9TcpStreamNtNtB8_2io4Read8read_buf
libcubeb.so.0:_RNvXs_NtNtCsjj3dQwFOuTb_3std4sync7barrierNtB4_7BarrierNtNtCs9WsFjTlRn02_4core3fmt5Debug3fmt
libcubeb.so.0:_RNvXs_NtNtCsjj3dQwFOuTb_3std4sync9nonpoisonNtB4_10WouldBlockNtNtCs9WsFjTlRn02_4core3fmt7Display3fmt
libcubeb.so.0:_RNvXs_NtNtCsjj3dQwFOuTb_3std6thread5localNtB4_11AccessErrorNtNtCs9WsFjTlRn02_4core3fmt5Debug3fmt
libcubeb.so.0:_RNvXs_NtNtNtCs9WsFjTlRn02_4core3fmt3num3impaNtB8_7Display3fmt
libcubeb.so.0:_RNvXs_NtNtNtCs9WsFjTlRn02_4core3num7dec2flt5floatfNtB4_8RawFloat15pow10_fast_path
libcubeb.so.0:_RNvXs_NtNtNtCs9WsFjTlRn02_4core4iter8adapters6copiedINtB4_6CopiedINtNtB6_4take4TakeINtNtNtBa_5slice4iter4IterhEEENtNtNtB8_6traits8iterator8Iterator4nextCsl0orcaMmsPI_5gimli
libcubeb.so.0:_RNvXs_NtNtNtCsjj3dQwFOuTb_3std3sys2fd4unixRNtB4_8FileDescNtNtBa_2io4Read13read_vectored
libcubeb.so.0:_RNvXs_NtNtNtCsjj3dQwFOuTb_3std3sys2fd4unixRNtB4_8FileDescNtNtBa_2io4Read4read
libcubeb.so.0:_RNvXs_NtNtNtCsjj3dQwFOuTb_3std3sys2fd4unixRNtB4_8FileDescNtNtBa_2io4Read8read_buf
libcubeb.so.0:_RNvXs_NtNtNtCsjj3dQwFOuTb_3std3sys3env6commonNtB4_3EnvNtNtCs9WsFjTlRn02_4core3fmt5Debug3fmt
libcubeb.so.0:_RNvXs_NtNtNtCsjj3dQwFOuTb_3std3sys5stdio4unixNtB4_5StdinNtNtBa_2io4Read13read_vectored
libcubeb.so.0:_RNvXs_NtNtNtCsjj3dQwFOuTb_3std3sys5stdio4unixNtB4_5StdinNtNtBa_2io4Read4read
libcubeb.so.0:_RNvXs_NtNtNtCsjj3dQwFOuTb_3std3sys5stdio4unixNtB4_5StdinNtNtBa_2io4Read8read_buf
libcubeb.so.0:_RNvXs_NtNtNtCsjj3dQwFOuTb_3std4sync4mpmc4zeroNtB4_9ZeroTokenNtNtCs9WsFjTlRn02_4core3fmt5Debug3fmt
libcubeb.so.0:_RNvXs_NtNtNtCsjj3dQwFOuTb_3std4sync6poison7condvarNtB4_7CondvarNtNtCs9WsFjTlRn02_4core3fmt5Debug3fmt
libcubeb.so.0:_RNvXs_NtNtNtCsjj3dQwFOuTb_3std4sync9nonpoison7condvarNtB4_7CondvarNtNtCs9WsFjTlRn02_4core3fmt5Debug3fmt
libcubeb.so.0:_RNvXs_NtNtNtNtCsjj3dQwFOuTb_3std12backtrace_rs9symbolize5gimli19parse_running_mmapsNtB4_9MapsEntryNtNtNtCs9WsFjTlRn02_4core3str6traits7FromStr8from_str
libcubeb.so.0:_RNvXs_NtNtNtNtCsjj3dQwFOuTb_3std12backtrace_rs9symbolize5gimli4mmapNtB4_4MmapNtNtNtCs9WsFjTlRn02_4core3ops5deref5Deref5deref
libcubeb.so.0:_RNvXs_NtNtNtNtCsjj3dQwFOuTb_3std2os3net9linux_ext3tcpNtNtNtBc_3net3tcp9TcpStreamNtB4_12TcpStreamExt11deferaccept
libcubeb.so.0:_RNvXs_NtNtNtNtCsjj3dQwFOuTb_3std2os3net9linux_ext3tcpNtNtNtBc_3net3tcp9TcpStreamNtB4_12TcpStreamExt12set_quickack
libcubeb.so.0:_RNvXs_NtNtNtNtCsjj3dQwFOuTb_3std2os3net9linux_ext3tcpNtNtNtBc_3net3tcp9TcpStreamNtB4_12TcpStreamExt15set_deferaccept
libcubeb.so.0:_RNvXs_NtNtNtNtCsjj3dQwFOuTb_3std2os3net9linux_ext3tcpNtNtNtBc_3net3tcp9TcpStreamNtB4_12TcpStreamExt8quickack
libcubeb.so.0:_RNvXs_NtNtNtNtCsjj3dQwFOuTb_3std2os3net9linux_ext6socketNtNtNtNtBa_4unix3net6stream10UnixStreamNtB4_13UnixSocketExt12set_passcred
libcubeb.so.0:_RNvXs_NtNtNtNtCsjj3dQwFOuTb_3std2os3net9linux_ext6socketNtNtNtNtBa_4unix3net6stream10UnixStreamNtB4_13UnixSocketExt8passcred
libcubeb.so.0:_RNvXs_NtNtNtNtCsjj3dQwFOuTb_3std2os4unix3net6streamNtB4_10UnixStreamNtNtCs9WsFjTlRn02_4core3fmt5Debug3fmt
libcubeb.so.0:_RNvXs_NtNtNtNtCsjj3dQwFOuTb_3std2os4unix3net8datagramNtB4_12UnixDatagramNtNtCs9WsFjTlRn02_4core3fmt5Debug3fmt
libcubeb.so.0:_RNvXs_NtNtNtNtCsjj3dQwFOuTb_3std3sys2fs4unix3cfmNtB4_18CachedFileMetadataNtNtBc_2io5Write14write_vectored
libcubeb.so.0:_RNvXs_NtNtNtNtCsjj3dQwFOuTb_3std3sys2fs4unix3cfmNtB4_18CachedFileMetadataNtNtBc_2io5Write5write
libcubeb.so.0:_RNvXs_NtNtNtNtCsjj3dQwFOuTb_3std3sys3net10connection6socketNtB4_10LookupHostNtNtNtNtCs9WsFjTlRn02_4core4iter6traits8iterator8Iterator4next
libcubeb.so.0:_RNvXs_NtNtNtNtCsjj3dQwFOuTb_3std3sys3pal4unix14stack_overflowNtB4_7HandlerNtNtNtCs9WsFjTlRn02_4core3ops4drop4Drop4drop
libcubeb.so.0:_RNvXs_NtNtNtNtCsjj3dQwFOuTb_3std3sys3pal4unix4timeNtB4_10SystemTimeNtNtCs9WsFjTlRn02_4core3fmt5Debug3fmt
libcubeb.so.0:_RNvXs_NtNtNtNtCsjj3dQwFOuTb_3std3sys4sync4once5futexNtB4_15CompletionGuardNtNtNtCs9WsFjTlRn02_4core3ops4drop4Drop4drop
libcubeb.so.0:_RNvXs_NtNtNtNtNtCsjj3dQwFOuTb_3std3sys7process4unix6common13cstring_arrayNtB4_12CStringArrayINtNtNtCs9WsFjTlRn02_4core3ops5index5IndexjE5index
libcubeb.so.0:_RNvXs_NvMNtNtNtNtCsjj3dQwFOuTb_3std3sys7process4unix4unixNtNtB9_6common7Command11posix_spawnNtB4_14PosixSpawnattrNtNtNtCs9WsFjTlRn02_4core3ops4drop4Drop4drop
libcubeb.so.0:_RNvXs_NvMs_NtNtCs19MuVdBY7V6_5alloc3ffi5c_strNtB9_7CString3newRShNtB4_11SpecNewImpl13spec_new_impl
libcubeb.so.0:_RNvXs_NvMs_NtNtNtCsjj3dQwFOuTb_3std2io8buffered9bufwriterINtB9_9BufWriterpE9flush_bufNtB4_8BufGuardNtNtNtCs9WsFjTlRn02_4core3ops4drop4Drop4drop
libcubeb.so.0:_RNvXs_NvNtCsjj3dQwFOuTb_3std9panicking13panic_handlerNtB4_19FormatStringPayloadNtNtCs9WsFjTlRn02_4core5panic12PanicPayload3get
libcubeb.so.0:_RNvXs_NvNtCsjj3dQwFOuTb_3std9panicking13panic_handlerNtB4_19FormatStringPayloadNtNtCs9WsFjTlRn02_4core5panic12PanicPayload8take_box
libcubeb.so.0:_RNvXs_NvNtCsjj3dQwFOuTb_3std9panicking13resume_unwindNtB4_9RewrapBoxNtNtCs9WsFjTlRn02_4core3fmt7Display3fmt
libcubeb.so.0:_RNvXs_NvXsf_NtNtCs19MuVdBY7V6_5alloc5boxed7convertINtBc_3BoxDNtNtCs9WsFjTlRn02_4core5error5ErrorNtNtB11_6marker4SendNtB1y_4SyncEL_EINtNtB11_7convert4FromNtNtBe_6string6StringE4fromNtB4_11StringErrorNtNtB11_3fmt7Display3fmt
libcubeb.so.0:_RNvXsa_NtCs9WsFjTlRn02_4core3anyNtB5_6TypeIdNtNtB7_3fmt5Debug3fmt
libcubeb.so.0:_RNvXsa_NtCs9WsFjTlRn02_4core3pathNtB5_12RangePattern7sub_one
libcubeb.so.0:_RNvXsa_NtCs9WsFjTlRn02_4core4timeNtB5_8DurationNtNtB7_3fmt5Debug3fmt
libcubeb.so.0:_RNvXsa_NtCs9WsFjTlRn02_4core4wtf8NtB5_14Wtf8CodePointsNtNtB7_3fmt5Debug3fmt
libcubeb.so.0:_RNvXsa_NtCsjj3dQwFOuTb_3std2fsNtB5_4FileNtNtB7_2io4Read11read_to_end
libcubeb.so.0:_RNvXsa_NtCsjj3dQwFOuTb_3std2fsNtB5_4FileNtNtB7_2io4Read13read_vectored
libcubeb.so.0:_RNvXsa_NtCsjj3dQwFOuTb_3std2fsNtB5_4FileNtNtB7_2io4Read14read_to_string
libcubeb.so.0:_RNvXsa_NtCsjj3dQwFOuTb_3std2fsNtB5_4FileNtNtB7_2io4Read4read
libcubeb.so.0:_RNvXsa_NtCsjj3dQwFOuTb_3std2fsNtB5_4FileNtNtB7_2io4Read8read_buf
libcubeb.so.0:_RNvXsa_NtCsjj3dQwFOuTb_3std3envNtB5_4ArgsNtNtNtNtCs9WsFjTlRn02_4core4iter6traits8iterator8Iterator4next
libcubeb.so.0:_RNvXsa_NtCsjj3dQwFOuTb_3std4timeNtB5_10SystemTimeNtNtCs9WsFjTlRn02_4core3fmt5Debug3fmt
libcubeb.so.0:_RNvXsa_NtNtCs9WsFjTlRn02_4core3fmt3numhNtB7_6Binary3fmt
libcubeb.so.0:_RNvXsa_NtNtCs9WsFjTlRn02_4core3fmt5floatC3f16NtB7_5Debug3fmt
libcubeb.so.0:_RNvXsa_NtNtCs9WsFjTlRn02_4core3net6parserNtNtB7_11socket_addr10SocketAddrNtNtNtB9_3str6traits7FromStr8from_str
libcubeb.so.0:_RNvXsa_NtNtCsjj3dQwFOuTb_3std3net3tcpNtB5_12IntoIncomingNtNtNtNtCs9WsFjTlRn02_4core4iter6traits8iterator8Iterator4next
libcubeb.so.0:_RNvXsa_NtNtCsl0orcaMmsPI_5gimli4read6abbrevNtB5_10AttributesNtNtNtCs9WsFjTlRn02_4core3ops5deref5Deref5deref
libcubeb.so.0:_RNvXsb_NtCs9WsFjTlRn02_4core3fmtNtB5_9FormatterNtB5_5Write10write_char
libcubeb.so.0:_RNvXsb_NtCs9WsFjTlRn02_4core3fmtNtB5_9FormatterNtB5_5Write9write_str
libcubeb.so.0:_RNvXsb_NtCs9WsFjTlRn02_4core3pattNtB5_12RangePattern7sub_one
libcubeb.so.0:_RNvXsb_NtCs9WsFjTlRn02_4core4timeNtB5_21TryFromFloatSecsErrorNtNtB7_3fmt7Display3fmt
libcubeb.so.0:_RNvXsb_NtCsjj3dQwFOuTb_3std2fsNtB5_4FileNtNtB7_2io5Write14write_vectored
libcubeb.so.0:_RNvXsb_NtCsjj3dQwFOuTb_3std2fsNtB5_4FileNtNtB7_2io5Write5write
libcubeb.so.0:_RNvXsb_NtCsjj3dQwFOuTb_3std4pathNtB5_4IterNtNtCs9WsFjTlRn02_4core3fmt5Debug3fmt
libcubeb.so.0:_RNvXsb_NtNtCs9WsFjTlRn02_4core3fmt3numaNtB7_6Binary3fmt
libcubeb.so.0:_RNvXsb_NtNtCs9WsFjTlRn02_4core3fmt5floatC3f16NtB7_7Display3fmt
libcubeb.so.0:_RNvXsb_NtNtCs9WsFjTlRn02_4core3net6parserNtB5_14AddrParseErrorNtNtB9_3fmt7Display3fmt
libcubeb.so.0:_RNvXsb_NtNtNtCsjj3dQwFOuTb_3std3sys2fs4unixNtB5_15FilePermissionsNtNtCs9WsFjTlRn02_4core3fmt5Debug3fmt
libcubeb.so.0:_RNvXsb_NtNtNtNtCsjj3dQwFOuTb_3std3sys7process4unix6commonNtB5_11CommandArgsNtNtNtNtCs9WsFjTlRn02_4core4iter6traits8iterator8Iterator4next
libcubeb.so.0:_RNvXsb_NtNtNtNtCsjj3dQwFOuTb_3std3sys7process4unix6commonNtB5_11CommandArgsNtNtNtNtCs9WsFjTlRn02_4core4iter6traits8iterator8Iterator9size_hint
libcubeb.so.0:_RNvXsc_NtCs9WsFjTlRn02_4core3fmtNtB5_5ErrorNtB5_7Display3fmt
libcubeb.so.0:_RNvXsc_NtCs9WsFjTlRn02_4core3patmNtB5_12RangePattern7sub_one
libcubeb.so.0:_RNvXsc_NtCsjj3dQwFOuTb_3std2fsNtB5_4FileNtNtB7_2io4Seek10stream_len
libcubeb.so.0:_RNvXsc_NtCsjj3dQwFOuTb_3std2fsNtB5_4FileNtNtB7_2io4Seek15stream_position
libcubeb.so.0:_RNvXsc_NtCsjj3dQwFOuTb_3std2fsNtB5_4FileNtNtB7_2io4Seek4seek
libcubeb.so.0:_RNvXsc_NtCsjj3dQwFOuTb_3std3envNtB5_4ArgsNtNtNtNtCs9WsFjTlRn02_4core4iter6traits12double_ended19DoubleEndedIterator9next_back
libcubeb.so.0:_RNvXsc_NtNtCs9WsFjTlRn02_4core3fmt3numhNtB7_5Octal3fmt
libcubeb.so.0:_RNvXsc_NtNtCs9WsFjTlRn02_4core3fmt5floatC3f16NtB7_8LowerExp3fmt
libcubeb.so.0:_RNvXsc_NtNtCs9WsFjTlRn02_4core3num11niche_typesNtB5_11NanosecondsNtNtB9_3fmt5Debug3fmt
libcubeb.so.0:_RNvXsc_NtNtNtCsjj3dQwFOuTb_3std3sys2fs4unixNtB5_7ReadDirNtNtCs9WsFjTlRn02_4core3fmt5Debug3fmt
libcubeb.so.0:_RNvXsc_NtNtNtNtCsjj3dQwFOuTb_3std3sys3net10connection6socketNtB5_9UdpSocketNtNtCs9WsFjTlRn02_4core3fmt5Debug3fmt
libcubeb.so.0:_RNvXsc_NtNtNtNtCsjj3dQwFOuTb_3std3sys7process4unix6commonNtB5_11CommandArgsNtNtNtNtCs9WsFjTlRn02_4core4iter6traits10exact_size17ExactSizeIterator3len
libcubeb.so.0:_RNvXsd_NtCs9WsFjTlRn02_4core3patyNtB5_12RangePattern7sub_one
libcubeb.so.0:_RNvXsd_NtCs9WsFjTlRn02_4core4wtf8NtB5_10EncodeWideNtNtB7_3fmt5Debug3fmt
libcubeb.so.0:_RNvXsd_NtCsjj3dQwFOuTb_3std2fsINtNtCs19MuVdBY7V6_5alloc4sync3ArcNtB5_4FileENtNtB7_2io4Read11read_to_end
libcubeb.so.0:_RNvXsd_NtCsjj3dQwFOuTb_3std2fsINtNtCs19MuVdBY7V6_5alloc4sync3ArcNtB5_4FileENtNtB7_2io4Read13read_vectored
libcubeb.so.0:_RNvXsd_NtCsjj3dQwFOuTb_3std2fsINtNtCs19MuVdBY7V6_5alloc4sync3ArcNtB5_4FileENtNtB7_2io4Read14read_to_string
libcubeb.so.0:_RNvXsd_NtCsjj3dQwFOuTb_3std2fsINtNtCs19MuVdBY7V6_5alloc4sync3ArcNtB5_4FileENtNtB7_2io4Read4read
libcubeb.so.0:_RNvXsd_NtCsjj3dQwFOuTb_3std2fsINtNtCs19MuVdBY7V6_5alloc4sync3ArcNtB5_4FileENtNtB7_2io4Read8read_buf
libcubeb.so.0:_RNvXsd_NtCsjj3dQwFOuTb_3std3envNtB5_4ArgsNtNtCs9WsFjTlRn02_4core3fmt5Debug3fmt
libcubeb.so.0:_RNvXsd_NtCsjj3dQwFOuTb_3std4timeNtB5_15SystemTimeErrorNtNtCs9WsFjTlRn02_4core3fmt7Display3fmt
libcubeb.so.0:_RNvXsd_NtCsjj3dQwFOuTb_3std7processNtB5_11ChildStdoutNtNtCs9WsFjTlRn02_4core3fmt5Debug3fmt
libcubeb.so.0:_RNvXsd_NtNtCs9WsFjTlRn02_4core3fmt3numaNtB7_5Octal3fmt
libcubeb.so.0:_RNvXsd_NtNtCs9WsFjTlRn02_4core3fmt5floatC3f16NtB7_8UpperExp3fmt
libcubeb.so.0:_RNvXsd_NtNtCsjj3dQwFOuTb_3std2io5stdioNtB5_6StdoutNtNtCs9WsFjTlRn02_4core3fmt5Debug3fmt
libcubeb.so.0:_RNvXsd_NtNtNtCs9WsFjTlRn02_4core3fmt3num3impyNtB9_7Display3fmt
libcubeb.so.0:_RNvXsd_NtNtNtCsjj3dQwFOuTb_3std3sys2fs4unixNtB5_7ReadDirNtNtNtNtCs9WsFjTlRn02_4core4iter6traits8iterator8Iterator4next
libcubeb.so.0:_RNvXsd_NtNtNtNtCsjj3dQwFOuTb_3std3sys7process4unix6commonNtB5_11CommandArgsNtNtCs9WsFjTlRn02_4core3fmt5Debug3fmt
libcubeb.so.0:_RNvXse_NtCs9WsFjTlRn02_4core3patoNtB5_12RangePattern7sub_one
libcubeb.so.0:_RNvXse_NtCs9WsFjTlRn02_4core4charNtB5_15CaseMappingIterNtNtNtNtB7_4iter6traits8iterator8Iterator10advance_by
libcubeb.so.0:_RNvXse_NtCs9WsFjTlRn02_4core4charNtB5_15CaseMappingIterNtNtNtNtB7_4iter6traits8iterator8Iterator24___iterator_get_unchecked
libcubeb.so.0:_RNvXse_NtCs9WsFjTlRn02_4core4charNtB5_15CaseMappingIterNtNtNtNtB7_4iter6traits8iterator8Iterator4last
libcubeb.so.0:_RNvXse_NtCs9WsFjTlRn02_4core4charNtB5_15CaseMappingIterNtNtNtNtB7_4iter6traits8iterator8Iterator4next
libcubeb.so.0:_RNvXse_NtCs9WsFjTlRn02_4core4charNtB5_15CaseMappingIterNtNtNtNtB7_4iter6traits8iterator8Iterator5count
libcubeb.so.0:_RNvXse_NtCsjj3dQwFOuTb_3std2fsINtNtCs19MuVdBY7V6_5alloc4sync3ArcNtB5_4FileENtNtB7_2io5Write14write_vectored
libcubeb.so.0:_RNvXse_NtCsjj3dQwFOuTb_3std2fsINtNtCs19MuVdBY7V6_5alloc4sync3ArcNtB5_4FileENtNtB7_2io5Write5write
libcubeb.so.0:_RNvXse_NtCsjj3dQwFOuTb_3std7processNtB5_11ChildStderrNtNtB7_2io4Read11read_to_end
libcubeb.so.0:_RNvXse_NtCsjj3dQwFOuTb_3std7processNtB5_11ChildStderrNtNtB7_2io4Read13read_vectored
libcubeb.so.0:_RNvXse_NtCsjj3dQwFOuTb_3std7processNtB5_11ChildStderrNtNtB7_2io4Read4read
libcubeb.so.0:_RNvXse_NtCsjj3dQwFOuTb_3std7processNtB5_11ChildStderrNtNtB7_2io4Read8read_buf
libcubeb.so.0:_RNvXse_NtNtCs9WsFjTlRn02_4core3fmt3numhNtB7_8LowerHex3fmt
libcubeb.so.0:_RNvXse_NtNtCsjj3dQwFOuTb_3std2io5stdioNtB5_6StdoutNtB7_5Write14write_vectored
libcubeb.so.0:_RNvXse_NtNtCsjj3dQwFOuTb_3std2io5stdioNtB5_6StdoutNtB7_5Write18write_all_vectored
libcubeb.so.0:_RNvXse_NtNtCsjj3dQwFOuTb_3std2io5stdioNtB5_6StdoutNtB7_5Write5flush
libcubeb.so.0:_RNvXse_NtNtCsjj3dQwFOuTb_3std2io5stdioNtB5_6StdoutNtB7_5Write5write
libcubeb.so.0:_RNvXse_NtNtCsjj3dQwFOuTb_3std2io5stdioNtB5_6StdoutNtB7_5Write9write_all
libcubeb.so.0:_RNvXse_NtNtCsjj3dQwFOuTb_3std2io5stdioNtB5_6StdoutNtB7_5Write9write_fmt
libcubeb.so.0:_RNvXse_NtNtNtCs9WsFjTlRn02_4core3fmt3num3impxNtB9_7Display3fmt
libcubeb.so.0:_RNvXse_NtNtNtCsjj3dQwFOuTb_3std3sys2fs4unixNtB5_3DirNtNtNtCs9WsFjTlRn02_4core3ops4drop4Drop4drop
libcubeb.so.0:_RNvXsf_NtCs19MuVdBY7V6_5alloc5boxedINtB5_3BoxeENtNtCs9WsFjTlRn02_4core5clone5Clone5clone
libcubeb.so.0:_RNvXsf_NtCs9WsFjTlRn02_4core3patjNtB5_12RangePattern7sub_one
libcubeb.so.0:_RNvXsf_NtCs9WsFjTlRn02_4core4charNtB5_15CaseMappingIterNtNtNtNtB7_4iter6traits12double_ended19DoubleEndedIterator15advance_back_by
libcubeb.so.0:_RNvXsf_NtCs9WsFjTlRn02_4core4charNtB5_15CaseMappingIterNtNtNtNtB7_4iter6traits12double_ended19DoubleEndedIterator9next_back
libcubeb.so.0:_RNvXsf_NtCsjj3dQwFOuTb_3std2fsINtNtCs19MuVdBY7V6_5alloc4sync3ArcNtB5_4FileENtNtB7_2io4Seek10stream_len
libcubeb.so.0:_RNvXsf_NtCsjj3dQwFOuTb_3std2fsINtNtCs19MuVdBY7V6_5alloc4sync3ArcNtB5_4FileENtNtB7_2io4Seek15stream_position
libcubeb.so.0:_RNvXsf_NtCsjj3dQwFOuTb_3std2fsINtNtCs19MuVdBY7V6_5alloc4sync3ArcNtB5_4FileENtNtB7_2io4Seek4seek
libcubeb.so.0:_RNvXsf_NtNtCs9WsFjTlRn02_4core3fmt3numaNtB7_8LowerHex3fmt
libcubeb.so.0:_RNvXsf_NtNtCs9WsFjTlRn02_4core4task4wakeNtB5_10LocalWakerNtNtB9_3fmt5Debug3fmt
libcubeb.so.0:_RNvXsf_NtNtCsjj3dQwFOuTb_3std2io5stdioRNtB5_6StdoutNtB7_5Write14write_vectored
libcubeb.so.0:_RNvXsf_NtNtCsjj3dQwFOuTb_3std2io5stdioRNtB5_6StdoutNtB7_5Write18write_all_vectored
libcubeb.so.0:_RNvXsf_NtNtCsjj3dQwFOuTb_3std2io5stdioRNtB5_6StdoutNtB7_5Write5flush
libcubeb.so.0:_RNvXsf_NtNtCsjj3dQwFOuTb_3std2io5stdioRNtB5_6StdoutNtB7_5Write5write
libcubeb.so.0:_RNvXsf_NtNtCsjj3dQwFOuTb_3std2io5stdioRNtB5_6StdoutNtB7_5Write9write_all
libcubeb.so.0:_RNvXsf_NtNtCsjj3dQwFOuTb_3std2io5stdioRNtB5_6StdoutNtB7_5Write9write_fmt
libcubeb.so.0:_RNvXsf_NtNtCsjj3dQwFOuTb_3std3net3tcpNtB5_11TcpListenerNtNtCs9WsFjTlRn02_4core3fmt5Debug3fmt
libcubeb.so.0:_RNvXsf_NtNtNtCsjj3dQwFOuTb_3std2os2fd3rawNtNtNtBb_2io4pipe10PipeReaderNtB5_9FromRawFd11from_raw_fd
libcubeb.so.0:_RNvXsg_NtCs9WsFjTlRn02_4core3fmtbNtB5_7Display3fmt
libcubeb.so.0:_RNvXsg_NtNtCs19MuVdBY7V6_5alloc5boxed7convertINtB7_3BoxDNtNtCs9WsFjTlRn02_4core5error5ErrorEL_EINtNtBW_7convert4FromNtNtB9_6string6StringE4from
libcubeb.so.0:_RNvXsg_NtNtCs9WsFjTlRn02_4core3fmt3numhNtB7_8UpperHex3fmt
libcubeb.so.0:_RNvXsh_NtCs19MuVdBY7V6_5alloc6borrowINtB5_3CoweEINtNtNtCs9WsFjTlRn02_4core3ops5arith9AddAssignReE10add_assign
libcubeb.so.0:_RNvXsh_NtCs9WsFjTlRn02_4core3fmteNtB5_5Debug3fmt
libcubeb.so.0:_RNvXsh_NtNtCs9WsFjTlRn02_4core3fmt3numaNtB7_8UpperHex3fmt
libcubeb.so.0:_RNvXsh_NtNtNtCsjj3dQwFOuTb_3std3sys2fs4unixNtB5_11OpenOptionsNtNtCs9WsFjTlRn02_4core3fmt5Debug3fmt
libcubeb.so.0:_RNvXsi_NtCs19MuVdBY7V6_5alloc6borrowINtB5_3CoweENtNtNtCs9WsFjTlRn02_4core3ops5arith9AddAssign10add_assign
libcubeb.so.0:_RNvXsi_NtCs9WsFjTlRn02_4core3fmteNtB5_7Display3fmt
libcubeb.so.0:_RNvXsi_NtCsjj3dQwFOuTb_3std4pathNtB5_10ComponentsNtNtNtNtCs9WsFjTlRn02_4core4iter6traits8iterator8Iterator4next
libcubeb.so.0:_RNvXsi_NtCsjj3dQwFOuTb_3std7processNtB5_11ChildStderrNtNtCs9WsFjTlRn02_4core3fmt5Debug3fmt
libcubeb.so.0:_RNvXsi_NtNtCs19MuVdBY7V6_5alloc5boxed7convertINtB7_3BoxDNtNtCs9WsFjTlRn02_4core5error5ErrorEL_EINtNtBW_7convert4FromReE4from
libcubeb.so.0:_RNvXsi_NtNtCs9WsFjTlRn02_4core3fmt3numtNtB7_6Binary3fmt
libcubeb.so.0:_RNvXsi_NtNtCsjj3dQwFOuTb_3std2io5stdioNtB5_10StdoutLockNtB7_5Write14write_vectored
libcubeb.so.0:_RNvXsi_NtNtCsjj3dQwFOuTb_3std2io5stdioNtB5_10StdoutLockNtB7_5Write18write_all_vectored
libcubeb.so.0:_RNvXsi_NtNtCsjj3dQwFOuTb_3std2io5stdioNtB5_10StdoutLockNtB7_5Write5flush
libcubeb.so.0:_RNvXsi_NtNtCsjj3dQwFOuTb_3std2io5stdioNtB5_10StdoutLockNtB7_5Write5write
libcubeb.so.0:_RNvXsi_NtNtCsjj3dQwFOuTb_3std2io5stdioNtB5_10StdoutLockNtB7_5Write9write_all
libcubeb.so.0:_RNvXsi_NtNtNtCs9WsFjTlRn02_4core3fmt3num3impjNtB9_7Display3fmt
libcubeb.so.0:_RNvXsi_NtNtNtCsjj3dQwFOuTb_3std2os2fd3rawNtNtNtBb_2io4pipe10PipeWriterNtB5_9FromRawFd11from_raw_fd
libcubeb.so.0:_RNvXsj_NtCs9WsFjTlRn02_4core3fmtcNtB5_5Debug3fmt
libcubeb.so.0:_RNvXsj_NtCsjj3dQwFOuTb_3std3envNtB5_6ArgsOsNtNtCs9WsFjTlRn02_4core3fmt5Debug3fmt
libcubeb.so.0:_RNvXsj_NtCsjj3dQwFOuTb_3std4pathNtB5_10ComponentsNtNtNtNtCs9WsFjTlRn02_4core4iter6traits12double_ended19DoubleEndedIterator9next_back
libcubeb.so.0:_RNvXsj_NtNtCs19MuVdBY7V6_5alloc5boxed7convertINtB7_3BoxDNtNtCs9WsFjTlRn02_4core5error5ErrorNtNtBW_6marker4SendNtB1t_4SyncEL_EINtNtBW_7convert4FromINtNtB9_6borrow3CoweEE4from
libcubeb.so.0:_RNvXsj_NtNtCs9WsFjTlRn02_4core3fmt3numsNtB7_6Binary3fmt
libcubeb.so.0:_RNvXsj_NtNtCs9WsFjTlRn02_4core3net7ip_addrNtB5_8Ipv6AddrNtNtB9_3fmt7Display3fmt
libcubeb.so.0:_RNvXsj_NtNtCsjj3dQwFOuTb_3std2io5stdioNtB5_10StdoutLockNtNtCs9WsFjTlRn02_4core3fmt5Debug3fmt
libcubeb.so.0:_RNvXsj_NtNtNtCs9WsFjTlRn02_4core3fmt3num3impiNtB9_7Display3fmt
libcubeb.so.0:_RNvXsk_NtCs9WsFjTlRn02_4core3fmtcNtB5_7Display3fmt
libcubeb.so.0:_RNvXsk_NtCsjj3dQwFOuTb_3std2fsNtB5_8MetadataNtNtCs9WsFjTlRn02_4core3fmt5Debug3fmt
libcubeb.so.0:_RNvXsk_NtNtCs19MuVdBY7V6_5alloc5boxed7convertINtB7_3BoxDNtNtCs9WsFjTlRn02_4core5error5ErrorEL_EINtNtBW_7convert4FromINtNtB9_6borrow3CoweEE4from
libcubeb.so.0:_RNvXsk_NtNtCs9WsFjTlRn02_4core3fmt3numtNtB7_5Octal3fmt
libcubeb.so.0:_RNvXsk_NtNtCs9WsFjTlRn02_4core3net7ip_addrNtB5_8Ipv6AddrNtNtB9_3fmt5Debug3fmt
libcubeb.so.0:_RNvXsk_NtNtCsjj3dQwFOuTb_3std3ffi6os_strNtB5_8OsStringNtNtCs9WsFjTlRn02_4core3fmt5Write9write_str
libcubeb.so.0:_RNvXsk_NtNtNtCsjj3dQwFOuTb_3std3sys2fs4unixNtB5_10DirBuilderNtNtCs9WsFjTlRn02_4core3fmt5Debug3fmt
libcubeb.so.0:_RNvXsl_NtCs19MuVdBY7V6_5alloc6stringRNtB5_6StringNtNtNtCs9WsFjTlRn02_4core3str7pattern7Pattern13into_searcher
libcubeb.so.0:_RNvXsl_NtCsjj3dQwFOuTb_3std7processNtB5_7CommandNtNtCs9WsFjTlRn02_4core3fmt5Debug3fmt
libcubeb.so.0:_RNvXsl_NtNtCs9WsFjTlRn02_4core3fmt3numsNtB7_5Octal3fmt
libcubeb.so.0:_RNvXsm_NtCs9WsFjTlRn02_4core4charNtB5_16TryFromCharErrorNtNtB7_3fmt7Display3fmt
libcubeb.so.0:_RNvXsm_NtNtCs9WsFjTlRn02_4core3fmt3numtNtB7_8LowerHex3fmt
libcubeb.so.0:_RNvXsm_NtNtNtNtCsjj3dQwFOuTb_3std3sys2io11kernel_copy5linuxNtNtNtBd_2io5stdio9StdinLockNtB5_8CopyRead10properties
libcubeb.so.0:_RNvXsn_NtCs9WsFjTlRn02_4core4cellNtB5_11BorrowErrorNtNtB7_3fmt7Display3fmt
libcubeb.so.0:_RNvXsn_NtNtCs9WsFjTlRn02_4core3fmt3numsNtB7_8LowerHex3fmt
libcubeb.so.0:_RNvXsn_NtNtCs9WsFjTlRn02_4core3num11niche_typesNtB5_14NonZeroU8InnerNtNtB9_3fmt5Debug3fmt
libcubeb.so.0:_RNvXsn_NtNtCsjj3dQwFOuTb_3std2io5stdioNtB5_6StderrNtNtCs9WsFjTlRn02_4core3fmt5Debug3fmt
libcubeb.so.0:_RNvXsn_NtNtCsjj3dQwFOuTb_3std4sync4mpscNtB5_9RecvErrorNtNtCs9WsFjTlRn02_4core3fmt7Display3fmt
libcubeb.so.0:_RNvXsn_NtNtNtCs9WsFjTlRn02_4core3fmt3num3impaNtB9_8LowerExp3fmt
libcubeb.so.0:_RNvXsn_NtNtNtNtCsjj3dQwFOuTb_3std3sys2io11kernel_copy5linuxNtNtNtBd_2io5stdio10StdoutLockNtB5_9CopyWrite10properties
libcubeb.so.0:_RNvXso_NtCs19MuVdBY7V6_5alloc3vecINtB5_3VecNtNtNtCsl0orcaMmsPI_5gimli4read6abbrev22AttributeSpecificationENtNtNtCs9WsFjTlRn02_4core3ops4drop4Drop4dropBL_
libcubeb.so.0:_RNvXso_NtCs19MuVdBY7V6_5alloc3vecINtB5_3VechENtNtNtCs9WsFjTlRn02_4core3ops4drop4Drop4dropCsl0orcaMmsPI_5gimli
libcubeb.so.0:_RNvXso_NtCs9WsFjTlRn02_4core4cellNtB5_14BorrowMutErrorNtNtB7_3fmt7Display3fmt
libcubeb.so.0:_RNvXso_NtCsjj3dQwFOuTb_3std7processNtB5_11CommandArgsNtNtNtNtCs9WsFjTlRn02_4core4iter6traits8iterator8Iterator4next
libcubeb.so.0:_RNvXso_NtCsjj3dQwFOuTb_3std7processNtB5_11CommandArgsNtNtNtNtCs9WsFjTlRn02_4core4iter6traits8iterator8Iterator9size_hint
libcubeb.so.0:_RNvXso_NtNtCs9WsFjTlRn02_4core3fmt3numtNtB7_8UpperHex3fmt
libcubeb.so.0:_RNvXso_NtNtCsjj3dQwFOuTb_3std2io5stdioNtB5_6StderrNtB7_5Write14write_vectored
libcubeb.so.0:_RNvXso_NtNtCsjj3dQwFOuTb_3std2io5stdioNtB5_6StderrNtB7_5Write18write_all_vectored
libcubeb.so.0:_RNvXso_NtNtCsjj3dQwFOuTb_3std2io5stdioNtB5_6StderrNtB7_5Write5flush
libcubeb.so.0:_RNvXso_NtNtCsjj3dQwFOuTb_3std2io5stdioNtB5_6StderrNtB7_5Write5write
libcubeb.so.0:_RNvXso_NtNtCsjj3dQwFOuTb_3std2io5stdioNtB5_6StderrNtB7_5Write9write_all
libcubeb.so.0:_RNvXso_NtNtCsjj3dQwFOuTb_3std2io5stdioNtB5_6StderrNtB7_5Write9write_fmt
libcubeb.so.0:_RNvXso_NtNtNtCs9WsFjTlRn02_4core3fmt3num3imphNtB9_8LowerExp3fmt
libcubeb.so.0:_RNvXso_NtNtNtNtCsjj3dQwFOuTb_3std3sys2io11kernel_copy5linuxNtNtNtBd_2io5stdio10StderrLockNtB5_9CopyWrite10properties
libcubeb.so.0:_RNvXsp_NtCsjj3dQwFOuTb_3std7processNtB5_11CommandArgsNtNtNtNtCs9WsFjTlRn02_4core4iter6traits10exact_size17ExactSizeIterator3len
libcubeb.so.0:_RNvXsp_NtNtCs9WsFjTlRn02_4core3fmt3numsNtB7_8UpperHex3fmt
libcubeb.so.0:_RNvXsp_NtNtCsjj3dQwFOuTb_3std2io5stdioRNtB5_6StderrNtB7_5Write14write_vectored
libcubeb.so.0:_RNvXsp_NtNtCsjj3dQwFOuTb_3std2io5stdioRNtB5_6StderrNtB7_5Write18write_all_vectored
libcubeb.so.0:_RNvXsp_NtNtCsjj3dQwFOuTb_3std2io5stdioRNtB5_6StderrNtB7_5Write5flush
libcubeb.so.0:_RNvXsp_NtNtCsjj3dQwFOuTb_3std2io5stdioRNtB5_6StderrNtB7_5Write5write
libcubeb.so.0:_RNvXsp_NtNtCsjj3dQwFOuTb_3std2io5stdioRNtB5_6StderrNtB7_5Write9write_all
libcubeb.so.0:_RNvXsp_NtNtCsjj3dQwFOuTb_3std2io5stdioRNtB5_6StderrNtB7_5Write9write_fmt
libcubeb.so.0:_RNvXsp_NtNtCsjj3dQwFOuTb_3std4sync4mpscNtB5_12TryRecvErrorNtNtCs9WsFjTlRn02_4core3fmt7Display3fmt
libcubeb.so.0:_RNvXsp_NtNtNtCs9WsFjTlRn02_4core3fmt3num3impaNtB9_8UpperExp3fmt
libcubeb.so.0:_RNvXsq_NtCsjj3dQwFOuTb_3std7processNtB5_11CommandEnvsNtNtNtNtCs9WsFjTlRn02_4core4iter6traits8iterator8Iterator4next
libcubeb.so.0:_RNvXsq_NtNtCs19MuVdBY7V6_5alloc3ffi5c_strINtNtB9_5boxed3BoxNtNtNtCs9WsFjTlRn02_4core3ffi5c_str4CStrENtNtB11_7default7Default7default
libcubeb.so.0:_RNvXsq_NtNtCs9WsFjTlRn02_4core3fmt3nummNtB7_6Binary3fmt
libcubeb.so.0:_RNvXsq_NtNtNtCs9WsFjTlRn02_4core3fmt3num3imphNtB9_8UpperExp3fmt
libcubeb.so.0:_RNvXsr_NtCs9WsFjTlRn02_4core3fmtSNtNtNtCsl0orcaMmsPI_5gimli4read6abbrev22AttributeSpecificationNtB5_5Debug3fmtBB_
libcubeb.so.0:_RNvXsr_NtCs9WsFjTlRn02_4core3fmtShNtB5_5Debug3fmtCsdQXj5kOXdfq_14rustc_demangle
libcubeb.so.0:_RNvXsr_NtNtCs9WsFjTlRn02_4core3fmt3numlNtB7_6Binary3fmt
libcubeb.so.0:_RNvXsr_NtNtNtCs9WsFjTlRn02_4core3fmt3num3impsNtB9_8LowerExp3fmt
libcubeb.so.0:_RNvXss_NtCsjj3dQwFOuTb_3std2fsNtB5_8FileTypeNtNtCs9WsFjTlRn02_4core3fmt5Debug3fmt
libcubeb.so.0:_RNvXss_NtCsjj3dQwFOuTb_3std7processNtB5_11CommandEnvsNtNtCs9WsFjTlRn02_4core3fmt5Debug3fmt
libcubeb.so.0:_RNvXss_NtNtCs19MuVdBY7V6_5alloc3ffi5c_strNtB5_8NulErrorNtNtCs9WsFjTlRn02_4core3fmt7Display3fmt
libcubeb.so.0:_RNvXss_NtNtCs9WsFjTlRn02_4core3fmt3nummNtB7_5Octal3fmt
libcubeb.so.0:_RNvXss_NtNtCsjj3dQwFOuTb_3std2io5stdioNtB5_10StderrLockNtB7_5Write14write_vectored
libcubeb.so.0:_RNvXss_NtNtCsjj3dQwFOuTb_3std2io5stdioNtB5_10StderrLockNtB7_5Write18write_all_vectored
libcubeb.so.0:_RNvXss_NtNtCsjj3dQwFOuTb_3std2io5stdioNtB5_10StderrLockNtB7_5Write5flush
libcubeb.so.0:_RNvXss_NtNtCsjj3dQwFOuTb_3std2io5stdioNtB5_10StderrLockNtB7_5Write5write
libcubeb.so.0:_RNvXss_NtNtCsjj3dQwFOuTb_3std2io5stdioNtB5_10StderrLockNtB7_5Write9write_all
libcubeb.so.0:_RNvXss_NtNtCsjj3dQwFOuTb_3std4sync4mpscNtB5_16RecvTimeoutErrorNtNtCs9WsFjTlRn02_4core3fmt7Display3fmt
libcubeb.so.0:_RNvXss_NtNtNtCs9WsFjTlRn02_4core3fmt3num3imptNtB9_8LowerExp3fmt
libcubeb.so.0:_RNvXss_NtNtNtCsjj3dQwFOuTb_3std3sys2fs4unixNtB5_4FileNtNtNtNtBb_2os2fd3raw9FromRawFd11from_raw_fd
libcubeb.so.0:_RNvXst_NtCsjj3dQwFOuTb_3std4pathINtNtCs19MuVdBY7V6_5alloc5boxed3BoxNtB5_4PathEINtNtCs9WsFjTlRn02_4core7convert4FromRB13_E4from
libcubeb.so.0:_RNvXst_NtNtCs19MuVdBY7V6_5alloc3ffi5c_strNtB5_19FromVecWithNulErrorNtNtCs9WsFjTlRn02_4core3fmt7Display3fmt
libcubeb.so.0:_RNvXst_NtNtCs9WsFjTlRn02_4core3fmt3numlNtB7_5Octal3fmt
libcubeb.so.0:_RNvXst_NtNtCsjj3dQwFOuTb_3std2io5stdioNtB5_10StderrLockNtNtCs9WsFjTlRn02_4core3fmt5Debug3fmt
libcubeb.so.0:_RNvXst_NtNtNtCs9WsFjTlRn02_4core3fmt3num3impsNtB9_8UpperExp3fmt
libcubeb.so.0:_RNvXst_NtNtNtCsjj3dQwFOuTb_3std3sys2fs4unixNtB5_4FileNtNtCs9WsFjTlRn02_4core3fmt5Debug3fmt
libcubeb.so.0:_RNvXsu_NtCs9WsFjTlRn02_4core4charNtB5_11ToLowercaseNtNtNtNtB7_4iter6traits8iterator8Iterator10advance_by
libcubeb.so.0:_RNvXsu_NtCs9WsFjTlRn02_4core4charNtB5_11ToLowercaseNtNtNtNtB7_4iter6traits8iterator8Iterator24___iterator_get_unchecked
libcubeb.so.0:_RNvXsu_NtCs9WsFjTlRn02_4core4charNtB5_11ToLowercaseNtNtNtNtB7_4iter6traits8iterator8Iterator4last
libcubeb.so.0:_RNvXsu_NtCs9WsFjTlRn02_4core4charNtB5_11ToLowercaseNtNtNtNtB7_4iter6traits8iterator8Iterator4next
libcubeb.so.0:_RNvXsu_NtCs9WsFjTlRn02_4core4charNtB5_11ToLowercaseNtNtNtNtB7_4iter6traits8iterator8Iterator5count
libcubeb.so.0:_RNvXsu_NtCsjj3dQwFOuTb_3std4pathINtNtCs19MuVdBY7V6_5alloc5boxed3BoxNtB5_4PathEINtNtCs9WsFjTlRn02_4core7convert4FromQB13_E4from
libcubeb.so.0:_RNvXsu_NtCsjj3dQwFOuTb_3std7processNtB5_6OutputNtNtCs9WsFjTlRn02_4core3fmt5Debug3fmt
libcubeb.so.0:_RNvXsu_NtNtCs9WsFjTlRn02_4core3fmt3nummNtB7_8LowerHex3fmt
libcubeb.so.0:_RNvXsu_NtNtCs9WsFjTlRn02_4core3num11niche_typesNtB5_15NonZeroU16InnerNtNtB9_3fmt5Debug3fmt
libcubeb.so.0:_RNvXsu_NtNtNtCs9WsFjTlRn02_4core3fmt3num3imptNtB9_8UpperExp3fmt
libcubeb.so.0:_RNvXsu_NtNtNtCsjj3dQwFOuTb_3std3sys2fs4unixNtB5_4ModeNtNtCs9WsFjTlRn02_4core3fmt5Debug3fmt
libcubeb.so.0:_RNvXsv_NtCs9WsFjTlRn02_4core4charNtB5_11ToLowercaseNtNtNtNtB7_4iter6traits12double_ended19DoubleEndedIterator15advance_back_by
libcubeb.so.0:_RNvXsv_NtCs9WsFjTlRn02_4core4charNtB5_11ToLowercaseNtNtNtNtB7_4iter6traits12double_ended19DoubleEndedIterator9next_back
libcubeb.so.0:_RNvXsv_NtNtCs19MuVdBY7V6_5alloc3ffi5c_strNtB5_15IntoStringErrorNtNtCs9WsFjTlRn02_4core3fmt7Display3fmt
libcubeb.so.0:_RNvXsv_NtNtCs9WsFjTlRn02_4core3fmt3numlNtB7_8LowerHex3fmt
libcubeb.so.0:_RNvXsv_NtNtNtCs9WsFjTlRn02_4core3fmt3num3implNtB9_8LowerExp3fmt
libcubeb.so.0:_RNvXsw_NtCsjj3dQwFOuTb_3std2fsNtB5_7ReadDirNtNtNtNtCs9WsFjTlRn02_4core4iter6traits8iterator8Iterator4next
libcubeb.so.0:_RNvXsw_NtNtCs19MuVdBY7V6_5alloc3ffi5c_strNtNtNtCs9WsFjTlRn02_4core3ffi5c_str4CStrNtNtB9_6borrow7ToOwned10clone_into
libcubeb.so.0:_RNvXsw_NtNtCs19MuVdBY7V6_5alloc3ffi5c_strNtNtNtCs9WsFjTlRn02_4core3ffi5c_str4CStrNtNtB9_6borrow7ToOwned8to_owned
libcubeb.so.0:_RNvXsw_NtNtCs9WsFjTlRn02_4core3fmt3nummNtB7_8UpperHex3fmt
libcubeb.so.0:_RNvXsw_NtNtNtCs9WsFjTlRn02_4core3fmt3num3impmNtB9_8LowerExp3fmt
libcubeb.so.0:_RNvXsx_NtCsjj3dQwFOuTb_3std7processNtB5_5StdioNtNtCs9WsFjTlRn02_4core3fmt5Debug3fmt
libcubeb.so.0:_RNvXsx_NtNtCs19MuVdBY7V6_5alloc3ffi5c_strNtB5_7CStringINtNtCs9WsFjTlRn02_4core7convert4FromRNtNtNtBV_3ffi5c_str4CStrE4from
libcubeb.so.0:_RNvXsx_NtNtCs9WsFjTlRn02_4core3fmt3numlNtB7_8UpperHex3fmt
libcubeb.so.0:_RNvXsx_NtNtNtCs9WsFjTlRn02_4core3fmt3num3implNtB9_8UpperExp3fmt
libcubeb.so.0:_RNvXsy_NtCsjj3dQwFOuTb_3std2fsNtB5_8DirEntryNtNtCs9WsFjTlRn02_4core3fmt5Debug3fmt
libcubeb.so.0:_RNvXsy_NtNtCs9WsFjTlRn02_4core3fmt3numyNtB7_6Binary3fmt
libcubeb.so.0:_RNvXsy_NtNtNtCs9WsFjTlRn02_4core3fmt3num3impmNtB9_8UpperExp3fmt
libcubeb.so.0:_RNvXsy_NtNtNtCsjj3dQwFOuTb_3std2os2fd5ownedNtNtNtBb_2io4pipe10PipeReaderNtB5_4AsFd5as_fd
libcubeb.so.0:_RNvXsz_NtNtCs9WsFjTlRn02_4core3fmt3numxNtB7_6Binary3fmt
libcubeb.so.0:_RNvXsz_NtNtNtCs9WsFjTlRn02_4core3fmt3num3impxNtB9_8LowerExp3fmt
libcubeb.so.0:_RNvYINtCsdQXj5kOXdfq_14rustc_demangle21SizeLimitedFmtAdapterQNtNtCs9WsFjTlRn02_4core3fmt9FormatterENtBZ_5Write10write_charB5_
libcubeb.so.0:_RNvYINtCsdQXj5kOXdfq_14rustc_demangle21SizeLimitedFmtAdapterQNtNtCs9WsFjTlRn02_4core3fmt9FormatterENtBZ_5Write9write_fmtB5_
libcubeb.so.0:_RNvYINtNtNtCs9WsFjTlRn02_4core5slice4iter4ItertENtNtNtNtB9_4iter8adapters3zip27TrustedRandomAccessNoCoerce4sizeCsbW7JIls3BXH_11miniz_oxide
libcubeb.so.0:_RNvYINtNtNtCs9WsFjTlRn02_4core5slice4iter7IterMutmENtNtNtNtB9_4iter8adapters3zip27TrustedRandomAccessNoCoerce4sizeCsbW7JIls3BXH_11miniz_oxide
libcubeb.so.0:_ZN10cubeb_core3log11log_enabled17h6fc388078c005b9eE
libcubeb.so.0:_ZN10cubeb_core3log11set_logging17hb5a287c31fb0e871E
libcubeb.so.0:_ZN10cubeb_core3log24rust_write_formatted_msg17h7233df067013b68eE
libcubeb.so.0:_ZN10cubeb_core6device13DeviceInfoRef11vendor_name17h266fc5623d0699bbE
libcubeb.so.0:_ZN10cubeb_core6device13DeviceInfoRef13friendly_name17hacb1d22da866a0b3E
libcubeb.so.0:_ZN10cubeb_core6device13DeviceInfoRef14default_format17h90d2294b8252af46E
libcubeb.so.0:_ZN10cubeb_core6device13DeviceInfoRef14group_id_bytes17h16b486fa47442f53E
libcubeb.so.0:_ZN10cubeb_core6device13DeviceInfoRef15device_id_bytes17h357327aaf7ec9334E
libcubeb.so.0:_ZN10cubeb_core6device13DeviceInfoRef17vendor_name_bytes17h143cde90da108981E
libcubeb.so.0:_ZN10cubeb_core6device13DeviceInfoRef19friendly_name_bytes17hc2737f307b9b3faaE
libcubeb.so.0:_ZN10cubeb_core6device13DeviceInfoRef5state17he34151b877907fa3E
libcubeb.so.0:_ZN10cubeb_core6device13DeviceInfoRef6format17h3a82e2707ad18dbcE
libcubeb.so.0:_ZN10cubeb_core6device13DeviceInfoRef8group_id17hb61599512083ef6dE
libcubeb.so.0:_ZN10cubeb_core6device13DeviceInfoRef9device_id17hb3d31e4838ee4e0cE
libcubeb.so.0:_ZN10cubeb_core6device13DeviceInfoRef9preferred17h330f102a05c6589cE
libcubeb.so.0:_ZN10cubeb_core6device9DeviceRef10input_name17hd4cc65cd0990dab9E
libcubeb.so.0:_ZN10cubeb_core6device9DeviceRef11output_name17h9c01ffa49e27ec50E
libcubeb.so.0:_ZN10cubeb_core6device9DeviceRef16input_name_bytes17h10955b83a34f1f79E
libcubeb.so.0:_ZN10cubeb_core6device9DeviceRef17output_name_bytes17h76680e764992e29eE
libcubeb.so.0:_ZN10cubeb_core6stream15StreamParamsRef6format17h6692d11e0231b410E
libcubeb.so.0:_ZN10cubeb_core6stream28wrapped_cubeb_stream_destroy17h0031d67cd1e3909aE
libcubeb.so.0:_ZN10cubeb_core6stream9StreamRef10set_volume17h0481bf6e43f6fea1E
libcubeb.so.0:_ZN10cubeb_core6stream9StreamRef13input_latency17heb946bd8b1594162E
libcubeb.so.0:_ZN10cubeb_core6stream9StreamRef14current_device17h7408517ad340fbefE
libcubeb.so.0:_ZN10cubeb_core6stream9StreamRef14device_destroy17h4cc3fd5fd57eba9bE
libcubeb.so.0:_ZN10cubeb_core6stream9StreamRef14set_input_mute17hac549428eda379c0E
libcubeb.so.0:_ZN10cubeb_core6stream9StreamRef27set_input_processing_params17hdd1f93cbda7203dfE
libcubeb.so.0:_ZN10cubeb_core6stream9StreamRef32register_device_changed_callback17h1baad9cc0d542285E
libcubeb.so.0:_ZN10cubeb_core6stream9StreamRef4stop17h2c8315b07d48b50fE
libcubeb.so.0:_ZN10cubeb_core6stream9StreamRef5start17hb9b6f0717046fbd6E
libcubeb.so.0:_ZN10cubeb_core6stream9StreamRef7latency17h7f0f0ed403136c9cE
libcubeb.so.0:_ZN10cubeb_core6stream9StreamRef8position17h83f21c8cf262ffadE
libcubeb.so.0:_ZN10cubeb_core6stream9StreamRef8set_name17h9c0fc2b0ddcab934E
libcubeb.so.0:_ZN10cubeb_core6stream9StreamRef8user_ptr17h23891c572a99d394E
libcubeb.so.0:_ZN10cubeb_core7channel13ChannelLayout12num_channels17h175547b53bf5c9e9E
libcubeb.so.0:_ZN10cubeb_core7context10ContextRef10backend_id17hb7ae67642d33eea2E
libcubeb.so.0:_ZN10cubeb_core7context10ContextRef11min_latency17h4a6baeca135f7ebfE
libcubeb.so.0:_ZN10cubeb_core7context10ContextRef11stream_init17h6a4c72ce145e4df6E
libcubeb.so.0:_ZN10cubeb_core7context10ContextRef16backend_id_bytes17h0889247b8e853fdaE
libcubeb.so.0:_ZN10cubeb_core7context10ContextRef17enumerate_devices17hfba99e587ebf8441E
libcubeb.so.0:_ZN10cubeb_core7context10ContextRef17max_channel_count17h237acb9edd558fa8E
libcubeb.so.0:_ZN10cubeb_core7context10ContextRef21preferred_sample_rate17hbd373e96d020fe1cE
libcubeb.so.0:_ZN10cubeb_core7context10ContextRef33supported_input_processing_params17h9b46413a4e408d36E
libcubeb.so.0:_ZN10cubeb_core7context10ContextRef34register_device_collection_changed17hb08f82957cb85fc6E
libcubeb.so.0:_ZN10cubeb_core7context7Context4init17h5e1b3104c37764e0E
libcubeb.so.0:_ZN13cubeb_backend3log26cubeb_log_internal_buf_fmt17h1a3a012d0dddf1d9E
libcubeb.so.0:_ZN38_$LT$u64$u20$as$u20$pulse..USecExt$GT$8to_bytes17h0c6a1d08b0b6b270E
libcubeb.so.0:_ZN4core9panicking13assert_failed17h2a8bb8a8f6f9ddbeE
libcubeb.so.0:_ZN5alloc4sync16Arc$LT$T$C$A$GT$9drop_slow17h56d87b3b6abbde1eE
libcubeb.so.0:_ZN5alloc4sync16Arc$LT$T$C$A$GT$9drop_slow17h85b52cb66636863fE
libcubeb.so.0:_ZN5alloc7raw_vec19RawVec$LT$T$C$A$GT$8grow_one17h48e1a445cefd5687E
libcubeb.so.0:_ZN5alloc7raw_vec19RawVec$LT$T$C$A$GT$8grow_one17hfca73a05f2b90573E
libcubeb.so.0:_ZN5pulse10DeviceType8try_from17h28378caa80c6ac25E
libcubeb.so.0:_ZN5pulse11StreamState8try_from17hb17bc8207b73ff22E
libcubeb.so.0:_ZN5pulse11rtclock_now17h3dcab2a278798f0dE
libcubeb.so.0:_ZN5pulse12ContextState8try_from17h0e7408e02eb1e000E
libcubeb.so.0:_ZN5pulse12mainloop_api11MainloopApi9time_free17h37e440cf436db082E
libcubeb.so.0:_ZN5pulse13PortAvailable8try_from17hfd954b1162c03855E
libcubeb.so.0:_ZN5pulse14OperationState8try_from17h214c94d895ac26deE
libcubeb.so.0:_ZN5pulse15ChannelPosition8try_from17hf599d905eeda009eE
libcubeb.so.0:_ZN5pulse15StreamDirection8try_from17hb10420009847dbcdE
libcubeb.so.0:_ZN5pulse15library_version17hb81eb37938f82bf8E
libcubeb.so.0:_ZN5pulse17threaded_mainloop16ThreadedMainloop3new17h8ef0278f32f2cf56E
libcubeb.so.0:_ZN5pulse17threaded_mainloop16ThreadedMainloop4lock17h872164f727277630E
libcubeb.so.0:_ZN5pulse17threaded_mainloop16ThreadedMainloop4stop17h811007dc8c0c557dE
libcubeb.so.0:_ZN5pulse17threaded_mainloop16ThreadedMainloop4wait17h0fa7256c7e4f4e89E
libcubeb.so.0:_ZN5pulse17threaded_mainloop16ThreadedMainloop5start17h826577b7240ca51cE
libcubeb.so.0:_ZN5pulse17threaded_mainloop16ThreadedMainloop6signal17hba9a95197b5811a5E
libcubeb.so.0:_ZN5pulse17threaded_mainloop16ThreadedMainloop6unlock17h501eb1371f5d9db0E
libcubeb.so.0:_ZN5pulse17threaded_mainloop16ThreadedMainloop7get_api17h185365b26571844cE
libcubeb.so.0:_ZN5pulse17threaded_mainloop16ThreadedMainloop9in_thread17h476b27ddb8f4d98fE
libcubeb.so.0:_ZN5pulse1_63_$LT$impl$u20$core..fmt..Octal$u20$for$u20$pulse..SinkFlags$GT$3fmt17h8ae596c26a57dc18E
libcubeb.so.0:_ZN5pulse1_64_$LT$impl$u20$core..fmt..Binary$u20$for$u20$pulse..SinkFlags$GT$3fmt17h9067fd92d25f743eE
libcubeb.so.0:_ZN5pulse1_65_$LT$impl$u20$core..fmt..Octal$u20$for$u20$pulse..SourceFlags$GT$3fmt17h4c5dfe81cdb61420E
libcubeb.so.0:_ZN5pulse1_65_$LT$impl$u20$core..fmt..Octal$u20$for$u20$pulse..StreamFlags$GT$3fmt17h534303e44ef1c996E
libcubeb.so.0:_ZN5pulse1_66_$LT$impl$u20$core..fmt..Binary$u20$for$u20$pulse..SourceFlags$GT$3fmt17h39ad3f95c4e31a6bE
libcubeb.so.0:_ZN5pulse1_66_$LT$impl$u20$core..fmt..Binary$u20$for$u20$pulse..StreamFlags$GT$3fmt17h61d29b7267f86465E
libcubeb.so.0:_ZN5pulse1_66_$LT$impl$u20$core..fmt..LowerHex$u20$for$u20$pulse..SinkFlags$GT$3fmt17h2c0f14787fb8b29fE
libcubeb.so.0:_ZN5pulse1_66_$LT$impl$u20$core..fmt..Octal$u20$for$u20$pulse..ContextFlags$GT$3fmt17he7ffd09496361f3dE
libcubeb.so.0:_ZN5pulse1_66_$LT$impl$u20$core..fmt..UpperHex$u20$for$u20$pulse..SinkFlags$GT$3fmt17h00695e2a53672b57E
libcubeb.so.0:_ZN5pulse1_67_$LT$impl$u20$core..fmt..Binary$u20$for$u20$pulse..ContextFlags$GT$3fmt17h6e1a823b03db01ffE
libcubeb.so.0:_ZN5pulse1_68_$LT$impl$u20$core..fmt..LowerHex$u20$for$u20$pulse..SourceFlags$GT$3fmt17h24e58b82052b4524E
libcubeb.so.0:_ZN5pulse1_68_$LT$impl$u20$core..fmt..LowerHex$u20$for$u20$pulse..StreamFlags$GT$3fmt17h40cfd5357abc588cE
libcubeb.so.0:_ZN5pulse1_68_$LT$impl$u20$core..fmt..UpperHex$u20$for$u20$pulse..SourceFlags$GT$3fmt17h50945c39db302e6fE
libcubeb.so.0:_ZN5pulse1_68_$LT$impl$u20$core..fmt..UpperHex$u20$for$u20$pulse..StreamFlags$GT$3fmt17hec34e9e4f6653615E
libcubeb.so.0:_ZN5pulse1_69_$LT$impl$u20$core..fmt..LowerHex$u20$for$u20$pulse..ContextFlags$GT$3fmt17h1e7f803b3a24a0a7E
libcubeb.so.0:_ZN5pulse1_69_$LT$impl$u20$core..fmt..UpperHex$u20$for$u20$pulse..ContextFlags$GT$3fmt17h6787a2ec96bfc734E
libcubeb.so.0:_ZN5pulse1_70_$LT$impl$u20$core..fmt..Octal$u20$for$u20$pulse..SubscriptionMask$GT$3fmt17hfb09033c4a191770E
libcubeb.so.0:_ZN5pulse1_71_$LT$impl$u20$core..fmt..Binary$u20$for$u20$pulse..SubscriptionMask$GT$3fmt17h2adfec33027b7be6E
libcubeb.so.0:_ZN5pulse1_73_$LT$impl$u20$core..fmt..LowerHex$u20$for$u20$pulse..SubscriptionMask$GT$3fmt17h76f0a7d70701a43fE
libcubeb.so.0:_ZN5pulse1_73_$LT$impl$u20$core..fmt..UpperHex$u20$for$u20$pulse..SubscriptionMask$GT$3fmt17hafc62bc0f28ac202E
libcubeb.so.0:_ZN5pulse21sw_volume_from_linear17hc152ac708d0cba52E
libcubeb.so.0:_ZN5pulse6stream6Stream10disconnect17h76634d6a41a6245eE
libcubeb.so.0:_ZN5pulse6stream6Stream11begin_write17hcadc8514083bc772E
libcubeb.so.0:_ZN5pulse6stream6Stream11get_context17h30519285b2ca288fE
libcubeb.so.0:_ZN5pulse6stream6Stream11get_latency17hb3702584b904505fE
libcubeb.so.0:_ZN5pulse6stream6Stream12cancel_write17ha2b0246a32d1a3b7E
libcubeb.so.0:_ZN5pulse6stream6Stream12is_suspended17h49904ac3e1b9d795E
libcubeb.so.0:_ZN5pulse6stream6Stream13readable_size17h64bc253b889a76c9E
libcubeb.so.0:_ZN5pulse6stream6Stream13writable_size17h22303aea3276c79bE
libcubeb.so.0:_ZN5pulse6stream6Stream15get_buffer_attr17h38026525c24d4b92E
libcubeb.so.0:_ZN5pulse6stream6Stream15get_channel_map17hdecfc876cc3873b2E
libcubeb.so.0:_ZN5pulse6stream6Stream15get_device_name17h011dd9749e315882E
libcubeb.so.0:_ZN5pulse6stream6Stream15get_sample_spec17ha2456336c984fc7fE
libcubeb.so.0:_ZN5pulse6stream6Stream19clear_read_callback17hbec774252da060d8E
libcubeb.so.0:_ZN5pulse6stream6Stream20clear_state_callback17hf95666f599f61a69E
libcubeb.so.0:_ZN5pulse6stream6Stream20clear_write_callback17h133d9379cf94ecf1E
libcubeb.so.0:_ZN5pulse6stream6Stream4drop17hb776bd19d27a7fb5E
libcubeb.so.0:_ZN5pulse6stream6Stream4peek17haf94372cf5a542a3E
libcubeb.so.0:_ZN5pulse6stream6Stream5unref17h3d00bd153c84d97dE
libcubeb.so.0:_ZN5pulse6stream6Stream5write17h427e24d99c323f0eE
libcubeb.so.0:_ZN5pulse6stream6Stream8get_time17h15512f51f7d8360cE
libcubeb.so.0:_ZN5pulse6stream6Stream9get_index17ha0bd6725ea06cc76E
libcubeb.so.0:_ZN5pulse6stream6Stream9get_state17hf33643875bbfc6bdE
libcubeb.so.0:_ZN5pulse6stream6Stream9is_corked17h119027c2ade58478E
libcubeb.so.0:_ZN5pulse7context7Context10disconnect17h8c51ee616d3e3cedE
libcubeb.so.0:_ZN5pulse7context7Context20clear_state_callback17hab62c182efeae8aaE
libcubeb.so.0:_ZN5pulse7context7Context24clear_subscribe_callback17h2afae0f602cec4f7E
libcubeb.so.0:_ZN5pulse7context7Context5errno17hd7919cefa5a4e32fE
libcubeb.so.0:_ZN5pulse7context7Context5unref17h1743622bb2972338E
libcubeb.so.0:_ZN5pulse7context7Context9get_state17hb1256d13621febd8E
libcubeb.so.0:_ZN5pulse8SeekMode8try_from17h7bab7bbe69ad7b57E
libcubeb.so.0:_ZN5pulse9operation9Operation6cancel17h2107440db0ecaf77E
libcubeb.so.0:_ZN5pulse9operation9Operation9get_state17h164195d48a60faebE
libcubeb.so.0:_ZN62_$LT$pulse..error..ErrorCode$u20$as$u20$core..error..Error$GT$11description17h1a838ceb99977cd4E
libcubeb.so.0:_ZN62_$LT$pulse..error..ErrorCode$u20$as$u20$core..fmt..Display$GT$3fmt17hb38a24e1a1f03fe2E
libcubeb.so.0:_ZN62_$LT$semver..error..Position$u20$as$u20$core..fmt..Display$GT$3fmt17h4c979e0bffa58f8eE
libcubeb.so.0:_ZN63_$LT$cubeb_core..error..Error$u20$as$u20$core..fmt..Display$GT$3fmt17haeaa4b01415c0204E
libcubeb.so.0:_ZN63_$LT$pulse.._..InternalBitFlags$u20$as$u20$core..fmt..Debug$GT$3fmt17h15235ab980548825E
libcubeb.so.0:_ZN63_$LT$pulse.._..InternalBitFlags$u20$as$u20$core..fmt..Debug$GT$3fmt17h375f9d6d083efe2fE
libcubeb.so.0:_ZN63_$LT$pulse.._..InternalBitFlags$u20$as$u20$core..fmt..Debug$GT$3fmt17h5212d3c6141af4efE
libcubeb.so.0:_ZN63_$LT$pulse.._..InternalBitFlags$u20$as$u20$core..fmt..Debug$GT$3fmt17h8aa1e907093875b7E
libcubeb.so.0:_ZN63_$LT$pulse.._..InternalBitFlags$u20$as$u20$core..fmt..Debug$GT$3fmt17he5d53fe66f7ca1c9E
libcubeb.so.0:_ZN63_$LT$pulse.._..InternalBitFlags$u20$as$u20$core..fmt..Octal$GT$3fmt17h33a974de8a3a3bf6E
libcubeb.so.0:_ZN63_$LT$pulse.._..InternalBitFlags$u20$as$u20$core..fmt..Octal$GT$3fmt17h46381b8d8b0cb404E
libcubeb.so.0:_ZN63_$LT$pulse.._..InternalBitFlags$u20$as$u20$core..fmt..Octal$GT$3fmt17h6062eb7d0b09efe3E
libcubeb.so.0:_ZN63_$LT$pulse.._..InternalBitFlags$u20$as$u20$core..fmt..Octal$GT$3fmt17h7c17d4605388298eE
libcubeb.so.0:_ZN63_$LT$pulse.._..InternalBitFlags$u20$as$u20$core..fmt..Octal$GT$3fmt17hd796f828743776cfE
libcubeb.so.0:_ZN64_$LT$pulse.._..InternalBitFlags$u20$as$u20$core..fmt..Binary$GT$3fmt17h4c722c6a454258e7E
libcubeb.so.0:_ZN64_$LT$pulse.._..InternalBitFlags$u20$as$u20$core..fmt..Binary$GT$3fmt17h6602e1f11ca73acaE
libcubeb.so.0:_ZN64_$LT$pulse.._..InternalBitFlags$u20$as$u20$core..fmt..Binary$GT$3fmt17h72c2fdbf8fc5c0ccE
libcubeb.so.0:_ZN64_$LT$pulse.._..InternalBitFlags$u20$as$u20$core..fmt..Binary$GT$3fmt17h7bb09f015ce575d1E
libcubeb.so.0:_ZN64_$LT$pulse.._..InternalBitFlags$u20$as$u20$core..fmt..Binary$GT$3fmt17he0a89a7b3137c5afE
libcubeb.so.0:_ZN64_$LT$semver..error..QuotedChar$u20$as$u20$core..fmt..Display$GT$3fmt17he984601b4fc9d18cE
libcubeb.so.0:_ZN65_$LT$pulse.._..InternalBitFlags$u20$as$u20$core..fmt..Display$GT$3fmt17h616d475142d682d4E
libcubeb.so.0:_ZN65_$LT$pulse.._..InternalBitFlags$u20$as$u20$core..fmt..Display$GT$3fmt17ha3d2f2c2cf652323E
libcubeb.so.0:_ZN65_$LT$pulse.._..InternalBitFlags$u20$as$u20$core..fmt..Display$GT$3fmt17hc2b2ad8f3a3c1500E
libcubeb.so.0:_ZN65_$LT$pulse.._..InternalBitFlags$u20$as$u20$core..fmt..Display$GT$3fmt17hd74f1706edd7fa06E
libcubeb.so.0:_ZN65_$LT$pulse.._..InternalBitFlags$u20$as$u20$core..fmt..Display$GT$3fmt17hf729adf1d5dc141aE
libcubeb.so.0:_ZN66_$LT$cubeb_core..device..DeviceRef$u20$as$u20$core..fmt..Debug$GT$3fmt17hda960991c6f8b5cfE
libcubeb.so.0:_ZN66_$LT$cubeb_core..stream..StreamRef$u20$as$u20$core..fmt..Debug$GT$3fmt17hcee0805f54f4acb3E
libcubeb.so.0:_ZN66_$LT$pulse.._..InternalBitFlags$u20$as$u20$core..fmt..LowerHex$GT$3fmt17h24f8bf594972a270E
libcubeb.so.0:_ZN66_$LT$pulse.._..InternalBitFlags$u20$as$u20$core..fmt..LowerHex$GT$3fmt17h2a83172563510dd0E
libcubeb.so.0:_ZN66_$LT$pulse.._..InternalBitFlags$u20$as$u20$core..fmt..LowerHex$GT$3fmt17h2be341ebd534d883E
libcubeb.so.0:_ZN66_$LT$pulse.._..InternalBitFlags$u20$as$u20$core..fmt..LowerHex$GT$3fmt17he5a2adb1efc8c774E
libcubeb.so.0:_ZN66_$LT$pulse.._..InternalBitFlags$u20$as$u20$core..fmt..LowerHex$GT$3fmt17hf55f0b208cc8052aE
libcubeb.so.0:_ZN66_$LT$pulse.._..InternalBitFlags$u20$as$u20$core..fmt..UpperHex$GT$3fmt17h528d35d32b5c9c0dE
libcubeb.so.0:_ZN66_$LT$pulse.._..InternalBitFlags$u20$as$u20$core..fmt..UpperHex$GT$3fmt17h5445d01081de021cE
libcubeb.so.0:_ZN66_$LT$pulse.._..InternalBitFlags$u20$as$u20$core..fmt..UpperHex$GT$3fmt17h766a9e912adc0477E
libcubeb.so.0:_ZN66_$LT$pulse.._..InternalBitFlags$u20$as$u20$core..fmt..UpperHex$GT$3fmt17h91d2f5110c8b1091E
libcubeb.so.0:_ZN66_$LT$pulse.._..InternalBitFlags$u20$as$u20$core..fmt..UpperHex$GT$3fmt17h9b57670bee776989E
libcubeb.so.0:_ZN66_$LT$pulse..operation..Operation$u20$as$u20$core..clone..Clone$GT$5clone17ha71df67add95caa1E
libcubeb.so.0:_ZN67_$LT$bitflags..parser..ParseError$u20$as$u20$core..fmt..Display$GT$3fmt17hf46bccbd60acd1a3E
libcubeb.so.0:_ZN67_$LT$cubeb_core..device..DevicePref$u20$as$u20$core..fmt..Debug$GT$3fmt17h7f76c956ee77257fE
libcubeb.so.0:_ZN67_$LT$cubeb_core..device..DevicePref$u20$as$u20$core..fmt..Octal$GT$3fmt17hcfd16b4fb88f2681E
libcubeb.so.0:_ZN67_$LT$cubeb_core..device..DeviceType$u20$as$u20$core..fmt..Debug$GT$3fmt17he83873c6d32ad3b2E
libcubeb.so.0:_ZN67_$LT$cubeb_core..device..DeviceType$u20$as$u20$core..fmt..Octal$GT$3fmt17h826b3c8ed0ff176aE
libcubeb.so.0:_ZN68_$LT$cubeb_core..context..ContextRef$u20$as$u20$core..fmt..Debug$GT$3fmt17hfc9f06497a91632cE
libcubeb.so.0:_ZN68_$LT$cubeb_core..device..DevicePref$u20$as$u20$core..fmt..Binary$GT$3fmt17hb5113ea2efe87b9aE
libcubeb.so.0:_ZN68_$LT$cubeb_core..device..DeviceType$u20$as$u20$core..fmt..Binary$GT$3fmt17h8efb538e1a85f975E
libcubeb.so.0:_ZN68_$LT$cubeb_core..stream..StreamPrefs$u20$as$u20$core..fmt..Debug$GT$3fmt17hceb53fd9372706e8E
libcubeb.so.0:_ZN68_$LT$cubeb_core..stream..StreamPrefs$u20$as$u20$core..fmt..Octal$GT$3fmt17hc310b70b111fe900E
libcubeb.so.0:_ZN69_$LT$cubeb_core..device..DeviceFormat$u20$as$u20$core..fmt..Debug$GT$3fmt17hcd78e73cfa1394d8E
libcubeb.so.0:_ZN69_$LT$cubeb_core..device..DeviceFormat$u20$as$u20$core..fmt..Octal$GT$3fmt17hf7f808cb9afc3c7cE
libcubeb.so.0:_ZN69_$LT$cubeb_core..stream..StreamPrefs$u20$as$u20$core..fmt..Binary$GT$3fmt17h23f80ef657ce8b9aE
libcubeb.so.0:_ZN69_$LT$pulse..operation..Operation$u20$as$u20$core..ops..drop..Drop$GT$4drop17hb89f955e4ae067b1E
libcubeb.so.0:_ZN69_$LT$semver..identifier..Identifier$u20$as$u20$core..clone..Clone$GT$5clone17hd819936227c3effdE
libcubeb.so.0:_ZN6semver10Comparator5parse17hc07ec511497d24d7E
libcubeb.so.0:_ZN6semver10Comparator7matches17h15f726418191c24dE
libcubeb.so.0:_ZN6semver10Prerelease3new17h30eb8d2441a71012E
libcubeb.so.0:_ZN6semver10Prerelease6as_str17h9a39aa2dc0b8a603E
libcubeb.so.0:_ZN6semver10VersionReq5parse17h3d8a730faf01852cE
libcubeb.so.0:_ZN6semver10VersionReq7matches17h941e832b8d90032dE
libcubeb.so.0:_ZN6semver10identifier10Identifier6as_str17h34daaed888ed3ca4E
libcubeb.so.0:_ZN6semver13BuildMetadata3new17haaf89f9eb2a87506E
libcubeb.so.0:_ZN6semver13BuildMetadata6as_str17h8e3aaff6f113ce70E
libcubeb.so.0:_ZN6semver5error67_$LT$impl$u20$core..fmt..Debug$u20$for$u20$semver..parse..Error$GT$3fmt17h4deedde68ddc98e6E
libcubeb.so.0:_ZN6semver5error69_$LT$impl$u20$core..fmt..Display$u20$for$u20$semver..parse..Error$GT$3fmt17h3ed36709161414e7E
libcubeb.so.0:_ZN6semver5impls63_$LT$impl$u20$core..cmp..Ord$u20$for$u20$semver..Prerelease$GT$3cmp17h8a876d680e5a3afcE
libcubeb.so.0:_ZN6semver5impls66_$LT$impl$u20$core..cmp..Ord$u20$for$u20$semver..BuildMetadata$GT$3cmp17h723aa9f510e3880cE
libcubeb.so.0:_ZN6semver5impls70_$LT$impl$u20$core..cmp..PartialOrd$u20$for$u20$semver..Prerelease$GT$11partial_cmp17h2bd2b9743c1f4e11E
libcubeb.so.0:_ZN6semver5impls72_$LT$impl$u20$core..ops..deref..Deref$u20$for$u20$semver..Prerelease$GT$5deref17h365c93e7693fdac6E
libcubeb.so.0:_ZN6semver5impls73_$LT$impl$u20$core..cmp..PartialOrd$u20$for$u20$semver..BuildMetadata$GT$11partial_cmp17h51fc9ae12985cd79E
libcubeb.so.0:_ZN6semver5impls75_$LT$impl$u20$core..ops..deref..Deref$u20$for$u20$semver..BuildMetadata$GT$5deref17h4198bfcd9e0dd0aeE
libcubeb.so.0:_ZN6semver5parse72_$LT$impl$u20$core..str..traits..FromStr$u20$for$u20$semver..Version$GT$8from_str17h3c56914fd7acdef0E
libcubeb.so.0:_ZN6semver5parse75_$LT$impl$u20$core..str..traits..FromStr$u20$for$u20$semver..Comparator$GT$8from_str17h3ab40838ea7686d5E
libcubeb.so.0:_ZN6semver5parse75_$LT$impl$u20$core..str..traits..FromStr$u20$for$u20$semver..Prerelease$GT$8from_str17h105c01b4dd1c057bE
libcubeb.so.0:_ZN6semver5parse75_$LT$impl$u20$core..str..traits..FromStr$u20$for$u20$semver..VersionReq$GT$8from_str17hf0454c0ec7703129E
libcubeb.so.0:_ZN6semver5parse78_$LT$impl$u20$core..str..traits..FromStr$u20$for$u20$semver..BuildMetadata$GT$8from_str17hf9ff6dde5cd4706aE
libcubeb.so.0:_ZN6semver7Version14cmp_precedence17h8206466570b01528E
libcubeb.so.0:_ZN6semver7Version5parse17ha00d1d3860e9b406E
libcubeb.so.0:_ZN6semver7display62_$LT$impl$u20$core..fmt..Debug$u20$for$u20$semver..Version$GT$3fmt17h35d37dd6e12409aeE
libcubeb.so.0:_ZN6semver7display64_$LT$impl$u20$core..fmt..Display$u20$for$u20$semver..Version$GT$3fmt17hbc7d1088ce1886fcE
libcubeb.so.0:_ZN6semver7display65_$LT$impl$u20$core..fmt..Debug$u20$for$u20$semver..Prerelease$GT$3fmt17h13e7557fc8c50a98E
libcubeb.so.0:_ZN6semver7display67_$LT$impl$u20$core..fmt..Display$u20$for$u20$semver..Comparator$GT$3fmt17h82eee390085c7d35E
libcubeb.so.0:_ZN6semver7display67_$LT$impl$u20$core..fmt..Display$u20$for$u20$semver..Prerelease$GT$3fmt17h6e88cdfe0a067892E
libcubeb.so.0:_ZN6semver7display67_$LT$impl$u20$core..fmt..Display$u20$for$u20$semver..VersionReq$GT$3fmt17h5c909e984a11671eE
libcubeb.so.0:_ZN6semver7display68_$LT$impl$u20$core..fmt..Debug$u20$for$u20$semver..BuildMetadata$GT$3fmt17hd9d37493452c9c8dE
libcubeb.so.0:_ZN6semver7display70_$LT$impl$u20$core..fmt..Display$u20$for$u20$semver..BuildMetadata$GT$3fmt17hc9fa4f566ac66ac1E
libcubeb.so.0:_ZN70_$LT$cubeb_core..device..DeviceFormat$u20$as$u20$core..fmt..Binary$GT$3fmt17hbfce4047758bc1ddE
libcubeb.so.0:_ZN70_$LT$cubeb_core..device..DeviceInfoRef$u20$as$u20$core..fmt..Debug$GT$3fmt17hb98c01016f6f6870E
libcubeb.so.0:_ZN70_$LT$cubeb_core..device..DevicePref$u20$as$u20$core..fmt..LowerHex$GT$3fmt17hc846d6570f067d5dE
libcubeb.so.0:_ZN70_$LT$cubeb_core..device..DevicePref$u20$as$u20$core..fmt..UpperHex$GT$3fmt17h08445fb76ecd7c9dE
libcubeb.so.0:_ZN70_$LT$cubeb_core..device..DeviceType$u20$as$u20$core..fmt..LowerHex$GT$3fmt17h5ff4ae7b7dad9f0bE
libcubeb.so.0:_ZN70_$LT$cubeb_core..device..DeviceType$u20$as$u20$core..fmt..UpperHex$GT$3fmt17h5187b192c55efbddE
libcubeb.so.0:_ZN70_$LT$pulse_ffi..ffi_types..pa_cvolume$u20$as$u20$pulse..CVolumeExt$GT$11set_balance17h2e4dcdb5d82f6763E
libcubeb.so.0:_ZN70_$LT$pulse_ffi..ffi_types..pa_cvolume$u20$as$u20$pulse..CVolumeExt$GT$3set17hca8dcfe44ee2e740E
libcubeb.so.0:_ZN71_$LT$cubeb_core..channel..ChannelLayout$u20$as$u20$core..fmt..Debug$GT$3fmt17hbf498c9ab7a0e4b6E
libcubeb.so.0:_ZN71_$LT$cubeb_core..channel..ChannelLayout$u20$as$u20$core..fmt..Octal$GT$3fmt17h83823bbf19d4d028E
libcubeb.so.0:_ZN71_$LT$cubeb_core..stream..StreamPrefs$u20$as$u20$core..fmt..LowerHex$GT$3fmt17hb58636999dfa17e3E
libcubeb.so.0:_ZN71_$LT$cubeb_core..stream..StreamPrefs$u20$as$u20$core..fmt..UpperHex$GT$3fmt17h381e26b3cdfd7573E
libcubeb.so.0:_ZN71_$LT$semver..identifier..Identifier$u20$as$u20$core..cmp..PartialEq$GT$2eq17hc6077a9239120bd6E
libcubeb.so.0:_ZN72_$LT$cubeb_core..channel..ChannelLayout$u20$as$u20$core..fmt..Binary$GT$3fmt17hfeb2851477737718E
libcubeb.so.0:_ZN72_$LT$cubeb_core..device..DeviceFormat$u20$as$u20$core..fmt..LowerHex$GT$3fmt17h421e76d74d682cfdE
libcubeb.so.0:_ZN72_$LT$cubeb_core..device..DeviceFormat$u20$as$u20$core..fmt..UpperHex$GT$3fmt17h09c23fb0466af9d2E
libcubeb.so.0:_ZN72_$LT$cubeb_core..stream..StreamParamsRef$u20$as$u20$core..fmt..Debug$GT$3fmt17h0d22bb0e99e1e129E
libcubeb.so.0:_ZN72_$LT$semver..identifier..Identifier$u20$as$u20$core..ops..drop..Drop$GT$4drop17h8536f5e87ad95046E
libcubeb.so.0:_ZN73_$LT$pulse.._..InternalBitFlags$u20$as$u20$core..str..traits..FromStr$GT$8from_str17h57c3b7f410cd4a0fE
libcubeb.so.0:_ZN73_$LT$pulse.._..InternalBitFlags$u20$as$u20$core..str..traits..FromStr$GT$8from_str17h7e4473f5d82c23e8E
libcubeb.so.0:_ZN73_$LT$pulse.._..InternalBitFlags$u20$as$u20$core..str..traits..FromStr$GT$8from_str17hb880c675259c6a8dE
libcubeb.so.0:_ZN73_$LT$pulse.._..InternalBitFlags$u20$as$u20$core..str..traits..FromStr$GT$8from_str17hdb14c5078c68ae6cE
libcubeb.so.0:_ZN73_$LT$pulse.._..InternalBitFlags$u20$as$u20$core..str..traits..FromStr$GT$8from_str17hf8f7f002d7edb2efE
libcubeb.so.0:_ZN74_$LT$cubeb_core..channel..ChannelLayout$u20$as$u20$core..fmt..LowerHex$GT$3fmt17h80047079d8d966d2E
libcubeb.so.0:_ZN74_$LT$cubeb_core..channel..ChannelLayout$u20$as$u20$core..fmt..UpperHex$GT$3fmt17h17d983fcdd4688bbE
libcubeb.so.0:_ZN77_$LT$pulse_ffi..ffi_types..pa_channel_map$u20$as$u20$pulse..ChannelMapExt$GT$11can_balance17h8c183ca24b150508E
libcubeb.so.0:_ZN77_$LT$pulse_ffi..ffi_types..pa_channel_map$u20$as$u20$pulse..ChannelMapExt$GT$4init17h3e91286c34aa499fE
libcubeb.so.0:_ZN77_$LT$pulse_ffi..ffi_types..pa_channel_map$u20$as$u20$pulse..ChannelMapExt$GT$9init_auto17h073757d6e4b8eb83E
libcubeb.so.0:_ZN78_$LT$cubeb_core..stream..InputProcessingParams$u20$as$u20$core..fmt..Debug$GT$3fmt17h8de04f5723c7a553E
libcubeb.so.0:_ZN78_$LT$cubeb_core..stream..InputProcessingParams$u20$as$u20$core..fmt..Octal$GT$3fmt17h6543b9426e37ae2bE
libcubeb.so.0:_ZN78_$LT$cubeb_pulse..backend..stream..Device$u20$as$u20$core..ops..drop..Drop$GT$4drop17h83206b7985c8ed5fE
libcubeb.so.0:_ZN79_$LT$cubeb_core..stream..InputProcessingParams$u20$as$u20$core..fmt..Binary$GT$3fmt17h318961766879fca1E
libcubeb.so.0:_ZN80_$LT$cubeb_pulse..backend..stream..BufferManager$u20$as$u20$core..fmt..Debug$GT$3fmt17h4b9e1053a0c2dad4E
libcubeb.so.0:_ZN81_$LT$cubeb_core..stream..InputProcessingParams$u20$as$u20$core..fmt..LowerHex$GT$3fmt17h1512c2690792645fE
libcubeb.so.0:_ZN81_$LT$cubeb_core..stream..InputProcessingParams$u20$as$u20$core..fmt..UpperHex$GT$3fmt17h10067865fdc55d54E
libcubeb.so.0:_ZN83_$LT$cubeb_pulse..backend..stream..PulseStream$u20$as$u20$core..ops..drop..Drop$GT$4drop17hc0f4ef11420afaebE
libcubeb.so.0:_ZN84_$LT$pulse..threaded_mainloop..ThreadedMainloop$u20$as$u20$core..ops..drop..Drop$GT$4drop17hb5a6f7edbac74a70E
libcubeb.so.0:_ZN84_$LT$pulse_ffi..ffi_types..Struct_pa_sample_spec$u20$as$u20$pulse..SampleSpecExt$GT$10frame_size17haedbf3d749e5f9a3E
libcubeb.so.0:_ZN84_$LT$pulse_ffi..ffi_types..Struct_pa_sample_spec$u20$as$u20$pulse..SampleSpecExt$GT$11sample_size17hc2ef8010fa9bdd33E
libcubeb.so.0:_ZN85_$LT$cubeb_pulse..backend..context..PulseContext$u20$as$u20$core..ops..drop..Drop$GT$4drop17h7dfac03469c64818E
libcubeb.so.0:_ZN87_$LT$cubeb_core..device_collection..DeviceCollectionRef$u20$as$u20$core..fmt..Debug$GT$3fmt17hc8380fcf5c168ec7E
libcubeb.so.0:_ZN89_$LT$cubeb_core..device_collection..DeviceCollection$u20$as$u20$core..ops..drop..Drop$GT$4drop17h3f5943fb70ab60ecE
libcubeb.so.0:_ZN8bitflags6traits59_$LT$impl$u20$bitflags..parser..ParseHex$u20$for$u20$i8$GT$9parse_hex17h082c30fe94502362E
libcubeb.so.0:_ZN8bitflags6traits59_$LT$impl$u20$bitflags..parser..ParseHex$u20$for$u20$u8$GT$9parse_hex17he7f4f65bce3fdf08E
libcubeb.so.0:_ZN8bitflags6traits60_$LT$impl$u20$bitflags..parser..ParseHex$u20$for$u20$i16$GT$9parse_hex17hb4c3a6be574752b4E
libcubeb.so.0:_ZN8bitflags6traits60_$LT$impl$u20$bitflags..parser..ParseHex$u20$for$u20$i32$GT$9parse_hex17h9d10cb982e421787E
libcubeb.so.0:_ZN8bitflags6traits60_$LT$impl$u20$bitflags..parser..ParseHex$u20$for$u20$i64$GT$9parse_hex17h74f648bacd390404E
libcubeb.so.0:_ZN8bitflags6traits60_$LT$impl$u20$bitflags..parser..ParseHex$u20$for$u20$u16$GT$9parse_hex17h469b1035a2c6b28fE
libcubeb.so.0:_ZN8bitflags6traits60_$LT$impl$u20$bitflags..parser..ParseHex$u20$for$u20$u32$GT$9parse_hex17hba2d54049a565565E
libcubeb.so.0:_ZN8bitflags6traits60_$LT$impl$u20$bitflags..parser..ParseHex$u20$for$u20$u64$GT$9parse_hex17hfed1a6ca94ce7ffeE
libcubeb.so.0:_ZN8bitflags6traits61_$LT$impl$u20$bitflags..parser..ParseHex$u20$for$u20$i128$GT$9parse_hex17h174fafab128dbd35E
libcubeb.so.0:_ZN8bitflags6traits61_$LT$impl$u20$bitflags..parser..ParseHex$u20$for$u20$u128$GT$9parse_hex17hf3594bd6b29ae609E
libcubeb.so.0:_ZN8bitflags6traits62_$LT$impl$u20$bitflags..parser..ParseHex$u20$for$u20$isize$GT$9parse_hex17h2ae00a49842845baE
libcubeb.so.0:_ZN8bitflags6traits62_$LT$impl$u20$bitflags..parser..ParseHex$u20$for$u20$usize$GT$9parse_hex17h9d27e5671a69d7d6E
libcubeb.so.0:_ZN94_$LT$cubeb_pulse..backend..stream..PulseStream$u20$as$u20$cubeb_backend..traits..StreamOps$GT$10set_volume17h107cb3f379e42e79E
libcubeb.so.0:_ZN94_$LT$cubeb_pulse..backend..stream..PulseStream$u20$as$u20$cubeb_backend..traits..StreamOps$GT$13input_latency17h102fd34b732562abE
libcubeb.so.0:_ZN94_$LT$cubeb_pulse..backend..stream..PulseStream$u20$as$u20$cubeb_backend..traits..StreamOps$GT$14current_device17h4a13df6654f9c59dE
libcubeb.so.0:_ZN94_$LT$cubeb_pulse..backend..stream..PulseStream$u20$as$u20$cubeb_backend..traits..StreamOps$GT$14device_destroy17h1b8ef713362a4409E
libcubeb.so.0:_ZN94_$LT$cubeb_pulse..backend..stream..PulseStream$u20$as$u20$cubeb_backend..traits..StreamOps$GT$32register_device_changed_callback17hd784f723a0b992a2E
libcubeb.so.0:_ZN94_$LT$cubeb_pulse..backend..stream..PulseStream$u20$as$u20$cubeb_backend..traits..StreamOps$GT$4stop17h6b13bb85bc01cb63E
libcubeb.so.0:_ZN94_$LT$cubeb_pulse..backend..stream..PulseStream$u20$as$u20$cubeb_backend..traits..StreamOps$GT$5start17hbfed579c11d56646E
libcubeb.so.0:_ZN94_$LT$cubeb_pulse..backend..stream..PulseStream$u20$as$u20$cubeb_backend..traits..StreamOps$GT$7latency17hfccf8d9d91c3d873E
libcubeb.so.0:_ZN94_$LT$cubeb_pulse..backend..stream..PulseStream$u20$as$u20$cubeb_backend..traits..StreamOps$GT$8position17h5613743daf2bda3aE
libcubeb.so.0:_ZN94_$LT$cubeb_pulse..backend..stream..PulseStream$u20$as$u20$cubeb_backend..traits..StreamOps$GT$8set_name17h1ad2db55f0dadc84E
libcubeb.so.0:_ZN97_$LT$cubeb_pulse..backend..context..PulseContext$u20$as$u20$cubeb_backend..traits..ContextOps$GT$10backend_id17he7d108287269f3b8E
libcubeb.so.0:_ZN97_$LT$cubeb_pulse..backend..context..PulseContext$u20$as$u20$cubeb_backend..traits..ContextOps$GT$11stream_init17he7b907dc60d6bce5E
libcubeb.so.0:_ZN97_$LT$cubeb_pulse..backend..context..PulseContext$u20$as$u20$cubeb_backend..traits..ContextOps$GT$17enumerate_devices17h7f0c59e0def72fa0E
libcubeb.so.0:_ZN97_$LT$cubeb_pulse..backend..context..PulseContext$u20$as$u20$cubeb_backend..traits..ContextOps$GT$17max_channel_count17hfc992120dc2f3aa6E
libcubeb.so.0:_ZN97_$LT$cubeb_pulse..backend..context..PulseContext$u20$as$u20$cubeb_backend..traits..ContextOps$GT$21preferred_sample_rate17he26dc7c7cdde1597E
libcubeb.so.0:_ZN97_$LT$cubeb_pulse..backend..context..PulseContext$u20$as$u20$cubeb_backend..traits..ContextOps$GT$25device_collection_destroy17h4b54e51eeff270f9E
libcubeb.so.0:_ZN97_$LT$cubeb_pulse..backend..context..PulseContext$u20$as$u20$cubeb_backend..traits..ContextOps$GT$34register_device_collection_changed17h1adf2a15cc35bc62E
libcubeb.so.0:_ZN97_$LT$cubeb_pulse..backend..context..PulseContext$u20$as$u20$cubeb_backend..traits..ContextOps$GT$4init17he0ef1e304bca4f91E
libcubeb.so.0:_ZN99_$LT$cubeb_core..error..Error$u20$as$u20$core..convert..From$LT$alloc..ffi..c_str..NulError$GT$$GT$4from17h1c0ed021aa5ccf8bE
libcubeb.so.0:cubeb_destroy
libcubeb.so.0:cubeb_device_collection_destroy
libcubeb.so.0:cubeb_enumerate_devices
libcubeb.so.0:cubeb_get_backend_id
libcubeb.so.0:cubeb_get_backend_names
libcubeb.so.0:cubeb_get_max_channel_count
libcubeb.so.0:cubeb_get_min_latency
libcubeb.so.0:cubeb_get_preferred_sample_rate
libcubeb.so.0:cubeb_get_supported_input_processing_params
libcubeb.so.0:cubeb_init
libcubeb.so.0:cubeb_register_device_collection_changed
libcubeb.so.0:cubeb_set_log_callback
libcubeb.so.0:cubeb_stream_destroy
libcubeb.so.0:cubeb_stream_device_destroy
libcubeb.so.0:cubeb_stream_get_current_device
libcubeb.so.0:cubeb_stream_get_input_latency
libcubeb.so.0:cubeb_stream_get_latency
libcubeb.so.0:cubeb_stream_get_position
libcubeb.so.0:cubeb_stream_init
libcubeb.so.0:cubeb_stream_register_device_changed_callback
libcubeb.so.0:cubeb_stream_set_input_mute
libcubeb.so.0:cubeb_stream_set_input_processing_params
libcubeb.so.0:cubeb_stream_set_name
libcubeb.so.0:cubeb_stream_set_volume
libcubeb.so.0:cubeb_stream_start
libcubeb.so.0:cubeb_stream_stop
libcubeb.so.0:cubeb_stream_user_ptr
libcubeb.so.0:cubeb_strings_destroy
libcubeb.so.0:cubeb_strings_init
libcubeb.so.0:cubeb_strings_intern
libcubeb.so.0:cubeb_write_log
libcubeb.so.0:pulse_rust_init
libcubeb.so.0:rust_eh_personality
libcubeb.so.0:rust_write_formatted_msg_0_32_0
