slang.so:_ZN14slang_frontend10scope_pathEPKN5slang3ast5ScopeEb
slang.so:_ZN14slang_frontend11EvalContext11eval_signedERKN5slang3ast10ExpressionE
slang.so:_ZN14slang_frontend11EvalContext13streaming_lhsERKN5slang3ast32StreamingConcatenationExpressionE
slang.so:_ZN14slang_frontend11EvalContext14connection_lhsERKN5slang3ast20AssignmentExpressionE
slang.so:_ZN14slang_frontend11EvalContext15find_nest_levelEPKN5slang3ast5ScopeE
slang.so:_ZN14slang_frontend11EvalContext16apply_conversionERKN5slang3ast20ConversionExpressionEN5Yosys5RTLIL7SigSpecE
slang.so:_ZN14slang_frontend11EvalContext23apply_nested_conversionERKN5slang3ast10ExpressionEN5Yosys5RTLIL7SigSpecE
slang.so:_ZN14slang_frontend11EvalContext3lhsERKN5slang3ast10ExpressionEb
slang.so:_ZN14slang_frontend11EvalContext8variableERKN5slang3ast11ValueSymbolE
slang.so:_ZN14slang_frontend11EvalContext9streamingERKN5slang3ast32StreamingConcatenationExpressionE
slang.so:_ZN14slang_frontend11EvalContextC1ERNS_14NetlistContextE
slang.so:_ZN14slang_frontend11EvalContextC1ERNS_14NetlistContextERNS_17ProceduralContextE
slang.so:_ZN14slang_frontend11EvalContextC2ERNS_14NetlistContextE
slang.so:_ZN14slang_frontend11EvalContextC2ERNS_14NetlistContextERNS_17ProceduralContextE
slang.so:_ZN14slang_frontend11EvalContextclERKN5slang3ast10ExpressionE
slang.so:_ZN14slang_frontend11ThreeValued2OREii
slang.so:_ZN14slang_frontend11ThreeValued3ANDEii
slang.so:_ZN14slang_frontend11ThreeValued3NOTEi
slang.so:_ZN14slang_frontend11ThreeValued3XOREii
slang.so:_ZN14slang_frontend11ThreeValued4XNOREii
slang.so:_ZN14slang_frontend11ThreeValued5CARRYEiii
slang.so:_ZN14slang_frontend11ThreeValued7convertEN5Yosys5RTLIL6SigBitE
slang.so:_ZN14slang_frontend11handle_pastERNS_11EvalContextERKN5slang3ast14CallExpressionE
slang.so:_ZN14slang_frontend12RTLILBuilder10EqWildcardEN5Yosys5RTLIL7SigSpecES3_
slang.so:_ZN14slang_frontend12RTLILBuilder10ReduceBoolEN5Yosys5RTLIL7SigSpecE
slang.so:_ZN14slang_frontend12RTLILBuilder10add_y_wireB5cxx11Ei
slang.so:_ZN14slang_frontend12RTLILBuilder10bless_cellEPN5Yosys5RTLIL4CellE
slang.so:_ZN14slang_frontend12RTLILBuilder15add_memory_initESt17basic_string_viewIcSt11char_traitsIcEEmbN5Yosys5RTLIL5ConstE
slang.so:_ZN14slang_frontend12RTLILBuilder17emit_meminit_cellEPN5Yosys5RTLIL6MemoryEmbNS2_5ConstES5_
slang.so:_ZN14slang_frontend12RTLILBuilder19add_dual_edge_aldffERKNSt7__cxx1112basic_stringIcSt11char_traitsIcESaIcEEEN5Yosys5RTLIL7SigSpecESB_SB_SB_SB_b
slang.so:_ZN14slang_frontend12RTLILBuilder22add_placeholder_signalEmSt17basic_string_viewIcSt11char_traitsIcEEb
slang.so:_ZN14slang_frontend12RTLILBuilder2EqEN5Yosys5RTLIL7SigSpecES3_
slang.so:_ZN14slang_frontend12RTLILBuilder2GeEN5Yosys5RTLIL7SigSpecES3_b
slang.so:_ZN14slang_frontend12RTLILBuilder2LeEN5Yosys5RTLIL7SigSpecES3_b
slang.so:_ZN14slang_frontend12RTLILBuilder2LtEN5Yosys5RTLIL7SigSpecES3_b
slang.so:_ZN14slang_frontend12RTLILBuilder3MuxEN5Yosys5RTLIL7SigSpecES3_S3_
slang.so:_ZN14slang_frontend12RTLILBuilder3NegEN5Yosys5RTLIL7SigSpecEb
slang.so:_ZN14slang_frontend12RTLILBuilder3NotEN5Yosys5RTLIL7SigSpecE
slang.so:_ZN14slang_frontend12RTLILBuilder4BiopEN5Yosys5RTLIL8IdStringENS2_7SigSpecES4_bbi
slang.so:_ZN14slang_frontend12RTLILBuilder4BmuxEN5Yosys5RTLIL7SigSpecES3_
slang.so:_ZN14slang_frontend12RTLILBuilder4UnopEN5Yosys5RTLIL8IdStringENS2_7SigSpecEbi
slang.so:_ZN14slang_frontend12RTLILBuilder5BwmuxEN5Yosys5RTLIL7SigSpecES3_S3_
slang.so:_ZN14slang_frontend12RTLILBuilder5DemuxEN5Yosys5RTLIL7SigSpecES3_
slang.so:_ZN14slang_frontend12RTLILBuilder5ShiftEN5Yosys5RTLIL7SigSpecEbS3_bi
slang.so:_ZN14slang_frontend12RTLILBuilder6ShiftxEN5Yosys5RTLIL7SigSpecES3_bi
slang.so:_ZN14slang_frontend12RTLILBuilder6new_idENSt7__cxx1112basic_stringIcSt11char_traitsIcESaIcEEE
slang.so:_ZN14slang_frontend12RTLILBuilder7LogicOrEN5Yosys5RTLIL7SigSpecES3_
slang.so:_ZN14slang_frontend12RTLILBuilder7add_dffESt17basic_string_viewIcSt11char_traitsIcEERKN5Yosys5RTLIL7SigSpecES9_S9_b
slang.so:_ZN14slang_frontend12RTLILBuilder7connectEN5Yosys5RTLIL7SigSpecES3_
slang.so:_ZN14slang_frontend12RTLILBuilder8LogicAndEN5Yosys5RTLIL7SigSpecES3_
slang.so:_ZN14slang_frontend12RTLILBuilder8LogicNotEN5Yosys5RTLIL7SigSpecE
slang.so:_ZN14slang_frontend12RTLILBuilder8add_dffeESt17basic_string_viewIcSt11char_traitsIcEERKN5Yosys5RTLIL7SigSpecES9_S9_S9_bb
slang.so:_ZN14slang_frontend12RTLILBuilder9CountOnesEN5Yosys5RTLIL7SigSpecEi
slang.so:_ZN14slang_frontend12RTLILBuilder9add_aldffESt17basic_string_viewIcSt11char_traitsIcEERKN5Yosys5RTLIL7SigSpecES9_S9_S9_S9_bb
slang.so:_ZN14slang_frontend12VariableBits16has_special_netsEv
slang.so:_ZN14slang_frontend12order_scopesEPKN5slang3ast5ScopeES4_
slang.so:_ZN14slang_frontend13ProcessTiming15extract_triggerERNS_14NetlistContextEPN5Yosys5RTLIL4CellENS4_6SigBitE
slang.so:_ZN14slang_frontend13ProcessTiming7initialE
slang.so:_ZN14slang_frontend13ProcessTiming8implicitE
slang.so:_ZN14slang_frontend13ProcessTimingC1ENS0_4KindE
slang.so:_ZN14slang_frontend13ProcessTimingC2ENS0_4KindE
slang.so:_ZN14slang_frontend13SlangFrontendE
slang.so:_ZN14slang_frontend13fixup_optionsERNS_17SynthesisSettingsERN5slang6driver6DriverE
slang.so:_ZN14slang_frontend13format_wchunkB5cxx11EN5Yosys5RTLIL8SigChunkE
slang.so:_ZN14slang_frontend13wire_missing_ERNS_14NetlistContextERKN5slang3ast6SymbolEPKci
slang.so:_ZN14slang_frontend14NetlistContext11is_blackboxERKN5slang3ast16DefinitionSymbolEPNS1_10DiagnosticE
slang.so:_ZN14slang_frontend14NetlistContext13convert_constERKN5slang13ConstantValueENS1_14SourceLocationE
slang.so:_ZN14slang_frontend14NetlistContext14check_hier_refERKN5slang3ast11ValueSymbolENS1_11SourceRangeEb
slang.so:_ZN14slang_frontend14NetlistContext14convert_staticENS_12VariableBitsE
slang.so:_ZN14slang_frontend14NetlistContext15register_drivenERKN5slang3ast6SymbolE
slang.so:_ZN14slang_frontend14NetlistContext15register_drivenERKNS_12VariableBitsE
slang.so:_ZN14slang_frontend14NetlistContext15should_dissolveERKN5slang3ast14InstanceSymbolEPNS1_10DiagnosticE
slang.so:_ZN14slang_frontend14NetlistContext17find_symbol_realmERKN5slang3ast6SymbolE
slang.so:_ZN14slang_frontend14NetlistContext18is_inferred_memoryERKN5slang3ast10ExpressionE
slang.so:_ZN14slang_frontend14NetlistContext18is_inferred_memoryERKN5slang3ast6SymbolE
slang.so:_ZN14slang_frontend14NetlistContext20find_common_ancestorERKN5slang3ast18InstanceBodySymbolES5_
slang.so:_ZN14slang_frontend14NetlistContext21add_continuous_driverENS_12VariableBitsEN5Yosys5RTLIL7SigSpecE
slang.so:_ZN14slang_frontend14NetlistContext2idB5cxx11ERKN5slang3ast11ValueSymbolE
slang.so:_ZN14slang_frontend14NetlistContext2idB5cxx11ERKN5slang3ast6SymbolE
slang.so:_ZN14slang_frontend14NetlistContext4wireERKN5slang3ast6SymbolE
slang.so:_ZN14slang_frontend14NetlistContext7hdlnameB5cxx11ERKN5slang3ast6SymbolE
slang.so:_ZN14slang_frontend14NetlistContext8add_wireERKN5slang3ast11ValueSymbolE
slang.so:_ZN14slang_frontend14NetlistContextC1EPN5Yosys5RTLIL6DesignERNS_17SynthesisSettingsERN5slang3ast11CompilationERKNS8_14InstanceSymbolE
slang.so:_ZN14slang_frontend14NetlistContextC1ERS0_RKN5slang3ast14InstanceSymbolE
slang.so:_ZN14slang_frontend14NetlistContextC2EPN5Yosys5RTLIL6DesignERNS_17SynthesisSettingsERN5slang3ast11CompilationERKNS8_14InstanceSymbolE
slang.so:_ZN14slang_frontend14NetlistContextC2ERS0_RKN5slang3ast14InstanceSymbolE
slang.so:_ZN14slang_frontend14NetlistContextD1Ev
slang.so:_ZN14slang_frontend14NetlistContextD2Ev
slang.so:_ZN14slang_frontend14build_hiernameERNS_14NetlistContextERKN5slang3ast6SymbolERKNSt7__cxx1112basic_stringIcSt11char_traitsIcESaIcEEE
slang.so:_ZN14slang_frontend14crop_zero_maskERKN5Yosys5RTLIL7SigSpecERNS_12VariableBitsE
slang.so:_ZN14slang_frontend14crop_zero_maskERKN5Yosys5RTLIL7SigSpecERS2_
slang.so:_ZN14slang_frontend14handle_displayERNS_17ProceduralContextERKN5slang3ast14CallExpressionE
slang.so:_ZN14slang_frontend14is_special_netERKN5slang3ast6SymbolE
slang.so:_ZN14slang_frontend14unimplemented_ERKN5slang3ast10ExpressionEPKciS6_
slang.so:_ZN14slang_frontend14unimplemented_ERKN5slang3ast13TimingControlEPKciS6_
slang.so:_ZN14slang_frontend14unimplemented_ERKN5slang3ast6SymbolEPKciS6_
slang.so:_ZN14slang_frontend14unimplemented_ERKN5slang3ast9StatementEPKciS6_
slang.so:_ZN14slang_frontend15crop_undef_maskERKN5Yosys5RTLIL7SigSpecERNS_12VariableBitsE
slang.so:_ZN14slang_frontend15crop_undef_maskERKN5Yosys5RTLIL7SigSpecERS2_
slang.so:_ZN14slang_frontend15source_locationERKN5slang3ast10ExpressionE
slang.so:_ZN14slang_frontend15source_locationERKN5slang3ast13TimingControlE
slang.so:_ZN14slang_frontend15source_locationERKN5slang3ast6SymbolE
slang.so:_ZN14slang_frontend15source_locationERKN5slang3ast9StatementE
slang.so:_ZN14slang_frontend16DiagnosticIssuer11report_intoERN5slang16DiagnosticEngineE
slang.so:_ZN14slang_frontend16DiagnosticIssuer15add_diagnosticsERKN5slang11DiagnosticsE
slang.so:_ZN14slang_frontend16DiagnosticIssuer8add_diagEN5slang10DiagnosticE
slang.so:_ZN14slang_frontend16DiagnosticIssuer8add_diagEN5slang8DiagCodeENS1_11SourceRangeE
slang.so:_ZN14slang_frontend16DiagnosticIssuer8add_diagEN5slang8DiagCodeENS1_14SourceLocationE
slang.so:_ZN14slang_frontend16SlangVersionPassE
slang.so:_ZN14slang_frontend16global_sourcemgrE
slang.so:_ZN14slang_frontend17ProceduralContext10all_drivenEv
slang.so:_ZN14slang_frontend17ProceduralContext11case_enableEv
slang.so:_ZN14slang_frontend17ProceduralContext13VariableState3setENS_12VariableBitsEN5Yosys5RTLIL7SigSpecE
slang.so:_ZN14slang_frontend17ProceduralContext13VariableState4saveERN5Yosys7hashlib4dictINS_11VariableBitENS2_5RTLIL6SigBitENS3_8hash_opsIS5_EEEE
slang.so:_ZN14slang_frontend17ProceduralContext13VariableState7restoreERN5Yosys7hashlib4dictINS_11VariableBitENS2_5RTLIL6SigBitENS3_8hash_opsIS5_EEEE
slang.so:_ZN14slang_frontend17ProceduralContext13VariableState8evaluateERNS_14NetlistContextENS_12VariableBitsE
slang.so:_ZN14slang_frontend17ProceduralContext13VariableState8evaluateERNS_14NetlistContextENS_13VariableChunkE
slang.so:_ZN14slang_frontend17ProceduralContext13assign_rvalueERKN5slang3ast20AssignmentExpressionEN5Yosys5RTLIL7SigSpecE
slang.so:_ZN14slang_frontend17ProceduralContext13inherit_stateERS0_
slang.so:_ZN14slang_frontend17ProceduralContext13signal_escapeEN5slang14SourceLocationENS0_11EscapeFrame19EscapeConstructKindE
slang.so:_ZN14slang_frontend17ProceduralContext16do_simple_assignEN5slang14SourceLocationENS_12VariableBitsEN5Yosys5RTLIL7SigSpecEb
slang.so:_ZN14slang_frontend17ProceduralContext16get_disable_flagEv
slang.so:_ZN14slang_frontend17ProceduralContext17substitute_rvalueENS_12VariableBitsE
slang.so:_ZN14slang_frontend17ProceduralContext19copy_case_tree_intoERN5Yosys5RTLIL8CaseRuleE
slang.so:_ZN14slang_frontend17ProceduralContext19set_effects_triggerEPN5Yosys5RTLIL4CellE
slang.so:_ZN14slang_frontend17ProceduralContext21update_variable_stateEN5slang14SourceLocationENS_12VariableBitsEN5Yosys5RTLIL7SigSpecES6_b
slang.so:_ZN14slang_frontend17ProceduralContext22get_current_subroutineEv
slang.so:_ZN14slang_frontend17ProceduralContextC1ERNS_14NetlistContextERNS_13ProcessTimingE
slang.so:_ZN14slang_frontend17ProceduralContextC2ERNS_14NetlistContextERNS_13ProcessTimingE
slang.so:_ZN14slang_frontend17ProceduralContextD1Ev
slang.so:_ZN14slang_frontend17ProceduralContextD2Ev
slang.so:_ZN14slang_frontend17SlangDefaultsPassE
slang.so:_ZN14slang_frontend17SynthesisSettings10addOptionsERN5slang11CommandLineE
slang.so:_ZN14slang_frontend17TestSlangDiagPassE
slang.so:_ZN14slang_frontend17TestSlangExprPassE
slang.so:_ZN14slang_frontend17get_instance_bodyERNS_17SynthesisSettingsERKN5slang3ast14InstanceSymbolE
slang.so:_ZN14slang_frontend17inside_comparisonERNS_11EvalContextEN5Yosys5RTLIL7SigSpecERKN5slang3ast10ExpressionE
slang.so:_ZN14slang_frontend18AddressingResolver10shift_downEN5Yosys5RTLIL7SigSpecEi
slang.so:_ZN14slang_frontend18AddressingResolver15interpret_indexEN5Yosys5RTLIL7SigSpecEii
slang.so:_ZN14slang_frontend18AddressingResolver16shift_up_bitwiseEN5Yosys5RTLIL7SigSpecEbi
slang.so:_ZN14slang_frontend18AddressingResolver18shift_down_bitwiseEN5Yosys5RTLIL7SigSpecEi
slang.so:_ZN14slang_frontend18AddressingResolver3muxEN5Yosys5RTLIL7SigSpecEi
slang.so:_ZN14slang_frontend18AddressingResolver5demuxEN5Yosys5RTLIL7SigSpecEi
slang.so:_ZN14slang_frontend18AddressingResolver5embedEN5Yosys5RTLIL7SigSpecEiiNS2_5StateE
slang.so:_ZN14slang_frontend18AddressingResolver7extractIN5Yosys5RTLIL7SigSpecEEET_S5_m
slang.so:_ZN14slang_frontend18AddressingResolver7extractINS_12VariableBitsEEET_S3_m
slang.so:_ZN14slang_frontend18AddressingResolver7raw_muxEN5Yosys5RTLIL7SigSpecEiii
slang.so:_ZN14slang_frontend18AddressingResolver8shift_upEN5Yosys5RTLIL7SigSpecEbi
slang.so:_ZN14slang_frontend18AddressingResolver9is_staticEv
slang.so:_ZN14slang_frontend18AddressingResolver9raw_demuxEN5Yosys5RTLIL7SigSpecEii
slang.so:_ZN14slang_frontend18AddressingResolverC1ERNS_11EvalContextERKN5slang3ast21RangeSelectExpressionE
slang.so:_ZN14slang_frontend18AddressingResolverC1ERNS_11EvalContextERKN5slang3ast23ElementSelectExpressionE
slang.so:_ZN14slang_frontend18AddressingResolverC2ERNS_11EvalContextERKN5slang3ast21RangeSelectExpressionE
slang.so:_ZN14slang_frontend18AddressingResolverC2ERNS_11EvalContextERKN5slang3ast23ElementSelectExpressionE
slang.so:_ZN14slang_frontend18convert_attr_valueERNS_14NetlistContextEPKN5slang3ast15AttributeSymbolE
slang.so:_ZN14slang_frontend18global_compilationE
slang.so:_ZN14slang_frontend19UnrollLimitTracking11unroll_tickEPKN5slang3ast9StatementE
slang.so:_ZN14slang_frontend19UnrollLimitTracking14exit_unrollingEv
slang.so:_ZN14slang_frontend19UnrollLimitTracking15enter_unrollingEv
slang.so:_ZN14slang_frontend19UnrollLimitTrackingC1ERNS_14NetlistContextEi
slang.so:_ZN14slang_frontend19UnrollLimitTrackingC2ERNS_14NetlistContextEi
slang.so:_ZN14slang_frontend19UnrollLimitTrackingD1Ev
slang.so:_ZN14slang_frontend19UnrollLimitTrackingD2Ev
slang.so:_ZN14slang_frontend19is_special_net_typeERKN5slang3ast7NetTypeE
slang.so:_ZN14slang_frontend20hierpath_relative_toB5cxx11EPKN5slang3ast5ScopeES4_
slang.so:_ZN14slang_frontend20is_decl_empty_moduleERKN5slang6syntax10SyntaxNodeE
slang.so:_ZN14slang_frontend21finalize_special_netsERNS_14NetlistContextE
slang.so:_ZN14slang_frontend23bitstream_member_offsetERKN5slang3ast11FieldSymbolE
slang.so:_ZN14slang_frontend23catch_forbidden_optionsERN5slang6driver6DriverE
slang.so:_ZN14slang_frontend23generate_subfield_namesB5cxx11ENS_13VariableChunkEPKN5slang3ast4TypeE
slang.so:_ZN14slang_frontend24EnterAutomaticScopeGuardC1ERNS_11EvalContextEPKN5slang3ast5ScopeE
slang.so:_ZN14slang_frontend24EnterAutomaticScopeGuardC2ERNS_11EvalContextEPKN5slang3ast5ScopeE
slang.so:_ZN14slang_frontend24EnterAutomaticScopeGuardD1Ev
slang.so:_ZN14slang_frontend24EnterAutomaticScopeGuardD2Ev
slang.so:_ZN14slang_frontend24TimingPatternInterpretor13handle_alwaysERKN5slang3ast21ProceduralBlockSymbolE
slang.so:_ZN14slang_frontend24TimingPatternInterpretor23interpret_async_patternERKN5slang3ast21ProceduralBlockSymbolESt6vectorIPKNS2_18SignalEventControlESaIS9_EERKNS2_9StatementE
slang.so:_ZN14slang_frontend24TimingPatternInterpretor9interpretERKN5slang3ast21ProceduralBlockSymbolE
slang.so:_ZN14slang_frontend24export_blackbox_to_rtlilERNS_14NetlistContextERKN5slang3ast14InstanceSymbolEPN5Yosys5RTLIL6DesignE
slang.so:_ZN14slang_frontend24forbidden_diag_demotionsE
slang.so:_ZN14slang_frontend26evaluate_decl_initializersERNS_14NetlistContextE
slang.so:_ZN14slang_frontend26order_symbols_within_scopeEPKN5slang3ast6SymbolES4_
slang.so:_ZN14slang_frontend28RegisterEscapeConstructGuardC1ERNS_17ProceduralContextENS1_11EscapeFrame19EscapeConstructKindEPKN5slang3ast16SubroutineSymbolE
slang.so:_ZN14slang_frontend28RegisterEscapeConstructGuardC1ERNS_17ProceduralContextENS1_11EscapeFrame19EscapeConstructKindEPKN5slang3ast9StatementE
slang.so:_ZN14slang_frontend28RegisterEscapeConstructGuardC2ERNS_17ProceduralContextENS1_11EscapeFrame19EscapeConstructKindEPKN5slang3ast16SubroutineSymbolE
slang.so:_ZN14slang_frontend28RegisterEscapeConstructGuardC2ERNS_17ProceduralContextENS1_11EscapeFrame19EscapeConstructKindEPKN5slang3ast9StatementE
slang.so:_ZN14slang_frontend28RegisterEscapeConstructGuardD1Ev
slang.so:_ZN14slang_frontend28RegisterEscapeConstructGuardD2Ev
slang.so:_ZN14slang_frontend28import_blackboxes_from_rtlilERN5slang13SourceManagerERNS0_3ast11CompilationEPN5Yosys5RTLIL6DesignE
slang.so:_ZN14slang_frontend29assign_to_lvalue_with_maskingERKN5slang3ast20AssignmentExpressionERNS_17ProceduralContextERNS_6LValueEN5Yosys5RTLIL7SigSpecESB_b
slang.so:_ZN14slang_frontend2idERKSt17basic_string_viewIcSt11char_traitsIcEE
slang.so:_ZN14slang_frontend32finalize_variable_initializationERNS_14NetlistContextE
slang.so:_ZN14slang_frontend4diag12MissingAloadE
slang.so:_ZN14slang_frontend4diag13BadMemoryExprE
slang.so:_ZN14slang_frontend4diag14IffUnsupportedE
slang.so:_ZN14slang_frontend4diag14NoteUsageBlameE
slang.so:_ZN14slang_frontend4diag14RefUnsupportedE
slang.so:_ZN14slang_frontend4diag14SVAUnsupportedE
slang.so:_ZN14slang_frontend4diag14UdpUnsupportedE
slang.so:_ZN14slang_frontend4diag14UnsupportedLhsE
slang.so:_ZN14slang_frontend4diag14setup_messagesERN5slang16DiagnosticEngineE
slang.so:_ZN14slang_frontend4diag15ModportRequiredE
slang.so:_ZN14slang_frontend4diag15NoteSignalEventE
slang.so:_ZN14slang_frontend4diag15unsynthesizableE
slang.so:_ZN14slang_frontend4diag16DeprecatedOptionE
slang.so:_ZN14slang_frontend4diag16LatchNotInferredE
slang.so:_ZN14slang_frontend4diag17AlwaysFFBadTimingE
slang.so:_ZN14slang_frontend4diag17BboxTypeParameterE
slang.so:_ZN14slang_frontend4diag17FixedSizeRequiredE
slang.so:_ZN14slang_frontend4diag17ForbiddenDemotionE
slang.so:_ZN14slang_frontend4diag17GuessingInputPortE
slang.so:_ZN14slang_frontend4diag17MemoryNotInferredE
slang.so:_ZN14slang_frontend4diag17NoteIgnoreInitialE
slang.so:_ZN14slang_frontend4diag17NoteProcessDriverE
slang.so:_ZN14slang_frontend4diag18EdgeImplicitMixingE
slang.so:_ZN14slang_frontend4diag18GenericTimingUnsynE
slang.so:_ZN14slang_frontend4diag18NetTypeUnsupportedE
slang.so:_ZN14slang_frontend4diag18NonconstWildcardEqE
slang.so:_ZN14slang_frontend4diag18PortCorrespondenceE
slang.so:_ZN14slang_frontend4diag18ProgramUnsupportedE
slang.so:_ZN14slang_frontend4diag19IfElseAloadMismatchE
slang.so:_ZN14slang_frontend4diag19IfElseAloadPolarityE
slang.so:_ZN14slang_frontend4diag19MultiPortConversionE
slang.so:_ZN14slang_frontend4diag19NoParamsOnUnkBboxesE
slang.so:_ZN14slang_frontend4diag19NoteLoopContributesE
slang.so:_ZN14slang_frontend4diag19PrimTypeUnsupportedE
slang.so:_ZN14slang_frontend4diag20AssertionUnsupportedE
slang.so:_ZN14slang_frontend4diag20BboxExportPortWidthsE
slang.so:_ZN14slang_frontend4diag20BothEdgesUnsupportedE
slang.so:_ZN14slang_frontend4diag20ExpectingIfElseAloadE
slang.so:_ZN14slang_frontend4diag20MissingStopConditionE
slang.so:_ZN14slang_frontend4diag20MultiportUnsupportedE
slang.so:_ZN14slang_frontend4diag20UnrollLimitExhaustedE
slang.so:_ZN14slang_frontend4diag21UnsupportedSystemTaskE
slang.so:_ZN14slang_frontend4diag22LangFeatureUnsupportedE
slang.so:_ZN14slang_frontend4diag22NoteDuplicateEdgeSenseE
slang.so:_ZN14slang_frontend4diag22NotePreviousAssignmentE
slang.so:_ZN14slang_frontend4diag22UnsynthesizableFeatureE
slang.so:_ZN14slang_frontend4diag23ArgumentTypeUnsupportedE
slang.so:_ZN14slang_frontend4diag23InlinedInOutUnsupportedE
slang.so:_ZN14slang_frontend4diag24BadInlinedPortConnectionE
slang.so:_ZN14slang_frontend4diag24UnsupportedBitConversionE
slang.so:_ZN14slang_frontend4diag24UnsupportedPortDirectionE
slang.so:_ZN14slang_frontend4diag24WaitStatementUnsupportedE
slang.so:_ZN14slang_frontend4diag25NoAllowTopLevelIfacePortsE
slang.so:_ZN14slang_frontend4diag26ExpectStatementUnsupportedE
slang.so:_ZN14slang_frontend4diag26SignalSensitivityAmbiguousE
slang.so:_ZN14slang_frontend4diag27ErrorNonconstantInitialEvalE
slang.so:_ZN14slang_frontend4diag27InputPortCannotBeSpecialNetE
slang.so:_ZN14slang_frontend4diag29PastGatingClockingUnsupportedE
slang.so:_ZN14slang_frontend4diag29UnsupportedBlackboxConnectionE
slang.so:_ZN14slang_frontend4diag30NoteModuleBlackboxBecauseEmptyE
slang.so:_ZN14slang_frontend4diag31ReferenceAcrossKeptHierBoundaryE
slang.so:_ZN14slang_frontend4diag33SystemFunctionRequireClockedBlockE
slang.so:_ZN14slang_frontend4diag34BlockingAssignmentAfterNonblockingE
slang.so:_ZN14slang_frontend4diag34NonblockingAssignmentAfterBlockingE
slang.so:_ZN14slang_frontend4diag34NoteModuleBlackboxBecauseAttributeE
slang.so:_ZN14slang_frontend4diag37NonblockingAssignInInitialUnsupportedE
slang.so:_ZN14slang_frontend4diag37NoteModuleNotDissolvedBecauseBlackboxE
slang.so:_ZN14slang_frontend4diag42NoteModuleNotDissolvedBecauseKeepHierarchyE
slang.so:_ZN14slang_frontend4diag42ReadingNetStateFromInitialBlockUnsupportedE
slang.so:_ZN14slang_frontend4diag6sanityE
slang.so:_ZN14slang_frontend4diag8AloadOneE
slang.so:_ZN14slang_frontend6LValue11memoryWriteENS_8VariableEN5Yosys5RTLIL7SigSpecEm
slang.so:_ZN14slang_frontend6LValue11rangeSelectES0_NS_18AddressingResolverEm
slang.so:_ZN14slang_frontend6LValue12memberAccessES0_mm
slang.so:_ZN14slang_frontend6LValue13concatenationESt6vectorIS0_SaIS0_EE
slang.so:_ZN14slang_frontend6LValue14evaluate_vbitsEv
slang.so:_ZN14slang_frontend6LValue7analyzeERNS_11EvalContextERKN5slang3ast10ExpressionEb
slang.so:_ZN14slang_frontend6LValue8variableENS_8VariableE
slang.so:_ZN14slang_frontend6LValue9is_staticEv
slang.so:_ZN14slang_frontend6Switch5lowerERNS_14NetlistContextE
slang.so:_ZN14slang_frontend6Switch7trivialEv
slang.so:_ZN14slang_frontend6Switch8add_caseESt6vectorIN5Yosys5RTLIL7SigSpecESaIS4_EE
slang.so:_ZN14slang_frontend6SwitchD1Ev
slang.so:_ZN14slang_frontend6SwitchD2Ev
slang.so:_ZN14slang_frontend8Variable11escape_flagEi
slang.so:_ZN14slang_frontend8Variable11from_symbolEPKN5slang3ast11ValueSymbolEi
slang.so:_ZN14slang_frontend8Variable14is_special_netEv
slang.so:_ZN14slang_frontend8Variable5dummyEm
slang.so:_ZN14slang_frontend8VariableC1ENS0_4KindEPKN5slang3ast11ValueSymbolEi
slang.so:_ZN14slang_frontend8VariableC1Ev
slang.so:_ZN14slang_frontend8VariableC2ENS0_4KindEPKN5slang3ast11ValueSymbolEi
slang.so:_ZN14slang_frontend8VariableC2Ev
slang.so:_ZNK14slang_frontend8Variable10get_symbolEv
slang.so:_ZNK14slang_frontend8Variable10hash_labelEv
slang.so:_ZNK14slang_frontend8Variable4textB5cxx11Ev
slang.so:_ZNK14slang_frontend8Variable8bitwidthEv
slang.so:_ZNK14slang_frontend8VariablecvbEv
slang.so:_ZNK14slang_frontend8VariableltERKS0_
