UNKNOWN:_ZN3fmt3v126detail9dragonbox10to_decimalIdEENS2_10decimal_fpIT_EES5_
UNKNOWN:_ZN3fmt3v126detail9dragonbox10to_decimalIfEENS2_10decimal_fpIT_EES5_
UNKNOWN:_ZN5Yosys10log_signalB5cxx11ERKNS_5RTLIL7SigSpecEb
UNKNOWN:_ZN5Yosys12yosys_xtraceE
UNKNOWN:_ZN5Yosys13log_backtraceEPKci
UNKNOWN:_ZN5Yosys14log_make_debugE
UNKNOWN:_ZN5Yosys18format_emit_doubleERNSt7__cxx1112basic_stringIcSt11char_traitsIcESaIcEEESt17basic_string_viewIcS3_EPiNS_15DynamicIntCountEd
UNKNOWN:_ZN5Yosys18format_emit_stringERNSt7__cxx1112basic_stringIcSt11char_traitsIcESaIcEEESt17basic_string_viewIcS3_EPiNS_15DynamicIntCountERKS5_
UNKNOWN:_ZN5Yosys18log_abort_internalEPKci
UNKNOWN:_ZN5Yosys19log_formatted_errorENSt7__cxx1112basic_stringIcSt11char_traitsIcESaIcEEE
UNKNOWN:_ZN5Yosys20format_emit_char_ptrERNSt7__cxx1112basic_stringIcSt11char_traitsIcESaIcEEESt17basic_string_viewIcS3_EPiNS_15DynamicIntCountEPKc
UNKNOWN:_ZN5Yosys20format_emit_void_ptrERNSt7__cxx1112basic_stringIcSt11char_traitsIcESaIcEEESt17basic_string_viewIcS3_EPiNS_15DynamicIntCountEPKv
UNKNOWN:_ZN5Yosys20log_formatted_headerEPNS_5RTLIL6DesignESt17basic_string_viewIcSt11char_traitsIcEENSt7__cxx1112basic_stringIcS5_SaIcEEE
UNKNOWN:_ZN5Yosys20log_formatted_stringESt17basic_string_viewIcSt11char_traitsIcEENSt7__cxx1112basic_stringIcS2_SaIcEEE
UNKNOWN:_ZN5Yosys21format_emit_long_longERNSt7__cxx1112basic_stringIcSt11char_traitsIcESaIcEEESt17basic_string_viewIcS3_EPiNS_15DynamicIntCountEx
UNKNOWN:_ZN5Yosys21format_emit_unescapedERNSt7__cxx1112basic_stringIcSt11char_traitsIcESaIcEEESt17basic_string_viewIcS3_E
UNKNOWN:_ZN5Yosys22unescape_format_stringB5cxx11ESt17basic_string_viewIcSt11char_traitsIcEE
UNKNOWN:_ZN5Yosys23log_formatted_cmd_errorENSt7__cxx1112basic_stringIcSt11char_traitsIcESaIcEEE
UNKNOWN:_ZN5Yosys23log_yosys_abort_messageESt17basic_string_viewIcSt11char_traitsIcEEiS3_S3_
UNKNOWN:_ZN5Yosys30format_emit_unsigned_long_longERNSt7__cxx1112basic_stringIcSt11char_traitsIcESaIcEEESt17basic_string_viewIcS3_EPiNS_15DynamicIntCountEy
UNKNOWN:_ZN5Yosys3Fmt13parse_verilogERKSt6vectorINS_13VerilogFmtArgESaIS2_EEbiNS_5RTLIL8IdStringES8_
UNKNOWN:_ZN5Yosys3Fmt14append_literalERKNSt7__cxx1112basic_stringIcSt11char_traitsIcESaIcEEE
UNKNOWN:_ZN5Yosys4Pass10extra_argsESt6vectorINSt7__cxx1112basic_stringIcSt11char_traitsIcESaIcEEESaIS7_EEmPNS_5RTLIL6DesignEb
UNKNOWN:_ZN5Yosys4Pass11clear_flagsEv
UNKNOWN:_ZN5Yosys4Pass11on_registerEv
UNKNOWN:_ZN5Yosys4Pass11on_shutdownEv
UNKNOWN:_ZN5Yosys4Pass12run_registerEv
UNKNOWN:_ZN5Yosys4Pass14formatted_helpEv
UNKNOWN:_ZN5Yosys4Pass4callEPNS_5RTLIL6DesignENSt7__cxx1112basic_stringIcSt11char_traitsIcESaIcEEE
UNKNOWN:_ZN5Yosys4Pass9cmd_errorERKSt6vectorINSt7__cxx1112basic_stringIcSt11char_traitsIcESaIcEEESaIS7_EEmS7_
UNKNOWN:_ZN5Yosys4PassC2ENSt7__cxx1112basic_stringIcSt11char_traitsIcESaIcEEES6_15source_location
UNKNOWN:_ZN5Yosys4PassD2Ev
UNKNOWN:_ZN5Yosys5RTLIL10AttrObject18set_bool_attributeERKNS0_8IdStringEb
UNKNOWN:_ZN5Yosys5RTLIL10AttrObject20set_string_attributeERKNS0_8IdStringENSt7__cxx1112basic_stringIcSt11char_traitsIcESaIcEEE
UNKNOWN:_ZN5Yosys5RTLIL10IDInternal10$logic_andE
UNKNOWN:_ZN5Yosys5RTLIL10IDInternal10$logic_notE
UNKNOWN:_ZN5Yosys5RTLIL10IDInternal10$reduce_orE
UNKNOWN:_ZN5Yosys5RTLIL10IDInternal10ARGS_WIDTHE
UNKNOWN:_ZN5Yosys5RTLIL10IDInternal10ARST_VALUEE
UNKNOWN:_ZN5Yosys5RTLIL10IDInternal10CLK_ENABLEE
UNKNOWN:_ZN5Yosys5RTLIL10IDInternal10INIT_VALUEE
UNKNOWN:_ZN5Yosys5RTLIL10IDInternal10SRST_VALUEE
UNKNOWN:_ZN5Yosys5RTLIL10IDInternal10TRG_ENABLEE
UNKNOWN:_ZN5Yosys5RTLIL10IDInternal11$meminit_v2E
UNKNOWN:_ZN5Yosys5RTLIL10IDInternal11$reduce_andE
UNKNOWN:_ZN5Yosys5RTLIL10IDInternal11$reduce_xorE
UNKNOWN:_ZN5Yosys5RTLIL10IDInternal12$reduce_boolE
UNKNOWN:_ZN5Yosys5RTLIL10IDInternal12$reduce_xnorE
UNKNOWN:_ZN5Yosys5RTLIL10IDInternal12CE_OVER_SRSTE
UNKNOWN:_ZN5Yosys5RTLIL10IDInternal12CLK_POLARITYE
UNKNOWN:_ZN5Yosys5RTLIL10IDInternal12TRG_POLARITYE
UNKNOWN:_ZN5Yosys5RTLIL10IDInternal13PRIORITY_MASKE
UNKNOWN:_ZN5Yosys5RTLIL10IDInternal13parallel_caseE
UNKNOWN:_ZN5Yosys5RTLIL10IDInternal16COLLISION_X_MASKE
UNKNOWN:_ZN5Yosys5RTLIL10IDInternal17TRANSPARENCY_MASKE
UNKNOWN:_ZN5Yosys5RTLIL10IDInternal1AE
UNKNOWN:_ZN5Yosys5RTLIL10IDInternal1BE
UNKNOWN:_ZN5Yosys5RTLIL10IDInternal1YE
UNKNOWN:_ZN5Yosys5RTLIL10IDInternal2ENE
UNKNOWN:_ZN5Yosys5RTLIL10IDInternal3$eqE
UNKNOWN:_ZN5Yosys5RTLIL10IDInternal3$geE
UNKNOWN:_ZN5Yosys5RTLIL10IDInternal3$gtE
UNKNOWN:_ZN5Yosys5RTLIL10IDInternal3$leE
UNKNOWN:_ZN5Yosys5RTLIL10IDInternal3$ltE
UNKNOWN:_ZN5Yosys5RTLIL10IDInternal3$neE
UNKNOWN:_ZN5Yosys5RTLIL10IDInternal3$orE
UNKNOWN:_ZN5Yosys5RTLIL10IDInternal3CLKE
UNKNOWN:_ZN5Yosys5RTLIL10IDInternal3TRGE
UNKNOWN:_ZN5Yosys5RTLIL10IDInternal3srcE
UNKNOWN:_ZN5Yosys5RTLIL10IDInternal3topE
UNKNOWN:_ZN5Yosys5RTLIL10IDInternal4$addE
UNKNOWN:_ZN5Yosys5RTLIL10IDInternal4$andE
UNKNOWN:_ZN5Yosys5RTLIL10IDInternal4$bufE
UNKNOWN:_ZN5Yosys5RTLIL10IDInternal4$divE
UNKNOWN:_ZN5Yosys5RTLIL10IDInternal4$eqxE
UNKNOWN:_ZN5Yosys5RTLIL10IDInternal4$modE
UNKNOWN:_ZN5Yosys5RTLIL10IDInternal4$mulE
UNKNOWN:_ZN5Yosys5RTLIL10IDInternal4$negE
UNKNOWN:_ZN5Yosys5RTLIL10IDInternal4$nexE
UNKNOWN:_ZN5Yosys5RTLIL10IDInternal4$notE
UNKNOWN:_ZN5Yosys5RTLIL10IDInternal4$posE
UNKNOWN:_ZN5Yosys5RTLIL10IDInternal4$powE
UNKNOWN:_ZN5Yosys5RTLIL10IDInternal4$shlE
UNKNOWN:_ZN5Yosys5RTLIL10IDInternal4$shrE
UNKNOWN:_ZN5Yosys5RTLIL10IDInternal4$subE
UNKNOWN:_ZN5Yosys5RTLIL10IDInternal4$xorE
UNKNOWN:_ZN5Yosys5RTLIL10IDInternal4ADDRE
UNKNOWN:_ZN5Yosys5RTLIL10IDInternal4ARGSE
UNKNOWN:_ZN5Yosys5RTLIL10IDInternal4ARSTE
UNKNOWN:_ZN5Yosys5RTLIL10IDInternal4DATAE
UNKNOWN:_ZN5Yosys5RTLIL10IDInternal4SRSTE
UNKNOWN:_ZN5Yosys5RTLIL10IDInternal4initE
UNKNOWN:_ZN5Yosys5RTLIL10IDInternal5$sshlE
UNKNOWN:_ZN5Yosys5RTLIL10IDInternal5$sshrE
UNKNOWN:_ZN5Yosys5RTLIL10IDInternal5$xnorE
UNKNOWN:_ZN5Yosys5RTLIL10IDInternal5ABITSE
UNKNOWN:_ZN5Yosys5RTLIL10IDInternal5MEMIDE
UNKNOWN:_ZN5Yosys5RTLIL10IDInternal5WIDTHE
UNKNOWN:_ZN5Yosys5RTLIL10IDInternal5WORDSE
UNKNOWN:_ZN5Yosys5RTLIL10IDInternal6$checkE
UNKNOWN:_ZN5Yosys5RTLIL10IDInternal6$printE
UNKNOWN:_ZN5Yosys5RTLIL10IDInternal6$shiftE
UNKNOWN:_ZN5Yosys5RTLIL10IDInternal6FLAVORE
UNKNOWN:_ZN5Yosys5RTLIL10IDInternal6FORMATE
UNKNOWN:_ZN5Yosys5RTLIL10IDInternal6PORTIDE
UNKNOWN:_ZN5Yosys5RTLIL10IDInternal7A_WIDTHE
UNKNOWN:_ZN5Yosys5RTLIL10IDInternal7B_WIDTHE
UNKNOWN:_ZN5Yosys5RTLIL10IDInternal7Y_WIDTHE
UNKNOWN:_ZN5Yosys5RTLIL10IDInternal7hdlnameE
UNKNOWN:_ZN5Yosys5RTLIL10IDInternal8A_SIGNEDE
UNKNOWN:_ZN5Yosys5RTLIL10IDInternal8B_SIGNEDE
UNKNOWN:_ZN5Yosys5RTLIL10IDInternal8PRIORITYE
UNKNOWN:_ZN5Yosys5RTLIL10IDInternal8blackboxE
UNKNOWN:_ZN5Yosys5RTLIL10IDInternal9$logic_orE
UNKNOWN:_ZN5Yosys5RTLIL10IDInternal9$memrd_v2E
UNKNOWN:_ZN5Yosys5RTLIL10IDInternal9$memwr_v2E
UNKNOWN:_ZN5Yosys5RTLIL10IDInternal9TRG_WIDTHE
UNKNOWN:_ZN5Yosys5RTLIL10IDInternal9full_caseE
UNKNOWN:_ZN5Yosys5RTLIL10const_sshlERKNS0_5ConstES3_bbi
UNKNOWN:_ZN5Yosys5RTLIL10const_sshrERKNS0_5ConstES3_bbi
UNKNOWN:_ZN5Yosys5RTLIL10const_xnorERKNS0_5ConstES3_bbi
UNKNOWN:_ZN5Yosys5RTLIL11const_shiftERKNS0_5ConstES3_bbi
UNKNOWN:_ZN5Yosys5RTLIL12const_shiftxERKNS0_5ConstES3_bbi
UNKNOWN:_ZN5Yosys5RTLIL14const_divfloorERKNS0_5ConstES3_bbi
UNKNOWN:_ZN5Yosys5RTLIL14const_logic_orERKNS0_5ConstES3_bbi
UNKNOWN:_ZN5Yosys5RTLIL15const_logic_andERKNS0_5ConstES3_bbi
UNKNOWN:_ZN5Yosys5RTLIL15const_logic_notERKNS0_5ConstES3_bbi
UNKNOWN:_ZN5Yosys5RTLIL15const_reduce_orERKNS0_5ConstES3_bbi
UNKNOWN:_ZN5Yosys5RTLIL16const_reduce_andERKNS0_5ConstES3_bbi
UNKNOWN:_ZN5Yosys5RTLIL16const_reduce_xorERKNS0_5ConstES3_bbi
UNKNOWN:_ZN5Yosys5RTLIL17const_reduce_boolERKNS0_5ConstES3_bbi
UNKNOWN:_ZN5Yosys5RTLIL17const_reduce_xnorERKNS0_5ConstES3_bbi
UNKNOWN:_ZN5Yosys5RTLIL4Cell16fixup_parametersEbb
UNKNOWN:_ZN5Yosys5RTLIL4Cell7setPortERKNS0_8IdStringENS0_7SigSpecE
UNKNOWN:_ZN5Yosys5RTLIL4Cell8setParamERKNS0_8IdStringENS0_5ConstE
UNKNOWN:_ZN5Yosys5RTLIL5Const13bits_internalEv
UNKNOWN:_ZN5Yosys5RTLIL5Const6appendERKS1_
UNKNOWN:_ZN5Yosys5RTLIL5ConstC1ENS0_5StateEi
UNKNOWN:_ZN5Yosys5RTLIL5ConstC1ENSt7__cxx1112basic_stringIcSt11char_traitsIcESaIcEEE
UNKNOWN:_ZN5Yosys5RTLIL5ConstC1EOS1_
UNKNOWN:_ZN5Yosys5RTLIL5ConstC1ERKS1_
UNKNOWN:_ZN5Yosys5RTLIL5ConstC1Ex
UNKNOWN:_ZN5Yosys5RTLIL5ConstC1Exi
UNKNOWN:_ZN5Yosys5RTLIL5ConstD1Ev
UNKNOWN:_ZN5Yosys5RTLIL5ConstaSERKS1_
UNKNOWN:_ZN5Yosys5RTLIL6Design6moduleERKNS0_8IdStringE
UNKNOWN:_ZN5Yosys5RTLIL6Design7modulesEv
UNKNOWN:_ZN5Yosys5RTLIL6Design9addModuleENS0_8IdStringE
UNKNOWN:_ZN5Yosys5RTLIL6MemoryC1Ev
UNKNOWN:_ZN5Yosys5RTLIL6Module10addLogicOrENS0_8IdStringERKNS0_7SigSpecES5_S5_bRKNSt7__cxx1112basic_stringIcSt11char_traitsIcESaIcEEE
UNKNOWN:_ZN5Yosys5RTLIL6Module10addProcessENS0_8IdStringE
UNKNOWN:_ZN5Yosys5RTLIL6Module11addLogicAndENS0_8IdStringERKNS0_7SigSpecES5_S5_bRKNSt7__cxx1112basic_stringIcSt11char_traitsIcESaIcEEE
UNKNOWN:_ZN5Yosys5RTLIL6Module11addLogicNotENS0_8IdStringERKNS0_7SigSpecES5_bRKNSt7__cxx1112basic_stringIcSt11char_traitsIcESaIcEEE
UNKNOWN:_ZN5Yosys5RTLIL6Module11addReduceOrENS0_8IdStringERKNS0_7SigSpecES5_bRKNSt7__cxx1112basic_stringIcSt11char_traitsIcESaIcEEE
UNKNOWN:_ZN5Yosys5RTLIL6Module11fixup_portsEv
UNKNOWN:_ZN5Yosys5RTLIL6Module12addReduceAndENS0_8IdStringERKNS0_7SigSpecES5_bRKNSt7__cxx1112basic_stringIcSt11char_traitsIcESaIcEEE
UNKNOWN:_ZN5Yosys5RTLIL6Module13addReduceBoolENS0_8IdStringERKNS0_7SigSpecES5_bRKNSt7__cxx1112basic_stringIcSt11char_traitsIcESaIcEEE
UNKNOWN:_ZN5Yosys5RTLIL6Module5addEqENS0_8IdStringERKNS0_7SigSpecES5_S5_bRKNSt7__cxx1112basic_stringIcSt11char_traitsIcESaIcEEE
UNKNOWN:_ZN5Yosys5RTLIL6Module5addGeENS0_8IdStringERKNS0_7SigSpecES5_S5_bRKNSt7__cxx1112basic_stringIcSt11char_traitsIcESaIcEEE
UNKNOWN:_ZN5Yosys5RTLIL6Module5addLeENS0_8IdStringERKNS0_7SigSpecES5_S5_bRKNSt7__cxx1112basic_stringIcSt11char_traitsIcESaIcEEE
UNKNOWN:_ZN5Yosys5RTLIL6Module5addLtENS0_8IdStringERKNS0_7SigSpecES5_S5_bRKNSt7__cxx1112basic_stringIcSt11char_traitsIcESaIcEEE
UNKNOWN:_ZN5Yosys5RTLIL6Module6addBufENS0_8IdStringERKNS0_7SigSpecES5_bRKNSt7__cxx1112basic_stringIcSt11char_traitsIcESaIcEEE
UNKNOWN:_ZN5Yosys5RTLIL6Module6addDffENS0_8IdStringERKNS0_7SigSpecES5_S5_bRKNSt7__cxx1112basic_stringIcSt11char_traitsIcESaIcEEE
UNKNOWN:_ZN5Yosys5RTLIL6Module6addMuxENS0_8IdStringERKNS0_7SigSpecES5_S5_S5_RKNSt7__cxx1112basic_stringIcSt11char_traitsIcESaIcEEE
UNKNOWN:_ZN5Yosys5RTLIL6Module6addNegENS0_8IdStringERKNS0_7SigSpecES5_bRKNSt7__cxx1112basic_stringIcSt11char_traitsIcESaIcEEE
UNKNOWN:_ZN5Yosys5RTLIL6Module6addNotENS0_8IdStringERKNS0_7SigSpecES5_bRKNSt7__cxx1112basic_stringIcSt11char_traitsIcESaIcEEE
UNKNOWN:_ZN5Yosys5RTLIL6Module6renameENS0_8IdStringES2_
UNKNOWN:_ZN5Yosys5RTLIL6Module7addBmuxENS0_8IdStringERKNS0_7SigSpecES5_S5_RKNSt7__cxx1112basic_stringIcSt11char_traitsIcESaIcEEE
UNKNOWN:_ZN5Yosys5RTLIL6Module7addCellENS0_8IdStringES2_
UNKNOWN:_ZN5Yosys5RTLIL6Module7addDffeENS0_8IdStringERKNS0_7SigSpecES5_S5_S5_bbRKNSt7__cxx1112basic_stringIcSt11char_traitsIcESaIcEEE
UNKNOWN:_ZN5Yosys5RTLIL6Module7addWireENS0_8IdStringEi
UNKNOWN:_ZN5Yosys5RTLIL6Module7connectERKNS0_7SigSpecES4_
UNKNOWN:_ZN5Yosys5RTLIL6Module8addAldffENS0_8IdStringERKNS0_7SigSpecES5_S5_S5_S5_bbRKNSt7__cxx1112basic_stringIcSt11char_traitsIcESaIcEEE
UNKNOWN:_ZN5Yosys5RTLIL6Module8addBwmuxENS0_8IdStringERKNS0_7SigSpecES5_S5_S5_RKNSt7__cxx1112basic_stringIcSt11char_traitsIcESaIcEEE
UNKNOWN:_ZN5Yosys5RTLIL6Module8addDemuxENS0_8IdStringERKNS0_7SigSpecES5_S5_RKNSt7__cxx1112basic_stringIcSt11char_traitsIcESaIcEEE
UNKNOWN:_ZN5Yosys5RTLIL6Module8uniquifyENS0_8IdStringE
UNKNOWN:_ZN5Yosys5RTLIL6Module9addDlatchENS0_8IdStringERKNS0_7SigSpecES5_S5_bRKNSt7__cxx1112basic_stringIcSt11char_traitsIcESaIcEEE
UNKNOWN:_ZN5Yosys5RTLIL6Module9addShiftxENS0_8IdStringERKNS0_7SigSpecES5_S5_bRKNSt7__cxx1112basic_stringIcSt11char_traitsIcESaIcEEE
UNKNOWN:_ZN5Yosys5RTLIL7SigSpec6Chunks14const_iterator15next_chunk_bitsEv
UNKNOWN:_ZN5Yosys5RTLIL7SigSpec6appendERKNS0_6SigBitE
UNKNOWN:_ZN5Yosys5RTLIL7SigSpec6appendERKS1_
UNKNOWN:_ZN5Yosys5RTLIL7SigSpec6removeEii
UNKNOWN:_ZN5Yosys5RTLIL7SigSpec6unpackEv
UNKNOWN:_ZN5Yosys5RTLIL7SigSpec9extend_u0Eib
UNKNOWN:_ZN5Yosys5RTLIL7SigSpecC1ENS0_5StateEi
UNKNOWN:_ZN5Yosys5RTLIL7SigSpecC1EONS0_5ConstE
UNKNOWN:_ZN5Yosys5RTLIL7SigSpecC1EPNS0_4WireE
UNKNOWN:_ZN5Yosys5RTLIL7SigSpecC1ERKNS0_5ConstE
UNKNOWN:_ZN5Yosys5RTLIL7SigSpecC1ERKNS0_6SigBitEi
UNKNOWN:_ZN5Yosys5RTLIL7SigSpecC1ESt16initializer_listIS1_E
UNKNOWN:_ZN5Yosys5RTLIL7SigSpecC1Eii
UNKNOWN:_ZN5Yosys5RTLIL8IdString11prepopulateEv
UNKNOWN:_ZN5Yosys5RTLIL8IdString16global_id_index_E
UNKNOWN:_ZN5Yosys5RTLIL8IdString17destruct_guard_okE
UNKNOWN:_ZN5Yosys5RTLIL8IdString18global_id_storage_E
UNKNOWN:_ZN5Yosys5RTLIL8IdString21global_free_idx_list_E
UNKNOWN:_ZN5Yosys5RTLIL8IdString24global_refcount_storage_E
UNKNOWN:_ZN5Yosys5RTLIL8const_eqERKNS0_5ConstES3_bbi
UNKNOWN:_ZN5Yosys5RTLIL8const_geERKNS0_5ConstES3_bbi
UNKNOWN:_ZN5Yosys5RTLIL8const_gtERKNS0_5ConstES3_bbi
UNKNOWN:_ZN5Yosys5RTLIL8const_leERKNS0_5ConstES3_bbi
UNKNOWN:_ZN5Yosys5RTLIL8const_ltERKNS0_5ConstES3_bbi
UNKNOWN:_ZN5Yosys5RTLIL8const_neERKNS0_5ConstES3_bbi
UNKNOWN:_ZN5Yosys5RTLIL8const_orERKNS0_5ConstES3_bbi
UNKNOWN:_ZN5Yosys5RTLIL9const_addERKNS0_5ConstES3_bbi
UNKNOWN:_ZN5Yosys5RTLIL9const_andERKNS0_5ConstES3_bbi
UNKNOWN:_ZN5Yosys5RTLIL9const_divERKNS0_5ConstES3_bbi
UNKNOWN:_ZN5Yosys5RTLIL9const_eqxERKNS0_5ConstES3_bbi
UNKNOWN:_ZN5Yosys5RTLIL9const_modERKNS0_5ConstES3_bbi
UNKNOWN:_ZN5Yosys5RTLIL9const_mulERKNS0_5ConstES3_bbi
UNKNOWN:_ZN5Yosys5RTLIL9const_negERKNS0_5ConstES3_bbi
UNKNOWN:_ZN5Yosys5RTLIL9const_nexERKNS0_5ConstES3_bbi
UNKNOWN:_ZN5Yosys5RTLIL9const_notERKNS0_5ConstES3_bbi
UNKNOWN:_ZN5Yosys5RTLIL9const_posERKNS0_5ConstES3_bbi
UNKNOWN:_ZN5Yosys5RTLIL9const_powERKNS0_5ConstES3_bbi
UNKNOWN:_ZN5Yosys5RTLIL9const_shlERKNS0_5ConstES3_bbi
UNKNOWN:_ZN5Yosys5RTLIL9const_shrERKNS0_5ConstES3_bbi
UNKNOWN:_ZN5Yosys5RTLIL9const_subERKNS0_5ConstES3_bbi
UNKNOWN:_ZN5Yosys5RTLIL9const_xorERKNS0_5ConstES3_bbi
UNKNOWN:_ZN5Yosys7hashlib11HasherDJB325fudgeE
UNKNOWN:_ZN5Yosys7log_popEv
UNKNOWN:_ZN5Yosys8Frontend12run_registerEv
UNKNOWN:_ZN5Yosys8Frontend19current_script_fileE
UNKNOWN:_ZN5Yosys8Frontend7executeESt6vectorINSt7__cxx1112basic_stringIcSt11char_traitsIcESaIcEEESaIS7_EEPNS_5RTLIL6DesignE
UNKNOWN:_ZN5Yosys8FrontendC2ENSt7__cxx1112basic_stringIcSt11char_traitsIcESaIcEEES6_15source_location
UNKNOWN:_ZN5Yosys8FrontendD2Ev
UNKNOWN:_ZN5Yosys8log_pushEv
UNKNOWN:_ZN5Yosys9log_flushEv
UNKNOWN:_ZNK5Yosys3Fmt10emit_rtlilEPNS_5RTLIL4CellE
UNKNOWN:_ZNK5Yosys5RTLIL4Cell7getPortERKNS0_8IdStringE
UNKNOWN:_ZNK5Yosys5RTLIL4Cell8getParamERKNS0_8IdStringE
UNKNOWN:_ZNK5Yosys5RTLIL5Const14const_iteratordeEv
UNKNOWN:_ZNK5Yosys5RTLIL5Const14is_fully_undefEv
UNKNOWN:_ZNK5Yosys5RTLIL5Const4sizeEv
UNKNOWN:_ZNK5Yosys5RTLIL5Const5emptyEv
UNKNOWN:_ZNK5Yosys5RTLIL5Const6as_intEb
UNKNOWN:_ZNK5Yosys5RTLIL5Const7extractEiiNS0_5StateE
UNKNOWN:_ZNK5Yosys5RTLIL5Const7to_bitsEv
UNKNOWN:_ZNK5Yosys5RTLIL5ConsteqERKS1_
UNKNOWN:_ZNK5Yosys5RTLIL7SigSpec12is_fully_defEv
UNKNOWN:_ZNK5Yosys5RTLIL7SigSpec13is_fully_onesEv
UNKNOWN:_ZNK5Yosys5RTLIL7SigSpec13is_fully_zeroEv
UNKNOWN:_ZNK5Yosys5RTLIL7SigSpec14is_fully_constEv
UNKNOWN:_ZNK5Yosys5RTLIL7SigSpec6as_intEb
UNKNOWN:_ZNK5Yosys5RTLIL7SigSpec6repeatEi
UNKNOWN:_ZNK5Yosys5RTLIL7SigSpec7as_boolEv
UNKNOWN:_ZNK5Yosys5RTLIL7SigSpec7as_wireEv
UNKNOWN:_ZNK5Yosys5RTLIL7SigSpec7extractEii
UNKNOWN:_ZNK5Yosys5RTLIL7SigSpec8as_constEv
UNKNOWN:_ZNK5Yosys5RTLIL7SigSpeceqERKS1_
UNKNOWN:_ZTIN5Yosys4PassE
UNKNOWN:_ZTIN5Yosys8FrontendE
ld-linux-x86-64.so.2:__tls_get_addr
libc.so.6:__cxa_atexit
libc.so.6:__errno_location
libc.so.6:__libc_single_threaded
libc.so.6:__memcpy_chk
libc.so.6:__open_2
libc.so.6:__stack_chk_fail
libc.so.6:__vsnprintf_chk
libc.so.6:close
libc.so.6:fgets
libc.so.6:fileno
libc.so.6:free
libc.so.6:fstat
libc.so.6:getenv
libc.so.6:getpid
libc.so.6:isatty
libc.so.6:isupper
libc.so.6:malloc
libc.so.6:memchr
libc.so.6:memcmp
libc.so.6:memcpy
libc.so.6:memmove
libc.so.6:memset
libc.so.6:nanosleep
libc.so.6:pthread_mutex_lock
libc.so.6:pthread_mutex_unlock
libc.so.6:pthread_once
libc.so.6:pthread_rwlock_rdlock
libc.so.6:pthread_rwlock_unlock
libc.so.6:pthread_rwlock_wrlock
libc.so.6:pthread_self
libc.so.6:pthread_setcancelstate
libc.so.6:read
libc.so.6:sched_yield
libc.so.6:stderr
libc.so.6:stdin
libc.so.6:stdout
libc.so.6:strcmp
libc.so.6:strcpy
libc.so.6:strlen
libc.so.6:strncmp
libc.so.6:strtod
libc.so.6:syscall
libc.so.6:tolower
libc.so.6:toupper
libc.so.6:vsnprintf
libfmt.so.12:_ZN3fmt3v126detail10vformat_toERNS1_6bufferIcEENS0_17basic_string_viewIcEENS0_17basic_format_argsINS0_7contextEEENS0_10locale_refE
libfmt.so.12:_ZN3fmt3v126detail5printEP8_IO_FILENS0_17basic_string_viewIcEE
libfmt.so.12:_ZN3fmt3v126vprintEP8_IO_FILENS0_17basic_string_viewIcEENS0_17basic_format_argsINS0_7contextEEE
libfmt.so.12:_ZN3fmt3v127vformatB5cxx11ENS0_17basic_string_viewIcEENS0_17basic_format_argsINS0_7contextEEE
libgcc_s.so.1:_Unwind_Resume
libm.so.6:acos
libm.so.6:acosh
libm.so.6:asin
libm.so.6:asinh
libm.so.6:atan
libm.so.6:atan2
libm.so.6:atanh
libm.so.6:ceil
libm.so.6:ceilf
libm.so.6:cos
libm.so.6:cosh
libm.so.6:exp
libm.so.6:exp2
libm.so.6:floor
libm.so.6:hypot
libm.so.6:log
libm.so.6:log10
libm.so.6:pow
libm.so.6:powf
libm.so.6:round
libm.so.6:sin
libm.so.6:sinh
libm.so.6:sqrt
libm.so.6:tan
libm.so.6:tanh
libstdc++.so.6:_ZNKRSt7__cxx1115basic_stringbufIcSt11char_traitsIcESaIcEE3strEv
libstdc++.so.6:_ZNKSt10filesystem7__cxx1118directory_iteratordeEv
libstdc++.so.6:_ZNKSt10filesystem7__cxx114path11parent_pathEv
libstdc++.so.6:_ZNKSt10filesystem7__cxx114path13has_root_pathEv
libstdc++.so.6:_ZNKSt10filesystem7__cxx114path13relative_pathEv
libstdc++.so.6:_ZNKSt10filesystem7__cxx114path16lexically_normalEv
libstdc++.so.6:_ZNKSt10filesystem7__cxx114path17has_relative_pathEv
libstdc++.so.6:_ZNKSt10filesystem7__cxx114path18has_root_directoryEv
libstdc++.so.6:_ZNKSt10filesystem7__cxx114path19lexically_proximateERKS1_
libstdc++.so.6:_ZNKSt10filesystem7__cxx114path5_List13_Impl_deleterclEPNS2_5_ImplE
libstdc++.so.6:_ZNKSt10filesystem7__cxx114path5_List3endEv
libstdc++.so.6:_ZNKSt10filesystem7__cxx114path7compareERKS1_
libstdc++.so.6:_ZNKSt10filesystem7__cxx114path9root_pathEv
libstdc++.so.6:_ZNKSt13runtime_error4whatEv
libstdc++.so.6:_ZNKSt5ctypeIcE13_M_widen_initEv
libstdc++.so.6:_ZNKSt8__detail20_Prime_rehash_policy14_M_need_rehashEmmm
libstdc++.so.6:_ZNSo3putEc
libstdc++.so.6:_ZNSo5flushEv
libstdc++.so.6:_ZNSo5writeEPKcl
libstdc++.so.6:_ZNSo9_M_insertImEERSoT_
libstdc++.so.6:_ZNSolsEi
libstdc++.so.6:_ZNSt10filesystem12current_pathB5cxx11ERSt10error_code
libstdc++.so.6:_ZNSt10filesystem12current_pathB5cxx11Ev
libstdc++.so.6:_ZNSt10filesystem12current_pathERKNS_7__cxx114pathERSt10error_code
libstdc++.so.6:_ZNSt10filesystem16weakly_canonicalERKNS_7__cxx114pathERSt10error_code
libstdc++.so.6:_ZNSt10filesystem6statusERKNS_7__cxx114pathERSt10error_code
libstdc++.so.6:_ZNSt10filesystem7__cxx1110hash_valueERKNS0_4pathE
libstdc++.so.6:_ZNSt10filesystem7__cxx1118directory_iterator9incrementERSt10error_code
libstdc++.so.6:_ZNSt10filesystem7__cxx1118directory_iteratorC2ERKNS0_4pathENS_17directory_optionsEPSt10error_code
libstdc++.so.6:_ZNSt10filesystem7__cxx114path14_M_split_cmptsEv
libstdc++.so.6:_ZNSt10filesystem7__cxx114path16replace_filenameERKS1_
libstdc++.so.6:_ZNSt10filesystem7__cxx114path17replace_extensionERKS1_
libstdc++.so.6:_ZNSt10filesystem7__cxx114path5_ListC1ERKS2_
libstdc++.so.6:_ZNSt10filesystem7__cxx114path5_ListC1Ev
libstdc++.so.6:_ZNSt10filesystem7__cxx114path9_M_appendESt17basic_string_viewIcSt11char_traitsIcEE
libstdc++.so.6:_ZNSt10filesystem7__cxx114pathaSERKS1_
libstdc++.so.6:_ZNSt10filesystem7__cxx114pathdVERKS1_
libstdc++.so.6:_ZNSt10filesystem9proximateERKNS_7__cxx114pathES3_RSt10error_code
libstdc++.so.6:_ZNSt11logic_errorC1EPKc
libstdc++.so.6:_ZNSt11logic_errorD1Ev
libstdc++.so.6:_ZNSt12length_errorC1EPKc
libstdc++.so.6:_ZNSt12length_errorD1Ev
libstdc++.so.6:_ZNSt12out_of_rangeC1EPKc
libstdc++.so.6:_ZNSt12out_of_rangeD1Ev
libstdc++.so.6:_ZNSt13random_device7_M_finiEv
libstdc++.so.6:_ZNSt13random_device7_M_initERKNSt7__cxx1112basic_stringIcSt11char_traitsIcESaIcEEE
libstdc++.so.6:_ZNSt13random_device9_M_getvalEv
libstdc++.so.6:_ZNSt13runtime_errorC1EPKc
libstdc++.so.6:_ZNSt13runtime_errorC1ERKNSt7__cxx1112basic_stringIcSt11char_traitsIcESaIcEEE
libstdc++.so.6:_ZNSt13runtime_errorC2EPKc
libstdc++.so.6:_ZNSt13runtime_errorD1Ev
libstdc++.so.6:_ZNSt13runtime_errorD2Ev
libstdc++.so.6:_ZNSt14basic_ofstreamIcSt11char_traitsIcEEC1EPKcSt13_Ios_Openmode
libstdc++.so.6:_ZNSt14basic_ofstreamIcSt11char_traitsIcEED1Ev
libstdc++.so.6:_ZNSt15__exception_ptr13exception_ptr10_M_releaseEv
libstdc++.so.6:_ZNSt15__exception_ptr13exception_ptr9_M_addrefEv
libstdc++.so.6:_ZNSt16invalid_argumentC1EPKc
libstdc++.so.6:_ZNSt16invalid_argumentC1ERKNSt7__cxx1112basic_stringIcSt11char_traitsIcESaIcEEE
libstdc++.so.6:_ZNSt16invalid_argumentD1Ev
libstdc++.so.6:_ZNSt18condition_variable10notify_allEv
libstdc++.so.6:_ZNSt18condition_variable10notify_oneEv
libstdc++.so.6:_ZNSt18condition_variable4waitERSt11unique_lockISt5mutexE
libstdc++.so.6:_ZNSt18condition_variableC1Ev
libstdc++.so.6:_ZNSt18condition_variableD1Ev
libstdc++.so.6:_ZNSt3_V215system_categoryEv
libstdc++.so.6:_ZNSt3_V216generic_categoryEv
libstdc++.so.6:_ZNSt6chrono3_V212steady_clock3nowEv
libstdc++.so.6:_ZNSt6localeD1Ev
libstdc++.so.6:_ZNSt6thread15_M_start_threadESt10unique_ptrINS_6_StateESt14default_deleteIS1_EEPFvvE
libstdc++.so.6:_ZNSt6thread20hardware_concurrencyEv
libstdc++.so.6:_ZNSt6thread4joinEv
libstdc++.so.6:_ZNSt6thread6_StateD2Ev
libstdc++.so.6:_ZNSt7__cxx1112basic_stringIcSt11char_traitsIcESaIcEE15_M_replace_coldEPcmPKcmm
libstdc++.so.6:_ZNSt7__cxx1119basic_ostringstreamIcSt11char_traitsIcESaIcEEC1Ev
libstdc++.so.6:_ZNSt7__cxx1119basic_ostringstreamIcSt11char_traitsIcESaIcEED1Ev
libstdc++.so.6:_ZNSt8bad_castD2Ev
libstdc++.so.6:_ZNSt8ios_baseD2Ev
libstdc++.so.6:_ZNSt9bad_allocD1Ev
libstdc++.so.6:_ZNSt9basic_iosIcSt11char_traitsIcEE5clearESt12_Ios_Iostate
libstdc++.so.6:_ZNSt9exceptionD2Ev
libstdc++.so.6:_ZSt11_Hash_bytesPKvmm
libstdc++.so.6:_ZSt11__once_call
libstdc++.so.6:_ZSt15__once_callable
libstdc++.so.6:_ZSt16__ostream_insertIcSt11char_traitsIcEERSt13basic_ostreamIT_T0_ES6_PKS3_l
libstdc++.so.6:_ZSt16__throw_bad_castv
libstdc++.so.6:_ZSt17__throw_bad_allocv
libstdc++.so.6:_ZSt17current_exceptionv
libstdc++.so.6:_ZSt17rethrow_exceptionNSt15__exception_ptr13exception_ptrE
libstdc++.so.6:_ZSt18_Rb_tree_decrementPSt18_Rb_tree_node_base
libstdc++.so.6:_ZSt18_Rb_tree_incrementPSt18_Rb_tree_node_base
libstdc++.so.6:_ZSt18uncaught_exceptionv
libstdc++.so.6:_ZSt19__throw_logic_errorPKc
libstdc++.so.6:_ZSt20__throw_length_errorPKc
libstdc++.so.6:_ZSt20__throw_out_of_rangePKc
libstdc++.so.6:_ZSt20__throw_system_errori
libstdc++.so.6:_ZSt21ios_base_library_initv
libstdc++.so.6:_ZSt24__throw_out_of_range_fmtPKcz
libstdc++.so.6:_ZSt25__throw_bad_function_callv
libstdc++.so.6:_ZSt28_Rb_tree_rebalance_for_erasePSt18_Rb_tree_node_baseRS_
libstdc++.so.6:_ZSt28__throw_bad_array_new_lengthv
libstdc++.so.6:_ZSt29_Rb_tree_insert_and_rebalancebPSt18_Rb_tree_node_baseS0_RS_
libstdc++.so.6:_ZSt4cout
libstdc++.so.6:_ZSt4endlIcSt11char_traitsIcEERSt13basic_ostreamIT_T0_ES6_
libstdc++.so.6:_ZSt9terminatev
libstdc++.so.6:_ZTIN10__cxxabiv115__forced_unwindE
libstdc++.so.6:_ZTINSt6thread6_StateE
libstdc++.so.6:_ZTISt11logic_error
libstdc++.so.6:_ZTISt12length_error
libstdc++.so.6:_ZTISt12out_of_range
libstdc++.so.6:_ZTISt13runtime_error
libstdc++.so.6:_ZTISt16invalid_argument
libstdc++.so.6:_ZTISt8bad_cast
libstdc++.so.6:_ZTISt9bad_alloc
libstdc++.so.6:_ZTISt9exception
libstdc++.so.6:_ZTIv
libstdc++.so.6:_ZTTNSt7__cxx1119basic_ostringstreamIcSt11char_traitsIcESaIcEEE
libstdc++.so.6:_ZTVN10__cxxabiv117__class_type_infoE
libstdc++.so.6:_ZTVN10__cxxabiv119__pointer_type_infoE
libstdc++.so.6:_ZTVN10__cxxabiv120__si_class_type_infoE
libstdc++.so.6:_ZTVN10__cxxabiv121__vmi_class_type_infoE
libstdc++.so.6:_ZTVNSt7__cxx1115basic_stringbufIcSt11char_traitsIcESaIcEEE
libstdc++.so.6:_ZTVSt15basic_streambufIcSt11char_traitsIcEE
libstdc++.so.6:_ZTVSt9bad_alloc
libstdc++.so.6:_ZdaPv
libstdc++.so.6:_ZdaPvm
libstdc++.so.6:_ZdlPv
libstdc++.so.6:_ZdlPvm
libstdc++.so.6:_Znam
libstdc++.so.6:_Znwm
libstdc++.so.6:_ZnwmRKSt9nothrow_t
libstdc++.so.6:__cxa_allocate_exception
libstdc++.so.6:__cxa_begin_catch
libstdc++.so.6:__cxa_end_catch
libstdc++.so.6:__cxa_free_exception
libstdc++.so.6:__cxa_guard_abort
libstdc++.so.6:__cxa_guard_acquire
libstdc++.so.6:__cxa_guard_release
libstdc++.so.6:__cxa_pure_virtual
libstdc++.so.6:__cxa_rethrow
libstdc++.so.6:__cxa_thread_atexit
libstdc++.so.6:__cxa_throw
libstdc++.so.6:__gxx_personality_v0
libstdc++.so.6:__once_proxy
