libcnx-esci-es0282.so.0:
libcnx-esci-es0282.so.0:_Z21libcnx_esci_gt_s650_4m
libcnx-esci-es0282.so.0:_Z23libcnx_esci_gt_s650_110Pv
libcnx-esci-es0282.so.0:_ZN22libcnx_esci_gt_s650_1323libcnx_esci_gt_s650_116EjR23libcnx_esci_gt_s650_260S1_R23libcnx_esci_gt_s650_261
libcnx-esci-es0282.so.0:_ZN22libcnx_esci_gt_s650_1323libcnx_esci_gt_s650_121Ei
libcnx-esci-es0282.so.0:_ZN22libcnx_esci_gt_s650_1323libcnx_esci_gt_s650_149Ev
libcnx-esci-es0282.so.0:_ZN22libcnx_esci_gt_s650_1323libcnx_esci_gt_s650_196EP23libcnx_esci_gt_s650_318S1_
libcnx-esci-es0282.so.0:_ZN22libcnx_esci_gt_s650_13C1EP23libcnx_esci_gt_s650_319mm
libcnx-esci-es0282.so.0:_ZN22libcnx_esci_gt_s650_13C2EP23libcnx_esci_gt_s650_319mm
libcnx-esci-es0282.so.0:_ZN22libcnx_esci_gt_s650_13D0Ev
libcnx-esci-es0282.so.0:_ZN22libcnx_esci_gt_s650_13D1Ev
libcnx-esci-es0282.so.0:_ZN22libcnx_esci_gt_s650_13D2Ev
libcnx-esci-es0282.so.0:_ZN22libcnx_esci_gt_s650_1421libcnx_esci_gt_s650_7EP23libcnx_esci_gt_s650_318S1_
libcnx-esci-es0282.so.0:_ZN22libcnx_esci_gt_s650_1423libcnx_esci_gt_s650_109EPhm
libcnx-esci-es0282.so.0:_ZN22libcnx_esci_gt_s650_1423libcnx_esci_gt_s650_121Ei
libcnx-esci-es0282.so.0:_ZN22libcnx_esci_gt_s650_1423libcnx_esci_gt_s650_149Ev
libcnx-esci-es0282.so.0:_ZN22libcnx_esci_gt_s650_14C1EP23libcnx_esci_gt_s650_319R23libcnx_esci_gt_s650_260mm
libcnx-esci-es0282.so.0:_ZN22libcnx_esci_gt_s650_14C2EP23libcnx_esci_gt_s650_319R23libcnx_esci_gt_s650_260mm
libcnx-esci-es0282.so.0:_ZN22libcnx_esci_gt_s650_14D0Ev
libcnx-esci-es0282.so.0:_ZN22libcnx_esci_gt_s650_14D1Ev
libcnx-esci-es0282.so.0:_ZN22libcnx_esci_gt_s650_14D2Ev
libcnx-esci-es0282.so.0:_ZN22libcnx_esci_gt_s650_1523libcnx_esci_gt_s650_217Eb
libcnx-esci-es0282.so.0:_ZN22libcnx_esci_gt_s650_1523libcnx_esci_gt_s650_293E
libcnx-esci-es0282.so.0:_ZN22libcnx_esci_gt_s650_15C1EP23libcnx_esci_gt_s650_319
libcnx-esci-es0282.so.0:_ZN22libcnx_esci_gt_s650_15C2EP23libcnx_esci_gt_s650_319
libcnx-esci-es0282.so.0:_ZN22libcnx_esci_gt_s650_1722libcnx_esci_gt_s650_25EPmm
libcnx-esci-es0282.so.0:_ZN22libcnx_esci_gt_s650_1722libcnx_esci_gt_s650_26EPmm
libcnx-esci-es0282.so.0:_ZN22libcnx_esci_gt_s650_1722libcnx_esci_gt_s650_46EP23libcnx_esci_gt_s650_318S1_
libcnx-esci-es0282.so.0:_ZN22libcnx_esci_gt_s650_1723libcnx_esci_gt_s650_109EPhm
libcnx-esci-es0282.so.0:_ZN22libcnx_esci_gt_s650_1723libcnx_esci_gt_s650_121Ei
libcnx-esci-es0282.so.0:_ZN22libcnx_esci_gt_s650_1723libcnx_esci_gt_s650_149Ev
libcnx-esci-es0282.so.0:_ZN22libcnx_esci_gt_s650_17C1EP23libcnx_esci_gt_s650_319R23libcnx_esci_gt_s650_261m
libcnx-esci-es0282.so.0:_ZN22libcnx_esci_gt_s650_17C2EP23libcnx_esci_gt_s650_319R23libcnx_esci_gt_s650_261m
libcnx-esci-es0282.so.0:_ZN22libcnx_esci_gt_s650_17D0Ev
libcnx-esci-es0282.so.0:_ZN22libcnx_esci_gt_s650_17D1Ev
libcnx-esci-es0282.so.0:_ZN22libcnx_esci_gt_s650_17D2Ev
libcnx-esci-es0282.so.0:_ZN22libcnx_esci_gt_s650_1823libcnx_esci_gt_s650_107ERK23libcnx_esci_gt_s650_318
libcnx-esci-es0282.so.0:_ZN22libcnx_esci_gt_s650_1823libcnx_esci_gt_s650_108ERK23libcnx_esci_gt_s650_318S2_
libcnx-esci-es0282.so.0:_ZN22libcnx_esci_gt_s650_1823libcnx_esci_gt_s650_108ERK23libcnx_esci_gt_s650_318S2_Phi
libcnx-esci-es0282.so.0:_ZN22libcnx_esci_gt_s650_1823libcnx_esci_gt_s650_121El
libcnx-esci-es0282.so.0:_ZN22libcnx_esci_gt_s650_1823libcnx_esci_gt_s650_149Ev
libcnx-esci-es0282.so.0:_ZN22libcnx_esci_gt_s650_1823libcnx_esci_gt_s650_157Emmm
libcnx-esci-es0282.so.0:_ZN22libcnx_esci_gt_s650_1823libcnx_esci_gt_s650_158Emmm
libcnx-esci-es0282.so.0:_ZN22libcnx_esci_gt_s650_1823libcnx_esci_gt_s650_159Emmm
libcnx-esci-es0282.so.0:_ZN22libcnx_esci_gt_s650_1823libcnx_esci_gt_s650_160Emm
libcnx-esci-es0282.so.0:_ZN22libcnx_esci_gt_s650_1823libcnx_esci_gt_s650_161EmmPhi
libcnx-esci-es0282.so.0:_ZN22libcnx_esci_gt_s650_1823libcnx_esci_gt_s650_162EmPKhPh
libcnx-esci-es0282.so.0:_ZN22libcnx_esci_gt_s650_18C1EP23libcnx_esci_gt_s650_319
libcnx-esci-es0282.so.0:_ZN22libcnx_esci_gt_s650_18C2EP23libcnx_esci_gt_s650_319
libcnx-esci-es0282.so.0:_ZN22libcnx_esci_gt_s650_18D0Ev
libcnx-esci-es0282.so.0:_ZN22libcnx_esci_gt_s650_18D1Ev
libcnx-esci-es0282.so.0:_ZN22libcnx_esci_gt_s650_18D2Ev
libcnx-esci-es0282.so.0:_ZN22libcnx_esci_gt_s650_1923libcnx_esci_gt_s650_112EjR23libcnx_esci_gt_s650_260S1_
libcnx-esci-es0282.so.0:_ZN22libcnx_esci_gt_s650_1923libcnx_esci_gt_s650_113EjR23libcnx_esci_gt_s650_261
libcnx-esci-es0282.so.0:_ZN22libcnx_esci_gt_s650_1923libcnx_esci_gt_s650_183ER23libcnx_esci_gt_s650_260
libcnx-esci-es0282.so.0:_ZN22libcnx_esci_gt_s650_1923libcnx_esci_gt_s650_184ER23libcnx_esci_gt_s650_261
libcnx-esci-es0282.so.0:_ZN22libcnx_esci_gt_s650_19C1Ev
libcnx-esci-es0282.so.0:_ZN22libcnx_esci_gt_s650_19C2Ev
libcnx-esci-es0282.so.0:_ZN22libcnx_esci_gt_s650_19D0Ev
libcnx-esci-es0282.so.0:_ZN22libcnx_esci_gt_s650_19D1Ev
libcnx-esci-es0282.so.0:_ZN22libcnx_esci_gt_s650_19D2Ev
libcnx-esci-es0282.so.0:_ZN22libcnx_esci_gt_s650_2023libcnx_esci_gt_s650_172Ej23libcnx_esci_gt_s650_131
libcnx-esci-es0282.so.0:_ZN22libcnx_esci_gt_s650_20C1Ev
libcnx-esci-es0282.so.0:_ZN22libcnx_esci_gt_s650_20C2Ev
libcnx-esci-es0282.so.0:_ZN22libcnx_esci_gt_s650_20D0Ev
libcnx-esci-es0282.so.0:_ZN22libcnx_esci_gt_s650_20D1Ev
libcnx-esci-es0282.so.0:_ZN22libcnx_esci_gt_s650_20D2Ev
libcnx-esci-es0282.so.0:_ZN22libcnx_esci_gt_s650_2122libcnx_esci_gt_s650_45Ev
libcnx-esci-es0282.so.0:_ZN22libcnx_esci_gt_s650_2123libcnx_esci_gt_s650_114EjPsttPlS1_
libcnx-esci-es0282.so.0:_ZN22libcnx_esci_gt_s650_2123libcnx_esci_gt_s650_122EjPsttS0_S0_
libcnx-esci-es0282.so.0:_ZN22libcnx_esci_gt_s650_2123libcnx_esci_gt_s650_175Ev
libcnx-esci-es0282.so.0:_ZN22libcnx_esci_gt_s650_2123libcnx_esci_gt_s650_185EPvl
libcnx-esci-es0282.so.0:_ZN22libcnx_esci_gt_s650_2123libcnx_esci_gt_s650_189EjPsPtS1_
libcnx-esci-es0282.so.0:_ZN22libcnx_esci_gt_s650_2123libcnx_esci_gt_s650_202El
libcnx-esci-es0282.so.0:_ZN22libcnx_esci_gt_s650_21C1Ev
libcnx-esci-es0282.so.0:_ZN22libcnx_esci_gt_s650_21C2Ev
libcnx-esci-es0282.so.0:_ZN22libcnx_esci_gt_s650_21D0Ev
libcnx-esci-es0282.so.0:_ZN22libcnx_esci_gt_s650_21D1Ev
libcnx-esci-es0282.so.0:_ZN22libcnx_esci_gt_s650_21D2Ev
libcnx-esci-es0282.so.0:_ZN22libcnx_esci_gt_s650_2322libcnx_esci_gt_s650_11EPhj
libcnx-esci-es0282.so.0:_ZN22libcnx_esci_gt_s650_2322libcnx_esci_gt_s650_12EPhj
libcnx-esci-es0282.so.0:_ZN22libcnx_esci_gt_s650_23C1Ev
libcnx-esci-es0282.so.0:_ZN22libcnx_esci_gt_s650_23C2Ev
libcnx-esci-es0282.so.0:_ZN22libcnx_esci_gt_s650_23D0Ev
libcnx-esci-es0282.so.0:_ZN22libcnx_esci_gt_s650_23D1Ev
libcnx-esci-es0282.so.0:_ZN22libcnx_esci_gt_s650_23D2Ev
libcnx-esci-es0282.so.0:_ZN23libcnx_esci_gt_s650_15123libcnx_esci_gt_s650_182EPhj
libcnx-esci-es0282.so.0:_ZN23libcnx_esci_gt_s650_15123libcnx_esci_gt_s650_251EPhj
libcnx-esci-es0282.so.0:_ZN23libcnx_esci_gt_s650_151C1Ev
libcnx-esci-es0282.so.0:_ZN23libcnx_esci_gt_s650_151C2Ev
libcnx-esci-es0282.so.0:_ZN23libcnx_esci_gt_s650_151D1Ev
libcnx-esci-es0282.so.0:_ZN23libcnx_esci_gt_s650_151D2Ev
libcnx-esci-es0282.so.0:_ZN23libcnx_esci_gt_s650_26411GetDataSizeE11LAMPON_TYPEj
libcnx-esci-es0282.so.0:_ZN23libcnx_esci_gt_s650_26412Density_GrayEPtP23libcnx_esci_gt_s650_310j11LAMPON_TYPE
libcnx-esci-es0282.so.0:_ZN23libcnx_esci_gt_s650_26412Zanzou_ApplyEPh
libcnx-esci-es0282.so.0:_ZN23libcnx_esci_gt_s650_26413CalcGammaTbl1Eh
libcnx-esci-es0282.so.0:_ZN23libcnx_esci_gt_s650_26413CalcGammaTbl2Eh
libcnx-esci-es0282.so.0:_ZN23libcnx_esci_gt_s650_26413CalcGammaTblSEh
libcnx-esci-es0282.so.0:_ZN23libcnx_esci_gt_s650_26413Zanzou_FinishEv
libcnx-esci-es0282.so.0:_ZN23libcnx_esci_gt_s650_26414Color_MatchingEPhi
libcnx-esci-es0282.so.0:_ZN23libcnx_esci_gt_s650_26414Max_16_to_16_2EPtS0_S0_j
libcnx-esci-es0282.so.0:_ZN23libcnx_esci_gt_s650_26414SetCalibStatusEh
libcnx-esci-es0282.so.0:_ZN23libcnx_esci_gt_s650_26414Zanzou_AverageEPtii
libcnx-esci-es0282.so.0:_ZN23libcnx_esci_gt_s650_26417Zanzou_CorrectionEP23libcnx_esci_gt_s650_310
libcnx-esci-es0282.so.0:_ZN23libcnx_esci_gt_s650_26418CalcZanzouGammaTblEh
libcnx-esci-es0282.so.0:_ZN23libcnx_esci_gt_s650_26418Check_Offset_LevelEj
libcnx-esci-es0282.so.0:_ZN23libcnx_esci_gt_s650_26418Factory_Zanzo_OpenEPPh
libcnx-esci-es0282.so.0:_ZN23libcnx_esci_gt_s650_26419Factory_Zanzo_CloseEPh
libcnx-esci-es0282.so.0:_ZN23libcnx_esci_gt_s650_26419LinearInterpolationEPtS0_iii
libcnx-esci-es0282.so.0:_ZN23libcnx_esci_gt_s650_26420CalculateFactoryDataEPhS0_S0_Pv
libcnx-esci-es0282.so.0:_ZN23libcnx_esci_gt_s650_26420Linearity_CorrectionEP23libcnx_esci_gt_s650_310h
libcnx-esci-es0282.so.0:_ZN23libcnx_esci_gt_s650_26421libcnx_esci_gt_s650_2EhP23libcnx_esci_gt_s650_298P23libcnx_esci_gt_s650_306jP23libcnx_esci_gt_s650_299
libcnx-esci-es0282.so.0:_ZN23libcnx_esci_gt_s650_26421libcnx_esci_gt_s650_3EhP23libcnx_esci_gt_s650_306jP23libcnx_esci_gt_s650_299
libcnx-esci-es0282.so.0:_ZN23libcnx_esci_gt_s650_26421libcnx_esci_gt_s650_5EPhPtjt
libcnx-esci-es0282.so.0:_ZN23libcnx_esci_gt_s650_26421libcnx_esci_gt_s650_6EPtPjjj
libcnx-esci-es0282.so.0:_ZN23libcnx_esci_gt_s650_26421libcnx_esci_gt_s650_8EjhPhS0_
libcnx-esci-es0282.so.0:_ZN23libcnx_esci_gt_s650_26422Factory_Zanzo_DataReadEPtj11LAMPON_TYPEj
libcnx-esci-es0282.so.0:_ZN23libcnx_esci_gt_s650_26422Factory_Zanzo_HeadReadEPh
libcnx-esci-es0282.so.0:_ZN23libcnx_esci_gt_s650_26422libcnx_esci_gt_s650_10EP23libcnx_esci_gt_s650_310P23libcnx_esci_gt_s650_311
libcnx-esci-es0282.so.0:_ZN23libcnx_esci_gt_s650_26422libcnx_esci_gt_s650_22Ejh
libcnx-esci-es0282.so.0:_ZN23libcnx_esci_gt_s650_26422libcnx_esci_gt_s650_24EjjP23libcnx_esci_gt_s650_312j
libcnx-esci-es0282.so.0:_ZN23libcnx_esci_gt_s650_26422libcnx_esci_gt_s650_27EP23libcnx_esci_gt_s650_310
libcnx-esci-es0282.so.0:_ZN23libcnx_esci_gt_s650_26422libcnx_esci_gt_s650_28EP23libcnx_esci_gt_s650_310
libcnx-esci-es0282.so.0:_ZN23libcnx_esci_gt_s650_26422libcnx_esci_gt_s650_29Et
libcnx-esci-es0282.so.0:_ZN23libcnx_esci_gt_s650_26422libcnx_esci_gt_s650_30Ehjti
libcnx-esci-es0282.so.0:_ZN23libcnx_esci_gt_s650_26422libcnx_esci_gt_s650_31EP23libcnx_esci_gt_s650_310P23libcnx_esci_gt_s650_306j11LAMPON_TYPE
libcnx-esci-es0282.so.0:_ZN23libcnx_esci_gt_s650_26422libcnx_esci_gt_s650_32EP23libcnx_esci_gt_s650_310
libcnx-esci-es0282.so.0:_ZN23libcnx_esci_gt_s650_26422libcnx_esci_gt_s650_33EP23libcnx_esci_gt_s650_310
libcnx-esci-es0282.so.0:_ZN23libcnx_esci_gt_s650_26422libcnx_esci_gt_s650_34Ejjjtj
libcnx-esci-es0282.so.0:_ZN23libcnx_esci_gt_s650_26422libcnx_esci_gt_s650_35Ei
libcnx-esci-es0282.so.0:_ZN23libcnx_esci_gt_s650_26422libcnx_esci_gt_s650_36Eh
libcnx-esci-es0282.so.0:_ZN23libcnx_esci_gt_s650_26422libcnx_esci_gt_s650_37Ehhh
libcnx-esci-es0282.so.0:_ZN23libcnx_esci_gt_s650_26422libcnx_esci_gt_s650_38Ev
libcnx-esci-es0282.so.0:_ZN23libcnx_esci_gt_s650_26422libcnx_esci_gt_s650_39EhP23libcnx_esci_gt_s650_306jP23libcnx_esci_gt_s650_299
libcnx-esci-es0282.so.0:_ZN23libcnx_esci_gt_s650_26422libcnx_esci_gt_s650_40EPiP23libcnx_esci_gt_s650_310
libcnx-esci-es0282.so.0:_ZN23libcnx_esci_gt_s650_26422libcnx_esci_gt_s650_41EPiP23libcnx_esci_gt_s650_310
libcnx-esci-es0282.so.0:_ZN23libcnx_esci_gt_s650_26422libcnx_esci_gt_s650_42Ev
libcnx-esci-es0282.so.0:_ZN23libcnx_esci_gt_s650_26422libcnx_esci_gt_s650_43EPiP23libcnx_esci_gt_s650_303P23libcnx_esci_gt_s650_310
libcnx-esci-es0282.so.0:_ZN23libcnx_esci_gt_s650_26422libcnx_esci_gt_s650_44EPiP23libcnx_esci_gt_s650_310
libcnx-esci-es0282.so.0:_ZN23libcnx_esci_gt_s650_26422libcnx_esci_gt_s650_47EP23libcnx_esci_gt_s650_298
libcnx-esci-es0282.so.0:_ZN23libcnx_esci_gt_s650_26422libcnx_esci_gt_s650_48EP23libcnx_esci_gt_s650_302
libcnx-esci-es0282.so.0:_ZN23libcnx_esci_gt_s650_26422libcnx_esci_gt_s650_49Eh
libcnx-esci-es0282.so.0:_ZN23libcnx_esci_gt_s650_26422libcnx_esci_gt_s650_51EPhhjj
libcnx-esci-es0282.so.0:_ZN23libcnx_esci_gt_s650_26422libcnx_esci_gt_s650_52EhjjPh
libcnx-esci-es0282.so.0:_ZN23libcnx_esci_gt_s650_26422libcnx_esci_gt_s650_53EhjjPj
libcnx-esci-es0282.so.0:_ZN23libcnx_esci_gt_s650_26422libcnx_esci_gt_s650_54EhjjPt
libcnx-esci-es0282.so.0:_ZN23libcnx_esci_gt_s650_26422libcnx_esci_gt_s650_56EPht
libcnx-esci-es0282.so.0:_ZN23libcnx_esci_gt_s650_26422libcnx_esci_gt_s650_57EPh
libcnx-esci-es0282.so.0:_ZN23libcnx_esci_gt_s650_26422libcnx_esci_gt_s650_58EPh
libcnx-esci-es0282.so.0:_ZN23libcnx_esci_gt_s650_26422libcnx_esci_gt_s650_59EPhh
libcnx-esci-es0282.so.0:_ZN23libcnx_esci_gt_s650_26422libcnx_esci_gt_s650_60EPh
libcnx-esci-es0282.so.0:_ZN23libcnx_esci_gt_s650_26422libcnx_esci_gt_s650_61EPhh
libcnx-esci-es0282.so.0:_ZN23libcnx_esci_gt_s650_26422libcnx_esci_gt_s650_62EPhh
libcnx-esci-es0282.so.0:_ZN23libcnx_esci_gt_s650_26422libcnx_esci_gt_s650_63EPhh
libcnx-esci-es0282.so.0:_ZN23libcnx_esci_gt_s650_26422libcnx_esci_gt_s650_64EPhh
libcnx-esci-es0282.so.0:_ZN23libcnx_esci_gt_s650_26422libcnx_esci_gt_s650_65EPhh
libcnx-esci-es0282.so.0:_ZN23libcnx_esci_gt_s650_26422libcnx_esci_gt_s650_66EPh
libcnx-esci-es0282.so.0:_ZN23libcnx_esci_gt_s650_26422libcnx_esci_gt_s650_67EPh
libcnx-esci-es0282.so.0:_ZN23libcnx_esci_gt_s650_26422libcnx_esci_gt_s650_68EPh
libcnx-esci-es0282.so.0:_ZN23libcnx_esci_gt_s650_26422libcnx_esci_gt_s650_69EPh
libcnx-esci-es0282.so.0:_ZN23libcnx_esci_gt_s650_26422libcnx_esci_gt_s650_70EPh
libcnx-esci-es0282.so.0:_ZN23libcnx_esci_gt_s650_26422libcnx_esci_gt_s650_71EPh
libcnx-esci-es0282.so.0:_ZN23libcnx_esci_gt_s650_26422libcnx_esci_gt_s650_72EPhh
libcnx-esci-es0282.so.0:_ZN23libcnx_esci_gt_s650_26422libcnx_esci_gt_s650_73EPh
libcnx-esci-es0282.so.0:_ZN23libcnx_esci_gt_s650_26422libcnx_esci_gt_s650_74Ev
libcnx-esci-es0282.so.0:_ZN23libcnx_esci_gt_s650_26422libcnx_esci_gt_s650_75EPh
libcnx-esci-es0282.so.0:_ZN23libcnx_esci_gt_s650_26422libcnx_esci_gt_s650_76EPhh
libcnx-esci-es0282.so.0:_ZN23libcnx_esci_gt_s650_26422libcnx_esci_gt_s650_77EPh
libcnx-esci-es0282.so.0:_ZN23libcnx_esci_gt_s650_26422libcnx_esci_gt_s650_79EPh
libcnx-esci-es0282.so.0:_ZN23libcnx_esci_gt_s650_26422libcnx_esci_gt_s650_80EPh
libcnx-esci-es0282.so.0:_ZN23libcnx_esci_gt_s650_26422libcnx_esci_gt_s650_81EPhh
libcnx-esci-es0282.so.0:_ZN23libcnx_esci_gt_s650_26422libcnx_esci_gt_s650_82Ev
libcnx-esci-es0282.so.0:_ZN23libcnx_esci_gt_s650_26422libcnx_esci_gt_s650_84EPh
libcnx-esci-es0282.so.0:_ZN23libcnx_esci_gt_s650_26422libcnx_esci_gt_s650_85Ev
libcnx-esci-es0282.so.0:_ZN23libcnx_esci_gt_s650_26422libcnx_esci_gt_s650_86EPh
libcnx-esci-es0282.so.0:_ZN23libcnx_esci_gt_s650_26422libcnx_esci_gt_s650_87EPhh
libcnx-esci-es0282.so.0:_ZN23libcnx_esci_gt_s650_26422libcnx_esci_gt_s650_88EPh
libcnx-esci-es0282.so.0:_ZN23libcnx_esci_gt_s650_26422libcnx_esci_gt_s650_89EPh
libcnx-esci-es0282.so.0:_ZN23libcnx_esci_gt_s650_26422libcnx_esci_gt_s650_90EPh
libcnx-esci-es0282.so.0:_ZN23libcnx_esci_gt_s650_26422libcnx_esci_gt_s650_91EPhh
libcnx-esci-es0282.so.0:_ZN23libcnx_esci_gt_s650_26422libcnx_esci_gt_s650_92EPhh
libcnx-esci-es0282.so.0:_ZN23libcnx_esci_gt_s650_26422libcnx_esci_gt_s650_93EPh
libcnx-esci-es0282.so.0:_ZN23libcnx_esci_gt_s650_26422libcnx_esci_gt_s650_94EPh
libcnx-esci-es0282.so.0:_ZN23libcnx_esci_gt_s650_26422libcnx_esci_gt_s650_95EPh
libcnx-esci-es0282.so.0:_ZN23libcnx_esci_gt_s650_26422libcnx_esci_gt_s650_96EPh
libcnx-esci-es0282.so.0:_ZN23libcnx_esci_gt_s650_26422libcnx_esci_gt_s650_97Ev
libcnx-esci-es0282.so.0:_ZN23libcnx_esci_gt_s650_26422libcnx_esci_gt_s650_98EPh
libcnx-esci-es0282.so.0:_ZN23libcnx_esci_gt_s650_26422libcnx_esci_gt_s650_99Ev
libcnx-esci-es0282.so.0:_ZN23libcnx_esci_gt_s650_26423libcnx_esci_gt_s650_100Ev
libcnx-esci-es0282.so.0:_ZN23libcnx_esci_gt_s650_26423libcnx_esci_gt_s650_101EPh
libcnx-esci-es0282.so.0:_ZN23libcnx_esci_gt_s650_26423libcnx_esci_gt_s650_102EPhh
libcnx-esci-es0282.so.0:_ZN23libcnx_esci_gt_s650_26423libcnx_esci_gt_s650_103EPh
libcnx-esci-es0282.so.0:_ZN23libcnx_esci_gt_s650_26423libcnx_esci_gt_s650_104EPh
libcnx-esci-es0282.so.0:_ZN23libcnx_esci_gt_s650_26423libcnx_esci_gt_s650_105EPh
libcnx-esci-es0282.so.0:_ZN23libcnx_esci_gt_s650_26423libcnx_esci_gt_s650_106Eh
libcnx-esci-es0282.so.0:_ZN23libcnx_esci_gt_s650_26423libcnx_esci_gt_s650_115Eh
libcnx-esci-es0282.so.0:_ZN23libcnx_esci_gt_s650_26423libcnx_esci_gt_s650_118EPh
libcnx-esci-es0282.so.0:_ZN23libcnx_esci_gt_s650_26423libcnx_esci_gt_s650_119EPh
libcnx-esci-es0282.so.0:_ZN23libcnx_esci_gt_s650_26423libcnx_esci_gt_s650_124Ev
libcnx-esci-es0282.so.0:_ZN23libcnx_esci_gt_s650_26423libcnx_esci_gt_s650_125EhPj
libcnx-esci-es0282.so.0:_ZN23libcnx_esci_gt_s650_26423libcnx_esci_gt_s650_141Ev
libcnx-esci-es0282.so.0:_ZN23libcnx_esci_gt_s650_26423libcnx_esci_gt_s650_142Ev
libcnx-esci-es0282.so.0:_ZN23libcnx_esci_gt_s650_26423libcnx_esci_gt_s650_143Ev
libcnx-esci-es0282.so.0:_ZN23libcnx_esci_gt_s650_26423libcnx_esci_gt_s650_144EP23libcnx_esci_gt_s650_310P23libcnx_esci_gt_s650_306
libcnx-esci-es0282.so.0:_ZN23libcnx_esci_gt_s650_26423libcnx_esci_gt_s650_145Ev
libcnx-esci-es0282.so.0:_ZN23libcnx_esci_gt_s650_26423libcnx_esci_gt_s650_146Ev
libcnx-esci-es0282.so.0:_ZN23libcnx_esci_gt_s650_26423libcnx_esci_gt_s650_147Ev
libcnx-esci-es0282.so.0:_ZN23libcnx_esci_gt_s650_26423libcnx_esci_gt_s650_148Ei
libcnx-esci-es0282.so.0:_ZN23libcnx_esci_gt_s650_26423libcnx_esci_gt_s650_154EPhjt
libcnx-esci-es0282.so.0:_ZN23libcnx_esci_gt_s650_26423libcnx_esci_gt_s650_155EPhhih
libcnx-esci-es0282.so.0:_ZN23libcnx_esci_gt_s650_26423libcnx_esci_gt_s650_156EPPhih
libcnx-esci-es0282.so.0:_ZN23libcnx_esci_gt_s650_26423libcnx_esci_gt_s650_163EPhj
libcnx-esci-es0282.so.0:_ZN23libcnx_esci_gt_s650_26423libcnx_esci_gt_s650_164EPtS0_j
libcnx-esci-es0282.so.0:_ZN23libcnx_esci_gt_s650_26423libcnx_esci_gt_s650_165EPhj
libcnx-esci-es0282.so.0:_ZN23libcnx_esci_gt_s650_26423libcnx_esci_gt_s650_166EPhjj
libcnx-esci-es0282.so.0:_ZN23libcnx_esci_gt_s650_26423libcnx_esci_gt_s650_167EPhS0_j
libcnx-esci-es0282.so.0:_ZN23libcnx_esci_gt_s650_26423libcnx_esci_gt_s650_168EPhj
libcnx-esci-es0282.so.0:_ZN23libcnx_esci_gt_s650_26423libcnx_esci_gt_s650_169EPhj
libcnx-esci-es0282.so.0:_ZN23libcnx_esci_gt_s650_26423libcnx_esci_gt_s650_176EPi
libcnx-esci-es0282.so.0:_ZN23libcnx_esci_gt_s650_26423libcnx_esci_gt_s650_181EPhj
libcnx-esci-es0282.so.0:_ZN23libcnx_esci_gt_s650_26423libcnx_esci_gt_s650_185EPhj
libcnx-esci-es0282.so.0:_ZN23libcnx_esci_gt_s650_26423libcnx_esci_gt_s650_186EP23libcnx_esci_gt_s650_310Ph
libcnx-esci-es0282.so.0:_ZN23libcnx_esci_gt_s650_26423libcnx_esci_gt_s650_187EPh
libcnx-esci-es0282.so.0:_ZN23libcnx_esci_gt_s650_26423libcnx_esci_gt_s650_188EPPhjji
libcnx-esci-es0282.so.0:_ZN23libcnx_esci_gt_s650_26423libcnx_esci_gt_s650_188EPhjjj
libcnx-esci-es0282.so.0:_ZN23libcnx_esci_gt_s650_26423libcnx_esci_gt_s650_190EPh
libcnx-esci-es0282.so.0:_ZN23libcnx_esci_gt_s650_26423libcnx_esci_gt_s650_191EPh
libcnx-esci-es0282.so.0:_ZN23libcnx_esci_gt_s650_26423libcnx_esci_gt_s650_192Ev
libcnx-esci-es0282.so.0:_ZN23libcnx_esci_gt_s650_26423libcnx_esci_gt_s650_193EjPh
libcnx-esci-es0282.so.0:_ZN23libcnx_esci_gt_s650_26423libcnx_esci_gt_s650_194EjPh
libcnx-esci-es0282.so.0:_ZN23libcnx_esci_gt_s650_26423libcnx_esci_gt_s650_195EjPh
libcnx-esci-es0282.so.0:_ZN23libcnx_esci_gt_s650_26423libcnx_esci_gt_s650_197Ev
libcnx-esci-es0282.so.0:_ZN23libcnx_esci_gt_s650_26423libcnx_esci_gt_s650_201EP23libcnx_esci_gt_s650_310Pt
libcnx-esci-es0282.so.0:_ZN23libcnx_esci_gt_s650_26423libcnx_esci_gt_s650_203EPhj
libcnx-esci-es0282.so.0:_ZN23libcnx_esci_gt_s650_26423libcnx_esci_gt_s650_204Ehi
libcnx-esci-es0282.so.0:_ZN23libcnx_esci_gt_s650_26423libcnx_esci_gt_s650_205Ehi
libcnx-esci-es0282.so.0:_ZN23libcnx_esci_gt_s650_26423libcnx_esci_gt_s650_206Ev
libcnx-esci-es0282.so.0:_ZN23libcnx_esci_gt_s650_26423libcnx_esci_gt_s650_207Ehh
libcnx-esci-es0282.so.0:_ZN23libcnx_esci_gt_s650_26423libcnx_esci_gt_s650_208EhPh
libcnx-esci-es0282.so.0:_ZN23libcnx_esci_gt_s650_26423libcnx_esci_gt_s650_209EP23libcnx_esci_gt_s650_310
libcnx-esci-es0282.so.0:_ZN23libcnx_esci_gt_s650_26423libcnx_esci_gt_s650_210Ev
libcnx-esci-es0282.so.0:_ZN23libcnx_esci_gt_s650_26423libcnx_esci_gt_s650_211EP23libcnx_esci_gt_s650_310
libcnx-esci-es0282.so.0:_ZN23libcnx_esci_gt_s650_26423libcnx_esci_gt_s650_212EP23libcnx_esci_gt_s650_310
libcnx-esci-es0282.so.0:_ZN23libcnx_esci_gt_s650_26423libcnx_esci_gt_s650_213Ev
libcnx-esci-es0282.so.0:_ZN23libcnx_esci_gt_s650_26423libcnx_esci_gt_s650_214EP23libcnx_esci_gt_s650_309
libcnx-esci-es0282.so.0:_ZN23libcnx_esci_gt_s650_26423libcnx_esci_gt_s650_215EPt
libcnx-esci-es0282.so.0:_ZN23libcnx_esci_gt_s650_26423libcnx_esci_gt_s650_216Eh
libcnx-esci-es0282.so.0:_ZN23libcnx_esci_gt_s650_26423libcnx_esci_gt_s650_218EP23libcnx_esci_gt_s650_310
libcnx-esci-es0282.so.0:_ZN23libcnx_esci_gt_s650_26423libcnx_esci_gt_s650_219EP23libcnx_esci_gt_s650_310
libcnx-esci-es0282.so.0:_ZN23libcnx_esci_gt_s650_26423libcnx_esci_gt_s650_220EP23libcnx_esci_gt_s650_310
libcnx-esci-es0282.so.0:_ZN23libcnx_esci_gt_s650_26423libcnx_esci_gt_s650_221EP23libcnx_esci_gt_s650_310
libcnx-esci-es0282.so.0:_ZN23libcnx_esci_gt_s650_26423libcnx_esci_gt_s650_222EP23libcnx_esci_gt_s650_310PtPh
libcnx-esci-es0282.so.0:_ZN23libcnx_esci_gt_s650_26423libcnx_esci_gt_s650_223EP23libcnx_esci_gt_s650_310
libcnx-esci-es0282.so.0:_ZN23libcnx_esci_gt_s650_26423libcnx_esci_gt_s650_224EP23libcnx_esci_gt_s650_310
libcnx-esci-es0282.so.0:_ZN23libcnx_esci_gt_s650_26423libcnx_esci_gt_s650_225EP23libcnx_esci_gt_s650_310
libcnx-esci-es0282.so.0:_ZN23libcnx_esci_gt_s650_26423libcnx_esci_gt_s650_226EP23libcnx_esci_gt_s650_310
libcnx-esci-es0282.so.0:_ZN23libcnx_esci_gt_s650_26423libcnx_esci_gt_s650_227EP23libcnx_esci_gt_s650_310
libcnx-esci-es0282.so.0:_ZN23libcnx_esci_gt_s650_26423libcnx_esci_gt_s650_228EP23libcnx_esci_gt_s650_310
libcnx-esci-es0282.so.0:_ZN23libcnx_esci_gt_s650_26423libcnx_esci_gt_s650_229EP23libcnx_esci_gt_s650_310h
libcnx-esci-es0282.so.0:_ZN23libcnx_esci_gt_s650_26423libcnx_esci_gt_s650_230EP23libcnx_esci_gt_s650_310i
libcnx-esci-es0282.so.0:_ZN23libcnx_esci_gt_s650_26423libcnx_esci_gt_s650_231EP23libcnx_esci_gt_s650_310
libcnx-esci-es0282.so.0:_ZN23libcnx_esci_gt_s650_26423libcnx_esci_gt_s650_232EP23libcnx_esci_gt_s650_310h
libcnx-esci-es0282.so.0:_ZN23libcnx_esci_gt_s650_26423libcnx_esci_gt_s650_235EPhS0_hjj
libcnx-esci-es0282.so.0:_ZN23libcnx_esci_gt_s650_26423libcnx_esci_gt_s650_235EPtS0_hjj
libcnx-esci-es0282.so.0:_ZN23libcnx_esci_gt_s650_26423libcnx_esci_gt_s650_236EP23libcnx_esci_gt_s650_298
libcnx-esci-es0282.so.0:_ZN23libcnx_esci_gt_s650_26423libcnx_esci_gt_s650_237EP23libcnx_esci_gt_s650_302
libcnx-esci-es0282.so.0:_ZN23libcnx_esci_gt_s650_26423libcnx_esci_gt_s650_238Ev
libcnx-esci-es0282.so.0:_ZN23libcnx_esci_gt_s650_26423libcnx_esci_gt_s650_239EPhj
libcnx-esci-es0282.so.0:_ZN23libcnx_esci_gt_s650_26423libcnx_esci_gt_s650_240EPjPhj
libcnx-esci-es0282.so.0:_ZN23libcnx_esci_gt_s650_26423libcnx_esci_gt_s650_241EPhj
libcnx-esci-es0282.so.0:_ZN23libcnx_esci_gt_s650_26423libcnx_esci_gt_s650_242EPtPhj
libcnx-esci-es0282.so.0:_ZN23libcnx_esci_gt_s650_26423libcnx_esci_gt_s650_243Eh
libcnx-esci-es0282.so.0:_ZN23libcnx_esci_gt_s650_26423libcnx_esci_gt_s650_245Ev
libcnx-esci-es0282.so.0:_ZN23libcnx_esci_gt_s650_26423libcnx_esci_gt_s650_246EhjjPh
libcnx-esci-es0282.so.0:_ZN23libcnx_esci_gt_s650_26423libcnx_esci_gt_s650_247EhjjPj
libcnx-esci-es0282.so.0:_ZN23libcnx_esci_gt_s650_26423libcnx_esci_gt_s650_248Ev
libcnx-esci-es0282.so.0:_ZN23libcnx_esci_gt_s650_26423libcnx_esci_gt_s650_252Eh
libcnx-esci-es0282.so.0:_ZN23libcnx_esci_gt_s650_26423libcnx_esci_gt_s650_253Ejh
libcnx-esci-es0282.so.0:_ZN23libcnx_esci_gt_s650_26423libcnx_esci_gt_s650_254Ejj
libcnx-esci-es0282.so.0:_ZN23libcnx_esci_gt_s650_26423libcnx_esci_gt_s650_255Ejt
libcnx-esci-es0282.so.0:_ZN23libcnx_esci_gt_s650_26423libcnx_esci_gt_s650_262EP23libcnx_esci_gt_s650_310
libcnx-esci-es0282.so.0:_ZN23libcnx_esci_gt_s650_26423libcnx_esci_gt_s650_263EP23libcnx_esci_gt_s650_310
libcnx-esci-es0282.so.0:_ZN23libcnx_esci_gt_s650_26423libcnx_esci_gt_s650_266Eh
libcnx-esci-es0282.so.0:_ZN23libcnx_esci_gt_s650_26423libcnx_esci_gt_s650_267EP23libcnx_esci_gt_s650_310
libcnx-esci-es0282.so.0:_ZN23libcnx_esci_gt_s650_26423libcnx_esci_gt_s650_271Eh
libcnx-esci-es0282.so.0:_ZN23libcnx_esci_gt_s650_26423libcnx_esci_gt_s650_280Ev
libcnx-esci-es0282.so.0:_ZN23libcnx_esci_gt_s650_26423libcnx_esci_gt_s650_283Ev
libcnx-esci-es0282.so.0:_ZN23libcnx_esci_gt_s650_26423libcnx_esci_gt_s650_284Ev
libcnx-esci-es0282.so.0:_ZN23libcnx_esci_gt_s650_26423libcnx_esci_gt_s650_285Ev
libcnx-esci-es0282.so.0:_ZN23libcnx_esci_gt_s650_26423libcnx_esci_gt_s650_286Ev
libcnx-esci-es0282.so.0:_ZN23libcnx_esci_gt_s650_26423libcnx_esci_gt_s650_287Ehh
libcnx-esci-es0282.so.0:_ZN23libcnx_esci_gt_s650_26423libcnx_esci_gt_s650_288Ehh
libcnx-esci-es0282.so.0:_ZN23libcnx_esci_gt_s650_26423libcnx_esci_gt_s650_294Eh
libcnx-esci-es0282.so.0:_ZN23libcnx_esci_gt_s650_26423libcnx_esci_gt_s650_295Ev
libcnx-esci-es0282.so.0:_ZN23libcnx_esci_gt_s650_26423libcnx_esci_gt_s650_314Ev
libcnx-esci-es0282.so.0:_ZN23libcnx_esci_gt_s650_26423libcnx_esci_gt_s650_315Ev
libcnx-esci-es0282.so.0:_ZN23libcnx_esci_gt_s650_26423libcnx_esci_gt_s650_316Ev
libcnx-esci-es0282.so.0:_ZN23libcnx_esci_gt_s650_26424Factory_Zanzo_AdjustmentEv
libcnx-esci-es0282.so.0:_ZN23libcnx_esci_gt_s650_26426CalculateFactoryData_DummyEPhPv
libcnx-esci-es0282.so.0:_ZN23libcnx_esci_gt_s650_26429Factory_Zanzo_Adjustment_ScanEPPhj11LAMPON_TYPEji
libcnx-esci-es0282.so.0:_ZN23libcnx_esci_gt_s650_2648ESC_0xF2Ev
libcnx-esci-es0282.so.0:_ZN23libcnx_esci_gt_s650_2648ESC_0xF3EPh
libcnx-esci-es0282.so.0:_ZN23libcnx_esci_gt_s650_2648ESC_0xF4EPh
libcnx-esci-es0282.so.0:_ZN23libcnx_esci_gt_s650_2648ESC_0xF5EPh
libcnx-esci-es0282.so.0:_ZN23libcnx_esci_gt_s650_264C1Ev
libcnx-esci-es0282.so.0:_ZN23libcnx_esci_gt_s650_264C2Ev
libcnx-esci-es0282.so.0:_ZN23libcnx_esci_gt_s650_264D1Ev
libcnx-esci-es0282.so.0:_ZN23libcnx_esci_gt_s650_264D2Ev
libcnx-esci-es0282.so.0:_ZN23libcnx_esci_gt_s650_26523libcnx_esci_gt_s650_296EPN23libcnx_esci_gt_s650_29123libcnx_esci_gt_s650_258EPNS0_23libcnx_esci_gt_s650_257E
libcnx-esci-es0282.so.0:_ZN23libcnx_esci_gt_s650_26523libcnx_esci_gt_s650_317EPN23libcnx_esci_gt_s650_29123libcnx_esci_gt_s650_259E
libcnx-esci-es0282.so.0:_ZN23libcnx_esci_gt_s650_27423libcnx_esci_gt_s650_269EPFiPviES2_PKc
libcnx-esci-es0282.so.0:_ZN23libcnx_esci_gt_s650_27423libcnx_esci_gt_s650_272EPFiPviEh
libcnx-esci-es0282.so.0:_ZN23libcnx_esci_gt_s650_27423libcnx_esci_gt_s650_281EPKc
libcnx-esci-es0282.so.0:_ZN23libcnx_esci_gt_s650_27423libcnx_esci_gt_s650_289EPFiPviES2_PKc
libcnx-esci-es0282.so.0:_ZThn8_N22libcnx_esci_gt_s650_1423libcnx_esci_gt_s650_109EPhm
libcnx-esci-es0282.so.0:_ZThn8_N22libcnx_esci_gt_s650_1423libcnx_esci_gt_s650_149Ev
libcnx-esci-es0282.so.0:_ZThn8_N22libcnx_esci_gt_s650_14D0Ev
libcnx-esci-es0282.so.0:_ZThn8_N22libcnx_esci_gt_s650_14D1Ev
libcnx-esci-es0282.so.0:_ZThn8_N22libcnx_esci_gt_s650_1723libcnx_esci_gt_s650_109EPhm
libcnx-esci-es0282.so.0:_ZThn8_N22libcnx_esci_gt_s650_1723libcnx_esci_gt_s650_149Ev
libcnx-esci-es0282.so.0:_ZThn8_N22libcnx_esci_gt_s650_17D0Ev
libcnx-esci-es0282.so.0:_ZThn8_N22libcnx_esci_gt_s650_17D1Ev
libcnx-esci-es0282.so.0:__bss_start
libcnx-esci-es0282.so.0:_edata
libcnx-esci-es0282.so.0:_end
libcnx-esci-es0282.so.0:_fini
libcnx-esci-es0282.so.0:_init
libcnx-esci-es0282.so.0:cstSQSTbl_TWL
libcnx-esci-es0282.so.0:dwFacDataId
libcnx-esci-es0282.so.0:gstScanData
libcnx-esci-es0282.so.0:interpreter_ctor
libcnx-esci-es0282.so.0:interpreter_dtor
libcnx-esci-es0282.so.0:interpreter_reader
libcnx-esci-es0282.so.0:interpreter_writer
libcnx-esci-es0282.so.0:libcnx_esci_gt_s650_1
libcnx-esci-es0282.so.0:libcnx_esci_gt_s650_111
libcnx-esci-es0282.so.0:libcnx_esci_gt_s650_117
libcnx-esci-es0282.so.0:libcnx_esci_gt_s650_123
libcnx-esci-es0282.so.0:libcnx_esci_gt_s650_126
libcnx-esci-es0282.so.0:libcnx_esci_gt_s650_127
libcnx-esci-es0282.so.0:libcnx_esci_gt_s650_128
libcnx-esci-es0282.so.0:libcnx_esci_gt_s650_129
libcnx-esci-es0282.so.0:libcnx_esci_gt_s650_130
libcnx-esci-es0282.so.0:libcnx_esci_gt_s650_132
libcnx-esci-es0282.so.0:libcnx_esci_gt_s650_133
libcnx-esci-es0282.so.0:libcnx_esci_gt_s650_134
libcnx-esci-es0282.so.0:libcnx_esci_gt_s650_135
libcnx-esci-es0282.so.0:libcnx_esci_gt_s650_136
libcnx-esci-es0282.so.0:libcnx_esci_gt_s650_137
libcnx-esci-es0282.so.0:libcnx_esci_gt_s650_138
libcnx-esci-es0282.so.0:libcnx_esci_gt_s650_139
libcnx-esci-es0282.so.0:libcnx_esci_gt_s650_140
libcnx-esci-es0282.so.0:libcnx_esci_gt_s650_150
libcnx-esci-es0282.so.0:libcnx_esci_gt_s650_152
libcnx-esci-es0282.so.0:libcnx_esci_gt_s650_153
libcnx-esci-es0282.so.0:libcnx_esci_gt_s650_16
libcnx-esci-es0282.so.0:libcnx_esci_gt_s650_170
libcnx-esci-es0282.so.0:libcnx_esci_gt_s650_171
libcnx-esci-es0282.so.0:libcnx_esci_gt_s650_173
libcnx-esci-es0282.so.0:libcnx_esci_gt_s650_174
libcnx-esci-es0282.so.0:libcnx_esci_gt_s650_177
libcnx-esci-es0282.so.0:libcnx_esci_gt_s650_178
libcnx-esci-es0282.so.0:libcnx_esci_gt_s650_179
libcnx-esci-es0282.so.0:libcnx_esci_gt_s650_180
libcnx-esci-es0282.so.0:libcnx_esci_gt_s650_198
libcnx-esci-es0282.so.0:libcnx_esci_gt_s650_200
libcnx-esci-es0282.so.0:libcnx_esci_gt_s650_233
libcnx-esci-es0282.so.0:libcnx_esci_gt_s650_234
libcnx-esci-es0282.so.0:libcnx_esci_gt_s650_244
libcnx-esci-es0282.so.0:libcnx_esci_gt_s650_249
libcnx-esci-es0282.so.0:libcnx_esci_gt_s650_250
libcnx-esci-es0282.so.0:libcnx_esci_gt_s650_256
libcnx-esci-es0282.so.0:libcnx_esci_gt_s650_268
libcnx-esci-es0282.so.0:libcnx_esci_gt_s650_270
libcnx-esci-es0282.so.0:libcnx_esci_gt_s650_273
libcnx-esci-es0282.so.0:libcnx_esci_gt_s650_275
libcnx-esci-es0282.so.0:libcnx_esci_gt_s650_276
libcnx-esci-es0282.so.0:libcnx_esci_gt_s650_277
libcnx-esci-es0282.so.0:libcnx_esci_gt_s650_278
libcnx-esci-es0282.so.0:libcnx_esci_gt_s650_279
libcnx-esci-es0282.so.0:libcnx_esci_gt_s650_282
libcnx-esci-es0282.so.0:libcnx_esci_gt_s650_290
libcnx-esci-es0282.so.0:libcnx_esci_gt_s650_292
libcnx-esci-es0282.so.0:libcnx_esci_gt_s650_297
libcnx-esci-es0282.so.0:libcnx_esci_gt_s650_300
libcnx-esci-es0282.so.0:libcnx_esci_gt_s650_301
libcnx-esci-es0282.so.0:libcnx_esci_gt_s650_304
libcnx-esci-es0282.so.0:libcnx_esci_gt_s650_305
libcnx-esci-es0282.so.0:libcnx_esci_gt_s650_307
libcnx-esci-es0282.so.0:libcnx_esci_gt_s650_308
libcnx-esci-es0282.so.0:libcnx_esci_gt_s650_323
libcnx-esci-es0282.so.0:libcnx_esci_gt_s650_324
libcnx-esci-es0282.so.0:libcnx_esci_gt_s650_50
libcnx-esci-es0282.so.0:libcnx_esci_gt_s650_55
libcnx-esci-es0282.so.0:libcnx_esci_gt_s650_78
libcnx-esci-es0282.so.0:libcnx_esci_gt_s650_83
libcnx-esci-es0282.so.0:libcnx_esci_gt_s650_9
libcnx-esci-es0282.so.0:stZanzouTable
libcnx-esci-gt-s650.so.0:
libcnx-esci-gt-s650.so.0:_Z21libcnx_esci_gt_s650_4m
libcnx-esci-gt-s650.so.0:_Z23libcnx_esci_gt_s650_110Pv
libcnx-esci-gt-s650.so.0:_Z23libcnx_esci_gt_s650_138PFilE
libcnx-esci-gt-s650.so.0:_ZN22libcnx_esci_gt_s650_1323libcnx_esci_gt_s650_116EjR23libcnx_esci_gt_s650_260S1_R23libcnx_esci_gt_s650_261
libcnx-esci-gt-s650.so.0:_ZN22libcnx_esci_gt_s650_1323libcnx_esci_gt_s650_121Ei
libcnx-esci-gt-s650.so.0:_ZN22libcnx_esci_gt_s650_1323libcnx_esci_gt_s650_149Ev
libcnx-esci-gt-s650.so.0:_ZN22libcnx_esci_gt_s650_1323libcnx_esci_gt_s650_196EP23libcnx_esci_gt_s650_318S1_
libcnx-esci-gt-s650.so.0:_ZN22libcnx_esci_gt_s650_13C1EP23libcnx_esci_gt_s650_319mm
libcnx-esci-gt-s650.so.0:_ZN22libcnx_esci_gt_s650_13C2EP23libcnx_esci_gt_s650_319mm
libcnx-esci-gt-s650.so.0:_ZN22libcnx_esci_gt_s650_13D0Ev
libcnx-esci-gt-s650.so.0:_ZN22libcnx_esci_gt_s650_13D1Ev
libcnx-esci-gt-s650.so.0:_ZN22libcnx_esci_gt_s650_13D2Ev
libcnx-esci-gt-s650.so.0:_ZN22libcnx_esci_gt_s650_1421libcnx_esci_gt_s650_7EP23libcnx_esci_gt_s650_318S1_
libcnx-esci-gt-s650.so.0:_ZN22libcnx_esci_gt_s650_1423libcnx_esci_gt_s650_109EPhm
libcnx-esci-gt-s650.so.0:_ZN22libcnx_esci_gt_s650_1423libcnx_esci_gt_s650_121Ei
libcnx-esci-gt-s650.so.0:_ZN22libcnx_esci_gt_s650_1423libcnx_esci_gt_s650_149Ev
libcnx-esci-gt-s650.so.0:_ZN22libcnx_esci_gt_s650_14C1EP23libcnx_esci_gt_s650_319R23libcnx_esci_gt_s650_260mm
libcnx-esci-gt-s650.so.0:_ZN22libcnx_esci_gt_s650_14C2EP23libcnx_esci_gt_s650_319R23libcnx_esci_gt_s650_260mm
libcnx-esci-gt-s650.so.0:_ZN22libcnx_esci_gt_s650_14D0Ev
libcnx-esci-gt-s650.so.0:_ZN22libcnx_esci_gt_s650_14D1Ev
libcnx-esci-gt-s650.so.0:_ZN22libcnx_esci_gt_s650_14D2Ev
libcnx-esci-gt-s650.so.0:_ZN22libcnx_esci_gt_s650_1523libcnx_esci_gt_s650_217Eb
libcnx-esci-gt-s650.so.0:_ZN22libcnx_esci_gt_s650_1523libcnx_esci_gt_s650_293E
libcnx-esci-gt-s650.so.0:_ZN22libcnx_esci_gt_s650_15C1EP23libcnx_esci_gt_s650_319
libcnx-esci-gt-s650.so.0:_ZN22libcnx_esci_gt_s650_15C2EP23libcnx_esci_gt_s650_319
libcnx-esci-gt-s650.so.0:_ZN22libcnx_esci_gt_s650_1722libcnx_esci_gt_s650_25EPmm
libcnx-esci-gt-s650.so.0:_ZN22libcnx_esci_gt_s650_1722libcnx_esci_gt_s650_26EPmm
libcnx-esci-gt-s650.so.0:_ZN22libcnx_esci_gt_s650_1722libcnx_esci_gt_s650_46EP23libcnx_esci_gt_s650_318S1_
libcnx-esci-gt-s650.so.0:_ZN22libcnx_esci_gt_s650_1723libcnx_esci_gt_s650_109EPhm
libcnx-esci-gt-s650.so.0:_ZN22libcnx_esci_gt_s650_1723libcnx_esci_gt_s650_121Ei
libcnx-esci-gt-s650.so.0:_ZN22libcnx_esci_gt_s650_1723libcnx_esci_gt_s650_149Ev
libcnx-esci-gt-s650.so.0:_ZN22libcnx_esci_gt_s650_17C1EP23libcnx_esci_gt_s650_319R23libcnx_esci_gt_s650_261m
libcnx-esci-gt-s650.so.0:_ZN22libcnx_esci_gt_s650_17C2EP23libcnx_esci_gt_s650_319R23libcnx_esci_gt_s650_261m
libcnx-esci-gt-s650.so.0:_ZN22libcnx_esci_gt_s650_17D0Ev
libcnx-esci-gt-s650.so.0:_ZN22libcnx_esci_gt_s650_17D1Ev
libcnx-esci-gt-s650.so.0:_ZN22libcnx_esci_gt_s650_17D2Ev
libcnx-esci-gt-s650.so.0:_ZN22libcnx_esci_gt_s650_1823libcnx_esci_gt_s650_107ERK23libcnx_esci_gt_s650_318
libcnx-esci-gt-s650.so.0:_ZN22libcnx_esci_gt_s650_1823libcnx_esci_gt_s650_108ERK23libcnx_esci_gt_s650_318S2_
libcnx-esci-gt-s650.so.0:_ZN22libcnx_esci_gt_s650_1823libcnx_esci_gt_s650_108ERK23libcnx_esci_gt_s650_318S2_Phi
libcnx-esci-gt-s650.so.0:_ZN22libcnx_esci_gt_s650_1823libcnx_esci_gt_s650_121Ei
libcnx-esci-gt-s650.so.0:_ZN22libcnx_esci_gt_s650_1823libcnx_esci_gt_s650_149Ev
libcnx-esci-gt-s650.so.0:_ZN22libcnx_esci_gt_s650_1823libcnx_esci_gt_s650_157Emmm
libcnx-esci-gt-s650.so.0:_ZN22libcnx_esci_gt_s650_1823libcnx_esci_gt_s650_158Emmm
libcnx-esci-gt-s650.so.0:_ZN22libcnx_esci_gt_s650_1823libcnx_esci_gt_s650_159Emmm
libcnx-esci-gt-s650.so.0:_ZN22libcnx_esci_gt_s650_1823libcnx_esci_gt_s650_160Emm
libcnx-esci-gt-s650.so.0:_ZN22libcnx_esci_gt_s650_1823libcnx_esci_gt_s650_161EmmPhi
libcnx-esci-gt-s650.so.0:_ZN22libcnx_esci_gt_s650_1823libcnx_esci_gt_s650_162EmPKhPh
libcnx-esci-gt-s650.so.0:_ZN22libcnx_esci_gt_s650_18C1EP23libcnx_esci_gt_s650_319
libcnx-esci-gt-s650.so.0:_ZN22libcnx_esci_gt_s650_18C2EP23libcnx_esci_gt_s650_319
libcnx-esci-gt-s650.so.0:_ZN22libcnx_esci_gt_s650_18D0Ev
libcnx-esci-gt-s650.so.0:_ZN22libcnx_esci_gt_s650_18D1Ev
libcnx-esci-gt-s650.so.0:_ZN22libcnx_esci_gt_s650_18D2Ev
libcnx-esci-gt-s650.so.0:_ZN22libcnx_esci_gt_s650_1923libcnx_esci_gt_s650_112EjR23libcnx_esci_gt_s650_260S1_
libcnx-esci-gt-s650.so.0:_ZN22libcnx_esci_gt_s650_1923libcnx_esci_gt_s650_113EjR23libcnx_esci_gt_s650_261
libcnx-esci-gt-s650.so.0:_ZN22libcnx_esci_gt_s650_1923libcnx_esci_gt_s650_183ER23libcnx_esci_gt_s650_260
libcnx-esci-gt-s650.so.0:_ZN22libcnx_esci_gt_s650_1923libcnx_esci_gt_s650_184ER23libcnx_esci_gt_s650_261
libcnx-esci-gt-s650.so.0:_ZN22libcnx_esci_gt_s650_19C1Ev
libcnx-esci-gt-s650.so.0:_ZN22libcnx_esci_gt_s650_19C2Ev
libcnx-esci-gt-s650.so.0:_ZN22libcnx_esci_gt_s650_19D0Ev
libcnx-esci-gt-s650.so.0:_ZN22libcnx_esci_gt_s650_19D1Ev
libcnx-esci-gt-s650.so.0:_ZN22libcnx_esci_gt_s650_19D2Ev
libcnx-esci-gt-s650.so.0:_ZN22libcnx_esci_gt_s650_2023libcnx_esci_gt_s650_172Ej23libcnx_esci_gt_s650_131
libcnx-esci-gt-s650.so.0:_ZN22libcnx_esci_gt_s650_20C1Ev
libcnx-esci-gt-s650.so.0:_ZN22libcnx_esci_gt_s650_20C2Ev
libcnx-esci-gt-s650.so.0:_ZN22libcnx_esci_gt_s650_20D0Ev
libcnx-esci-gt-s650.so.0:_ZN22libcnx_esci_gt_s650_20D1Ev
libcnx-esci-gt-s650.so.0:_ZN22libcnx_esci_gt_s650_20D2Ev
libcnx-esci-gt-s650.so.0:_ZN22libcnx_esci_gt_s650_2122libcnx_esci_gt_s650_45Ev
libcnx-esci-gt-s650.so.0:_ZN22libcnx_esci_gt_s650_2123libcnx_esci_gt_s650_114EjPsttPlS1_
libcnx-esci-gt-s650.so.0:_ZN22libcnx_esci_gt_s650_2123libcnx_esci_gt_s650_122EjPsttS0_S0_
libcnx-esci-gt-s650.so.0:_ZN22libcnx_esci_gt_s650_2123libcnx_esci_gt_s650_175Ev
libcnx-esci-gt-s650.so.0:_ZN22libcnx_esci_gt_s650_2123libcnx_esci_gt_s650_185EPvl
libcnx-esci-gt-s650.so.0:_ZN22libcnx_esci_gt_s650_2123libcnx_esci_gt_s650_189EjPsPtS1_
libcnx-esci-gt-s650.so.0:_ZN22libcnx_esci_gt_s650_2123libcnx_esci_gt_s650_202El
libcnx-esci-gt-s650.so.0:_ZN22libcnx_esci_gt_s650_21C1Ev
libcnx-esci-gt-s650.so.0:_ZN22libcnx_esci_gt_s650_21C2Ev
libcnx-esci-gt-s650.so.0:_ZN22libcnx_esci_gt_s650_21D0Ev
libcnx-esci-gt-s650.so.0:_ZN22libcnx_esci_gt_s650_21D1Ev
libcnx-esci-gt-s650.so.0:_ZN22libcnx_esci_gt_s650_21D2Ev
libcnx-esci-gt-s650.so.0:_ZN22libcnx_esci_gt_s650_2322libcnx_esci_gt_s650_11EPhj
libcnx-esci-gt-s650.so.0:_ZN22libcnx_esci_gt_s650_2322libcnx_esci_gt_s650_12EPhj
libcnx-esci-gt-s650.so.0:_ZN22libcnx_esci_gt_s650_23C1Ev
libcnx-esci-gt-s650.so.0:_ZN22libcnx_esci_gt_s650_23C2Ev
libcnx-esci-gt-s650.so.0:_ZN22libcnx_esci_gt_s650_23D0Ev
libcnx-esci-gt-s650.so.0:_ZN22libcnx_esci_gt_s650_23D1Ev
libcnx-esci-gt-s650.so.0:_ZN22libcnx_esci_gt_s650_23D2Ev
libcnx-esci-gt-s650.so.0:_ZN23libcnx_esci_gt_s650_15123libcnx_esci_gt_s650_182EPhj
libcnx-esci-gt-s650.so.0:_ZN23libcnx_esci_gt_s650_15123libcnx_esci_gt_s650_251EPhj
libcnx-esci-gt-s650.so.0:_ZN23libcnx_esci_gt_s650_151C1Ev
libcnx-esci-gt-s650.so.0:_ZN23libcnx_esci_gt_s650_151C2Ev
libcnx-esci-gt-s650.so.0:_ZN23libcnx_esci_gt_s650_151D1Ev
libcnx-esci-gt-s650.so.0:_ZN23libcnx_esci_gt_s650_151D2Ev
libcnx-esci-gt-s650.so.0:_ZN23libcnx_esci_gt_s650_26418Check_Offset_LevelEj
libcnx-esci-gt-s650.so.0:_ZN23libcnx_esci_gt_s650_26418get_board_info_afeEv
libcnx-esci-gt-s650.so.0:_ZN23libcnx_esci_gt_s650_26421libcnx_esci_gt_s650_2EhP23libcnx_esci_gt_s650_298P23libcnx_esci_gt_s650_306j23libcnx_esci_gt_s650_299
libcnx-esci-gt-s650.so.0:_ZN23libcnx_esci_gt_s650_26421libcnx_esci_gt_s650_3EhP23libcnx_esci_gt_s650_306j23libcnx_esci_gt_s650_299
libcnx-esci-gt-s650.so.0:_ZN23libcnx_esci_gt_s650_26421libcnx_esci_gt_s650_5EPhPtjt
libcnx-esci-gt-s650.so.0:_ZN23libcnx_esci_gt_s650_26421libcnx_esci_gt_s650_6EPtPjjj
libcnx-esci-gt-s650.so.0:_ZN23libcnx_esci_gt_s650_26421libcnx_esci_gt_s650_8EjhPhS0_
libcnx-esci-gt-s650.so.0:_ZN23libcnx_esci_gt_s650_26422libcnx_esci_gt_s650_10E23libcnx_esci_gt_s650_31023libcnx_esci_gt_s650_311
libcnx-esci-gt-s650.so.0:_ZN23libcnx_esci_gt_s650_26422libcnx_esci_gt_s650_22Ejh
libcnx-esci-gt-s650.so.0:_ZN23libcnx_esci_gt_s650_26422libcnx_esci_gt_s650_24EjjP23libcnx_esci_gt_s650_312j
libcnx-esci-gt-s650.so.0:_ZN23libcnx_esci_gt_s650_26422libcnx_esci_gt_s650_27E23libcnx_esci_gt_s650_310
libcnx-esci-gt-s650.so.0:_ZN23libcnx_esci_gt_s650_26422libcnx_esci_gt_s650_28E23libcnx_esci_gt_s650_310
libcnx-esci-gt-s650.so.0:_ZN23libcnx_esci_gt_s650_26422libcnx_esci_gt_s650_29Et
libcnx-esci-gt-s650.so.0:_ZN23libcnx_esci_gt_s650_26422libcnx_esci_gt_s650_30Ehjti
libcnx-esci-gt-s650.so.0:_ZN23libcnx_esci_gt_s650_26422libcnx_esci_gt_s650_31E23libcnx_esci_gt_s650_310P23libcnx_esci_gt_s650_306
libcnx-esci-gt-s650.so.0:_ZN23libcnx_esci_gt_s650_26422libcnx_esci_gt_s650_32E23libcnx_esci_gt_s650_310
libcnx-esci-gt-s650.so.0:_ZN23libcnx_esci_gt_s650_26422libcnx_esci_gt_s650_33EP23libcnx_esci_gt_s650_310
libcnx-esci-gt-s650.so.0:_ZN23libcnx_esci_gt_s650_26422libcnx_esci_gt_s650_34Ejjjtj
libcnx-esci-gt-s650.so.0:_ZN23libcnx_esci_gt_s650_26422libcnx_esci_gt_s650_35Ei
libcnx-esci-gt-s650.so.0:_ZN23libcnx_esci_gt_s650_26422libcnx_esci_gt_s650_36Eh
libcnx-esci-gt-s650.so.0:_ZN23libcnx_esci_gt_s650_26422libcnx_esci_gt_s650_37Ehhh
libcnx-esci-gt-s650.so.0:_ZN23libcnx_esci_gt_s650_26422libcnx_esci_gt_s650_38Ev
libcnx-esci-gt-s650.so.0:_ZN23libcnx_esci_gt_s650_26422libcnx_esci_gt_s650_39EhP23libcnx_esci_gt_s650_306j23libcnx_esci_gt_s650_299
libcnx-esci-gt-s650.so.0:_ZN23libcnx_esci_gt_s650_26422libcnx_esci_gt_s650_40EPi23libcnx_esci_gt_s650_310
libcnx-esci-gt-s650.so.0:_ZN23libcnx_esci_gt_s650_26422libcnx_esci_gt_s650_41EPi23libcnx_esci_gt_s650_310
libcnx-esci-gt-s650.so.0:_ZN23libcnx_esci_gt_s650_26422libcnx_esci_gt_s650_42Ev
libcnx-esci-gt-s650.so.0:_ZN23libcnx_esci_gt_s650_26422libcnx_esci_gt_s650_43EPi23libcnx_esci_gt_s650_30323libcnx_esci_gt_s650_310
libcnx-esci-gt-s650.so.0:_ZN23libcnx_esci_gt_s650_26422libcnx_esci_gt_s650_44EPi23libcnx_esci_gt_s650_310
libcnx-esci-gt-s650.so.0:_ZN23libcnx_esci_gt_s650_26422libcnx_esci_gt_s650_47E23libcnx_esci_gt_s650_298
libcnx-esci-gt-s650.so.0:_ZN23libcnx_esci_gt_s650_26422libcnx_esci_gt_s650_48E23libcnx_esci_gt_s650_302
libcnx-esci-gt-s650.so.0:_ZN23libcnx_esci_gt_s650_26422libcnx_esci_gt_s650_49Eh
libcnx-esci-gt-s650.so.0:_ZN23libcnx_esci_gt_s650_26422libcnx_esci_gt_s650_51EPhhjj
libcnx-esci-gt-s650.so.0:_ZN23libcnx_esci_gt_s650_26422libcnx_esci_gt_s650_52EhjjPh
libcnx-esci-gt-s650.so.0:_ZN23libcnx_esci_gt_s650_26422libcnx_esci_gt_s650_53EhjjPj
libcnx-esci-gt-s650.so.0:_ZN23libcnx_esci_gt_s650_26422libcnx_esci_gt_s650_54EhjjPt
libcnx-esci-gt-s650.so.0:_ZN23libcnx_esci_gt_s650_26422libcnx_esci_gt_s650_56EPht
libcnx-esci-gt-s650.so.0:_ZN23libcnx_esci_gt_s650_26422libcnx_esci_gt_s650_57EPh
libcnx-esci-gt-s650.so.0:_ZN23libcnx_esci_gt_s650_26422libcnx_esci_gt_s650_58EPh
libcnx-esci-gt-s650.so.0:_ZN23libcnx_esci_gt_s650_26422libcnx_esci_gt_s650_59EPhh
libcnx-esci-gt-s650.so.0:_ZN23libcnx_esci_gt_s650_26422libcnx_esci_gt_s650_60EPh
libcnx-esci-gt-s650.so.0:_ZN23libcnx_esci_gt_s650_26422libcnx_esci_gt_s650_61EPhh
libcnx-esci-gt-s650.so.0:_ZN23libcnx_esci_gt_s650_26422libcnx_esci_gt_s650_62EPhh
libcnx-esci-gt-s650.so.0:_ZN23libcnx_esci_gt_s650_26422libcnx_esci_gt_s650_63EPhh
libcnx-esci-gt-s650.so.0:_ZN23libcnx_esci_gt_s650_26422libcnx_esci_gt_s650_64EPhh
libcnx-esci-gt-s650.so.0:_ZN23libcnx_esci_gt_s650_26422libcnx_esci_gt_s650_65EPhh
libcnx-esci-gt-s650.so.0:_ZN23libcnx_esci_gt_s650_26422libcnx_esci_gt_s650_66EPh
libcnx-esci-gt-s650.so.0:_ZN23libcnx_esci_gt_s650_26422libcnx_esci_gt_s650_67EPh
libcnx-esci-gt-s650.so.0:_ZN23libcnx_esci_gt_s650_26422libcnx_esci_gt_s650_68EPh
libcnx-esci-gt-s650.so.0:_ZN23libcnx_esci_gt_s650_26422libcnx_esci_gt_s650_69EPh
libcnx-esci-gt-s650.so.0:_ZN23libcnx_esci_gt_s650_26422libcnx_esci_gt_s650_70EPh
libcnx-esci-gt-s650.so.0:_ZN23libcnx_esci_gt_s650_26422libcnx_esci_gt_s650_71EPh
libcnx-esci-gt-s650.so.0:_ZN23libcnx_esci_gt_s650_26422libcnx_esci_gt_s650_72EPhh
libcnx-esci-gt-s650.so.0:_ZN23libcnx_esci_gt_s650_26422libcnx_esci_gt_s650_73EPh
libcnx-esci-gt-s650.so.0:_ZN23libcnx_esci_gt_s650_26422libcnx_esci_gt_s650_74Ev
libcnx-esci-gt-s650.so.0:_ZN23libcnx_esci_gt_s650_26422libcnx_esci_gt_s650_75EPh
libcnx-esci-gt-s650.so.0:_ZN23libcnx_esci_gt_s650_26422libcnx_esci_gt_s650_76EPhh
libcnx-esci-gt-s650.so.0:_ZN23libcnx_esci_gt_s650_26422libcnx_esci_gt_s650_77EPh
libcnx-esci-gt-s650.so.0:_ZN23libcnx_esci_gt_s650_26422libcnx_esci_gt_s650_79EPh
libcnx-esci-gt-s650.so.0:_ZN23libcnx_esci_gt_s650_26422libcnx_esci_gt_s650_80EPh
libcnx-esci-gt-s650.so.0:_ZN23libcnx_esci_gt_s650_26422libcnx_esci_gt_s650_81EPhh
libcnx-esci-gt-s650.so.0:_ZN23libcnx_esci_gt_s650_26422libcnx_esci_gt_s650_82Ev
libcnx-esci-gt-s650.so.0:_ZN23libcnx_esci_gt_s650_26422libcnx_esci_gt_s650_84EPh
libcnx-esci-gt-s650.so.0:_ZN23libcnx_esci_gt_s650_26422libcnx_esci_gt_s650_85Ev
libcnx-esci-gt-s650.so.0:_ZN23libcnx_esci_gt_s650_26422libcnx_esci_gt_s650_86EPh
libcnx-esci-gt-s650.so.0:_ZN23libcnx_esci_gt_s650_26422libcnx_esci_gt_s650_87EPhh
libcnx-esci-gt-s650.so.0:_ZN23libcnx_esci_gt_s650_26422libcnx_esci_gt_s650_88EPh
libcnx-esci-gt-s650.so.0:_ZN23libcnx_esci_gt_s650_26422libcnx_esci_gt_s650_89EPh
libcnx-esci-gt-s650.so.0:_ZN23libcnx_esci_gt_s650_26422libcnx_esci_gt_s650_90EPh
libcnx-esci-gt-s650.so.0:_ZN23libcnx_esci_gt_s650_26422libcnx_esci_gt_s650_91EPhh
libcnx-esci-gt-s650.so.0:_ZN23libcnx_esci_gt_s650_26422libcnx_esci_gt_s650_92EPhh
libcnx-esci-gt-s650.so.0:_ZN23libcnx_esci_gt_s650_26422libcnx_esci_gt_s650_93EPh
libcnx-esci-gt-s650.so.0:_ZN23libcnx_esci_gt_s650_26422libcnx_esci_gt_s650_94EPh
libcnx-esci-gt-s650.so.0:_ZN23libcnx_esci_gt_s650_26422libcnx_esci_gt_s650_95EPh
libcnx-esci-gt-s650.so.0:_ZN23libcnx_esci_gt_s650_26422libcnx_esci_gt_s650_96EPh
libcnx-esci-gt-s650.so.0:_ZN23libcnx_esci_gt_s650_26422libcnx_esci_gt_s650_97Ev
libcnx-esci-gt-s650.so.0:_ZN23libcnx_esci_gt_s650_26422libcnx_esci_gt_s650_98EPh
libcnx-esci-gt-s650.so.0:_ZN23libcnx_esci_gt_s650_26422libcnx_esci_gt_s650_99Ev
libcnx-esci-gt-s650.so.0:_ZN23libcnx_esci_gt_s650_26423libcnx_esci_gt_s650_100Ev
libcnx-esci-gt-s650.so.0:_ZN23libcnx_esci_gt_s650_26423libcnx_esci_gt_s650_101EPh
libcnx-esci-gt-s650.so.0:_ZN23libcnx_esci_gt_s650_26423libcnx_esci_gt_s650_102EPhh
libcnx-esci-gt-s650.so.0:_ZN23libcnx_esci_gt_s650_26423libcnx_esci_gt_s650_103EPh
libcnx-esci-gt-s650.so.0:_ZN23libcnx_esci_gt_s650_26423libcnx_esci_gt_s650_104EPh
libcnx-esci-gt-s650.so.0:_ZN23libcnx_esci_gt_s650_26423libcnx_esci_gt_s650_105EPh
libcnx-esci-gt-s650.so.0:_ZN23libcnx_esci_gt_s650_26423libcnx_esci_gt_s650_106Eh
libcnx-esci-gt-s650.so.0:_ZN23libcnx_esci_gt_s650_26423libcnx_esci_gt_s650_115Eh
libcnx-esci-gt-s650.so.0:_ZN23libcnx_esci_gt_s650_26423libcnx_esci_gt_s650_118EPh
libcnx-esci-gt-s650.so.0:_ZN23libcnx_esci_gt_s650_26423libcnx_esci_gt_s650_119EPh
libcnx-esci-gt-s650.so.0:_ZN23libcnx_esci_gt_s650_26423libcnx_esci_gt_s650_124Ev
libcnx-esci-gt-s650.so.0:_ZN23libcnx_esci_gt_s650_26423libcnx_esci_gt_s650_125EhPj
libcnx-esci-gt-s650.so.0:_ZN23libcnx_esci_gt_s650_26423libcnx_esci_gt_s650_141Ev
libcnx-esci-gt-s650.so.0:_ZN23libcnx_esci_gt_s650_26423libcnx_esci_gt_s650_142Ev
libcnx-esci-gt-s650.so.0:_ZN23libcnx_esci_gt_s650_26423libcnx_esci_gt_s650_143Ev
libcnx-esci-gt-s650.so.0:_ZN23libcnx_esci_gt_s650_26423libcnx_esci_gt_s650_144E23libcnx_esci_gt_s650_310P23libcnx_esci_gt_s650_306
libcnx-esci-gt-s650.so.0:_ZN23libcnx_esci_gt_s650_26423libcnx_esci_gt_s650_145Ev
libcnx-esci-gt-s650.so.0:_ZN23libcnx_esci_gt_s650_26423libcnx_esci_gt_s650_146Ev
libcnx-esci-gt-s650.so.0:_ZN23libcnx_esci_gt_s650_26423libcnx_esci_gt_s650_147Ev
libcnx-esci-gt-s650.so.0:_ZN23libcnx_esci_gt_s650_26423libcnx_esci_gt_s650_148Ei
libcnx-esci-gt-s650.so.0:_ZN23libcnx_esci_gt_s650_26423libcnx_esci_gt_s650_154EPhjt
libcnx-esci-gt-s650.so.0:_ZN23libcnx_esci_gt_s650_26423libcnx_esci_gt_s650_155EPhhih
libcnx-esci-gt-s650.so.0:_ZN23libcnx_esci_gt_s650_26423libcnx_esci_gt_s650_156EPPhih
libcnx-esci-gt-s650.so.0:_ZN23libcnx_esci_gt_s650_26423libcnx_esci_gt_s650_163EPhj
libcnx-esci-gt-s650.so.0:_ZN23libcnx_esci_gt_s650_26423libcnx_esci_gt_s650_164EPtS0_j
libcnx-esci-gt-s650.so.0:_ZN23libcnx_esci_gt_s650_26423libcnx_esci_gt_s650_165EPhj
libcnx-esci-gt-s650.so.0:_ZN23libcnx_esci_gt_s650_26423libcnx_esci_gt_s650_166EPhjj
libcnx-esci-gt-s650.so.0:_ZN23libcnx_esci_gt_s650_26423libcnx_esci_gt_s650_167EPhS0_j
libcnx-esci-gt-s650.so.0:_ZN23libcnx_esci_gt_s650_26423libcnx_esci_gt_s650_168EPhj
libcnx-esci-gt-s650.so.0:_ZN23libcnx_esci_gt_s650_26423libcnx_esci_gt_s650_169EPhj
libcnx-esci-gt-s650.so.0:_ZN23libcnx_esci_gt_s650_26423libcnx_esci_gt_s650_176EPi
libcnx-esci-gt-s650.so.0:_ZN23libcnx_esci_gt_s650_26423libcnx_esci_gt_s650_181EPhj
libcnx-esci-gt-s650.so.0:_ZN23libcnx_esci_gt_s650_26423libcnx_esci_gt_s650_185EPhj
libcnx-esci-gt-s650.so.0:_ZN23libcnx_esci_gt_s650_26423libcnx_esci_gt_s650_186E23libcnx_esci_gt_s650_310Ph
libcnx-esci-gt-s650.so.0:_ZN23libcnx_esci_gt_s650_26423libcnx_esci_gt_s650_187EPh
libcnx-esci-gt-s650.so.0:_ZN23libcnx_esci_gt_s650_26423libcnx_esci_gt_s650_188EPPhjji
libcnx-esci-gt-s650.so.0:_ZN23libcnx_esci_gt_s650_26423libcnx_esci_gt_s650_188EPhjjj
libcnx-esci-gt-s650.so.0:_ZN23libcnx_esci_gt_s650_26423libcnx_esci_gt_s650_190EPh
libcnx-esci-gt-s650.so.0:_ZN23libcnx_esci_gt_s650_26423libcnx_esci_gt_s650_191EPh
libcnx-esci-gt-s650.so.0:_ZN23libcnx_esci_gt_s650_26423libcnx_esci_gt_s650_192Ev
libcnx-esci-gt-s650.so.0:_ZN23libcnx_esci_gt_s650_26423libcnx_esci_gt_s650_193EjPh
libcnx-esci-gt-s650.so.0:_ZN23libcnx_esci_gt_s650_26423libcnx_esci_gt_s650_194EjPh
libcnx-esci-gt-s650.so.0:_ZN23libcnx_esci_gt_s650_26423libcnx_esci_gt_s650_195EjPh
libcnx-esci-gt-s650.so.0:_ZN23libcnx_esci_gt_s650_26423libcnx_esci_gt_s650_197Ev
libcnx-esci-gt-s650.so.0:_ZN23libcnx_esci_gt_s650_26423libcnx_esci_gt_s650_201E23libcnx_esci_gt_s650_310Pt
libcnx-esci-gt-s650.so.0:_ZN23libcnx_esci_gt_s650_26423libcnx_esci_gt_s650_203EPhj
libcnx-esci-gt-s650.so.0:_ZN23libcnx_esci_gt_s650_26423libcnx_esci_gt_s650_204Ehi
libcnx-esci-gt-s650.so.0:_ZN23libcnx_esci_gt_s650_26423libcnx_esci_gt_s650_205Ehi
libcnx-esci-gt-s650.so.0:_ZN23libcnx_esci_gt_s650_26423libcnx_esci_gt_s650_206Ev
libcnx-esci-gt-s650.so.0:_ZN23libcnx_esci_gt_s650_26423libcnx_esci_gt_s650_207Ehh
libcnx-esci-gt-s650.so.0:_ZN23libcnx_esci_gt_s650_26423libcnx_esci_gt_s650_208EhPh
libcnx-esci-gt-s650.so.0:_ZN23libcnx_esci_gt_s650_26423libcnx_esci_gt_s650_209E23libcnx_esci_gt_s650_310
libcnx-esci-gt-s650.so.0:_ZN23libcnx_esci_gt_s650_26423libcnx_esci_gt_s650_210Ev
libcnx-esci-gt-s650.so.0:_ZN23libcnx_esci_gt_s650_26423libcnx_esci_gt_s650_211E23libcnx_esci_gt_s650_310
libcnx-esci-gt-s650.so.0:_ZN23libcnx_esci_gt_s650_26423libcnx_esci_gt_s650_212E23libcnx_esci_gt_s650_310
libcnx-esci-gt-s650.so.0:_ZN23libcnx_esci_gt_s650_26423libcnx_esci_gt_s650_213Ev
libcnx-esci-gt-s650.so.0:_ZN23libcnx_esci_gt_s650_26423libcnx_esci_gt_s650_214E23libcnx_esci_gt_s650_309
libcnx-esci-gt-s650.so.0:_ZN23libcnx_esci_gt_s650_26423libcnx_esci_gt_s650_215EjPt
libcnx-esci-gt-s650.so.0:_ZN23libcnx_esci_gt_s650_26423libcnx_esci_gt_s650_216Eh
libcnx-esci-gt-s650.so.0:_ZN23libcnx_esci_gt_s650_26423libcnx_esci_gt_s650_218E23libcnx_esci_gt_s650_310
libcnx-esci-gt-s650.so.0:_ZN23libcnx_esci_gt_s650_26423libcnx_esci_gt_s650_219E23libcnx_esci_gt_s650_310
libcnx-esci-gt-s650.so.0:_ZN23libcnx_esci_gt_s650_26423libcnx_esci_gt_s650_220EP23libcnx_esci_gt_s650_310
libcnx-esci-gt-s650.so.0:_ZN23libcnx_esci_gt_s650_26423libcnx_esci_gt_s650_221E23libcnx_esci_gt_s650_310
libcnx-esci-gt-s650.so.0:_ZN23libcnx_esci_gt_s650_26423libcnx_esci_gt_s650_222E23libcnx_esci_gt_s650_310PtPh
libcnx-esci-gt-s650.so.0:_ZN23libcnx_esci_gt_s650_26423libcnx_esci_gt_s650_223E23libcnx_esci_gt_s650_310
libcnx-esci-gt-s650.so.0:_ZN23libcnx_esci_gt_s650_26423libcnx_esci_gt_s650_224E23libcnx_esci_gt_s650_310
libcnx-esci-gt-s650.so.0:_ZN23libcnx_esci_gt_s650_26423libcnx_esci_gt_s650_225EP23libcnx_esci_gt_s650_310
libcnx-esci-gt-s650.so.0:_ZN23libcnx_esci_gt_s650_26423libcnx_esci_gt_s650_226E23libcnx_esci_gt_s650_310
libcnx-esci-gt-s650.so.0:_ZN23libcnx_esci_gt_s650_26423libcnx_esci_gt_s650_227E23libcnx_esci_gt_s650_310
libcnx-esci-gt-s650.so.0:_ZN23libcnx_esci_gt_s650_26423libcnx_esci_gt_s650_228E23libcnx_esci_gt_s650_310
libcnx-esci-gt-s650.so.0:_ZN23libcnx_esci_gt_s650_26423libcnx_esci_gt_s650_229E23libcnx_esci_gt_s650_310h
libcnx-esci-gt-s650.so.0:_ZN23libcnx_esci_gt_s650_26423libcnx_esci_gt_s650_230E23libcnx_esci_gt_s650_310
libcnx-esci-gt-s650.so.0:_ZN23libcnx_esci_gt_s650_26423libcnx_esci_gt_s650_231E23libcnx_esci_gt_s650_310
libcnx-esci-gt-s650.so.0:_ZN23libcnx_esci_gt_s650_26423libcnx_esci_gt_s650_232E23libcnx_esci_gt_s650_310h
libcnx-esci-gt-s650.so.0:_ZN23libcnx_esci_gt_s650_26423libcnx_esci_gt_s650_235EPhS0_hjj
libcnx-esci-gt-s650.so.0:_ZN23libcnx_esci_gt_s650_26423libcnx_esci_gt_s650_235EPtS0_hjj
libcnx-esci-gt-s650.so.0:_ZN23libcnx_esci_gt_s650_26423libcnx_esci_gt_s650_236E23libcnx_esci_gt_s650_298
libcnx-esci-gt-s650.so.0:_ZN23libcnx_esci_gt_s650_26423libcnx_esci_gt_s650_237E23libcnx_esci_gt_s650_302
libcnx-esci-gt-s650.so.0:_ZN23libcnx_esci_gt_s650_26423libcnx_esci_gt_s650_238Ev
libcnx-esci-gt-s650.so.0:_ZN23libcnx_esci_gt_s650_26423libcnx_esci_gt_s650_239EPhj
libcnx-esci-gt-s650.so.0:_ZN23libcnx_esci_gt_s650_26423libcnx_esci_gt_s650_240EPjPhj
libcnx-esci-gt-s650.so.0:_ZN23libcnx_esci_gt_s650_26423libcnx_esci_gt_s650_241EPhj
libcnx-esci-gt-s650.so.0:_ZN23libcnx_esci_gt_s650_26423libcnx_esci_gt_s650_242EPtPhj
libcnx-esci-gt-s650.so.0:_ZN23libcnx_esci_gt_s650_26423libcnx_esci_gt_s650_243Eh
libcnx-esci-gt-s650.so.0:_ZN23libcnx_esci_gt_s650_26423libcnx_esci_gt_s650_245Ev
libcnx-esci-gt-s650.so.0:_ZN23libcnx_esci_gt_s650_26423libcnx_esci_gt_s650_246EhjjPh
libcnx-esci-gt-s650.so.0:_ZN23libcnx_esci_gt_s650_26423libcnx_esci_gt_s650_247EhjjPj
libcnx-esci-gt-s650.so.0:_ZN23libcnx_esci_gt_s650_26423libcnx_esci_gt_s650_248Ev
libcnx-esci-gt-s650.so.0:_ZN23libcnx_esci_gt_s650_26423libcnx_esci_gt_s650_252Eh
libcnx-esci-gt-s650.so.0:_ZN23libcnx_esci_gt_s650_26423libcnx_esci_gt_s650_253Ejh
libcnx-esci-gt-s650.so.0:_ZN23libcnx_esci_gt_s650_26423libcnx_esci_gt_s650_254Ejj
libcnx-esci-gt-s650.so.0:_ZN23libcnx_esci_gt_s650_26423libcnx_esci_gt_s650_255Ejt
libcnx-esci-gt-s650.so.0:_ZN23libcnx_esci_gt_s650_26423libcnx_esci_gt_s650_262E23libcnx_esci_gt_s650_310
libcnx-esci-gt-s650.so.0:_ZN23libcnx_esci_gt_s650_26423libcnx_esci_gt_s650_263E23libcnx_esci_gt_s650_310
libcnx-esci-gt-s650.so.0:_ZN23libcnx_esci_gt_s650_26423libcnx_esci_gt_s650_266Eh
libcnx-esci-gt-s650.so.0:_ZN23libcnx_esci_gt_s650_26423libcnx_esci_gt_s650_267E23libcnx_esci_gt_s650_310
libcnx-esci-gt-s650.so.0:_ZN23libcnx_esci_gt_s650_26423libcnx_esci_gt_s650_271Eh
libcnx-esci-gt-s650.so.0:_ZN23libcnx_esci_gt_s650_26423libcnx_esci_gt_s650_280Ev
libcnx-esci-gt-s650.so.0:_ZN23libcnx_esci_gt_s650_26423libcnx_esci_gt_s650_283Ev
libcnx-esci-gt-s650.so.0:_ZN23libcnx_esci_gt_s650_26423libcnx_esci_gt_s650_284Ev
libcnx-esci-gt-s650.so.0:_ZN23libcnx_esci_gt_s650_26423libcnx_esci_gt_s650_285Ev
libcnx-esci-gt-s650.so.0:_ZN23libcnx_esci_gt_s650_26423libcnx_esci_gt_s650_286Ev
libcnx-esci-gt-s650.so.0:_ZN23libcnx_esci_gt_s650_26423libcnx_esci_gt_s650_287Ehh
libcnx-esci-gt-s650.so.0:_ZN23libcnx_esci_gt_s650_26423libcnx_esci_gt_s650_288Ehh
libcnx-esci-gt-s650.so.0:_ZN23libcnx_esci_gt_s650_26423libcnx_esci_gt_s650_294Eh
libcnx-esci-gt-s650.so.0:_ZN23libcnx_esci_gt_s650_26423libcnx_esci_gt_s650_295Ev
libcnx-esci-gt-s650.so.0:_ZN23libcnx_esci_gt_s650_26423libcnx_esci_gt_s650_314Ev
libcnx-esci-gt-s650.so.0:_ZN23libcnx_esci_gt_s650_26423libcnx_esci_gt_s650_315Ev
libcnx-esci-gt-s650.so.0:_ZN23libcnx_esci_gt_s650_26423libcnx_esci_gt_s650_316Ev
libcnx-esci-gt-s650.so.0:_ZN23libcnx_esci_gt_s650_264C1Ev
libcnx-esci-gt-s650.so.0:_ZN23libcnx_esci_gt_s650_264C2Ev
libcnx-esci-gt-s650.so.0:_ZN23libcnx_esci_gt_s650_264D1Ev
libcnx-esci-gt-s650.so.0:_ZN23libcnx_esci_gt_s650_264D2Ev
libcnx-esci-gt-s650.so.0:_ZN23libcnx_esci_gt_s650_26523libcnx_esci_gt_s650_296EPN23libcnx_esci_gt_s650_29123libcnx_esci_gt_s650_258EPNS0_23libcnx_esci_gt_s650_257E
libcnx-esci-gt-s650.so.0:_ZN23libcnx_esci_gt_s650_26523libcnx_esci_gt_s650_317EPN23libcnx_esci_gt_s650_29123libcnx_esci_gt_s650_259E
libcnx-esci-gt-s650.so.0:_ZN23libcnx_esci_gt_s650_27423libcnx_esci_gt_s650_269EPFiPviES2_PKc
libcnx-esci-gt-s650.so.0:_ZN23libcnx_esci_gt_s650_27423libcnx_esci_gt_s650_272EPFiPviEh
libcnx-esci-gt-s650.so.0:_ZN23libcnx_esci_gt_s650_27423libcnx_esci_gt_s650_281EPKc
libcnx-esci-gt-s650.so.0:_ZN23libcnx_esci_gt_s650_27423libcnx_esci_gt_s650_289EPFiPviES2_PKc
libcnx-esci-gt-s650.so.0:_ZThn8_N22libcnx_esci_gt_s650_1423libcnx_esci_gt_s650_109EPhm
libcnx-esci-gt-s650.so.0:_ZThn8_N22libcnx_esci_gt_s650_1423libcnx_esci_gt_s650_121Ei
libcnx-esci-gt-s650.so.0:_ZThn8_N22libcnx_esci_gt_s650_1423libcnx_esci_gt_s650_149Ev
libcnx-esci-gt-s650.so.0:_ZThn8_N22libcnx_esci_gt_s650_14D0Ev
libcnx-esci-gt-s650.so.0:_ZThn8_N22libcnx_esci_gt_s650_14D1Ev
libcnx-esci-gt-s650.so.0:_ZThn8_N22libcnx_esci_gt_s650_1723libcnx_esci_gt_s650_109EPhm
libcnx-esci-gt-s650.so.0:_ZThn8_N22libcnx_esci_gt_s650_1723libcnx_esci_gt_s650_121Ei
libcnx-esci-gt-s650.so.0:_ZThn8_N22libcnx_esci_gt_s650_1723libcnx_esci_gt_s650_149Ev
libcnx-esci-gt-s650.so.0:_ZThn8_N22libcnx_esci_gt_s650_17D0Ev
libcnx-esci-gt-s650.so.0:_ZThn8_N22libcnx_esci_gt_s650_17D1Ev
libcnx-esci-gt-s650.so.0:__bss_start
libcnx-esci-gt-s650.so.0:_edata
libcnx-esci-gt-s650.so.0:_end
libcnx-esci-gt-s650.so.0:_fini
libcnx-esci-gt-s650.so.0:_init
libcnx-esci-gt-s650.so.0:cstSQSTbl_TWL
libcnx-esci-gt-s650.so.0:interpreter_ctor
libcnx-esci-gt-s650.so.0:interpreter_dtor
libcnx-esci-gt-s650.so.0:interpreter_reader
libcnx-esci-gt-s650.so.0:interpreter_writer
libcnx-esci-gt-s650.so.0:libcnx_esci_gt_s650_1
libcnx-esci-gt-s650.so.0:libcnx_esci_gt_s650_111
libcnx-esci-gt-s650.so.0:libcnx_esci_gt_s650_117
libcnx-esci-gt-s650.so.0:libcnx_esci_gt_s650_123
libcnx-esci-gt-s650.so.0:libcnx_esci_gt_s650_126
libcnx-esci-gt-s650.so.0:libcnx_esci_gt_s650_127
libcnx-esci-gt-s650.so.0:libcnx_esci_gt_s650_128
libcnx-esci-gt-s650.so.0:libcnx_esci_gt_s650_129
libcnx-esci-gt-s650.so.0:libcnx_esci_gt_s650_130
libcnx-esci-gt-s650.so.0:libcnx_esci_gt_s650_132
libcnx-esci-gt-s650.so.0:libcnx_esci_gt_s650_133
libcnx-esci-gt-s650.so.0:libcnx_esci_gt_s650_134
libcnx-esci-gt-s650.so.0:libcnx_esci_gt_s650_135
libcnx-esci-gt-s650.so.0:libcnx_esci_gt_s650_136
libcnx-esci-gt-s650.so.0:libcnx_esci_gt_s650_137
libcnx-esci-gt-s650.so.0:libcnx_esci_gt_s650_139
libcnx-esci-gt-s650.so.0:libcnx_esci_gt_s650_140
libcnx-esci-gt-s650.so.0:libcnx_esci_gt_s650_150
libcnx-esci-gt-s650.so.0:libcnx_esci_gt_s650_152
libcnx-esci-gt-s650.so.0:libcnx_esci_gt_s650_153
libcnx-esci-gt-s650.so.0:libcnx_esci_gt_s650_16
libcnx-esci-gt-s650.so.0:libcnx_esci_gt_s650_170
libcnx-esci-gt-s650.so.0:libcnx_esci_gt_s650_171
libcnx-esci-gt-s650.so.0:libcnx_esci_gt_s650_173
libcnx-esci-gt-s650.so.0:libcnx_esci_gt_s650_174
libcnx-esci-gt-s650.so.0:libcnx_esci_gt_s650_177
libcnx-esci-gt-s650.so.0:libcnx_esci_gt_s650_178
libcnx-esci-gt-s650.so.0:libcnx_esci_gt_s650_179
libcnx-esci-gt-s650.so.0:libcnx_esci_gt_s650_180
libcnx-esci-gt-s650.so.0:libcnx_esci_gt_s650_198
libcnx-esci-gt-s650.so.0:libcnx_esci_gt_s650_199
libcnx-esci-gt-s650.so.0:libcnx_esci_gt_s650_200
libcnx-esci-gt-s650.so.0:libcnx_esci_gt_s650_233
libcnx-esci-gt-s650.so.0:libcnx_esci_gt_s650_234
libcnx-esci-gt-s650.so.0:libcnx_esci_gt_s650_244
libcnx-esci-gt-s650.so.0:libcnx_esci_gt_s650_249
libcnx-esci-gt-s650.so.0:libcnx_esci_gt_s650_250
libcnx-esci-gt-s650.so.0:libcnx_esci_gt_s650_256
libcnx-esci-gt-s650.so.0:libcnx_esci_gt_s650_268
libcnx-esci-gt-s650.so.0:libcnx_esci_gt_s650_270
libcnx-esci-gt-s650.so.0:libcnx_esci_gt_s650_273
libcnx-esci-gt-s650.so.0:libcnx_esci_gt_s650_275
libcnx-esci-gt-s650.so.0:libcnx_esci_gt_s650_276
libcnx-esci-gt-s650.so.0:libcnx_esci_gt_s650_277
libcnx-esci-gt-s650.so.0:libcnx_esci_gt_s650_278
libcnx-esci-gt-s650.so.0:libcnx_esci_gt_s650_279
libcnx-esci-gt-s650.so.0:libcnx_esci_gt_s650_282
libcnx-esci-gt-s650.so.0:libcnx_esci_gt_s650_290
libcnx-esci-gt-s650.so.0:libcnx_esci_gt_s650_292
libcnx-esci-gt-s650.so.0:libcnx_esci_gt_s650_297
libcnx-esci-gt-s650.so.0:libcnx_esci_gt_s650_300
libcnx-esci-gt-s650.so.0:libcnx_esci_gt_s650_301
libcnx-esci-gt-s650.so.0:libcnx_esci_gt_s650_304
libcnx-esci-gt-s650.so.0:libcnx_esci_gt_s650_305
libcnx-esci-gt-s650.so.0:libcnx_esci_gt_s650_307
libcnx-esci-gt-s650.so.0:libcnx_esci_gt_s650_308
libcnx-esci-gt-s650.so.0:libcnx_esci_gt_s650_313
libcnx-esci-gt-s650.so.0:libcnx_esci_gt_s650_323
libcnx-esci-gt-s650.so.0:libcnx_esci_gt_s650_324
libcnx-esci-gt-s650.so.0:libcnx_esci_gt_s650_50
libcnx-esci-gt-s650.so.0:libcnx_esci_gt_s650_55
libcnx-esci-gt-s650.so.0:libcnx_esci_gt_s650_78
libcnx-esci-gt-s650.so.0:libcnx_esci_gt_s650_83
libcnx-esci-gt-s650.so.0:libcnx_esci_gt_s650_9
libdde6.so:
libdde6.so:DDEAASDelete
libdde6.so:DDEAASDelete2
libdde6.so:DDEAASDo
libdde6.so:DDEAASDo2
libdde6.so:DDEAASNew
libdde6.so:DDEAASNew2
libdde6.so:DDEADEDelete
libdde6.so:DDEADEDelete2
libdde6.so:DDEADEDo
libdde6.so:DDEADEDo2
libdde6.so:DDEADENew
libdde6.so:DDEADENew2
libdde6.so:DDEBinDelete
libdde6.so:DDEBinDelete2
libdde6.so:DDEBinDo
libdde6.so:DDEBinDo2
libdde6.so:DDEBinDo2Ex
libdde6.so:DDEBinNew
libdde6.so:DDEBinNew2
libdde6.so:DDEColorFilterDelete
libdde6.so:DDEColorFilterDelete2
libdde6.so:DDEColorFilterDo
libdde6.so:DDEColorFilterDo2
libdde6.so:DDEColorFilterNew
libdde6.so:DDEColorFilterNew2
libdde6.so:_ZN10CDDE_HDbin10MakeBinaryEv
libdde6.so:_ZN10CDDE_HDbin11HDbinDeleteEv
libdde6.so:_ZN10CDDE_HDbin12GetParamaterEjjP19_tagSHDBinParamInfo
libdde6.so:_ZN10CDDE_HDbin13MakeLabelHistEjPjS0_S0_S0_
libdde6.so:_ZN10CDDE_HDbin20CalculateBGThresholdEv
libdde6.so:_ZN10CDDE_HDbin22CalculateRectThresholdEv
libdde6.so:_ZN10CDDE_HDbin7HDbinDoEPhS0_PK13DDEImgSetting
libdde6.so:_ZN10CDDE_HDbin8HDbinNewEPK12DDEBaseParamPKv
libdde6.so:_ZN10CDDE_HDbinC1Ev
libdde6.so:_ZN10CDDE_HDbinC2Ev
libdde6.so:_ZN10CDDE_HDbinD0Ev
libdde6.so:_ZN10CDDE_HDbinD1Ev
libdde6.so:_ZN10CDDE_HDbinD2Ev
libdde6.so:_ZN11CDDE_HDbin210GetSettingER14SHDBin2IniInfo
libdde6.so:_ZN11CDDE_HDbin210SetSettingEPK13DDEBinSetting
libdde6.so:_ZN11CDDE_HDbin211HDbinDeleteEv
libdde6.so:_ZN11CDDE_HDbin212ApplyIniInfoEv
libdde6.so:_ZN11CDDE_HDbin212OutputBinaryERKSt6vectorI12TImgRectPlusIjESaIS2_EEPh
libdde6.so:_ZN11CDDE_HDbin213RemoveNoiseBWEPh
libdde6.so:_ZN11CDDE_HDbin215GetAllParamaterEjjP20_tagSHDBin2ParamInfoP22_tagSPreHDBinParamInfo
libdde6.so:_ZN11CDDE_HDbin216GetParentBinThreERSt6vectorI12TImgRectPlusIjESaIS2_EEj
libdde6.so:_ZN11CDDE_HDbin216ReverseEdgePlaneERSt6vectorI12TImgRectPlusIjESaIS2_EE
libdde6.so:_ZN11CDDE_HDbin217CheckVariance_divEPKjjP12TImgRectPlusIjE
libdde6.so:_ZN11CDDE_HDbin217MakePlaneHistgramERSt6vectorI12TImgRectPlusIjESaIS2_EEPPj
libdde6.so:_ZN11CDDE_HDbin219CheckVariance_32bitEPKjjP12TImgRectPlusIjE
libdde6.so:_ZN11CDDE_HDbin219CheckVariance_64bitEPKjjP12TImgRectPlusIjE
libdde6.so:_ZN11CDDE_HDbin220MakeRectYPointerListEPPK12TImgRectPlusIjERKSt6vectorIS1_SaIS1_EE
libdde6.so:_ZN11CDDE_HDbin222CalculateEdgeThresholdERSt6vectorI12TImgRectPlusIjESaIS2_EEPPj
libdde6.so:_ZN11CDDE_HDbin223CalculatePlaneThresholdERSt6vectorI12TImgRectPlusIjESaIS2_EEPKPKjPPj
libdde6.so:_ZN11CDDE_HDbin223CalculateWholeThresholdERSt6vectorI12TImgRectPlusIjESaIS2_EEPPKj
libdde6.so:_ZN11CDDE_HDbin226CalculateWholeThresholdAllERSt6vectorI12TImgRectPlusIjESaIS2_EEPPKj
libdde6.so:_ZN11CDDE_HDbin226MakeParentAndChildRalationERSt6vectorI12TImgRectPlusIjESaIS2_EES5_PPS2_
libdde6.so:_ZN11CDDE_HDbin227CalculatePlaneThresholdVarHEP12TImgRectPlusIjEPKPKj
libdde6.so:_ZN11CDDE_HDbin227CalculatePlaneThresholdVarLEP12TImgRectPlusIjEPKPKjS4_j
libdde6.so:_ZN11CDDE_HDbin27HDbinDoEPhS0_PK13DDEImgSetting
libdde6.so:_ZN11CDDE_HDbin27MakeLUTEv
libdde6.so:_ZN11CDDE_HDbin28ApplyLUTEPhPK13DDEImgSetting
libdde6.so:_ZN11CDDE_HDbin28HDbinNewEPK12DDEBaseParamPKv
libdde6.so:_ZN11CDDE_HDbin2C1Ev
libdde6.so:_ZN11CDDE_HDbin2C2Ev
libdde6.so:_ZN11CDDE_HDbin2D0Ev
libdde6.so:_ZN11CDDE_HDbin2D1Ev
libdde6.so:_ZN11CDDE_HDbin2D2Ev
libdde6.so:_ZN11CLabelingBW15HRanExtractFastEPKhiiP8CRunList
libdde6.so:_ZN11CLabelingBWC1EjjjPKh
libdde6.so:_ZN11CLabelingBWC2EjjjPKh
libdde6.so:_ZN11CLabelingBWD0Ev
libdde6.so:_ZN11CLabelingBWD1Ev
libdde6.so:_ZN11CLabelingBWD2Ev
libdde6.so:_ZN12CDDE_ParamCF19GetDropoutParamaterEjP19_tagSCFDropoutParam
libdde6.so:_ZN12CDDE_ParamCF19GetEnhanceParamaterEjP19_tagSCFEnhanceParam
libdde6.so:_ZN12CDDE_ParamCF20ReadDropoutParamFileEjP19_tagSCFDropoutParam
libdde6.so:_ZN12CDDE_ParamCF20ReadEnhanceParamFileEjP19_tagSCFEnhanceParam
libdde6.so:_ZN12CDDE_ParamCFC1Ev
libdde6.so:_ZN12CDDE_ParamCFC2Ev
libdde6.so:_ZN12CDDE_ParamCFD0Ev
libdde6.so:_ZN12CDDE_ParamCFD1Ev
libdde6.so:_ZN12CDDE_ParamCFD2Ev
libdde6.so:_ZN12CDDE_Setting12GetParamaterER14SHDBin2IniInfo
libdde6.so:_ZN12CDDE_SettingC1Ev
libdde6.so:_ZN12CDDE_SettingC2Ev
libdde6.so:_ZN12CDDE_SettingD1Ev
libdde6.so:_ZN12CDDE_SettingD2Ev
libdde6.so:_ZN13CDDE_ParamAAS12GetParamaterEjjP17_tagSAASParamInfo
libdde6.so:_ZN13CDDE_ParamAAS13ReadParamFileEjjP17_tagSAASParamInfo
libdde6.so:_ZN13CDDE_ParamAAS15GetPreParamaterEjjP20_tagSPreAASParamInfo
libdde6.so:_ZN13CDDE_ParamAAS16ReadPreParamFileEjjP20_tagSPreAASParamInfo
libdde6.so:_ZN13CDDE_ParamAASC1Ev
libdde6.so:_ZN13CDDE_ParamAASC2Ev
libdde6.so:_ZN13CDDE_ParamAASD0Ev
libdde6.so:_ZN13CDDE_ParamAASD1Ev
libdde6.so:_ZN13CDDE_ParamAASD2Ev
libdde6.so:_ZN13CDDE_ParamADE12GetParamaterEjjjP17_tagSADEParamInfo
libdde6.so:_ZN13CDDE_ParamADE13ReadParamFileEjjjP17_tagSADEParamInfo
libdde6.so:_ZN13CDDE_ParamADE15GetPreParamaterEjjjP20_tagSPreADEParamInfo
libdde6.so:_ZN13CDDE_ParamADE16ReadPreParamFileEjjjP20_tagSPreADEParamInfo
libdde6.so:_ZN13CDDE_ParamADEC1Ev
libdde6.so:_ZN13CDDE_ParamADEC2Ev
libdde6.so:_ZN13CDDE_ParamADED0Ev
libdde6.so:_ZN13CDDE_ParamADED1Ev
libdde6.so:_ZN13CDDE_ParamADED2Ev
libdde6.so:_ZN13CIntegralBase10GetIIWidthEv
libdde6.so:_ZN13CIntegralBase11GetIIHeightEv
libdde6.so:_ZN13CIntegralBase9GetIILineEv
libdde6.so:_ZN13CIntegralBaseC1Ejjjj
libdde6.so:_ZN13CIntegralBaseC2Ejjjj
libdde6.so:_ZN13CIntegralBaseD0Ev
libdde6.so:_ZN13CIntegralBaseD1Ev
libdde6.so:_ZN13CIntegralBaseD2Ev
libdde6.so:_ZN13CLabelingFlag15HRanExtractFastEPKhiiP8CRunList
libdde6.so:_ZN13CLabelingFlagC1EjjjhhPKh
libdde6.so:_ZN13CLabelingFlagC2EjjjhhPKh
libdde6.so:_ZN13CLabelingFlagD0Ev
libdde6.so:_ZN13CLabelingFlagD1Ev
libdde6.so:_ZN13CLabelingFlagD2Ev
libdde6.so:_ZN14CDDE_ParamBase13OpenParamFileEv
libdde6.so:_ZN14CDDE_ParamBase13ReadParamFileEjjP18_tagSBaseParamInfo
libdde6.so:_ZN14CDDE_ParamBase14CloseParamFileEv
libdde6.so:_ZN14CDDE_ParamBase16GetLongLinerDataEjPsttPiS1_
libdde6.so:_ZN14CDDE_ParamBase16ReadPreParamFileEjjP21_tagSPreBaseParamInfo
libdde6.so:_ZN14CDDE_ParamBase17GetShortLinerDataEjPsttS0_S0_
libdde6.so:_ZN14CDDE_ParamBase17MoveParamLocationEj10PARAM_KIND
libdde6.so:_ZN14CDDE_ParamBase19ReadResolutionTableEjPsPtS1_
libdde6.so:_ZN14CDDE_ParamBase8ReadDataEPvi
libdde6.so:_ZN14CDDE_ParamBase8SeekDataEi
libdde6.so:_ZN14CDDE_ParamBaseC1Ev
libdde6.so:_ZN14CDDE_ParamBaseC2Ev
libdde6.so:_ZN14CDDE_ParamBaseD0Ev
libdde6.so:_ZN14CDDE_ParamBaseD1Ev
libdde6.so:_ZN14CDDE_ParamBaseD2Ev
libdde6.so:_ZN14CIntegralImage12InitIntegralEPPKh
libdde6.so:_ZN14CIntegralImage14UpdateIntegralEPPKh
libdde6.so:_ZN14CIntegralImageC1Ejjjj
libdde6.so:_ZN14CIntegralImageC2Ejjjj
libdde6.so:_ZN14CIntegralImageD0Ev
libdde6.so:_ZN14CIntegralImageD1Ev
libdde6.so:_ZN14CIntegralImageD2Ev
libdde6.so:_ZN15CDDE_ParamHDbin12GetParamaterEjjP19_tagSHDBinParamInfo
libdde6.so:_ZN15CDDE_ParamHDbin13ReadParamFileEjjP19_tagSHDBinParamInfo
libdde6.so:_ZN15CDDE_ParamHDbin15GetPreParamaterEjjjP22_tagSPreHDBinParamInfo
libdde6.so:_ZN15CDDE_ParamHDbin16ReadPreParamFileEjjjP22_tagSPreHDBinParamInfo
libdde6.so:_ZN15CDDE_ParamHDbinC1Ev
libdde6.so:_ZN15CDDE_ParamHDbinC2Ev
libdde6.so:_ZN15CDDE_ParamHDbinD0Ev
libdde6.so:_ZN15CDDE_ParamHDbinD1Ev
libdde6.so:_ZN15CDDE_ParamHDbinD2Ev
libdde6.so:_ZN16CDDE_ParamHDbin212GetParamaterEjjP20_tagSHDBin2ParamInfo
libdde6.so:_ZN16CDDE_ParamHDbin213ReadParamFileEjjP20_tagSHDBin2ParamInfo
libdde6.so:_ZN16CDDE_ParamHDbin215GetPreParamaterEjjjP22_tagSPreHDBinParamInfo
libdde6.so:_ZN16CDDE_ParamHDbin216ReadPreParamFileEjjjP22_tagSPreHDBinParamInfo
libdde6.so:_ZN16CDDE_ParamHDbin2C1Ev
libdde6.so:_ZN16CDDE_ParamHDbin2C2Ev
libdde6.so:_ZN16CDDE_ParamHDbin2D0Ev
libdde6.so:_ZN16CDDE_ParamHDbin2D1Ev
libdde6.so:_ZN16CDDE_ParamHDbin2D2Ev
libdde6.so:_ZN16CIntegralSqImage12InitIntegralEPPKh
libdde6.so:_ZN16CIntegralSqImage14UpdateIntegralEPPKh
libdde6.so:_ZN16CIntegralSqImageC1Ejjjj
libdde6.so:_ZN16CIntegralSqImageC2Ejjjj
libdde6.so:_ZN16CIntegralSqImageD0Ev
libdde6.so:_ZN16CIntegralSqImageD1Ev
libdde6.so:_ZN16CIntegralSqImageD2Ev
libdde6.so:_ZN16CReplicateBorder10DoNextLineEv
libdde6.so:_ZN16CReplicateBorder10InitBufferEv
libdde6.so:_ZN16CReplicateBorder13GetBufferLineEPPKhj
libdde6.so:_ZN16CReplicateBorderC1EjjjjPh
libdde6.so:_ZN16CReplicateBorderC2EjjjjPh
libdde6.so:_ZN16CReplicateBorderD0Ev
libdde6.so:_ZN16CReplicateBorderD1Ev
libdde6.so:_ZN16CReplicateBorderD2Ev
libdde6.so:_ZN18CFilterVarianceBin7ExecuteEPhS0_
libdde6.so:_ZN18CFilterVarianceBinC1Ejjjjjjjjss
libdde6.so:_ZN18CFilterVarianceBinC2Ejjjjjjjjss
libdde6.so:_ZN18CFilterVarianceBinD0Ev
libdde6.so:_ZN18CFilterVarianceBinD1Ev
libdde6.so:_ZN18CFilterVarianceBinD2Ev
libdde6.so:_ZN19CFilterVarianceFlag14GetLineAverageEPKjS1_Pjj
libdde6.so:_ZN19CFilterVarianceFlag15GetLineVarianceEPKjS1_S1_S1_PjS2_j
libdde6.so:_ZN19CFilterVarianceFlag7ExecuteEPhS0_
libdde6.so:_ZN19CFilterVarianceFlag8Execute2EPhS0_S0_
libdde6.so:_ZN19CFilterVarianceFlagC1Ejjjjjj
libdde6.so:_ZN19CFilterVarianceFlagC2Ejjjjjj
libdde6.so:_ZN19CFilterVarianceFlagD0Ev
libdde6.so:_ZN19CFilterVarianceFlagD1Ev
libdde6.so:_ZN19CFilterVarianceFlagD2Ev
libdde6.so:_ZN7CDDE_CF11DoDropout_PEv
libdde6.so:_ZN7CDDE_CF11DoDropout_SEv
libdde6.so:_ZN7CDDE_CF11DoEnhance_PEv
libdde6.so:_ZN7CDDE_CF11DoEnhance_SEv
libdde6.so:_ZN7CDDE_CF12CheckColor_PEPKs
libdde6.so:_ZN7CDDE_CF12CheckColor_SEPKs
libdde6.so:_ZN7CDDE_CF12OutputBinaryEv
libdde6.so:_ZN7CDDE_CF13ColorFilterDoEPhS0_PK13DDEImgSettingi
libdde6.so:_ZN7CDDE_CF13RemoveNoize_PEPKs
libdde6.so:_ZN7CDDE_CF13RemoveNoize_SEPKs
libdde6.so:_ZN7CDDE_CF14ColorFilterNewEPK12DDEBaseParamPK18ColorFilterSettingPKhPKv
libdde6.so:_ZN7CDDE_CF14ConvertColor_PEPKs
libdde6.so:_ZN7CDDE_CF14ConvertColor_SEPKs
libdde6.so:_ZN7CDDE_CF14RecheckColor_PEPKsPKd
libdde6.so:_ZN7CDDE_CF14RecheckColor_SEPKsPKd
libdde6.so:_ZN7CDDE_CF15OutputGrayscaleEv
libdde6.so:_ZN7CDDE_CF16ConvertGrayscaleEPKd
libdde6.so:_ZN7CDDE_CF17ColorFilterDeleteEv
libdde6.so:_ZN7CDDE_CF17MakeCompressLUT_EEPKsPKdPh
libdde6.so:_ZN7CDDE_CF18MakeCompressLUT_PDEPKsPKdPh
libdde6.so:_ZN7CDDE_CF18MakeCompressLUT_SDEPKsPKdPh
libdde6.so:_ZN7CDDE_CF20CompressBrightness_PEPKs
libdde6.so:_ZN7CDDE_CF21ChangeSettingExcept_SER18ColorFilterSetting
libdde6.so:_ZN7CDDE_CF21CompressBrightness_SDEv
libdde6.so:_ZN7CDDE_CF21CompressBrightness_SEEv
libdde6.so:_ZN7CDDE_CF9GetDparamEjP19_tagSCFDropoutParam
libdde6.so:_ZN7CDDE_CF9GetEparamEjP19_tagSCFEnhanceParam
libdde6.so:_ZN7CDDE_CFC1Ev
libdde6.so:_ZN7CDDE_CFC2Ev
libdde6.so:_ZN7CDDE_CFD0Ev
libdde6.so:_ZN7CDDE_CFD1Ev
libdde6.so:_ZN7CDDE_CFD2Ev
libdde6.so:_ZN7vFilterC1Ejjj
libdde6.so:_ZN7vFilterC2Ejjj
libdde6.so:_ZN7vFilterD0Ev
libdde6.so:_ZN7vFilterD1Ev
libdde6.so:_ZN7vFilterD2Ev
libdde6.so:_ZN8CDDE_AAS10MakeBinaryEv
libdde6.so:_ZN8CDDE_AAS10MakeErrLUTEii
libdde6.so:_ZN8CDDE_AAS12GetParamaterEjjP17_tagSAASParamInfo
libdde6.so:_ZN8CDDE_AAS14MakeLabelImg08Ev
libdde6.so:_ZN8CDDE_AAS14MakeLabelImg16Ev
libdde6.so:_ZN8CDDE_AAS14MakeLabelImg32Ev
libdde6.so:_ZN8CDDE_AAS15MakeLabelHist08EjPjS0_RjS1_S1_S1_S1_
libdde6.so:_ZN8CDDE_AAS15MakeLabelHist16EjPjS0_RjS1_S1_S1_S1_
libdde6.so:_ZN8CDDE_AAS15MakeLabelHist32EjPjS0_RjS1_S1_S1_S1_
libdde6.so:_ZN8CDDE_AAS15MakeRefRectInfoEv
libdde6.so:_ZN8CDDE_AAS20CalculateBGThresholdEv
libdde6.so:_ZN8CDDE_AAS21MakeLabelHist_NonBuffEjPjS0_RjS1_S1_S1_S1_
libdde6.so:_ZN8CDDE_AAS21MakeLabelHist_RefRectEjPjS0_RjS1_S1_S1_S1_
libdde6.so:_ZN8CDDE_AAS22CalculateRectThresholdEv
libdde6.so:_ZN8CDDE_AAS22MakeLabelImg08_RefRectEv
libdde6.so:_ZN8CDDE_AAS22MakeLabelImg16_RefRectEv
libdde6.so:_ZN8CDDE_AAS22MakeLabelImg32_RefRectEv
libdde6.so:_ZN8CDDE_AAS23MakeLabelHist08_RefRectEjPjS0_RjS1_S1_S1_S1_
libdde6.so:_ZN8CDDE_AAS23MakeLabelHist16_RefRectEjPjS0_RjS1_S1_S1_S1_
libdde6.so:_ZN8CDDE_AAS23MakeLabelHist32_RefRectEjPjS0_RjS1_S1_S1_S1_
libdde6.so:_ZN8CDDE_AAS5AASDoEPhS0_PK13DDEImgSettingii
libdde6.so:_ZN8CDDE_AAS6AASNewEPK12DDEBaseParamPKv
libdde6.so:_ZN8CDDE_AAS9AASDeleteEv
libdde6.so:_ZN8CDDE_AASC1Ev
libdde6.so:_ZN8CDDE_AASC2Ev
libdde6.so:_ZN8CDDE_AASD0Ev
libdde6.so:_ZN8CDDE_AASD1Ev
libdde6.so:_ZN8CDDE_AASD2Ev
libdde6.so:_ZN8CDDE_ADE12GetParamaterEjjjP17_tagSADEParamInfo
libdde6.so:_ZN8CDDE_ADE12MakeImageInfEv
libdde6.so:_ZN8CDDE_ADE12MakeSharpImgEv
libdde6.so:_ZN8CDDE_ADE13MakeBGR_LUT08Eiii
libdde6.so:_ZN8CDDE_ADE13MakeBGR_LUT24Eiii
libdde6.so:_ZN8CDDE_ADE15MakeIntegralImgEj
libdde6.so:_ZN8CDDE_ADE15MakeOutputImg08Ev
libdde6.so:_ZN8CDDE_ADE15MakeOutputImg24Ev
libdde6.so:_ZN8CDDE_ADE16MakeConvertImg08Ev
libdde6.so:_ZN8CDDE_ADE16MakeConvertImg24Ev
libdde6.so:_ZN8CDDE_ADE17ConvertRGBtoYCbCrEv
libdde6.so:_ZN8CDDE_ADE18MakeImageInfLine08Ej
libdde6.so:_ZN8CDDE_ADE18MakeImageInfLine24Ej
libdde6.so:_ZN8CDDE_ADE18MakeStatisticsLineEv
libdde6.so:_ZN8CDDE_ADE18RemakeConvertImg08Ev
libdde6.so:_ZN8CDDE_ADE18RemakeConvertImg24Ev
libdde6.so:_ZN8CDDE_ADE5ADEDoEPhS0_PK13DDEImgSettingiii
libdde6.so:_ZN8CDDE_ADE6ADENewEPK12DDEBaseParamPKv
libdde6.so:_ZN8CDDE_ADE9ADEDeleteEv
libdde6.so:_ZN8CDDE_ADE9SharpY_A0Ev
libdde6.so:_ZN8CDDE_ADE9SharpY_A1Ev
libdde6.so:_ZN8CDDE_ADE9SharpY_A2Ev
libdde6.so:_ZN8CDDE_ADEC1Ev
libdde6.so:_ZN8CDDE_ADEC2Ev
libdde6.so:_ZN8CDDE_ADED0Ev
libdde6.so:_ZN8CDDE_ADED1Ev
libdde6.so:_ZN8CDDE_ADED2Ev
libdde6.so:_ZN8CStdFunc10MemoryCopyEPvjPKvj
libdde6.so:_ZN8CStdFunc10MemoryFreeEPv
libdde6.so:_ZN8CStdFunc14MemoryAllocateEj
libdde6.so:_ZN8CStdFunc19GetResourceFilePathERSsPKc
libdde6.so:_ZN8CStdFuncC1Ev
libdde6.so:_ZN8CStdFuncC2Ev
libdde6.so:_ZN8CStdFuncD0Ev
libdde6.so:_ZN8CStdFuncD1Ev
libdde6.so:_ZN8CStdFuncD2Ev
libdde6.so:_ZN9CDDE_Base10DetectRectEv
libdde6.so:_ZN9CDDE_Base11DetectPaperEv
libdde6.so:_ZN9CDDE_Base11GetAreaSizeERK17_tagLabelRectInfo
libdde6.so:_ZN9CDDE_Base12LabelingRectEjjRiS0_RjS1_S1_S1_Rs
libdde6.so:_ZN9CDDE_Base12MakeImageInfEv
libdde6.so:_ZN9CDDE_Base13CheckAreaSizeERK17_tagLabelRectInfod
libdde6.so:_ZN9CDDE_Base13CheckEdgeTypeER17_tagLabelRectInfo
libdde6.so:_ZN9CDDE_Base13DetectPaddingEv
libdde6.so:_ZN9CDDE_Base14CheckEdgeTypeXER17_tagLabelRectInfo
libdde6.so:_ZN9CDDE_Base14CheckEdgeTypeYER17_tagLabelRectInfo
libdde6.so:_ZN9CDDE_Base14RemakeImageInfEv
libdde6.so:_ZN9CDDE_Base14RemakeRectInfoEv
libdde6.so:_ZN9CDDE_Base16CheckRectRemovedER17_tagLabelRectInfo
libdde6.so:_ZN9CDDE_Base16MakeLabelingRectEv
libdde6.so:_ZN9CDDE_Base17LabelingPaperRectEjjRiS0_RjS1_S1_S1_Rs
libdde6.so:_ZN9CDDE_Base17LabelingRectCase0ER20_tagLabelPursuerInfo
libdde6.so:_ZN9CDDE_Base17LabelingRectCase1ER20_tagLabelPursuerInfo
libdde6.so:_ZN9CDDE_Base17LabelingRectCase2ER20_tagLabelPursuerInfo
libdde6.so:_ZN9CDDE_Base17LabelingRectCase3ER20_tagLabelPursuerInfo
libdde6.so:_ZN9CDDE_Base17LabelingRectCase4ER20_tagLabelPursuerInfo
libdde6.so:_ZN9CDDE_Base17LabelingRectCase5ER20_tagLabelPursuerInfo
libdde6.so:_ZN9CDDE_Base17LabelingRectCase6ER20_tagLabelPursuerInfo
libdde6.so:_ZN9CDDE_Base17LabelingRectCase7ER20_tagLabelPursuerInfo
libdde6.so:_ZN9CDDE_Base17LabelingRectStartERjS0_jjjjs
libdde6.so:_ZN9CDDE_Base20CheckIncludeMatPixelERK17_tagLabelRectInfo
libdde6.so:_ZN9CDDE_Base21MakeLabelingPaperRectEv
libdde6.so:_ZN9CDDE_Base22LabelingPaperRectStartERjS0_jjjjs
libdde6.so:_ZN9CDDE_Base9UniteRectEv
libdde6.so:_ZN9CDDE_BaseC1Ev
libdde6.so:_ZN9CDDE_BaseC2Ev
libdde6.so:_ZN9CDDE_BaseD0Ev
libdde6.so:_ZN9CDDE_BaseD1Ev
libdde6.so:_ZN9CDDE_BaseD2Ev
libdde6.so:_ZN9CLabeling11LabelingRanEPPSt6vectorI12TImgRectPlusIjESaIS2_EES6_bjPK8TImgRectIjE
libdde6.so:_ZN9CLabeling16LabelingRanNoiseERSt6vectorI12TImgRectPlusIjESaIS2_EEbjPK8TImgRectIjE
libdde6.so:_ZN9CLabeling16LocalLabelingRanER10CFramePackRK8TImgRectIjE
libdde6.so:_ZN9CLabeling19RanToFrame_8ConnectER10CFramePackR8CRunListS3_j
libdde6.so:_ZN9CLabelingC1EjjjPKh
libdde6.so:_ZN9CLabelingC2EjjjPKh
libdde6.so:_ZN9CLabelingD0Ev
libdde6.so:_ZN9CLabelingD1Ev
libdde6.so:_ZN9CLabelingD2Ev
libdde6.so:_ZN9CProperty13getTrimStringERKSsPKc
libdde6.so:_ZN9CProperty16printAllPropertyEv
libdde6.so:_ZN9CProperty4initERSi
libdde6.so:_ZN9CPropertyC1ESs
libdde6.so:_ZN9CPropertyC2ESs
libdde6.so:_ZN9CPropertyD0Ev
libdde6.so:_ZN9CPropertyD1Ev
libdde6.so:_ZN9CPropertyD2Ev
libdde6.so:_ZNK11CDDE_HDbin225ApplyPaperCreaseReductionEPhPK13DDEImgSetting
libdde6.so:_ZThn472_N10CDDE_HDbinD0Ev
libdde6.so:_ZThn472_N10CDDE_HDbinD1Ev
libdde6.so:_ZThn472_N7CDDE_CFD0Ev
libdde6.so:_ZThn472_N7CDDE_CFD1Ev
libdde6.so:_ZThn472_N8CDDE_AASD0Ev
libdde6.so:_ZThn472_N8CDDE_AASD1Ev
libdde6.so:__bss_start
libdde6.so:_edata
libdde6.so:_end
libdde6.so:_fini
libdde6.so:_init
libesci-interpreter-perfection-v330.so.0:
libesci-interpreter-perfection-v330.so.0:_Z39libesci_interpreter_perfection_v330_129PFilE
libesci-interpreter-perfection-v330.so.0:_Z39libesci_interpreter_perfection_v330_350v
libesci-interpreter-perfection-v330.so.0:_Z39libesci_interpreter_perfection_v330_351v
libesci-interpreter-perfection-v330.so.0:_ZN38libesci_interpreter_perfection_v330_2138libesci_interpreter_perfection_v330_15EPhj
libesci-interpreter-perfection-v330.so.0:_ZN38libesci_interpreter_perfection_v330_2138libesci_interpreter_perfection_v330_16EPhj
libesci-interpreter-perfection-v330.so.0:_ZN38libesci_interpreter_perfection_v330_21C1Ev
libesci-interpreter-perfection-v330.so.0:_ZN38libesci_interpreter_perfection_v330_21C2Ev
libesci-interpreter-perfection-v330.so.0:_ZN38libesci_interpreter_perfection_v330_21D0Ev
libesci-interpreter-perfection-v330.so.0:_ZN38libesci_interpreter_perfection_v330_21D1Ev
libesci-interpreter-perfection-v330.so.0:_ZN38libesci_interpreter_perfection_v330_21D2Ev
libesci-interpreter-perfection-v330.so.0:_ZN39libesci_interpreter_perfection_v330_13839libesci_interpreter_perfection_v330_195EPhj
libesci-interpreter-perfection-v330.so.0:_ZN39libesci_interpreter_perfection_v330_13839libesci_interpreter_perfection_v330_307EPhj
libesci-interpreter-perfection-v330.so.0:_ZN39libesci_interpreter_perfection_v330_13839libesci_interpreter_perfection_v330_308EjPhjjjj
libesci-interpreter-perfection-v330.so.0:_ZN39libesci_interpreter_perfection_v330_13839libesci_interpreter_perfection_v330_309EPKc
libesci-interpreter-perfection-v330.so.0:_ZN39libesci_interpreter_perfection_v330_13839libesci_interpreter_perfection_v330_309EPdjPc
libesci-interpreter-perfection-v330.so.0:_ZN39libesci_interpreter_perfection_v330_13839libesci_interpreter_perfection_v330_309EPhjPc
libesci-interpreter-perfection-v330.so.0:_ZN39libesci_interpreter_perfection_v330_13839libesci_interpreter_perfection_v330_309EPjjPc
libesci-interpreter-perfection-v330.so.0:_ZN39libesci_interpreter_perfection_v330_13839libesci_interpreter_perfection_v330_309EPtjPc
libesci-interpreter-perfection-v330.so.0:_ZN39libesci_interpreter_perfection_v330_13839libesci_interpreter_perfection_v330_309EdPc
libesci-interpreter-perfection-v330.so.0:_ZN39libesci_interpreter_perfection_v330_13839libesci_interpreter_perfection_v330_309EhPKc
libesci-interpreter-perfection-v330.so.0:_ZN39libesci_interpreter_perfection_v330_13839libesci_interpreter_perfection_v330_309EjPc
libesci-interpreter-perfection-v330.so.0:_ZN39libesci_interpreter_perfection_v330_13839libesci_interpreter_perfection_v330_309EsPc
libesci-interpreter-perfection-v330.so.0:_ZN39libesci_interpreter_perfection_v330_13839libesci_interpreter_perfection_v330_309EtPc
libesci-interpreter-perfection-v330.so.0:_ZN39libesci_interpreter_perfection_v330_13839libesci_interpreter_perfection_v330_310EhPhjjjj
libesci-interpreter-perfection-v330.so.0:_ZN39libesci_interpreter_perfection_v330_13839libesci_interpreter_perfection_v330_311EPhjPc
libesci-interpreter-perfection-v330.so.0:_ZN39libesci_interpreter_perfection_v330_13839libesci_interpreter_perfection_v330_312EhPhjj
libesci-interpreter-perfection-v330.so.0:_ZN39libesci_interpreter_perfection_v330_138C1Ev
libesci-interpreter-perfection-v330.so.0:_ZN39libesci_interpreter_perfection_v330_138C2Ev
libesci-interpreter-perfection-v330.so.0:_ZN39libesci_interpreter_perfection_v330_138D1Ev
libesci-interpreter-perfection-v330.so.0:_ZN39libesci_interpreter_perfection_v330_138D2Ev
libesci-interpreter-perfection-v330.so.0:_ZN39libesci_interpreter_perfection_v330_32837libesci_interpreter_perfection_v330_5Ev
libesci-interpreter-perfection-v330.so.0:_ZN39libesci_interpreter_perfection_v330_32837libesci_interpreter_perfection_v330_6EPhPtjt
libesci-interpreter-perfection-v330.so.0:_ZN39libesci_interpreter_perfection_v330_32837libesci_interpreter_perfection_v330_7EPtPjjj
libesci-interpreter-perfection-v330.so.0:_ZN39libesci_interpreter_perfection_v330_32837libesci_interpreter_perfection_v330_9EjhPhS0_
libesci-interpreter-perfection-v330.so.0:_ZN39libesci_interpreter_perfection_v330_32838libesci_interpreter_perfection_v330_10E39libesci_interpreter_perfection_v330_373
libesci-interpreter-perfection-v330.so.0:_ZN39libesci_interpreter_perfection_v330_32838libesci_interpreter_perfection_v330_12E39libesci_interpreter_perfection_v330_373
libesci-interpreter-perfection-v330.so.0:_ZN39libesci_interpreter_perfection_v330_32838libesci_interpreter_perfection_v330_13EjPth
libesci-interpreter-perfection-v330.so.0:_ZN39libesci_interpreter_perfection_v330_32838libesci_interpreter_perfection_v330_14E39libesci_interpreter_perfection_v330_373
libesci-interpreter-perfection-v330.so.0:_ZN39libesci_interpreter_perfection_v330_32838libesci_interpreter_perfection_v330_20Ejh
libesci-interpreter-perfection-v330.so.0:_ZN39libesci_interpreter_perfection_v330_32838libesci_interpreter_perfection_v330_22E39libesci_interpreter_perfection_v330_373
libesci-interpreter-perfection-v330.so.0:_ZN39libesci_interpreter_perfection_v330_32838libesci_interpreter_perfection_v330_23EPhjj
libesci-interpreter-perfection-v330.so.0:_ZN39libesci_interpreter_perfection_v330_32838libesci_interpreter_perfection_v330_24Et
libesci-interpreter-perfection-v330.so.0:_ZN39libesci_interpreter_perfection_v330_32838libesci_interpreter_perfection_v330_25Ehjti
libesci-interpreter-perfection-v330.so.0:_ZN39libesci_interpreter_perfection_v330_32838libesci_interpreter_perfection_v330_26EjhhhPtih
libesci-interpreter-perfection-v330.so.0:_ZN39libesci_interpreter_perfection_v330_32838libesci_interpreter_perfection_v330_27EjhhhPtih
libesci-interpreter-perfection-v330.so.0:_ZN39libesci_interpreter_perfection_v330_32838libesci_interpreter_perfection_v330_28E39libesci_interpreter_perfection_v330_373
libesci-interpreter-perfection-v330.so.0:_ZN39libesci_interpreter_perfection_v330_32838libesci_interpreter_perfection_v330_29E39libesci_interpreter_perfection_v330_373j
libesci-interpreter-perfection-v330.so.0:_ZN39libesci_interpreter_perfection_v330_32838libesci_interpreter_perfection_v330_30EP39libesci_interpreter_perfection_v330_373
libesci-interpreter-perfection-v330.so.0:_ZN39libesci_interpreter_perfection_v330_32838libesci_interpreter_perfection_v330_31Ejjjtj
libesci-interpreter-perfection-v330.so.0:_ZN39libesci_interpreter_perfection_v330_32838libesci_interpreter_perfection_v330_32Ei
libesci-interpreter-perfection-v330.so.0:_ZN39libesci_interpreter_perfection_v330_32838libesci_interpreter_perfection_v330_33Eh
libesci-interpreter-perfection-v330.so.0:_ZN39libesci_interpreter_perfection_v330_32838libesci_interpreter_perfection_v330_34Eh
libesci-interpreter-perfection-v330.so.0:_ZN39libesci_interpreter_perfection_v330_32838libesci_interpreter_perfection_v330_35E39libesci_interpreter_perfection_v330_373
libesci-interpreter-perfection-v330.so.0:_ZN39libesci_interpreter_perfection_v330_32838libesci_interpreter_perfection_v330_36EiPit
libesci-interpreter-perfection-v330.so.0:_ZN39libesci_interpreter_perfection_v330_32838libesci_interpreter_perfection_v330_37EPhjjjj
libesci-interpreter-perfection-v330.so.0:_ZN39libesci_interpreter_perfection_v330_32838libesci_interpreter_perfection_v330_38Eh
libesci-interpreter-perfection-v330.so.0:_ZN39libesci_interpreter_perfection_v330_32838libesci_interpreter_perfection_v330_41EPhj
libesci-interpreter-perfection-v330.so.0:_ZN39libesci_interpreter_perfection_v330_32838libesci_interpreter_perfection_v330_42EPhj
libesci-interpreter-perfection-v330.so.0:_ZN39libesci_interpreter_perfection_v330_32838libesci_interpreter_perfection_v330_43Eih
libesci-interpreter-perfection-v330.so.0:_ZN39libesci_interpreter_perfection_v330_32838libesci_interpreter_perfection_v330_44EPht
libesci-interpreter-perfection-v330.so.0:_ZN39libesci_interpreter_perfection_v330_32838libesci_interpreter_perfection_v330_45EhjjPh
libesci-interpreter-perfection-v330.so.0:_ZN39libesci_interpreter_perfection_v330_32838libesci_interpreter_perfection_v330_46EhjjPj
libesci-interpreter-perfection-v330.so.0:_ZN39libesci_interpreter_perfection_v330_32838libesci_interpreter_perfection_v330_47EhjjPt
libesci-interpreter-perfection-v330.so.0:_ZN39libesci_interpreter_perfection_v330_32838libesci_interpreter_perfection_v330_49EPh
libesci-interpreter-perfection-v330.so.0:_ZN39libesci_interpreter_perfection_v330_32838libesci_interpreter_perfection_v330_50EPh
libesci-interpreter-perfection-v330.so.0:_ZN39libesci_interpreter_perfection_v330_32838libesci_interpreter_perfection_v330_51EPhh
libesci-interpreter-perfection-v330.so.0:_ZN39libesci_interpreter_perfection_v330_32838libesci_interpreter_perfection_v330_52EPh
libesci-interpreter-perfection-v330.so.0:_ZN39libesci_interpreter_perfection_v330_32838libesci_interpreter_perfection_v330_53EPhh
libesci-interpreter-perfection-v330.so.0:_ZN39libesci_interpreter_perfection_v330_32838libesci_interpreter_perfection_v330_54EPhh
libesci-interpreter-perfection-v330.so.0:_ZN39libesci_interpreter_perfection_v330_32838libesci_interpreter_perfection_v330_55EPhh
libesci-interpreter-perfection-v330.so.0:_ZN39libesci_interpreter_perfection_v330_32838libesci_interpreter_perfection_v330_56EPh
libesci-interpreter-perfection-v330.so.0:_ZN39libesci_interpreter_perfection_v330_32838libesci_interpreter_perfection_v330_57EPh
libesci-interpreter-perfection-v330.so.0:_ZN39libesci_interpreter_perfection_v330_32838libesci_interpreter_perfection_v330_58EPh
libesci-interpreter-perfection-v330.so.0:_ZN39libesci_interpreter_perfection_v330_32838libesci_interpreter_perfection_v330_59EPh
libesci-interpreter-perfection-v330.so.0:_ZN39libesci_interpreter_perfection_v330_32838libesci_interpreter_perfection_v330_60EPh
libesci-interpreter-perfection-v330.so.0:_ZN39libesci_interpreter_perfection_v330_32838libesci_interpreter_perfection_v330_61EPh
libesci-interpreter-perfection-v330.so.0:_ZN39libesci_interpreter_perfection_v330_32838libesci_interpreter_perfection_v330_62EPh
libesci-interpreter-perfection-v330.so.0:_ZN39libesci_interpreter_perfection_v330_32838libesci_interpreter_perfection_v330_63EPh
libesci-interpreter-perfection-v330.so.0:_ZN39libesci_interpreter_perfection_v330_32838libesci_interpreter_perfection_v330_66EPhh
libesci-interpreter-perfection-v330.so.0:_ZN39libesci_interpreter_perfection_v330_32838libesci_interpreter_perfection_v330_67EPh
libesci-interpreter-perfection-v330.so.0:_ZN39libesci_interpreter_perfection_v330_32838libesci_interpreter_perfection_v330_70EPh
libesci-interpreter-perfection-v330.so.0:_ZN39libesci_interpreter_perfection_v330_32838libesci_interpreter_perfection_v330_71EPh
libesci-interpreter-perfection-v330.so.0:_ZN39libesci_interpreter_perfection_v330_32838libesci_interpreter_perfection_v330_72EPhh
libesci-interpreter-perfection-v330.so.0:_ZN39libesci_interpreter_perfection_v330_32838libesci_interpreter_perfection_v330_73Ev
libesci-interpreter-perfection-v330.so.0:_ZN39libesci_interpreter_perfection_v330_32838libesci_interpreter_perfection_v330_75EPh
libesci-interpreter-perfection-v330.so.0:_ZN39libesci_interpreter_perfection_v330_32838libesci_interpreter_perfection_v330_76Ev
libesci-interpreter-perfection-v330.so.0:_ZN39libesci_interpreter_perfection_v330_32838libesci_interpreter_perfection_v330_77EPh
libesci-interpreter-perfection-v330.so.0:_ZN39libesci_interpreter_perfection_v330_32838libesci_interpreter_perfection_v330_78EPhh
libesci-interpreter-perfection-v330.so.0:_ZN39libesci_interpreter_perfection_v330_32838libesci_interpreter_perfection_v330_79EPh
libesci-interpreter-perfection-v330.so.0:_ZN39libesci_interpreter_perfection_v330_32838libesci_interpreter_perfection_v330_80EPh
libesci-interpreter-perfection-v330.so.0:_ZN39libesci_interpreter_perfection_v330_32838libesci_interpreter_perfection_v330_81EPh
libesci-interpreter-perfection-v330.so.0:_ZN39libesci_interpreter_perfection_v330_32838libesci_interpreter_perfection_v330_82EPh
libesci-interpreter-perfection-v330.so.0:_ZN39libesci_interpreter_perfection_v330_32838libesci_interpreter_perfection_v330_83EPhh
libesci-interpreter-perfection-v330.so.0:_ZN39libesci_interpreter_perfection_v330_32838libesci_interpreter_perfection_v330_84EPhh
libesci-interpreter-perfection-v330.so.0:_ZN39libesci_interpreter_perfection_v330_32838libesci_interpreter_perfection_v330_85EPh
libesci-interpreter-perfection-v330.so.0:_ZN39libesci_interpreter_perfection_v330_32838libesci_interpreter_perfection_v330_86EPh
libesci-interpreter-perfection-v330.so.0:_ZN39libesci_interpreter_perfection_v330_32838libesci_interpreter_perfection_v330_87EPhj
libesci-interpreter-perfection-v330.so.0:_ZN39libesci_interpreter_perfection_v330_32838libesci_interpreter_perfection_v330_88EPh
libesci-interpreter-perfection-v330.so.0:_ZN39libesci_interpreter_perfection_v330_32838libesci_interpreter_perfection_v330_89Ev
libesci-interpreter-perfection-v330.so.0:_ZN39libesci_interpreter_perfection_v330_32838libesci_interpreter_perfection_v330_90EPh
libesci-interpreter-perfection-v330.so.0:_ZN39libesci_interpreter_perfection_v330_32838libesci_interpreter_perfection_v330_92EPh
libesci-interpreter-perfection-v330.so.0:_ZN39libesci_interpreter_perfection_v330_32838libesci_interpreter_perfection_v330_93E39libesci_interpreter_perfection_v330_373
libesci-interpreter-perfection-v330.so.0:_ZN39libesci_interpreter_perfection_v330_32838libesci_interpreter_perfection_v330_94Ev
libesci-interpreter-perfection-v330.so.0:_ZN39libesci_interpreter_perfection_v330_32838libesci_interpreter_perfection_v330_95Ev
libesci-interpreter-perfection-v330.so.0:_ZN39libesci_interpreter_perfection_v330_32838libesci_interpreter_perfection_v330_96EPh
libesci-interpreter-perfection-v330.so.0:_ZN39libesci_interpreter_perfection_v330_32838libesci_interpreter_perfection_v330_97EPhh
libesci-interpreter-perfection-v330.so.0:_ZN39libesci_interpreter_perfection_v330_32838libesci_interpreter_perfection_v330_98EPh
libesci-interpreter-perfection-v330.so.0:_ZN39libesci_interpreter_perfection_v330_32838libesci_interpreter_perfection_v330_99EPh
libesci-interpreter-perfection-v330.so.0:_ZN39libesci_interpreter_perfection_v330_32839libesci_interpreter_perfection_v330_100EPh
libesci-interpreter-perfection-v330.so.0:_ZN39libesci_interpreter_perfection_v330_32839libesci_interpreter_perfection_v330_101Eh
libesci-interpreter-perfection-v330.so.0:_ZN39libesci_interpreter_perfection_v330_32839libesci_interpreter_perfection_v330_106EPh
libesci-interpreter-perfection-v330.so.0:_ZN39libesci_interpreter_perfection_v330_32839libesci_interpreter_perfection_v330_107Eh
libesci-interpreter-perfection-v330.so.0:_ZN39libesci_interpreter_perfection_v330_32839libesci_interpreter_perfection_v330_109EPh
libesci-interpreter-perfection-v330.so.0:_ZN39libesci_interpreter_perfection_v330_32839libesci_interpreter_perfection_v330_110EPh
libesci-interpreter-perfection-v330.so.0:_ZN39libesci_interpreter_perfection_v330_32839libesci_interpreter_perfection_v330_112Ev
libesci-interpreter-perfection-v330.so.0:_ZN39libesci_interpreter_perfection_v330_32839libesci_interpreter_perfection_v330_113Ev
libesci-interpreter-perfection-v330.so.0:_ZN39libesci_interpreter_perfection_v330_32839libesci_interpreter_perfection_v330_114Ev
libesci-interpreter-perfection-v330.so.0:_ZN39libesci_interpreter_perfection_v330_32839libesci_interpreter_perfection_v330_115Eh
libesci-interpreter-perfection-v330.so.0:_ZN39libesci_interpreter_perfection_v330_32839libesci_interpreter_perfection_v330_131EPtjjjjjjhhhhh
libesci-interpreter-perfection-v330.so.0:_ZN39libesci_interpreter_perfection_v330_32839libesci_interpreter_perfection_v330_132EPhjjjjjjhhhhh
libesci-interpreter-perfection-v330.so.0:_ZN39libesci_interpreter_perfection_v330_32839libesci_interpreter_perfection_v330_134Ev
libesci-interpreter-perfection-v330.so.0:_ZN39libesci_interpreter_perfection_v330_32839libesci_interpreter_perfection_v330_135E39libesci_interpreter_perfection_v330_373
libesci-interpreter-perfection-v330.so.0:_ZN39libesci_interpreter_perfection_v330_32839libesci_interpreter_perfection_v330_136Ei
libesci-interpreter-perfection-v330.so.0:_ZN39libesci_interpreter_perfection_v330_32839libesci_interpreter_perfection_v330_139Eh
libesci-interpreter-perfection-v330.so.0:_ZN39libesci_interpreter_perfection_v330_32839libesci_interpreter_perfection_v330_140E39libesci_interpreter_perfection_v330_373
libesci-interpreter-perfection-v330.so.0:_ZN39libesci_interpreter_perfection_v330_32839libesci_interpreter_perfection_v330_141EhjiPhS0_h
libesci-interpreter-perfection-v330.so.0:_ZN39libesci_interpreter_perfection_v330_32839libesci_interpreter_perfection_v330_142EhjiPhS0_h
libesci-interpreter-perfection-v330.so.0:_ZN39libesci_interpreter_perfection_v330_32839libesci_interpreter_perfection_v330_143EhjiPhS0_h
libesci-interpreter-perfection-v330.so.0:_ZN39libesci_interpreter_perfection_v330_32839libesci_interpreter_perfection_v330_144E39libesci_interpreter_perfection_v330_373Ph
libesci-interpreter-perfection-v330.so.0:_ZN39libesci_interpreter_perfection_v330_32839libesci_interpreter_perfection_v330_145Eh
libesci-interpreter-perfection-v330.so.0:_ZN39libesci_interpreter_perfection_v330_32839libesci_interpreter_perfection_v330_146Eh
libesci-interpreter-perfection-v330.so.0:_ZN39libesci_interpreter_perfection_v330_32839libesci_interpreter_perfection_v330_147EhjiPhh
libesci-interpreter-perfection-v330.so.0:_ZN39libesci_interpreter_perfection_v330_32839libesci_interpreter_perfection_v330_148EhjiPhh
libesci-interpreter-perfection-v330.so.0:_ZN39libesci_interpreter_perfection_v330_32839libesci_interpreter_perfection_v330_149EhjiPhh
libesci-interpreter-perfection-v330.so.0:_ZN39libesci_interpreter_perfection_v330_32839libesci_interpreter_perfection_v330_151Eh
libesci-interpreter-perfection-v330.so.0:_ZN39libesci_interpreter_perfection_v330_32839libesci_interpreter_perfection_v330_152E39libesci_interpreter_perfection_v330_373
libesci-interpreter-perfection-v330.so.0:_ZN39libesci_interpreter_perfection_v330_32839libesci_interpreter_perfection_v330_153EhjiPhS0_h
libesci-interpreter-perfection-v330.so.0:_ZN39libesci_interpreter_perfection_v330_32839libesci_interpreter_perfection_v330_154EhjiPhS0_h
libesci-interpreter-perfection-v330.so.0:_ZN39libesci_interpreter_perfection_v330_32839libesci_interpreter_perfection_v330_155EhjiPhS0_h
libesci-interpreter-perfection-v330.so.0:_ZN39libesci_interpreter_perfection_v330_32839libesci_interpreter_perfection_v330_156E39libesci_interpreter_perfection_v330_373Ph
libesci-interpreter-perfection-v330.so.0:_ZN39libesci_interpreter_perfection_v330_32839libesci_interpreter_perfection_v330_157Eh
libesci-interpreter-perfection-v330.so.0:_ZN39libesci_interpreter_perfection_v330_32839libesci_interpreter_perfection_v330_158Eh
libesci-interpreter-perfection-v330.so.0:_ZN39libesci_interpreter_perfection_v330_32839libesci_interpreter_perfection_v330_159EhjiPhh
libesci-interpreter-perfection-v330.so.0:_ZN39libesci_interpreter_perfection_v330_32839libesci_interpreter_perfection_v330_160EhjiPhh
libesci-interpreter-perfection-v330.so.0:_ZN39libesci_interpreter_perfection_v330_32839libesci_interpreter_perfection_v330_161EhjiPhh
libesci-interpreter-perfection-v330.so.0:_ZN39libesci_interpreter_perfection_v330_32839libesci_interpreter_perfection_v330_162EhjiPhhh
libesci-interpreter-perfection-v330.so.0:_ZN39libesci_interpreter_perfection_v330_32839libesci_interpreter_perfection_v330_167EPhS0_S0_
libesci-interpreter-perfection-v330.so.0:_ZN39libesci_interpreter_perfection_v330_32839libesci_interpreter_perfection_v330_168EPhjt
libesci-interpreter-perfection-v330.so.0:_ZN39libesci_interpreter_perfection_v330_32839libesci_interpreter_perfection_v330_169EPhhi
libesci-interpreter-perfection-v330.so.0:_ZN39libesci_interpreter_perfection_v330_32839libesci_interpreter_perfection_v330_170EPPhi
libesci-interpreter-perfection-v330.so.0:_ZN39libesci_interpreter_perfection_v330_32839libesci_interpreter_perfection_v330_172Ev
libesci-interpreter-perfection-v330.so.0:_ZN39libesci_interpreter_perfection_v330_32839libesci_interpreter_perfection_v330_173EPhjj
libesci-interpreter-perfection-v330.so.0:_ZN39libesci_interpreter_perfection_v330_32839libesci_interpreter_perfection_v330_174E39libesci_interpreter_perfection_v330_373
libesci-interpreter-perfection-v330.so.0:_ZN39libesci_interpreter_perfection_v330_32839libesci_interpreter_perfection_v330_175Ev
libesci-interpreter-perfection-v330.so.0:_ZN39libesci_interpreter_perfection_v330_32839libesci_interpreter_perfection_v330_179EPhj
libesci-interpreter-perfection-v330.so.0:_ZN39libesci_interpreter_perfection_v330_32839libesci_interpreter_perfection_v330_180EPtS0_j
libesci-interpreter-perfection-v330.so.0:_ZN39libesci_interpreter_perfection_v330_32839libesci_interpreter_perfection_v330_181EPhj
libesci-interpreter-perfection-v330.so.0:_ZN39libesci_interpreter_perfection_v330_32839libesci_interpreter_perfection_v330_182EPhj39libesci_interpreter_perfection_v330_373
libesci-interpreter-perfection-v330.so.0:_ZN39libesci_interpreter_perfection_v330_32839libesci_interpreter_perfection_v330_183EPhS0_j
libesci-interpreter-perfection-v330.so.0:_ZN39libesci_interpreter_perfection_v330_32839libesci_interpreter_perfection_v330_184EPhj
libesci-interpreter-perfection-v330.so.0:_ZN39libesci_interpreter_perfection_v330_32839libesci_interpreter_perfection_v330_185EPhj
libesci-interpreter-perfection-v330.so.0:_ZN39libesci_interpreter_perfection_v330_32839libesci_interpreter_perfection_v330_186EPhjhh
libesci-interpreter-perfection-v330.so.0:_ZN39libesci_interpreter_perfection_v330_32839libesci_interpreter_perfection_v330_187E39libesci_interpreter_perfection_v330_373jhPhS1_
libesci-interpreter-perfection-v330.so.0:_ZN39libesci_interpreter_perfection_v330_32839libesci_interpreter_perfection_v330_189E39libesci_interpreter_perfection_v330_373jhPh
libesci-interpreter-perfection-v330.so.0:_ZN39libesci_interpreter_perfection_v330_32839libesci_interpreter_perfection_v330_190E39libesci_interpreter_perfection_v330_373jhPh
libesci-interpreter-perfection-v330.so.0:_ZN39libesci_interpreter_perfection_v330_32839libesci_interpreter_perfection_v330_191EPi
libesci-interpreter-perfection-v330.so.0:_ZN39libesci_interpreter_perfection_v330_32839libesci_interpreter_perfection_v330_193EPhj
libesci-interpreter-perfection-v330.so.0:_ZN39libesci_interpreter_perfection_v330_32839libesci_interpreter_perfection_v330_196EPhj
libesci-interpreter-perfection-v330.so.0:_ZN39libesci_interpreter_perfection_v330_32839libesci_interpreter_perfection_v330_197E39libesci_interpreter_perfection_v330_373Ph
libesci-interpreter-perfection-v330.so.0:_ZN39libesci_interpreter_perfection_v330_32839libesci_interpreter_perfection_v330_198EPh
libesci-interpreter-perfection-v330.so.0:_ZN39libesci_interpreter_perfection_v330_32839libesci_interpreter_perfection_v330_199EPPhji
libesci-interpreter-perfection-v330.so.0:_ZN39libesci_interpreter_perfection_v330_32839libesci_interpreter_perfection_v330_199EPhjjj
libesci-interpreter-perfection-v330.so.0:_ZN39libesci_interpreter_perfection_v330_32839libesci_interpreter_perfection_v330_200EPh
libesci-interpreter-perfection-v330.so.0:_ZN39libesci_interpreter_perfection_v330_32839libesci_interpreter_perfection_v330_201EPh
libesci-interpreter-perfection-v330.so.0:_ZN39libesci_interpreter_perfection_v330_32839libesci_interpreter_perfection_v330_202Ev
libesci-interpreter-perfection-v330.so.0:_ZN39libesci_interpreter_perfection_v330_32839libesci_interpreter_perfection_v330_203Ev
libesci-interpreter-perfection-v330.so.0:_ZN39libesci_interpreter_perfection_v330_32839libesci_interpreter_perfection_v330_204EjPh
libesci-interpreter-perfection-v330.so.0:_ZN39libesci_interpreter_perfection_v330_32839libesci_interpreter_perfection_v330_205EjPh
libesci-interpreter-perfection-v330.so.0:_ZN39libesci_interpreter_perfection_v330_32839libesci_interpreter_perfection_v330_206EjPh
libesci-interpreter-perfection-v330.so.0:_ZN39libesci_interpreter_perfection_v330_32839libesci_interpreter_perfection_v330_207Ev
libesci-interpreter-perfection-v330.so.0:_ZN39libesci_interpreter_perfection_v330_32839libesci_interpreter_perfection_v330_208Ev
libesci-interpreter-perfection-v330.so.0:_ZN39libesci_interpreter_perfection_v330_32839libesci_interpreter_perfection_v330_214E39libesci_interpreter_perfection_v330_373Ph
libesci-interpreter-perfection-v330.so.0:_ZN39libesci_interpreter_perfection_v330_32839libesci_interpreter_perfection_v330_215E39libesci_interpreter_perfection_v330_368
libesci-interpreter-perfection-v330.so.0:_ZN39libesci_interpreter_perfection_v330_32839libesci_interpreter_perfection_v330_218EPhj
libesci-interpreter-perfection-v330.so.0:_ZN39libesci_interpreter_perfection_v330_32839libesci_interpreter_perfection_v330_219Ehi
libesci-interpreter-perfection-v330.so.0:_ZN39libesci_interpreter_perfection_v330_32839libesci_interpreter_perfection_v330_220Ehi
libesci-interpreter-perfection-v330.so.0:_ZN39libesci_interpreter_perfection_v330_32839libesci_interpreter_perfection_v330_221Ev
libesci-interpreter-perfection-v330.so.0:_ZN39libesci_interpreter_perfection_v330_32839libesci_interpreter_perfection_v330_222E39libesci_interpreter_perfection_v330_373
libesci-interpreter-perfection-v330.so.0:_ZN39libesci_interpreter_perfection_v330_32839libesci_interpreter_perfection_v330_223Eih
libesci-interpreter-perfection-v330.so.0:_ZN39libesci_interpreter_perfection_v330_32839libesci_interpreter_perfection_v330_224EhPt
libesci-interpreter-perfection-v330.so.0:_ZN39libesci_interpreter_perfection_v330_32839libesci_interpreter_perfection_v330_225Ev
libesci-interpreter-perfection-v330.so.0:_ZN39libesci_interpreter_perfection_v330_32839libesci_interpreter_perfection_v330_226E39libesci_interpreter_perfection_v330_373
libesci-interpreter-perfection-v330.so.0:_ZN39libesci_interpreter_perfection_v330_32839libesci_interpreter_perfection_v330_227Ev
libesci-interpreter-perfection-v330.so.0:_ZN39libesci_interpreter_perfection_v330_32839libesci_interpreter_perfection_v330_228Ev
libesci-interpreter-perfection-v330.so.0:_ZN39libesci_interpreter_perfection_v330_32839libesci_interpreter_perfection_v330_229Ev
libesci-interpreter-perfection-v330.so.0:_ZN39libesci_interpreter_perfection_v330_32839libesci_interpreter_perfection_v330_230EjPt
libesci-interpreter-perfection-v330.so.0:_ZN39libesci_interpreter_perfection_v330_32839libesci_interpreter_perfection_v330_231E39libesci_interpreter_perfection_v330_373
libesci-interpreter-perfection-v330.so.0:_ZN39libesci_interpreter_perfection_v330_32839libesci_interpreter_perfection_v330_232Eh
libesci-interpreter-perfection-v330.so.0:_ZN39libesci_interpreter_perfection_v330_32839libesci_interpreter_perfection_v330_233Ejj
libesci-interpreter-perfection-v330.so.0:_ZN39libesci_interpreter_perfection_v330_32839libesci_interpreter_perfection_v330_234Eh
libesci-interpreter-perfection-v330.so.0:_ZN39libesci_interpreter_perfection_v330_32839libesci_interpreter_perfection_v330_235E39libesci_interpreter_perfection_v330_373
libesci-interpreter-perfection-v330.so.0:_ZN39libesci_interpreter_perfection_v330_32839libesci_interpreter_perfection_v330_236E39libesci_interpreter_perfection_v330_373
libesci-interpreter-perfection-v330.so.0:_ZN39libesci_interpreter_perfection_v330_32839libesci_interpreter_perfection_v330_237EP39libesci_interpreter_perfection_v330_373
libesci-interpreter-perfection-v330.so.0:_ZN39libesci_interpreter_perfection_v330_32839libesci_interpreter_perfection_v330_238E39libesci_interpreter_perfection_v330_373
libesci-interpreter-perfection-v330.so.0:_ZN39libesci_interpreter_perfection_v330_32839libesci_interpreter_perfection_v330_239Ejjjj
libesci-interpreter-perfection-v330.so.0:_ZN39libesci_interpreter_perfection_v330_32839libesci_interpreter_perfection_v330_240E39libesci_interpreter_perfection_v330_373
libesci-interpreter-perfection-v330.so.0:_ZN39libesci_interpreter_perfection_v330_32839libesci_interpreter_perfection_v330_241E39libesci_interpreter_perfection_v330_373PtPhh
libesci-interpreter-perfection-v330.so.0:_ZN39libesci_interpreter_perfection_v330_32839libesci_interpreter_perfection_v330_242E39libesci_interpreter_perfection_v330_373
libesci-interpreter-perfection-v330.so.0:_ZN39libesci_interpreter_perfection_v330_32839libesci_interpreter_perfection_v330_243E39libesci_interpreter_perfection_v330_373
libesci-interpreter-perfection-v330.so.0:_ZN39libesci_interpreter_perfection_v330_32839libesci_interpreter_perfection_v330_244EP39libesci_interpreter_perfection_v330_373
libesci-interpreter-perfection-v330.so.0:_ZN39libesci_interpreter_perfection_v330_32839libesci_interpreter_perfection_v330_245Ev
libesci-interpreter-perfection-v330.so.0:_ZN39libesci_interpreter_perfection_v330_32839libesci_interpreter_perfection_v330_246E39libesci_interpreter_perfection_v330_373
libesci-interpreter-perfection-v330.so.0:_ZN39libesci_interpreter_perfection_v330_32839libesci_interpreter_perfection_v330_247E39libesci_interpreter_perfection_v330_373
libesci-interpreter-perfection-v330.so.0:_ZN39libesci_interpreter_perfection_v330_32839libesci_interpreter_perfection_v330_248E39libesci_interpreter_perfection_v330_373
libesci-interpreter-perfection-v330.so.0:_ZN39libesci_interpreter_perfection_v330_32839libesci_interpreter_perfection_v330_249E39libesci_interpreter_perfection_v330_373h
libesci-interpreter-perfection-v330.so.0:_ZN39libesci_interpreter_perfection_v330_32839libesci_interpreter_perfection_v330_251E39libesci_interpreter_perfection_v330_373
libesci-interpreter-perfection-v330.so.0:_ZN39libesci_interpreter_perfection_v330_32839libesci_interpreter_perfection_v330_252E39libesci_interpreter_perfection_v330_373
libesci-interpreter-perfection-v330.so.0:_ZN39libesci_interpreter_perfection_v330_32839libesci_interpreter_perfection_v330_253E39libesci_interpreter_perfection_v330_373
libesci-interpreter-perfection-v330.so.0:_ZN39libesci_interpreter_perfection_v330_32839libesci_interpreter_perfection_v330_254E39libesci_interpreter_perfection_v330_373
libesci-interpreter-perfection-v330.so.0:_ZN39libesci_interpreter_perfection_v330_32839libesci_interpreter_perfection_v330_255E39libesci_interpreter_perfection_v330_373
libesci-interpreter-perfection-v330.so.0:_ZN39libesci_interpreter_perfection_v330_32839libesci_interpreter_perfection_v330_256E39libesci_interpreter_perfection_v330_373
libesci-interpreter-perfection-v330.so.0:_ZN39libesci_interpreter_perfection_v330_32839libesci_interpreter_perfection_v330_261EPhj
libesci-interpreter-perfection-v330.so.0:_ZN39libesci_interpreter_perfection_v330_32839libesci_interpreter_perfection_v330_262EPhj
libesci-interpreter-perfection-v330.so.0:_ZN39libesci_interpreter_perfection_v330_32839libesci_interpreter_perfection_v330_263EPhj
libesci-interpreter-perfection-v330.so.0:_ZN39libesci_interpreter_perfection_v330_32839libesci_interpreter_perfection_v330_264EPjPhj
libesci-interpreter-perfection-v330.so.0:_ZN39libesci_interpreter_perfection_v330_32839libesci_interpreter_perfection_v330_265EPhj
libesci-interpreter-perfection-v330.so.0:_ZN39libesci_interpreter_perfection_v330_32839libesci_interpreter_perfection_v330_266EPtPhj
libesci-interpreter-perfection-v330.so.0:_ZN39libesci_interpreter_perfection_v330_32839libesci_interpreter_perfection_v330_267E39libesci_interpreter_perfection_v330_373jhPhh
libesci-interpreter-perfection-v330.so.0:_ZN39libesci_interpreter_perfection_v330_32839libesci_interpreter_perfection_v330_268Ejh
libesci-interpreter-perfection-v330.so.0:_ZN39libesci_interpreter_perfection_v330_32839libesci_interpreter_perfection_v330_270EP39libesci_interpreter_perfection_v330_372j
libesci-interpreter-perfection-v330.so.0:_ZN39libesci_interpreter_perfection_v330_32839libesci_interpreter_perfection_v330_271Eh
libesci-interpreter-perfection-v330.so.0:_ZN39libesci_interpreter_perfection_v330_32839libesci_interpreter_perfection_v330_272E39libesci_interpreter_perfection_v330_373
libesci-interpreter-perfection-v330.so.0:_ZN39libesci_interpreter_perfection_v330_32839libesci_interpreter_perfection_v330_273E39libesci_interpreter_perfection_v330_373jj
libesci-interpreter-perfection-v330.so.0:_ZN39libesci_interpreter_perfection_v330_32839libesci_interpreter_perfection_v330_274EP39libesci_interpreter_perfection_v330_372j
libesci-interpreter-perfection-v330.so.0:_ZN39libesci_interpreter_perfection_v330_32839libesci_interpreter_perfection_v330_275EP39libesci_interpreter_perfection_v330_372j
libesci-interpreter-perfection-v330.so.0:_ZN39libesci_interpreter_perfection_v330_32839libesci_interpreter_perfection_v330_276EP39libesci_interpreter_perfection_v330_372jh
libesci-interpreter-perfection-v330.so.0:_ZN39libesci_interpreter_perfection_v330_32839libesci_interpreter_perfection_v330_277EP39libesci_interpreter_perfection_v330_372j
libesci-interpreter-perfection-v330.so.0:_ZN39libesci_interpreter_perfection_v330_32839libesci_interpreter_perfection_v330_278EP39libesci_interpreter_perfection_v330_372j
libesci-interpreter-perfection-v330.so.0:_ZN39libesci_interpreter_perfection_v330_32839libesci_interpreter_perfection_v330_279EP39libesci_interpreter_perfection_v330_372j
libesci-interpreter-perfection-v330.so.0:_ZN39libesci_interpreter_perfection_v330_32839libesci_interpreter_perfection_v330_280EP39libesci_interpreter_perfection_v330_372j
libesci-interpreter-perfection-v330.so.0:_ZN39libesci_interpreter_perfection_v330_32839libesci_interpreter_perfection_v330_281EP39libesci_interpreter_perfection_v330_372j
libesci-interpreter-perfection-v330.so.0:_ZN39libesci_interpreter_perfection_v330_32839libesci_interpreter_perfection_v330_282EP39libesci_interpreter_perfection_v330_372j
libesci-interpreter-perfection-v330.so.0:_ZN39libesci_interpreter_perfection_v330_32839libesci_interpreter_perfection_v330_283EPjjjj
libesci-interpreter-perfection-v330.so.0:_ZN39libesci_interpreter_perfection_v330_32839libesci_interpreter_perfection_v330_284Ev
libesci-interpreter-perfection-v330.so.0:_ZN39libesci_interpreter_perfection_v330_32839libesci_interpreter_perfection_v330_285Ev
libesci-interpreter-perfection-v330.so.0:_ZN39libesci_interpreter_perfection_v330_32839libesci_interpreter_perfection_v330_286Ev
libesci-interpreter-perfection-v330.so.0:_ZN39libesci_interpreter_perfection_v330_32839libesci_interpreter_perfection_v330_287Ev
libesci-interpreter-perfection-v330.so.0:_ZN39libesci_interpreter_perfection_v330_32839libesci_interpreter_perfection_v330_288E39libesci_interpreter_perfection_v330_373h39libesci_interpreter_perfection_v330_371jj
libesci-interpreter-perfection-v330.so.0:_ZN39libesci_interpreter_perfection_v330_32839libesci_interpreter_perfection_v330_289E39libesci_interpreter_perfection_v330_373
libesci-interpreter-perfection-v330.so.0:_ZN39libesci_interpreter_perfection_v330_32839libesci_interpreter_perfection_v330_290E39libesci_interpreter_perfection_v330_373
libesci-interpreter-perfection-v330.so.0:_ZN39libesci_interpreter_perfection_v330_32839libesci_interpreter_perfection_v330_291E39libesci_interpreter_perfection_v330_373
libesci-interpreter-perfection-v330.so.0:_ZN39libesci_interpreter_perfection_v330_32839libesci_interpreter_perfection_v330_292E39libesci_interpreter_perfection_v330_373
libesci-interpreter-perfection-v330.so.0:_ZN39libesci_interpreter_perfection_v330_32839libesci_interpreter_perfection_v330_293E39libesci_interpreter_perfection_v330_373
libesci-interpreter-perfection-v330.so.0:_ZN39libesci_interpreter_perfection_v330_32839libesci_interpreter_perfection_v330_294E39libesci_interpreter_perfection_v330_373
libesci-interpreter-perfection-v330.so.0:_ZN39libesci_interpreter_perfection_v330_32839libesci_interpreter_perfection_v330_295E39libesci_interpreter_perfection_v330_373h
libesci-interpreter-perfection-v330.so.0:_ZN39libesci_interpreter_perfection_v330_32839libesci_interpreter_perfection_v330_296E39libesci_interpreter_perfection_v330_373
libesci-interpreter-perfection-v330.so.0:_ZN39libesci_interpreter_perfection_v330_32839libesci_interpreter_perfection_v330_297E39libesci_interpreter_perfection_v330_373
libesci-interpreter-perfection-v330.so.0:_ZN39libesci_interpreter_perfection_v330_32839libesci_interpreter_perfection_v330_298Ev
libesci-interpreter-perfection-v330.so.0:_ZN39libesci_interpreter_perfection_v330_32839libesci_interpreter_perfection_v330_299Ev
libesci-interpreter-perfection-v330.so.0:_ZN39libesci_interpreter_perfection_v330_32839libesci_interpreter_perfection_v330_300Eh
libesci-interpreter-perfection-v330.so.0:_ZN39libesci_interpreter_perfection_v330_32839libesci_interpreter_perfection_v330_302Ev
libesci-interpreter-perfection-v330.so.0:_ZN39libesci_interpreter_perfection_v330_32839libesci_interpreter_perfection_v330_303Ev
libesci-interpreter-perfection-v330.so.0:_ZN39libesci_interpreter_perfection_v330_32839libesci_interpreter_perfection_v330_304EjjPh
libesci-interpreter-perfection-v330.so.0:_ZN39libesci_interpreter_perfection_v330_32839libesci_interpreter_perfection_v330_313Eh
libesci-interpreter-perfection-v330.so.0:_ZN39libesci_interpreter_perfection_v330_32839libesci_interpreter_perfection_v330_314Ejh
libesci-interpreter-perfection-v330.so.0:_ZN39libesci_interpreter_perfection_v330_32839libesci_interpreter_perfection_v330_315Ejj
libesci-interpreter-perfection-v330.so.0:_ZN39libesci_interpreter_perfection_v330_32839libesci_interpreter_perfection_v330_316Ejt
libesci-interpreter-perfection-v330.so.0:_ZN39libesci_interpreter_perfection_v330_32839libesci_interpreter_perfection_v330_329Eh
libesci-interpreter-perfection-v330.so.0:_ZN39libesci_interpreter_perfection_v330_32839libesci_interpreter_perfection_v330_330E39libesci_interpreter_perfection_v330_373
libesci-interpreter-perfection-v330.so.0:_ZN39libesci_interpreter_perfection_v330_32839libesci_interpreter_perfection_v330_331Ev
libesci-interpreter-perfection-v330.so.0:_ZN39libesci_interpreter_perfection_v330_32839libesci_interpreter_perfection_v330_332Ejjt
libesci-interpreter-perfection-v330.so.0:_ZN39libesci_interpreter_perfection_v330_32839libesci_interpreter_perfection_v330_338Eh
libesci-interpreter-perfection-v330.so.0:_ZN39libesci_interpreter_perfection_v330_32839libesci_interpreter_perfection_v330_352Ev
libesci-interpreter-perfection-v330.so.0:_ZN39libesci_interpreter_perfection_v330_32839libesci_interpreter_perfection_v330_353Ev
libesci-interpreter-perfection-v330.so.0:_ZN39libesci_interpreter_perfection_v330_32839libesci_interpreter_perfection_v330_359Eih
libesci-interpreter-perfection-v330.so.0:_ZN39libesci_interpreter_perfection_v330_32839libesci_interpreter_perfection_v330_360Eih
libesci-interpreter-perfection-v330.so.0:_ZN39libesci_interpreter_perfection_v330_32839libesci_interpreter_perfection_v330_362EPlS0_j
libesci-interpreter-perfection-v330.so.0:_ZN39libesci_interpreter_perfection_v330_32839libesci_interpreter_perfection_v330_364Eh
libesci-interpreter-perfection-v330.so.0:_ZN39libesci_interpreter_perfection_v330_32839libesci_interpreter_perfection_v330_365Ev
libesci-interpreter-perfection-v330.so.0:_ZN39libesci_interpreter_perfection_v330_32839libesci_interpreter_perfection_v330_366E39libesci_interpreter_perfection_v330_373
libesci-interpreter-perfection-v330.so.0:_ZN39libesci_interpreter_perfection_v330_32839libesci_interpreter_perfection_v330_375Ev
libesci-interpreter-perfection-v330.so.0:_ZN39libesci_interpreter_perfection_v330_32839libesci_interpreter_perfection_v330_376Ev
libesci-interpreter-perfection-v330.so.0:_ZN39libesci_interpreter_perfection_v330_32839libesci_interpreter_perfection_v330_377Ev
libesci-interpreter-perfection-v330.so.0:_ZN39libesci_interpreter_perfection_v330_32839libesci_interpreter_perfection_v330_378Ev
libesci-interpreter-perfection-v330.so.0:_ZN39libesci_interpreter_perfection_v330_328C1Ev
libesci-interpreter-perfection-v330.so.0:_ZN39libesci_interpreter_perfection_v330_328C2Ev
libesci-interpreter-perfection-v330.so.0:_ZN39libesci_interpreter_perfection_v330_328D1Ev
libesci-interpreter-perfection-v330.so.0:_ZN39libesci_interpreter_perfection_v330_328D2Ev
libesci-interpreter-perfection-v330.so.0:_ZN39libesci_interpreter_perfection_v330_34239libesci_interpreter_perfection_v330_336EPFiPviES2_PKc
libesci-interpreter-perfection-v330.so.0:_ZN39libesci_interpreter_perfection_v330_34239libesci_interpreter_perfection_v330_339EPFiPviEh
libesci-interpreter-perfection-v330.so.0:_ZN39libesci_interpreter_perfection_v330_34239libesci_interpreter_perfection_v330_348EPKc
libesci-interpreter-perfection-v330.so.0:_ZN39libesci_interpreter_perfection_v330_34239libesci_interpreter_perfection_v330_361EPFiPviES2_PKc
libesci-interpreter-perfection-v330.so.0:__bss_start
libesci-interpreter-perfection-v330.so.0:_edata
libesci-interpreter-perfection-v330.so.0:_end
libesci-interpreter-perfection-v330.so.0:_fini
libesci-interpreter-perfection-v330.so.0:_init
libesci-interpreter-perfection-v330.so.0:function_s_0
libesci-interpreter-perfection-v330.so.0:function_s_1
libesci-interpreter-perfection-v330.so.0:int_power_saving_mode
libesci-interpreter-perfection-v330.so.0:interpreter_ctor
libesci-interpreter-perfection-v330.so.0:interpreter_dtor
libesci-interpreter-perfection-v330.so.0:interpreter_reader
libesci-interpreter-perfection-v330.so.0:interpreter_writer
libesci-interpreter-perfection-v330.so.0:libesci_interpreter_perfection_v330_1
libesci-interpreter-perfection-v330.so.0:libesci_interpreter_perfection_v330_102
libesci-interpreter-perfection-v330.so.0:libesci_interpreter_perfection_v330_103
libesci-interpreter-perfection-v330.so.0:libesci_interpreter_perfection_v330_104
libesci-interpreter-perfection-v330.so.0:libesci_interpreter_perfection_v330_105
libesci-interpreter-perfection-v330.so.0:libesci_interpreter_perfection_v330_108
libesci-interpreter-perfection-v330.so.0:libesci_interpreter_perfection_v330_11
libesci-interpreter-perfection-v330.so.0:libesci_interpreter_perfection_v330_111
libesci-interpreter-perfection-v330.so.0:libesci_interpreter_perfection_v330_116
libesci-interpreter-perfection-v330.so.0:libesci_interpreter_perfection_v330_117
libesci-interpreter-perfection-v330.so.0:libesci_interpreter_perfection_v330_118
libesci-interpreter-perfection-v330.so.0:libesci_interpreter_perfection_v330_119
libesci-interpreter-perfection-v330.so.0:libesci_interpreter_perfection_v330_120
libesci-interpreter-perfection-v330.so.0:libesci_interpreter_perfection_v330_121
libesci-interpreter-perfection-v330.so.0:libesci_interpreter_perfection_v330_122
libesci-interpreter-perfection-v330.so.0:libesci_interpreter_perfection_v330_123
libesci-interpreter-perfection-v330.so.0:libesci_interpreter_perfection_v330_124
libesci-interpreter-perfection-v330.so.0:libesci_interpreter_perfection_v330_125
libesci-interpreter-perfection-v330.so.0:libesci_interpreter_perfection_v330_126
libesci-interpreter-perfection-v330.so.0:libesci_interpreter_perfection_v330_127
libesci-interpreter-perfection-v330.so.0:libesci_interpreter_perfection_v330_128
libesci-interpreter-perfection-v330.so.0:libesci_interpreter_perfection_v330_130
libesci-interpreter-perfection-v330.so.0:libesci_interpreter_perfection_v330_133
libesci-interpreter-perfection-v330.so.0:libesci_interpreter_perfection_v330_137
libesci-interpreter-perfection-v330.so.0:libesci_interpreter_perfection_v330_150
libesci-interpreter-perfection-v330.so.0:libesci_interpreter_perfection_v330_163
libesci-interpreter-perfection-v330.so.0:libesci_interpreter_perfection_v330_164
libesci-interpreter-perfection-v330.so.0:libesci_interpreter_perfection_v330_165
libesci-interpreter-perfection-v330.so.0:libesci_interpreter_perfection_v330_166
libesci-interpreter-perfection-v330.so.0:libesci_interpreter_perfection_v330_17
libesci-interpreter-perfection-v330.so.0:libesci_interpreter_perfection_v330_171
libesci-interpreter-perfection-v330.so.0:libesci_interpreter_perfection_v330_176
libesci-interpreter-perfection-v330.so.0:libesci_interpreter_perfection_v330_177
libesci-interpreter-perfection-v330.so.0:libesci_interpreter_perfection_v330_178
libesci-interpreter-perfection-v330.so.0:libesci_interpreter_perfection_v330_18
libesci-interpreter-perfection-v330.so.0:libesci_interpreter_perfection_v330_188
libesci-interpreter-perfection-v330.so.0:libesci_interpreter_perfection_v330_19
libesci-interpreter-perfection-v330.so.0:libesci_interpreter_perfection_v330_192
libesci-interpreter-perfection-v330.so.0:libesci_interpreter_perfection_v330_194
libesci-interpreter-perfection-v330.so.0:libesci_interpreter_perfection_v330_2
libesci-interpreter-perfection-v330.so.0:libesci_interpreter_perfection_v330_209
libesci-interpreter-perfection-v330.so.0:libesci_interpreter_perfection_v330_210
libesci-interpreter-perfection-v330.so.0:libesci_interpreter_perfection_v330_211
libesci-interpreter-perfection-v330.so.0:libesci_interpreter_perfection_v330_212
libesci-interpreter-perfection-v330.so.0:libesci_interpreter_perfection_v330_213
libesci-interpreter-perfection-v330.so.0:libesci_interpreter_perfection_v330_216
libesci-interpreter-perfection-v330.so.0:libesci_interpreter_perfection_v330_217
libesci-interpreter-perfection-v330.so.0:libesci_interpreter_perfection_v330_250
libesci-interpreter-perfection-v330.so.0:libesci_interpreter_perfection_v330_257
libesci-interpreter-perfection-v330.so.0:libesci_interpreter_perfection_v330_258
libesci-interpreter-perfection-v330.so.0:libesci_interpreter_perfection_v330_259
libesci-interpreter-perfection-v330.so.0:libesci_interpreter_perfection_v330_260
libesci-interpreter-perfection-v330.so.0:libesci_interpreter_perfection_v330_269
libesci-interpreter-perfection-v330.so.0:libesci_interpreter_perfection_v330_3
libesci-interpreter-perfection-v330.so.0:libesci_interpreter_perfection_v330_301
libesci-interpreter-perfection-v330.so.0:libesci_interpreter_perfection_v330_305
libesci-interpreter-perfection-v330.so.0:libesci_interpreter_perfection_v330_306
libesci-interpreter-perfection-v330.so.0:libesci_interpreter_perfection_v330_317
libesci-interpreter-perfection-v330.so.0:libesci_interpreter_perfection_v330_323
libesci-interpreter-perfection-v330.so.0:libesci_interpreter_perfection_v330_324
libesci-interpreter-perfection-v330.so.0:libesci_interpreter_perfection_v330_325
libesci-interpreter-perfection-v330.so.0:libesci_interpreter_perfection_v330_326
libesci-interpreter-perfection-v330.so.0:libesci_interpreter_perfection_v330_327
libesci-interpreter-perfection-v330.so.0:libesci_interpreter_perfection_v330_333
libesci-interpreter-perfection-v330.so.0:libesci_interpreter_perfection_v330_334
libesci-interpreter-perfection-v330.so.0:libesci_interpreter_perfection_v330_335
libesci-interpreter-perfection-v330.so.0:libesci_interpreter_perfection_v330_337
libesci-interpreter-perfection-v330.so.0:libesci_interpreter_perfection_v330_343
libesci-interpreter-perfection-v330.so.0:libesci_interpreter_perfection_v330_344
libesci-interpreter-perfection-v330.so.0:libesci_interpreter_perfection_v330_345
libesci-interpreter-perfection-v330.so.0:libesci_interpreter_perfection_v330_346
libesci-interpreter-perfection-v330.so.0:libesci_interpreter_perfection_v330_347
libesci-interpreter-perfection-v330.so.0:libesci_interpreter_perfection_v330_349
libesci-interpreter-perfection-v330.so.0:libesci_interpreter_perfection_v330_363
libesci-interpreter-perfection-v330.so.0:libesci_interpreter_perfection_v330_367
libesci-interpreter-perfection-v330.so.0:libesci_interpreter_perfection_v330_369
libesci-interpreter-perfection-v330.so.0:libesci_interpreter_perfection_v330_370
libesci-interpreter-perfection-v330.so.0:libesci_interpreter_perfection_v330_374
libesci-interpreter-perfection-v330.so.0:libesci_interpreter_perfection_v330_379
libesci-interpreter-perfection-v330.so.0:libesci_interpreter_perfection_v330_39
libesci-interpreter-perfection-v330.so.0:libesci_interpreter_perfection_v330_4
libesci-interpreter-perfection-v330.so.0:libesci_interpreter_perfection_v330_40
libesci-interpreter-perfection-v330.so.0:libesci_interpreter_perfection_v330_48
libesci-interpreter-perfection-v330.so.0:libesci_interpreter_perfection_v330_68
libesci-interpreter-perfection-v330.so.0:libesci_interpreter_perfection_v330_69
libesci-interpreter-perfection-v330.so.0:libesci_interpreter_perfection_v330_74
libesci-interpreter-perfection-v330.so.0:libesci_interpreter_perfection_v330_8
libesci-interpreter-perfection-v330.so.0:libesci_interpreter_perfection_v330_91
libesdtr.so:
libesdtr.so:DTR_GetDocumentLocationEx
libesdtr.so:DTR_Initialize
libesdtr.so:DTR_JudgeBlankPageEx
libesdtr.so:DTR_JudgeGrayOrMono
libesdtr.so:DTR_JudgeImageType
libesdtr.so:DTR_PunchedHoleClearnessEx
libesdtr.so:DTR_SkewClose
libesdtr.so:DTR_SkewInit
libesdtr.so:_Z12ImageErosioniiPKhPh
libesdtr.so:_Z13ImageDilationiiPKhPh
libesdtr.so:_Z20HISTA_HistJudgeColorP22_HISTA_PanelSetting_stP19_HISTA_Histogram_st
libesdtr.so:_Z21HISTA_Hist2JudgeColorP22_HISTA_PanelSetting_stP20_HISTA_Histogram2_st
libesdtr.so:_Z24HISTA_HistJudgeBaseColorP22_HISTA_PanelSetting_stP20_HISTA_Histogram2_stP19_HISTA_BaseColor_st
libesdtr.so:_Z24HISTA_HistJudgeBlankPageP23_HISTA_HistogramCCIS_stP19_HISTA_BaseColor_stiPi
libesdtr.so:_Z24HISTA_HistJudgeColorCCISP22_HISTA_PanelSetting_stP23_HISTA_HistogramCCIS_st
libesdtr.so:_Z28HISTA_HistJudgeBaseColorCCISP22_HISTA_PanelSetting_stP23_HISTA_HistogramCCIS_stP19_HISTA_BaseColor_st
libesdtr.so:_Z7DumpLogSsPhiib
libesdtr.so:_ZN10CDetectDoc10InitializeEv
libesdtr.so:_ZN10CDetectDoc12MakeSkewHistEP7POINT32PlS2_l
libesdtr.so:_ZN10CDetectDoc13RemovalShadowEP12MYMARGINRECTP13LOCATION_DATA6MYRECT
libesdtr.so:_ZN10CDetectDoc14GetPosiForSkewEP6MYRECTP7POINT32Pl
libesdtr.so:_ZN10CDetectDoc14GetRctPositionEP6MYRECT
libesdtr.so:_ZN10CDetectDoc15DoFindSkewAngleEP6MYRECTP13LOCATION_DATA
libesdtr.so:_ZN10CDetectDoc15FittingAreaSizeE6MYRECTd
libesdtr.so:_ZN10CDetectDoc15GetLocationDataEP12PREVIEW_DATAP13LOCATION_DATAP12GRAY_BG_INFO13DOC_TYPE_INFOhh
libesdtr.so:_ZN10CDetectDoc15IsCsBorderFoundEllPh
libesdtr.so:_ZN10CDetectDoc15SelectSkewAngleEP6MYRECTPdS2_
libesdtr.so:_ZN10CDetectDoc15SetSkewAreaInfoEP13LOCATION_DATA6MYRECT
libesdtr.so:_ZN10CDetectDoc16GetFrontSideDataEP13LOCATION_DATAS1_
libesdtr.so:_ZN10CDetectDoc17GetCandidateAngleEPdPll
libesdtr.so:_ZN10CDetectDoc17MakeRotationImageEPPhlllP12MYMARGINRECTP13LOCATION_DATA
libesdtr.so:_ZN10CDetectDoc17ResetLocationDataEP13LOCATION_DATAP12PREVIEW_DATA
libesdtr.so:_ZN10CDetectDoc19CorrectLocationSizeEP12PREVIEW_DATAP13LOCATION_DATA
libesdtr.so:_ZN10CDetectDoc19GetBackSideLocationEP13LOCATION_DATAP12PREVIEW_DATA
libesdtr.so:_ZN10CDetectDoc19GetLandSamplingDataEP6MYRECTlP7POINT32Pl
libesdtr.so:_ZN10CDetectDoc19GetPortSamplingDataEP6MYRECTlP7POINT32Pl
libesdtr.so:_ZN10CDetectDoc19IsLocationDataValidEP13LOCATION_DATAP12PREVIEW_DATAd
libesdtr.so:_ZN10CDetectDoc19RotationRctAreaSizeEP6MYRECTPd
libesdtr.so:_ZN10CDetectDoc19SetBackSideLocationEP13LOCATION_DATAS0_P12PREVIEW_DATA
libesdtr.so:_ZN10CDetectDoc19SetMarginToAreaInfoEP13LOCATION_DATAP12PREVIEW_DATAd
libesdtr.so:_ZN10CDetectDoc20AnalysisDocumentAreaEP13LOCATION_DATAbd
libesdtr.so:_ZN10CDetectDoc20IsMarginLocDataValidEP13LOCATION_DATAP12PREVIEW_DATAd
libesdtr.so:_ZN10CDetectDoc21CalAngleFromTwoPointsE7POINT32S0_
libesdtr.so:_ZN10CDetectDoc21ChangeOutLocationDataEP13LOCATION_DATA
libesdtr.so:_ZN10CDetectDoc23CorrectRotationPositionEP12MYMARGINRECTPlS2_l
libesdtr.so:_ZN10CDetectDoc23EvaluateAreaInformationEP13LOCATION_DATA
libesdtr.so:_ZN10CDetectDoc23GetRemovalShadePositionEPhllP12MYMARGINRECTb
libesdtr.so:_ZN10CDetectDoc24CorrectTwoValueDataForCSEllPhPl
libesdtr.so:_ZN10CDetectDoc28CorrectRemovalShadowPositionE12MYMARGINRECTPS0_P13LOCATION_DATA6MYRECT
libesdtr.so:_ZN10CDetectDocC1Ev
libesdtr.so:_ZN10CDetectDocC2Ev
libesdtr.so:_ZN10CDetectDocD0Ev
libesdtr.so:_ZN10CDetectDocD1Ev
libesdtr.so:_ZN10CDetectDocD2Ev
libesdtr.so:_ZN10CFileIoHRD10GetHRDInfoEv
libesdtr.so:_ZN10CFileIoHRD10InitializeEv
libesdtr.so:_ZN10CFileIoHRD10ReadColWinEP7COL_WIN
libesdtr.so:_ZN10CFileIoHRD10ReadMarginEP12MYMARGINRECT
libesdtr.so:_ZN10CFileIoHRD10ReadPresetEP11PRESET_INFO
libesdtr.so:_ZN10CFileIoHRD10ReadRowWinEP7ROW_WIN
libesdtr.so:_ZN10CFileIoHRD10ReadTipSetEP7TIP_SET
libesdtr.so:_ZN10CFileIoHRD11ReadTipThreEP8TIP_THRE
libesdtr.so:_ZN10CFileIoHRD12ReadMarkInfoEP12MARKING_INFO
libesdtr.so:_ZN10CFileIoHRD12ReadRectDataEP6MYRECT
libesdtr.so:_ZN10CFileIoHRD15ReadMarginTableEP6MARTAB
libesdtr.so:_ZN10CFileIoHRD16ReadHolderInfoExEP14HOLDER_INFO_EX
libesdtr.so:_ZN10CFileIoHRD17ReadBlankPageInfoEP15BLANK_PAGE_INFO
libesdtr.so:_ZN10CFileIoHRD17ReadDetectDocInfoEP15DETECT_DOC_INFO
libesdtr.so:_ZN10CFileIoHRD17ReadPunchHoleInfoEP15PUNCH_HOLE_INFO
libesdtr.so:_ZN10CFileIoHRD18ReadPDocCommonInfoEP9PDOC_INFO
libesdtr.so:_ZN10CFileIoHRD20ReadJudgeImgTypeInfoEP18JUDGE_IMGTYPE_INFO
libesdtr.so:_ZN10CFileIoHRD21ReadHolderMarkingInfoEP19HOLDER_MARKING_INFO
libesdtr.so:_ZN10CFileIoHRD8ReadDataEPvl
libesdtr.so:_ZN10CFileIoHRD8ReadFileEv
libesdtr.so:_ZN10CFileIoHRD9CloseFileEv
libesdtr.so:_ZN10CFileIoHRDC1EPKcm
libesdtr.so:_ZN10CFileIoHRDC2EPKcm
libesdtr.so:_ZN10CFileIoHRDD0Ev
libesdtr.so:_ZN10CFileIoHRDD1Ev
libesdtr.so:_ZN10CFileIoHRDD2Ev
libesdtr.so:_ZN11CFileIoBase8OpenFileEPc
libesdtr.so:_ZN11CFileIoBase9CloseFileEv
libesdtr.so:_ZN11CFileIoBaseC1EPKcm
libesdtr.so:_ZN11CFileIoBaseC2EPKcm
libesdtr.so:_ZN11CFileIoBaseD0Ev
libesdtr.so:_ZN11CFileIoBaseD1Ev
libesdtr.so:_ZN11CFileIoBaseD2Ev
libesdtr.so:_ZN12CBindingHole11Remove1HoleE6MYRECTP12PREVIEW_DATAS0_Phl
libesdtr.so:_ZN12CBindingHole11Remove1HoleEP12PREVIEW_DATA6MYRECTh
libesdtr.so:_ZN12CBindingHole11RemoveNoiseEllPl
libesdtr.so:_ZN12CBindingHole11SetRectAreaE6MYRECTPS0_S1_ll
libesdtr.so:_ZN12CBindingHole12FillHoleMaskEP12PREVIEW_DATAllPhlllll
libesdtr.so:_ZN12CBindingHole13JudgeBindHoleEllPb
libesdtr.so:_ZN12CBindingHole14RemoveNoisePreEllPl
libesdtr.so:_ZN12CBindingHole15BindingHoleMainEP12PREVIEW_DATAmb18DtrBindingHoleAream
libesdtr.so:_ZN12CBindingHole15IsHoleCandidacyEl
libesdtr.so:_ZN12CBindingHole15RemoveFromImageEP12PREVIEW_DATAllPbbl
libesdtr.so:_ZN12CBindingHole16JudgmentHistgramEPlRlS1_S1_
libesdtr.so:_ZN12CBindingHole16MakeRandomNumberEv
libesdtr.so:_ZN12CBindingHole16PercentageOfAreaEP9AREA_RECT
libesdtr.so:_ZN12CBindingHole19SetBindHolePrameterEP12PREVIEW_DATA
libesdtr.so:_ZN12CBindingHole21GetDesideRemovalColorEP12PREVIEW_DATA6MYRECTS2_S2_Ph
libesdtr.so:_ZN12CBindingHole21GetDesideRemovalColorEP12PREVIEW_DATA6MYRECTS2_S2_Rh
libesdtr.so:_ZN12CBindingHole24RemoveNoiseFromShadeDataEllPh
libesdtr.so:_ZN12CBindingHole6IsHoleEl6MYRECTl
libesdtr.so:_ZN12CBindingHole7ClosingEllPli
libesdtr.so:_ZN12CBindingHole7OpeningEllPli
libesdtr.so:_ZN12CBindingHole8AddShadeEll
libesdtr.so:_ZN12CBindingHole8GetCountE6LENGTH7POINT32l
libesdtr.so:_ZN12CBindingHole9GetBorderE7POINT326MYRECTl
libesdtr.so:_ZN12CBindingHole9GetCenterEll6MYRECT
libesdtr.so:_ZN12CBindingHole9IsInRangeEllll
libesdtr.so:_ZN12CBindingHoleC1Ev
libesdtr.so:_ZN12CBindingHoleC2Ev
libesdtr.so:_ZN12CBindingHoleD0Ev
libesdtr.so:_ZN12CBindingHoleD1Ev
libesdtr.so:_ZN12CBindingHoleD2Ev
libesdtr.so:_ZN12CScannerInfo10GetHrdInfoEPKcm
libesdtr.so:_ZN12CScannerInfo10SetHrdInfoEv
libesdtr.so:_ZN12CScannerInfo11IsBoolValidEs
libesdtr.so:_ZN12CScannerInfo11IsRectValidE6MYRECT
libesdtr.so:_ZN12CScannerInfo12IsRangeValidEddd
libesdtr.so:_ZN12CScannerInfo12IsRangeValidElll
libesdtr.so:_ZN12CScannerInfo13IsTipSetValidE7TIP_SET
libesdtr.so:_ZN12CScannerInfo14GetScannerInfoEPvllll
libesdtr.so:_ZN12CScannerInfo14IsHrdInfoValidE8DTR_INFO
libesdtr.so:_ZN12CScannerInfo14IsLessThanZeroEd
libesdtr.so:_ZN12CScannerInfo14IsLessThanZeroEl
libesdtr.so:_ZN12CScannerInfo14IsMoreThanZeroEd
libesdtr.so:_ZN12CScannerInfo14IsMoreThanZeroEl
libesdtr.so:_ZN12CScannerInfo14IsTipThreValidE8TIP_THRE
libesdtr.so:_ZN12CScannerInfo14SetMarkingInfoEv
libesdtr.so:_ZN12CScannerInfo14SetScannerInfoEPvllll
libesdtr.so:_ZN12CScannerInfo15IsHolderExValidE14HOLDER_INFO_EX
libesdtr.so:_ZN12CScannerInfo15IsPDocInfoValidEP8DTR_INFO
libesdtr.so:_ZN12CScannerInfo15IsRotationValidEl
libesdtr.so:_ZN12CScannerInfo15SetHolderInfoExE14HOLDER_INFO_EXl
libesdtr.so:_ZN12CScannerInfo16Set4x5HolderInfoEv
libesdtr.so:_ZN12CScannerInfo18IsMarkingInfoValidE12MARKING_INFO
libesdtr.so:_ZN12CScannerInfo18SetMountHolderInfoEv
libesdtr.so:_ZN12CScannerInfo18SetStripHolderInfoEv
libesdtr.so:_ZN12CScannerInfo18SetTransmisiveInfoEv
libesdtr.so:_ZN12CScannerInfo20IsBlankPageInfoValidEP15BLANK_PAGE_INFO
libesdtr.so:_ZN12CScannerInfo20IsDetectDocInfoValidEP15DETECT_DOC_INFO
libesdtr.so:_ZN12CScannerInfo20IsPunchHoleInfoValidEP15PUNCH_HOLE_INFO
libesdtr.so:_ZN12CScannerInfo20SetBrownieHolderInfoEv
libesdtr.so:_ZN12CScannerInfo21IsPDocCommonInfoValidEP9PDOC_INFO
libesdtr.so:_ZN12CScannerInfo22SetDetectHolderPatternEv
libesdtr.so:_ZN12CScannerInfo23IsJudgeImgTypeInfoValidEP18JUDGE_IMGTYPE_INFO
libesdtr.so:_ZN12CScannerInfo24IsHolderMarkingInfoValidE19HOLDER_MARKING_INFO
libesdtr.so:_ZN12CScannerInfoC1El
libesdtr.so:_ZN12CScannerInfoC2El
libesdtr.so:_ZN12CScannerInfoD0Ev
libesdtr.so:_ZN12CScannerInfoD1Ev
libesdtr.so:_ZN12CScannerInfoD2Ev
libesdtr.so:_ZN13CJudgeImgType13CalTotalPixelEPlRl
libesdtr.so:_ZN13CJudgeImgType14JudgeLowChromaEPllRl
libesdtr.so:_ZN13CJudgeImgType14JudgeNotChromaEPllRl
libesdtr.so:_ZN13CJudgeImgType16DoJudgeImageTypeEP12PREVIEW_DATAmbPb
libesdtr.so:_ZN13CJudgeImgType16MakeHistogramHSVEPtPl
libesdtr.so:_ZN13CJudgeImgType17AnalysisImageTypeEPlbPb
libesdtr.so:_ZN13CJudgeImgType27SetThresholdForJugdeImgTypeEb
libesdtr.so:_ZN13CJudgeImgTypeC1Ev
libesdtr.so:_ZN13CJudgeImgTypeC2Ev
libesdtr.so:_ZN13CJudgeImgTypeD0Ev
libesdtr.so:_ZN13CJudgeImgTypeD1Ev
libesdtr.so:_ZN13CJudgeImgTypeD2Ev
libesdtr.so:_ZN14CBlankPageSkip12MakeHistgramEPhPl
libesdtr.so:_ZN14CBlankPageSkip12SetThresholdEPlRlS1_
libesdtr.so:_ZN14CBlankPageSkip13ResetAreaRectEllPl
libesdtr.so:_ZN14CBlankPageSkip14IsDocumentDataEdPt
libesdtr.so:_ZN14CBlankPageSkip14JudgeBlankPageEP12PREVIEW_DATAmbPtd
libesdtr.so:_ZN14CBlankPageSkip14UniteAreaLabelEPl
libesdtr.so:_ZN14CBlankPageSkip16CorrectAreaLabelElPl
libesdtr.so:_ZN14CBlankPageSkip16CorrectSentencesElPl
libesdtr.so:_ZN14CBlankPageSkip20SetBlankPagePrameterEP12PREVIEW_DATA
libesdtr.so:_ZN14CBlankPageSkipC1Ev
libesdtr.so:_ZN14CBlankPageSkipC2Ev
libesdtr.so:_ZN14CBlankPageSkipD0Ev
libesdtr.so:_ZN14CBlankPageSkipD1Ev
libesdtr.so:_ZN14CBlankPageSkipD2Ev
libesdtr.so:_ZN14CJudgeImgType216DoJudgeImageTypeEP12PREVIEW_DATAmbPb
libesdtr.so:_ZN14CJudgeImgType2C1Ev
libesdtr.so:_ZN14CJudgeImgType2C2Ev
libesdtr.so:_ZN14CJudgeImgType2D0Ev
libesdtr.so:_ZN14CJudgeImgType2D1Ev
libesdtr.so:_ZN14CJudgeImgType2D2Ev
libesdtr.so:_ZN15CBlankPageSkip214JudgeBlankPageEP12PREVIEW_DATAmbPtd
libesdtr.so:_ZN15CBlankPageSkip2C1Ev
libesdtr.so:_ZN15CBlankPageSkip2C2Ev
libesdtr.so:_ZN15CBlankPageSkip2D0Ev
libesdtr.so:_ZN15CBlankPageSkip2D1Ev
libesdtr.so:_ZN15CBlankPageSkip2D2Ev
libesdtr.so:_ZN16CLocationUtility11GetEquationEP10T_EQUATIONP8T_DPointS3_
libesdtr.so:_ZN16CLocationUtility11GetEquationEP10T_EQUATIONddP8T_DPoint
libesdtr.so:_ZN16CLocationUtility13GetCrossPointEP8T_DPointP10T_EQUATIONS3_
libesdtr.so:_ZN16CLocationUtility13SetMarginSizeEP13LOCATION_DATAP12MYMARGINRECTS3_lllbb
libesdtr.so:_ZN16CLocationUtility15CheckOutOfPaperEP11T_PAPER_OUTP8T_D4Rect
libesdtr.so:_ZN16CLocationUtility19LocationToRectangleEP8T_D4RectP13LOCATION_DATA
libesdtr.so:_ZN16CLocationUtility7FitSizeEP8T_DPointPdS2_P8T_D4RectS1_P10T_EQUATION
libesdtr.so:_ZN16CLocationUtility9GetMarginEPdP8T_DPointS2_
libesdtr.so:_ZN16CLocationUtility9SetMarginEP13LOCATION_DATAP12MYMARGINRECTb
libesdtr.so:_ZN16CLocationUtilityC1Ev
libesdtr.so:_ZN16CLocationUtilityC2Ev
libesdtr.so:_ZN16CLocationUtilityD0Ev
libesdtr.so:_ZN16CLocationUtilityD1Ev
libesdtr.so:_ZN16CLocationUtilityD2Ev
libesdtr.so:_ZN23CJudgeImgTypeGrayOrMono16DoJudgeImageTypeEP12PREVIEW_DATAmbiPb
libesdtr.so:_ZN23CJudgeImgTypeGrayOrMonoC1Ev
libesdtr.so:_ZN23CJudgeImgTypeGrayOrMonoC2Ev
libesdtr.so:_ZN23CJudgeImgTypeGrayOrMonoD0Ev
libesdtr.so:_ZN23CJudgeImgTypeGrayOrMonoD1Ev
libesdtr.so:_ZN23CJudgeImgTypeGrayOrMonoD2Ev
libesdtr.so:_ZN5CSkew10InitializeEP18tagIMAGE_SKEW_INFOS1_P13SK_INPUT_DATA
libesdtr.so:_ZN5CSkew12DoBandDeskewEP18tagIMAGE_SKEW_INFOS1_
libesdtr.so:_ZN5CSkew12DoBandDeskewEPhP18tagIMAGE_SKEW_INFOS2_
libesdtr.so:_ZN5CSkew12DoDeskewxRGBEPhP18tagIMAGE_SKEW_INFOS2_
libesdtr.so:_ZN5CSkew13DoBatchDeskewEP18tagIMAGE_SKEW_INFOS1_
libesdtr.so:_ZN5CSkew13GetSendInLineEl
libesdtr.so:_ZN5CSkew13IsBatchDeskewEP13LOCATION_DATA
libesdtr.so:_ZN5CSkew14AllocateMemoryEjjP18tagIMAGE_SKEW_INFO
libesdtr.so:_ZN5CSkew14DoDeskew01MonoEPhP18tagIMAGE_SKEW_INFOS2_
libesdtr.so:_ZN5CSkew14DoDeskew08GrayEPhP18tagIMAGE_SKEW_INFOS2_
libesdtr.so:_ZN5CSkew14DoDeskew16GrayEPhP18tagIMAGE_SKEW_INFOS2_
libesdtr.so:_ZN5CSkew15CopyBufferImageEPhjjP18tagIMAGE_SKEW_INFO
libesdtr.so:_ZN5CSkew15DoDeskew24ColorEPhP18tagIMAGE_SKEW_INFOS2_
libesdtr.so:_ZN5CSkew15DoDeskew42ColorEPhP18tagIMAGE_SKEW_INFOS2_
libesdtr.so:_ZN5CSkew19AllocateFirstMemoryEjjP18tagIMAGE_SKEW_INFO
libesdtr.so:_ZN5CSkew20AllocateSecondMemoryEjjP18tagIMAGE_SKEW_INFO
libesdtr.so:_ZN5CSkew8DoDeskewEP18tagIMAGE_SKEW_INFOS1_
libesdtr.so:_ZN5CSkewC1E10SKDataTypehP13LOCATION_DATA
libesdtr.so:_ZN5CSkewC2E10SKDataTypehP13LOCATION_DATA
libesdtr.so:_ZN5CSkewD1Ev
libesdtr.so:_ZN5CSkewD2Ev
libesdtr.so:_ZN7CDoPDoc14JudgeImageTypeEPtP19TWEP_JUDGEIMAGETYPE
libesdtr.so:_ZN7CDoPDoc15SetBitsPerPixelERst
libesdtr.so:_ZN7CDoPDoc17ChangeScanImgDataEP18TWEP_DETECTIONDATAP12PREVIEW_DATA
libesdtr.so:_ZN7CDoPDoc18ChangeLocationDataEP13LOCATION_DATAP17TWEP_LOCATIONDATA
libesdtr.so:_ZN7CDoPDoc18ChangeLocationDataEP17TWEP_LOCATIONDATAP13LOCATION_DATA
libesdtr.so:_ZN7CDoPDoc18ExchangeReturnCodeE8IPCErrorPtS1_Pl
libesdtr.so:_ZN7CDoPDoc18JudgeBlankPageSkipEPtP16TWEP_BLANKPAGEEX
libesdtr.so:_ZN7CDoPDoc19GetDocumentLocationEPtP16TWEP_DOCLOTATIONP16TWEP_GAMMASTRUCTP8TWEP_RGBhh
libesdtr.so:_ZN7CDoPDoc20AdjustLocationMarginEPtP16TWEP_DOCLOTATION
libesdtr.so:_ZN7CDoPDoc20PunchedHoleClearnessEPtP18TWEP_HOLECLEARNESSP16TWEP_GAMMASTRUCTP8TWEP_RGB18DtrBindingHoleArea
libesdtr.so:_ZN7CDoPDoc20SetGrayThresholdBaseEP12GRAY_BG_INFOP16TWEP_GAMMASTRUCTt
libesdtr.so:_ZN7CDoPDoc20SetResultDocLocationEP13LOCATION_DATAP17TWEP_LOCATIONDATAP18TWEP_DETECTIONDATAt
libesdtr.so:_ZN7CDoPDoc24JudgeImageTypeGrayOrMonoEPtP22TWEP_JUDGEGRAY_OR_MONO
libesdtr.so:_ZN7CDoPDocC1Ev
libesdtr.so:_ZN7CDoPDocC2Ev
libesdtr.so:_ZN7CDoPDocD0Ev
libesdtr.so:_ZN7CDoPDocD1Ev
libesdtr.so:_ZN7CDoPDocD2Ev
libesdtr.so:_ZN8CDTRData14GetHrdFilePathEPcmm
libesdtr.so:_ZN8CDTRData14InitializeDataEv
libesdtr.so:_ZN8CDTRData8LoadDataEmPvPKcm
libesdtr.so:_ZN8CDTRDataC1Ev
libesdtr.so:_ZN8CDTRDataC2Ev
libesdtr.so:_ZN8CDTRDataD1Ev
libesdtr.so:_ZN8CDTRDataD2Ev
libesdtr.so:_ZN8CPDocMgrC1Ev
libesdtr.so:_ZN8CPDocMgrC2Ev
libesdtr.so:_ZN8CPDocMgrD0Ev
libesdtr.so:_ZN8CPDocMgrD1Ev
libesdtr.so:_ZN8CPDocMgrD2Ev
libesdtr.so:_ZN8CTwParam10IsFilmTypeEss
libesdtr.so:_ZN8CTwParam10IsLampTypeEts
libesdtr.so:_ZN8CTwParam10IsUnitTypeEts
libesdtr.so:_ZN8CTwParam11IsFilmSize1Etb
libesdtr.so:_ZN8CTwParam11IsFilmSize2Etb
libesdtr.so:_ZN8CTwParam11IsImageTypeEss
libesdtr.so:_ZN8CTwParam11IsLightPathEt
libesdtr.so:_ZN8CTwParam14Get_FilmSizeIDEPtt20TWEP_DETECTIMAGEINFO
libesdtr.so:_ZN8CTwParam14IsMarginSizeIDEs
libesdtr.so:_ZN8CTwParam15CK_Param_ALDataE15TWEP_AUTOLOCATE
libesdtr.so:_ZN8CTwParam15IsImageDataTypeEt
libesdtr.so:_ZN8CTwParam15IsResCapabilityEt
libesdtr.so:_ZN8CTwParam16CK_Param_ResListEPttPv
libesdtr.so:_ZN8CTwParam16Get_BytePerPixelEt
libesdtr.so:_ZN8CTwParam16IsFilmHolderTypeEtsb
libesdtr.so:_ZN8CTwParam16IsImageDataType2Et
libesdtr.so:_ZN8CTwParam18CK_ParamMarginDataE15TWEP_CALCMARGIN
libesdtr.so:_ZN8CTwParam19CK_Param_DetectDataE18TWEP_DETECTIONDATA
libesdtr.so:_ZN8CTwParam19CK_Param_ResolutionElPlm
libesdtr.so:_ZN8CTwParam20CK_Param_DetectData2E18TWEP_DETECTIONDATA
libesdtr.so:_ZN8CTwParam22CK_Param_DetectRefDataEP20TWEP_DETECTIMAGEINFOPlm
libesdtr.so:_ZN8CTwParam23CK_Param_DetectFilmDataEP20TWEP_DETECTIMAGEINFOPlm
libesdtr.so:_ZN8CTwParam23CK_Param_JudgeImageTypeEP19TWEP_JUDGEIMAGETYPE
libesdtr.so:_ZN8CTwParam27CK_Param_JudgeBlankPageSkipEP16TWEP_BLANKPAGEEX
libesdtr.so:_ZN8CTwParam28CK_Param_DetectFrontSideDataE17TWEP_LOCATIONDATA
libesdtr.so:_ZN8CTwParam28CK_Param_GetDocumentLocationEP16TWEP_DOCLOTATIONP16TWEP_GAMMASTRUCT
libesdtr.so:_ZN8CTwParam29CK_Param_PunchedHoleClearnessEP18TWEP_HOLECLEARNESSP16TWEP_GAMMASTRUCT
libesdtr.so:_ZN8CTwParam33CK_Param_JudgeImageTypeGrayOrMonoEP22TWEP_JUDGEGRAY_OR_MONO
libesdtr.so:_ZN9CDtr1Util14CopyMarginRectEP10TWEP_FRECT12MYMARGINRECT
libesdtr.so:_ZN9CDtr1Util14CopyMarginRectEP12MYMARGINRECT10TWEP_FRECT
libesdtr.so:_ZN9CDtr1Util14GetMarginDocIDEP15IPC_MarginDocIDs
libesdtr.so:_ZN9CDtr1Util14GetMarginDocIDEP15IPC_MarginDocIDss
libesdtr.so:_ZN9CDtr1Util14GetTPUFilmTypeEs
libesdtr.so:_ZN9CDtr1Util15ConvertHolderIDEPt12IPC_HolderId11TPUFilmType
libesdtr.so:_ZN9CDtr1Util15CopyPreviewDataEP12PREVIEW_DATA18TWEP_DETECTIONDATA
libesdtr.so:_ZN9CDtr1Util16CopyLocationDataEP13LOCATION_DATA17TWEP_LOCATIONDATA
libesdtr.so:_ZN9CDtr1Util16CopyLocationDataEP17TWEP_LOCATIONDATA13LOCATION_DATAs
libesdtr.so:_ZN9CDtr1Util16GetImageStartPosElP11ImgStartPos
libesdtr.so:_ZN9CDtr1Util16GetTWEP_RIT_XXXXE11ImgFilmType
libesdtr.so:_ZN9CDtr1Util16GetTWEP_TFT_XXXXE11TPUFilmType
libesdtr.so:_ZN9CDtr1Util18ExchangeReturnCodeE8IPCErrorPtS1_Pl
libesdtr.so:_ZN9CDtr1Util18Get_IPC_ScanUnitIDEP14IPC_ScanUnitIDs
libesdtr.so:_ZN9CDtr1Util20Get_DocumentSourceIDEt
libesdtr.so:_ZN9CDtr1Util20JudgeAFLScanUnitTypeEl
libesdtr.so:_ZN9CDtr1Util23CopyDetectDataImageInfoEP11DETECT_DATA18TWEP_DETECTIONDATA
libesdtr.so:_ZN9CDtr1Util8CopyRECTEP10TWEP_LRECT6MYRECT
libesdtr.so:_ZN9CDtr1Util8CopyRECTEP6MYRECT10TWEP_LRECT
libesdtr.so:_ZN9CPDocBase10GetAreaRctEP9AREA_RECTl
libesdtr.so:_ZN9CPDocBase10GetXYRangeEllP7tagRECTlllRl
libesdtr.so:_ZN9CPDocBase11IsShadeAreaEll
libesdtr.so:_ZN9CPDocBase11SetSkipByteEs
libesdtr.so:_ZN9CPDocBase12MakeGrayDataElllPhS0_b
libesdtr.so:_ZN9CPDocBase12MakeHSVDataSElllPhPt
libesdtr.so:_ZN9CPDocBase13GetAreaNumberEv
libesdtr.so:_ZN9CPDocBase13MakeShadeDataElllllllPhS0_bmm
libesdtr.so:_ZN9CPDocBase13ResetAreaRectEllPlll
libesdtr.so:_ZN9CPDocBase14CalPaddingByteElb
libesdtr.so:_ZN9CPDocBase14DoAreaLabelingEllPl
libesdtr.so:_ZN9CPDocBase15GetBytePerPixelEs
libesdtr.so:_ZN9CPDocBase15SetAnalysisDataEP12PREVIEW_DATAbb
libesdtr.so:_ZN9CPDocBase16GetGrayImageDataEP12PREVIEW_DATAl
libesdtr.so:_ZN9CPDocBase16GetGrayLineValueEPhS0_l
libesdtr.so:_ZN9CPDocBase16MakeTwoValueDataEllPhPl
libesdtr.so:_ZN9CPDocBase16SetAnalysisData2EP12PREVIEW_DATAbs
libesdtr.so:_ZN9CPDocBase16SetAnalysisData3EP12PREVIEW_DATAb
libesdtr.so:_ZN9CPDocBase17GetColorImageDataEP12PREVIEW_DATAl
libesdtr.so:_ZN9CPDocBase17GetColorLineValueEPhS0_l
libesdtr.so:_ZN9CPDocBase17GetEffectiveAreaHEP12PREVIEW_DATAbRl
libesdtr.so:_ZN9CPDocBase18DoSetAnalysisData3EP12PREVIEW_DATAb
libesdtr.so:_ZN9CPDocBase18GetColorImageData2EP12PREVIEW_DATAlPd
libesdtr.so:_ZN9CPDocBase18GetColorImageData3E6DPOINTllllP12PREVIEW_DATA
libesdtr.so:_ZN9CPDocBase18GetColorImageData3EP12PREVIEW_DATAl
libesdtr.so:_ZN9CPDocBase19GetNearColorImgDataEP12PREVIEW_DATAlllPdS2_S2_
libesdtr.so:_ZN9CPDocBase19TransGrayScaleValueElll
libesdtr.so:_ZN9CPDocBase20GetNearColorImgData3EP12PREVIEW_DATA7tagRECTll
libesdtr.so:_ZN9CPDocBase20RemoveSmallLabelAreaEb
libesdtr.so:_ZN9CPDocBase21MakeTwoValueDataForBHEllPhPl
libesdtr.so:_ZN9CPDocBase21SetGrayValueThresholdEml
libesdtr.so:_ZN9CPDocBase22MakeTwoValueDataForBPSEllllllPhPl
libesdtr.so:_ZN9CPDocBase23SetGrayValueThresholdBHEim
libesdtr.so:_ZN9CPDocBase25MakeTwoValueRectDataForBHEP6MYRECTllPhPl
libesdtr.so:_ZN9CPDocBase28CorrectTwoValueDataForCustomEllPlbP12GRAY_BG_INFOl
libesdtr.so:_ZN9CPDocBase9GetFilterEPds
libesdtr.so:_ZN9CPDocBaseC1Ev
libesdtr.so:_ZN9CPDocBaseC2Ev
libesdtr.so:_ZN9CPDocBaseD0Ev
libesdtr.so:_ZN9CPDocBaseD1Ev
libesdtr.so:_ZN9CPDocBaseD2Ev
libesdtr.so:__bss_start
libesdtr.so:_edata
libesdtr.so:_end
libesdtr.so:_fini
libesdtr.so:_init
libesdtr.so:g_CX7800Info
libesdtr.so:g_DTRInfo
libesdtr.so:g_DefaultInfo
libesdtr.so:g_GTF520Info
libesdtr.so:g_GTF650Info
libesdtr.so:g_GTF700Info
libesdtr.so:g_GTX750Info
libesdtr.so:g_GTX900Info
libesdtr.so:g_HrdInfo
libesdtr.so:g_LastHrdFileError
libesdtr.so:g_PMA890Info
libesdtr.so:g_PMA920Info
libesdtr.so:g_PMA950Info
libesdtr.so:g_PMA970Info
libesdtr.so:g_dwModelID
libesdtr.so:g_pCPDoc
libesimp2.so:
libesimp2.so:AllocImgData
libesimp2.so:AllocImgDataLike
libesimp2.so:CreateBmp
libesimp2.so:DetectConnectedRegions
libesimp2.so:ESIMP_Close15MProcess
libesimp2.so:ESIMP_DeficiencyDetectRepair
libesimp2.so:ESIMP_DeficiencyDetectRepair2
libesimp2.so:ESIMP_DetectLocation
libesimp2.so:ESIMP_DetectLocation2
libesimp2.so:ESIMP_Init15MProcess
libesimp2.so:ESIMP_MakeHistogram
libesimp2.so:ExpandImgRect
libesimp2.so:FreeImgData
libesimp2.so:GaussianBlur3x3
libesimp2.so:GetRGBImage
libesimp2.so:GetRGBImageEx
libesimp2.so:GetRawImage
libesimp2.so:GetRawImageD
libesimp2.so:HistoStats
libesimp2.so:Histogram
libesimp2.so:IESIMP2WrapperCreate
libesimp2.so:IESIMP2WrapperFree
libesimp2.so:ImgClone
libesimp2.so:ImgCvtColor
libesimp2.so:InitImgPixels
libesimp2.so:IntersectImgRect
libesimp2.so:IsInvalidImgPixels
libesimp2.so:Laplacian
libesimp2.so:LocalStdDev
libesimp2.so:ReadBMPFile
libesimp2.so:ReleaseRGBImage
libesimp2.so:ResizeImage
libesimp2.so:SetPartOfImg
libesimp2.so:Sobel
libesimp2.so:TurnImage
libesimp2.so:_Z12GetLocalTimeP11_SYSTEMTIME
libesimp2.so:_Z14ES_CombinePathRKSsS0_
libesimp2.so:_Z14ES_IsExistFileRKSs
libesimp2.so:_Z14ES_IsExistFileRKSsb
libesimp2.so:_Z14ES_WriteToFileSsSsSs
libesimp2.so:_Z15mkdir_recursivePKc
libesimp2.so:_Z20mkdir_recursive_filePKc
libesimp2.so:_Z6GetLogv
libesimp2.so:_ZN10RCropImage10read_imageEPKc
libesimp2.so:_ZN10RCropImage11gaussfilterERK32tag_paperedge_detection_subimageRS0_b
libesimp2.so:_ZN10RCropImage11imagefilterEPK32tag_paperedge_detection_subimagePS0_PKiiPiS6_
libesimp2.so:_ZN10RCropImage11imagefilterEPK32tag_paperedge_detection_subimagePS0_PKiiiiPiS6_
libesimp2.so:_ZN10RCropImage11imagefilterERK32tag_paperedge_detection_subimageRS0_PKii
libesimp2.so:_ZN10RCropImage11imagefilterERK32tag_paperedge_detection_subimageRS0_PKiiii
libesimp2.so:_ZN10RCropImage12calc_averageERdS0_PK32tag_paperedge_detection_subimage
libesimp2.so:_ZN10RCropImage12calc_averageERdS0_RK32tag_paperedge_detection_subimage
libesimp2.so:_ZN10RCropImage12get_hist_bufEi
libesimp2.so:_ZN10RCropImage12resize_imageEPK32tag_paperedge_detection_subimagePS0_iiPKi
libesimp2.so:_ZN10RCropImage12resize_imageERK32tag_paperedge_detection_subimageRS0_iiPKi
libesimp2.so:_ZN10RCropImage13get_copyimageERK15tag_rcrop_imageR32tag_paperedge_detection_subimagei
libesimp2.so:_ZN10RCropImage13get_copyimageERK32tag_paperedge_detection_subimageRS0_i
libesimp2.so:_ZN10RCropImage13get_line_sizeERK32tag_paperedge_detection_subimage
libesimp2.so:_ZN10RCropImage13lowpassfilterEPK32tag_paperedge_detection_subimagePS0_PKi
libesimp2.so:_ZN10RCropImage13lowpassfilterERK32tag_paperedge_detection_subimageRS0_PKi
libesimp2.so:_ZN10RCropImage14averagefilterNERK32tag_paperedge_detection_subimageRS0_ib
libesimp2.so:_ZN10RCropImage15check_sub_imageERK32tag_paperedge_detection_subimage
libesimp2.so:_ZN10RCropImage17get_workimage_bufEPK32tag_paperedge_detection_subimage
libesimp2.so:_ZN10RCropImage17get_workimage_bufERK32tag_paperedge_detection_subimage
libesimp2.so:_ZN10RCropImage17get_workimage_bufEi
libesimp2.so:_ZN10RCropImage17get_workimage_bufEiRK15tag_rcrop_image
libesimp2.so:_ZN10RCropImage17get_workimage_bufEiRK32tag_paperedge_detection_subimage
libesimp2.so:_ZN10RCropImage17is_simple_averageEPKi
libesimp2.so:_ZN10RCropImage17setup_rcrop_imageEPK15tag_rcrop_image
libesimp2.so:_ZN10RCropImage17setup_rcrop_imageEPKc
libesimp2.so:_ZN10RCropImage19release_rcrop_imageEv
libesimp2.so:_ZN10RCropImage1vEiii
libesimp2.so:_ZN10RCropImage22get_workimage_buf_initEPK32tag_paperedge_detection_subimagei
libesimp2.so:_ZN10RCropImage22get_workimage_buf_initERK32tag_paperedge_detection_subimagei
libesimp2.so:_ZN10RCropImage23set_sub_image_as_originEP32tag_paperedge_detection_subimage
libesimp2.so:_ZN10RCropImage23set_sub_image_as_originER32tag_paperedge_detection_subimage
libesimp2.so:_ZN10RCropImage4plotERK32tag_paperedge_detection_subimageiiPKh
libesimp2.so:_ZN10RCropImage5plotxERK32tag_paperedge_detection_subimageiiPKhc
libesimp2.so:_ZN10RCropImage7to_grayEPK32tag_paperedge_detection_subimagePS0_iii
libesimp2.so:_ZN10RCropImage7to_grayERK32tag_paperedge_detection_subimageRS0_iii
libesimp2.so:_ZN10RCropImage8is_gaussEPKi
libesimp2.so:_ZN10RCropImageC1Ev
libesimp2.so:_ZN10RCropImageC2Ev
libesimp2.so:_ZN10RCropImageD1Ev
libesimp2.so:_ZN10RCropImageD2Ev
libesimp2.so:_ZN10RCropParam11set_def_valEv
libesimp2.so:_ZN10RCropParam12read_settingEPKc
libesimp2.so:_ZN10RCropParam13buildup_paramEPK20tag_rcrop_param_abstPK15tag_rcrop_image
libesimp2.so:_ZN10RCropParam14read_setting_dEPKc
libesimp2.so:_ZN10RCropParam14read_setting_fEPKc
libesimp2.so:_ZN10RCropParam14read_setting_lEPKc
libesimp2.so:_ZN10RCropParam14read_setting_pEPKc
libesimp2.so:_ZN10RCropParam14read_setting_rEPKc
libesimp2.so:_ZN10RCropParam15set_dev_val_adfEv
libesimp2.so:_ZN10RCropParam20get_resolution_ratioEii
libesimp2.so:_ZN10RCropParam6set_afEPK15tag_rcrop_image
libesimp2.so:_ZN10RCropParamC1Ev
libesimp2.so:_ZN10RCropParamC2Ev
libesimp2.so:_ZN10RCropParamD1Ev
libesimp2.so:_ZN10RCropParamD2Ev
libesimp2.so:_ZN10RCropPoint3setEii
libesimp2.so:_ZN10RCropPoint6enableEv
libesimp2.so:_ZN10RCropPoint7disableEv
libesimp2.so:_ZN10RCropPointC1Eii
libesimp2.so:_ZN10RCropPointC1Ev
libesimp2.so:_ZN10RCropPointC2Eii
libesimp2.so:_ZN10RCropPointC2Ev
libesimp2.so:_ZN10RCropPointD1Ev
libesimp2.so:_ZN10RCropPointD2Ev
libesimp2.so:_ZN10RCropPointaSE15tag_rcrop_point
libesimp2.so:_ZN11RCropPoints10enable_allEv
libesimp2.so:_ZN11RCropPoints10valid_backEv
libesimp2.so:_ZN11RCropPoints11disable_allEv
libesimp2.so:_ZN11RCropPoints11valid_frontEv
libesimp2.so:_ZN11RCropPoints13shrink_pointsEv
libesimp2.so:_ZN11RCropPoints4findERK10RCropPoint
libesimp2.so:_ZN11RCropPoints5max_xERS_
libesimp2.so:_ZN11RCropPoints5max_xERS_S0_
libesimp2.so:_ZN11RCropPoints5max_xEv
libesimp2.so:_ZN11RCropPoints5max_yERS_
libesimp2.so:_ZN11RCropPoints5max_yERS_S0_
libesimp2.so:_ZN11RCropPoints5max_yEv
libesimp2.so:_ZN11RCropPoints5min_xERS_
libesimp2.so:_ZN11RCropPoints5min_xERS_S0_
libesimp2.so:_ZN11RCropPoints5min_xEv
libesimp2.so:_ZN11RCropPoints5min_yERS_
libesimp2.so:_ZN11RCropPoints5min_yERS_S0_
libesimp2.so:_ZN11RCropPoints5min_yEv
libesimp2.so:_ZN11RCropPoints6lengthEv
libesimp2.so:_ZN11RCropPoints6mean_xEv
libesimp2.so:_ZN11RCropPoints6mean_yEv
libesimp2.so:_ZN11RCropPoints9calc_distEv
libesimp2.so:_ZN11RCropPoints9push_backERK10RCropPoint
libesimp2.so:_ZN11RCropPoints9push_backERKS_
libesimp2.so:_ZN11RCropPoints9push_backEii
libesimp2.so:_ZN11RCropPointsC1Ev
libesimp2.so:_ZN11RCropPointsC2Ev
libesimp2.so:_ZN11RCropPointsD1Ev
libesimp2.so:_ZN11RCropPointsD2Ev
libesimp2.so:_ZN12RCropVPoints11build_blobsERK10RCropPointi
libesimp2.so:_ZN12RCropVPoints11build_blobsERK11RCropPointsi
libesimp2.so:_ZN12RCropVPoints15concatinate_allER11RCropPoints
libesimp2.so:_ZN12RCropVPoints21shrink_by_valid_countEi
libesimp2.so:_ZN12RCropVPoints5max_xEv
libesimp2.so:_ZN12RCropVPoints5max_yEv
libesimp2.so:_ZN12RCropVPoints5min_xEv
libesimp2.so:_ZN12RCropVPoints5min_yEv
libesimp2.so:_ZN12RCropVPoints6shrinkEm
libesimp2.so:_ZN12RCropVPoints8max_elemEv
libesimp2.so:_ZN12RCropVPointsC1Ev
libesimp2.so:_ZN12RCropVPointsC2Ev
libesimp2.so:_ZN12RCropVPointsD1Ev
libesimp2.so:_ZN12RCropVPointsD2Ev
libesimp2.so:_ZN13RCropBinImage12alloc_bufferEiiii
libesimp2.so:_ZN13RCropBinImageC1Ev
libesimp2.so:_ZN13RCropBinImageC2Ev
libesimp2.so:_ZN13RCropBinImageD1Ev
libesimp2.so:_ZN13RCropBinImageD2Ev
libesimp2.so:_ZN13RCropWorkHist12get_hist_bufEi
libesimp2.so:_ZN13RCropWorkHist14alloc_hist_bufEi
libesimp2.so:_ZN13RCropWorkHist14setup_hist_bufERK15tag_rcrop_image
libesimp2.so:_ZN13RCropWorkHist16release_hist_bufEv
libesimp2.so:_ZN13RCropWorkHistC1Ev
libesimp2.so:_ZN13RCropWorkHistC2Ev
libesimp2.so:_ZN13RCropWorkHistD1Ev
libesimp2.so:_ZN13RCropWorkHistD2Ev
libesimp2.so:_ZN14RCropWorkImage17get_workimage_bufEi
libesimp2.so:_ZN14RCropWorkImage17get_workimage_bufEiRK15tag_rcrop_image
libesimp2.so:_ZN14RCropWorkImage17get_workimage_bufEiRK32tag_paperedge_detection_subimage
libesimp2.so:_ZN14RCropWorkImage19alloc_workimage_bufERK15tag_rcrop_image
libesimp2.so:_ZN14RCropWorkImage19setup_workimage_bufERK15tag_rcrop_imagePKc
libesimp2.so:_ZN14RCropWorkImage21release_workimage_bufEv
libesimp2.so:_ZN14RCropWorkImageC1Ev
libesimp2.so:_ZN14RCropWorkImageC2Ev
libesimp2.so:_ZN14RCropWorkImageD1Ev
libesimp2.so:_ZN14RCropWorkImageD2Ev
libesimp2.so:_ZN15RCropLineBuffer10clear_lineEi
libesimp2.so:_ZN15RCropLineBuffer12alloc_bufferEiii
libesimp2.so:_ZN15RCropLineBuffer13is_valid_lineEi
libesimp2.so:_ZN15RCropLineBuffer14release_bufferEv
libesimp2.so:_ZN15RCropLineBuffer14set_valid_lineEi
libesimp2.so:_ZN15RCropLineBuffer14valid_line_numEv
libesimp2.so:_ZN15RCropLineBuffer7addressEi
libesimp2.so:_ZN15RCropLineBuffer8get_lineEi
libesimp2.so:_ZN15RCropLineBuffer8get_workEib
libesimp2.so:_ZN15RCropLineBufferC1Ev
libesimp2.so:_ZN15RCropLineBufferC2Ev
libesimp2.so:_ZN15RCropLineBufferD1Ev
libesimp2.so:_ZN15RCropLineBufferD2Ev
libesimp2.so:_ZN15RCropPreprocess11get_averageEiNS_10_avg_levelER15RCropLineBufferS2_i
libesimp2.so:_ZN15RCropPreprocess12get_average2Ei
libesimp2.so:_ZN15RCropPreprocess13get_bin_imageEv
libesimp2.so:_ZN15RCropPreprocess14get_detect_resEi
libesimp2.so:_ZN15RCropPreprocess14get_edge_imageER15tag_rcrop_pointS1_
libesimp2.so:_ZN15RCropPreprocess14get_gray_imageEv
libesimp2.so:_ZN15RCropPreprocess15get_phase_imageER15tag_rcrop_imageR13RCropBinImage
libesimp2.so:_ZN15RCropPreprocess15get_phase_imageER15tag_rcrop_imageR15RCropLineBuffer
libesimp2.so:_ZN15RCropPreprocess16get_average_baseEiNS_10_avg_levelE
libesimp2.so:_ZN15RCropPreprocess19get_roughness_imageEv
libesimp2.so:_ZN15RCropPreprocess20get_preprocess_imageEPK15tag_rcrop_imagePK10RCropParamR15tag_rcrop_pointS7_P8RCropLog
libesimp2.so:_ZN15RCropPreprocess24get_preprocess_roughnessEPK15tag_rcrop_imagePK10RCropParamRdS6_P8RCropLog
libesimp2.so:_ZN15RCropPreprocess6get_cfEi
libesimp2.so:_ZN15RCropPreprocess6get_dfEi
libesimp2.so:_ZN15RCropPreprocess7get_dfaEi
libesimp2.so:_ZN15RCropPreprocess7get_dfbEi
libesimp2.so:_ZN15RCropPreprocess8get_dfe1Ei
libesimp2.so:_ZN15RCropPreprocess8get_grayEi
libesimp2.so:_ZN15RCropPreprocessC1Ev
libesimp2.so:_ZN15RCropPreprocessC2Ev
libesimp2.so:_ZN15RCropPreprocessD1Ev
libesimp2.so:_ZN15RCropPreprocessD2Ev
libesimp2.so:_ZN3Log16IsFileLogEnabledEv
libesimp2.so:_ZN3Log5PrintEiPKcS1_z
libesimp2.so:_ZN3Log6ESlog2EPKciS1_P13__va_list_tag
libesimp2.so:_ZN3LogC1Ev
libesimp2.so:_ZN3LogC2Ev
libesimp2.so:_ZN3SCR10SCR_DetectEPK10img_pixelsPNS_14DeficiencyInfoEPKNS_6ParamsE
libesimp2.so:_ZN3SCR10SCR_RepairEPK10img_pixelsPKNS_14DeficiencyInfoEPKNS_6ParamsE
libesimp2.so:_ZN3SCR13CalcImageSizeEPK10img_pixelsPNS_7ImgSizeES4_S4_S4_PNS_4SizeEPsS7_
libesimp2.so:_ZN3SCR18SCR_FreeDeficiencyEPNS_14DeficiencyInfoE
libesimp2.so:_ZN3SCR19SCR_AllocDeficiencyEPNS_14DeficiencyInfoEPK10img_pixels
libesimp2.so:_ZN3SCR8Detector10InitParamAEPKNS_6ParamsE
libesimp2.so:_ZN3SCR8Detector10InitParamBEPKNS_6ParamsE
libesimp2.so:_ZN3SCR8Detector10InitParamCEPKNS_6ParamsE
libesimp2.so:_ZN3SCR8Detector10LoadParamsEPKNS_6ParamsE
libesimp2.so:_ZN3SCR8Detector14InitBufferDataEv
libesimp2.so:_ZN3SCR8Detector16DeployDeficiencyEPNS_14DeficiencyInfoE
libesimp2.so:_ZN3SCR8Detector16S520_CalcImgTypeEv
libesimp2.so:_ZN3SCR8Detector17S212_DetectBorderEv
libesimp2.so:_ZN3SCR8Detector17S213_DilateBorderEv
libesimp2.so:_ZN3SCR8Detector17S310_AddShadowBlkEv
libesimp2.so:_ZN3SCR8Detector18S110_CalcBlockDataEv
libesimp2.so:_ZN3SCR8Detector19S522_DetectBorder_BEv
libesimp2.so:_ZN3SCR8Detector19S522_DetectBorder_LEv
libesimp2.so:_ZN3SCR8Detector19S522_DetectBorder_REv
libesimp2.so:_ZN3SCR8Detector19S522_DetectBorder_TEv
libesimp2.so:_ZN3SCR8Detector20S120_AdjustBlockDataEv
libesimp2.so:_ZN3SCR8Detector21S214_ExpandBgToBorderEv
libesimp2.so:_ZN3SCR8Detector21S216_1_CalcRegionInfoEv
libesimp2.so:_ZN3SCR8Detector22S216_2_CalcRegionCountEv
libesimp2.so:_ZN3SCR8Detector22S410_ExtractEdgeRegionEv
libesimp2.so:_ZN3SCR8Detector24S224_UpdateBlkRegionTypeEv
libesimp2.so:_ZN3SCR8Detector24S320_OverwiteEdgeBlkToBgEv
libesimp2.so:_ZN3SCR8Detector25S211_CalcContactDirectionEv
libesimp2.so:_ZN3SCR8Detector25S222_CalcSurroundedRegionEv
libesimp2.so:_ZN3SCR8Detector27S225_S226_ExcludeThinPHAreaEv
libesimp2.so:_ZN3SCR8Detector28S215_CalcConnectedComponentsEv
libesimp2.so:_ZN3SCR8Detector29S221_CalcDocAreaAndDilatedBlkEv
libesimp2.so:_ZN3SCR8Detector29S223_ValidateDeficiencyRegionEv
libesimp2.so:_ZN3SCR8Detector30S510_DilateDeficiencyRegionBlkEv
libesimp2.so:_ZN3SCR8Detector36S430_CheckDeficiencyRegionConditionsEv
libesimp2.so:_ZN3SCR8Detector40S532_S533_ExcludeIsolatedPixelsAndDilateEv
libesimp2.so:_ZN3SCR8Detector6DetectEPK10img_pixelsPNS_14DeficiencyInfoEPKNS_6ParamsE
libesimp2.so:_ZN3SCR8Detector7LoadImgEPK10img_pixels
libesimp2.so:_ZN3SCR8DetectorC1Ev
libesimp2.so:_ZN3SCR8DetectorC2Ev
libesimp2.so:_ZN3SCR8Repairer10InitParamDEPKNS_6ParamsE
libesimp2.so:_ZN3SCR8Repairer10InitParamEEPKNS_6ParamsE
libesimp2.so:_ZN3SCR8Repairer10LoadParamsEPKNS_6ParamsE
libesimp2.so:_ZN3SCR8Repairer13S900_BlurEdgeEv
libesimp2.so:_ZN3SCR8Repairer14InitBufferDataEv
libesimp2.so:_ZN3SCR8Repairer16DeployDeficiencyEPKNS_14DeficiencyInfoE
libesimp2.so:_ZN3SCR8Repairer18S701_PaintWith_S1NEss
libesimp2.so:_ZN3SCR8Repairer18S702_PaintWith_COLEss
libesimp2.so:_ZN3SCR8Repairer18S730_Repair_BorderEv
libesimp2.so:_ZN3SCR8Repairer19S720_Repair_PaddingEv
libesimp2.so:_ZN3SCR8Repairer20S703_PaintWith_SND_BEss
libesimp2.so:_ZN3SCR8Repairer20S703_PaintWith_SND_LEss
libesimp2.so:_ZN3SCR8Repairer20S703_PaintWith_SND_REss
libesimp2.so:_ZN3SCR8Repairer20S703_PaintWith_SND_TEss
libesimp2.so:_ZN3SCR8Repairer21S800_CalcDocEdgeImageEv
libesimp2.so:_ZN3SCR8Repairer23S900_1_BlurRegionBorderEss
libesimp2.so:_ZN3SCR8Repairer26S600_CalcAverageColorImageEv
libesimp2.so:_ZN3SCR8Repairer26S710_Repair_Fold_Tear_HoleEv
libesimp2.so:_ZN3SCR8Repairer6RepairEPK10img_pixelsPKNS_14DeficiencyInfoEPKNS_6ParamsE
libesimp2.so:_ZN3SCR8Repairer7LoadImgEPK10img_pixels
libesimp2.so:_ZN3SCR8RepairerC1Ev
libesimp2.so:_ZN3SCR8RepairerC2Ev
libesimp2.so:_ZN3SCRoRERNS_6E_LINKES0_
libesimp2.so:_ZN3SCRorENS_6E_LINKES0_
libesimp2.so:_ZN5RCrop10get_medianEPiii
libesimp2.so:_ZN5RCrop11calc_blob_lER12RCropVPointsR11RCropPoints
libesimp2.so:_ZN5RCrop11detect_cropEv
libesimp2.so:_ZN5RCrop11exam_pointsEv
libesimp2.so:_ZN5RCrop11get_org_posE10RCropPointbb
libesimp2.so:_ZN5RCrop11get_org_posE15tag_rcrop_pointbb
libesimp2.so:_ZN5RCrop11rot_point_dE10RCropPointdRdS1_
libesimp2.so:_ZN5RCrop12read_settingEPKc
libesimp2.so:_ZN5RCrop13buildup_paramEPK20tag_rcrop_param_abstPK15tag_rcrop_image
libesimp2.so:_ZN5RCrop13calc_outerfitERK32tag_paperedge_detection_subimage
libesimp2.so:_ZN5RCrop13calc_skew_fitERdR10RCropPointS2_
libesimp2.so:_ZN5RCrop13get_org_pos_xEib
libesimp2.so:_ZN5RCrop13get_org_pos_yEib
libesimp2.so:_ZN5RCrop14calc_roughnessEv
libesimp2.so:_ZN5RCrop14make_skew_histEPiRKSt6vectorIiSaIiEE
libesimp2.so:_ZN5RCrop15calc_edge_rangeERK13RCropBinImageRK15tag_rcrop_pointS5_
libesimp2.so:_ZN5RCrop15calc_skew_1edgeERK11RCropPointsiRSt6vectorIiSaIiEE
libesimp2.so:_ZN5RCrop15check_edge_pairER11RCropPointsS1_
libesimp2.so:_ZN5RCrop15check_parameterEv
libesimp2.so:_ZN5RCrop15plot_edge_rangeERK15tag_rcrop_imageR32tag_paperedge_detection_subimage
libesimp2.so:_ZN5RCrop15rot_point_set_xE10RCropPointdi
libesimp2.so:_ZN5RCrop15rot_point_set_yE10RCropPointdi
libesimp2.so:_ZN5RCrop15set_crop_resultEv
libesimp2.so:_ZN5RCrop15set_edge_pointsERiP15tag_rcrop_pointRK11RCropPoints
libesimp2.so:_ZN5RCrop16calc_crop_pointsERK32tag_paperedge_detection_subimageR10RCropPointS4_d
libesimp2.so:_ZN5RCrop16calc_rotate_rectEiRdR10RCropPointS2_b
libesimp2.so:_ZN5RCrop16plot_crop_pointsERK15tag_rcrop_imageR32tag_paperedge_detection_subimageb
libesimp2.so:_ZN5RCrop16plot_crop_pointsERK32tag_paperedge_detection_subimageRS0_b
libesimp2.so:_ZN5RCrop17check_filterparamEPimPKi
libesimp2.so:_ZN5RCrop17exam_points_1edgeEi
libesimp2.so:_ZN5RCrop17set_location_dataEv
libesimp2.so:_ZN5RCrop18calc_rect_fixedgesER11RCropPointsS1_S1_S1_dR10RCropPointS3_
libesimp2.so:_ZN5RCrop18check_edge_pair_lrER11RCropPointsS1_S1_S1_
libesimp2.so:_ZN5RCrop18check_edge_pair_tbER11RCropPointsS1_S1_S1_
libesimp2.so:_ZN5RCrop18detect_crop_pointsERK13RCropBinImage
libesimp2.so:_ZN5RCrop18get_rot_crop_imageER32tag_paperedge_detection_subimage
libesimp2.so:_ZN5RCrop18set_invalid_resultEv
libesimp2.so:_ZN5RCrop19get_detected_pointsEi
libesimp2.so:_ZN5RCrop20plot_crop_points_subER32tag_paperedge_detection_subimageb
libesimp2.so:_ZN5RCrop20plot_detected_pointsERK15tag_rcrop_imageR32tag_paperedge_detection_subimage
libesimp2.so:_ZN5RCrop20plot_detected_pointsERK32tag_paperedge_detection_subimageRS0_
libesimp2.so:_ZN5RCrop24eliminate_invalid_pointsEv
libesimp2.so:_ZN5RCrop24plot_detected_points_subER32tag_paperedge_detection_subimage
libesimp2.so:_ZN5RCrop30eliminate_invalid_points_1edgeER11RCropPoints
libesimp2.so:_ZN5RCrop6detectEP16tag_rcrop_result
libesimp2.so:_ZN5RCrop8get_resxEv
libesimp2.so:_ZN5RCrop8get_resyEv
libesimp2.so:_ZN5RCrop8rot_axesERK11RCropPointsRS0_d
libesimp2.so:_ZN5RCrop9calc_blobER10RCropPointS1_
libesimp2.so:_ZN5RCrop9calc_rectER11RCropPointsS1_S1_S1_R10RCropPointS3_
libesimp2.so:_ZN5RCrop9calc_skewEv
libesimp2.so:_ZN5RCrop9find_edgeERK13RCropBinImageRK10RCropPointi
libesimp2.so:_ZN5RCrop9plot_lineER32tag_paperedge_detection_subimage15tag_rcrop_pointS2_PKh
libesimp2.so:_ZN5RCrop9rot_pointE10RCropPointd
libesimp2.so:_ZN5RCrop9set_imageEP10RCropImage
libesimp2.so:_ZN5RCropC1Ev
libesimp2.so:_ZN5RCropC2Ev
libesimp2.so:_ZN5RCropD1Ev
libesimp2.so:_ZN5RCropD2Ev
libesimp2.so:_ZN6CImage11expansion_hEv
libesimp2.so:_ZN6CImage11read_as_rawEPciiiii
libesimp2.so:_ZN6CImage12read_as_tiffEPKci
libesimp2.so:_ZN6CImage12write_as_csvEPc
libesimp2.so:_ZN6CImage13write_as_tiffEPc
libesimp2.so:_ZN6CImage15set_compressionEi
libesimp2.so:_ZN6CImage15swap_buffer_rgbEv
libesimp2.so:_ZN6CImage16get_filtered_valEiiiRA9_Kd
libesimp2.so:_ZN6CImage16value_offset_allEPi
libesimp2.so:_ZN6CImage17shrink_buffer_rgbEv
libesimp2.so:_ZN6CImage17value_offset_rectEiiiiPi
libesimp2.so:_ZN6CImage19apply_filter_matrixERA9_KdS2_S2_
libesimp2.so:_ZN6CImage19conv_profile_matrixERA9_Kd
libesimp2.so:_ZN6CImage1BEii
libesimp2.so:_ZN6CImage1GEii
libesimp2.so:_ZN6CImage1REii
libesimp2.so:_ZN6CImage22dup_buffer_gray_to_rgbEv
libesimp2.so:_ZN6CImage3cutEiiii
libesimp2.so:_ZN6CImage3dotEiiPh
libesimp2.so:_ZN6CImage3valEii
libesimp2.so:_ZN6CImage3valEiii
libesimp2.so:_ZN6CImage4lineEddddPh
libesimp2.so:_ZN6CImage4lineEiiiiPh
libesimp2.so:_ZN6CImage4meanEiiii
libesimp2.so:_ZN6CImage4meanEiiiii
libesimp2.so:_ZN6CImage4readEPc
libesimp2.so:_ZN6CImage4rectEiiiiPh
libesimp2.so:_ZN6CImage5pasteEiiRKS_
libesimp2.so:_ZN6CImage5writeEPc
libesimp2.so:_ZN6CImage6line_hEddddPh
libesimp2.so:_ZN6CImage6line_hEiiiiPh
libesimp2.so:_ZN6CImage6line_vEiiiiPh
libesimp2.so:_ZN6CImage6resizeEii
libesimp2.so:_ZN6CImage6rot_90Ev
libesimp2.so:_ZN6CImage6rotateEi
libesimp2.so:_ZN6CImage6tograyEddd
libesimp2.so:_ZN6CImage7addressEiii
libesimp2.so:_ZN6CImage7conv_1dEPh
libesimp2.so:_ZN6CImage7dot_addEiiPKh
libesimp2.so:_ZN6CImage7line_v2EddddPh
libesimp2.so:_ZN6CImage7line_v2EiiiiPh
libesimp2.so:_ZN6CImage7releaseEv
libesimp2.so:_ZN6CImage7rot_180Ev
libesimp2.so:_ZN6CImage7rot_270Ev
libesimp2.so:_ZN6CImage7set_resEii
libesimp2.so:_ZN6CImage7set_valEiii
libesimp2.so:_ZN6CImage7set_valEiiii
libesimp2.so:_ZN6CImage8set_sizeEiiii
libesimp2.so:_ZN6CImage9get_hmeanEPhm
libesimp2.so:_ZN6CImage9get_hmeanEPhmiiii
libesimp2.so:_ZN6CImage9get_vmeanEPhm
libesimp2.so:_ZN6CImage9get_vmeanEPhmiiii
libesimp2.so:_ZN6CImage9rect_fillEiiiiPh
libesimp2.so:_ZN6CImageC1ERKS_
libesimp2.so:_ZN6CImageC1Ev
libesimp2.so:_ZN6CImageC2ERKS_
libesimp2.so:_ZN6CImageC2Ev
libesimp2.so:_ZN6CImageD1Ev
libesimp2.so:_ZN6CImageD2Ev
libesimp2.so:_ZN6CImageaSERKS_
libesimp2.so:_ZN6CImageclEii
libesimp2.so:_ZN8RCropLog10write_histEiPKciPK32tag_paperedge_detection_subimagePKiiii
libesimp2.so:_ZN8RCropLog10write_histEiPKciRK32tag_paperedge_detection_subimagePKiiii
libesimp2.so:_ZN8RCropLog11write_imageEiPKciPK32tag_paperedge_detection_subimageii
libesimp2.so:_ZN8RCropLog11write_imageEiPKciRK15tag_rcrop_imageii
libesimp2.so:_ZN8RCropLog11write_imageEiPKciRK32tag_paperedge_detection_subimageii
libesimp2.so:_ZN8RCropLog12get_filenameEPcmPK32tag_paperedge_detection_subimagePKciS5_
libesimp2.so:_ZN8RCropLog13get_phasenameEPcmPKci
libesimp2.so:_ZN8RCropLog15write_image_csvEiPKciPK32tag_paperedge_detection_subimageii
libesimp2.so:_ZN8RCropLog15write_image_csvEiPKciRK32tag_paperedge_detection_subimageii
libesimp2.so:_ZN8RCropLog16get_csv_filenameEPcmPK32tag_paperedge_detection_subimagePKci
libesimp2.so:_ZN8RCropLog18get_image_filenameEPcmPK32tag_paperedge_detection_subimagePKci
libesimp2.so:_ZN8RCropLog9get_imageER6CImagePK32tag_paperedge_detection_subimageii
libesimp2.so:_ZN8RCropLog9get_imageER6CImageRK15tag_rcrop_imageii
libesimp2.so:_ZN8RCropLog9set_paramEP10RCropParamP10RCropImage
libesimp2.so:_ZN8RCropLogC1Ev
libesimp2.so:_ZN8RCropLogC2Ev
libesimp2.so:_ZN8RCropLogD1Ev
libesimp2.so:_ZN8RCropLogD2Ev
libesimp2.so:_ZNK10RCropParam14crop_min_widthEi
libesimp2.so:_ZNK10RCropParam15crop_min_heightEi
libesimp2.so:_ZNK10RCropParam15crop_offset_topEi
libesimp2.so:_ZNK10RCropParam15get_detect_resxEi
libesimp2.so:_ZNK10RCropParam15get_detect_resyEi
libesimp2.so:_ZNK10RCropParam16crop_offset_leftEi
libesimp2.so:_ZNK10RCropParam17crop_offset_rightEi
libesimp2.so:_ZNK10RCropParam18crop_offset_bottomEi
libesimp2.so:_ZNK10RCropParam19th_cross_neighbor_xEi
libesimp2.so:_ZNK10RCropParam19th_cross_neighbor_yEi
libesimp2.so:_ZNK10RCropParam7th_edgeEv
libesimp2.so:_ZNK10RCropParam8th_edge2Ev
libesimp2.so:_ZNK10RCropParam9sum_af_mxEv
libesimp2.so:_ZNK10RCropParam9sum_df_mxEv
libesimp2.so:_ZNK10RCropPoint4distERK11RCropPointsi
libesimp2.so:_ZNK10RCropPoint4distERKS_
libesimp2.so:_ZNK10RCropPoint4rectERKS_
libesimp2.so:_ZNK10RCropPoint4tiltERKS_ii
libesimp2.so:_ZNK10RCropPoint5dist2ERKS_
libesimp2.so:_ZNK10RCropPoint5widthERKS_
libesimp2.so:_ZNK10RCropPoint6heightERKS_
libesimp2.so:_ZNK10RCropPointcv15tag_rcrop_pointEv
libesimp2.so:_ZNK10RCropPointeqERKS_
libesimp2.so:_ZNK10RCropPointmiERKS_
libesimp2.so:_ZNK11RCropPoints11valid_countEv
libesimp2.so:_ZNK11RCropPoints5validEv
libesimp2.so:_ZNK13RCropBinImage10get_bufferEv
libesimp2.so:_ZNK13RCropBinImage10get_heightEv
libesimp2.so:_ZNK13RCropBinImage13get_line_sizeEv
libesimp2.so:_ZNK13RCropBinImage15get_line_bufferEi
libesimp2.so:_ZNK13RCropBinImage9get_widthEv
libesimp2.so:_ZNK13RCropBinImagecv15tag_rcrop_imageEv
libesimp2.so:_ZNK15RCropLineBuffercvbEv
libesimp2.so:__bss_start
libesimp2.so:_edata
libesimp2.so:_end
libesimp2.so:_fini
libesimp2.so:_init
libesimp2.so:isqrt
libesimp2.so:rcrop_detect_d
libesimp2.so:rcrop_detect_f
libesimp2.so:rcrop_detect_f_setting
libesimp2.so:rcrop_detect_m
libesimp2.so:rcrop_detect_m_setting
libesimp2.so:thelog
libesintA1.so.2:
libesintA1.so.2:_Z18esintA1_SYMBOL_503iiiiPd
libesintA1.so.2:_Z18esintA1_SYMBOL_510PvPKvj
libesintA1.so.2:_Z18esintA1_SYMBOL_522PhS_iiPd
libesintA1.so.2:_Z18esintA1_SYMBOL_600RKSs
libesintA1.so.2:_Z18esintA1_SYMBOL_607v
libesintA1.so.2:_Z18esintA1_SYMBOL_619Pvjj
libesintA1.so.2:_Z18esintA1_SYMBOL_620jjj
libesintA1.so.2:_Z18esintA1_SYMBOL_621Pv
libesintA1.so.2:_Z18esintA1_SYMBOL_622PvjS_
libesintA1.so.2:_Z18esintA1_SYMBOL_624t
libesintA1.so.2:_Z18esintA1_SYMBOL_625j
libesintA1.so.2:_Z18esintA1_SYMBOL_660v
libesintA1.so.2:_Z18esintA1_SYMBOL_661v
libesintA1.so.2:_Z18esintA1_SYMBOL_664PFilE
libesintA1.so.2:_Z18esintA1_SYMBOL_711t
libesintA1.so.2:_Z18esintA1_SYMBOL_713j
libesintA1.so.2:_Z18esintA1_SYMBOL_720tt
libesintA1.so.2:_Z18esintA1_SYMBOL_721hh
libesintA1.so.2:_Z18esintA1_SYMBOL_727lPKcS0_j
libesintA1.so.2:_Z18esintA1_SYMBOL_736Phjjj
libesintA1.so.2:_Z18esintA1_SYMBOL_737hi
libesintA1.so.2:_Z18esintA1_SYMBOL_751Pv
libesintA1.so.2:_Z18esintA1_SYMBOL_761Pv
libesintA1.so.2:_Z18esintA1_SYMBOL_771Pv
libesintA1.so.2:_Z18esintA1_SYMBOL_798Pv
libesintA1.so.2:_Z18esintA1_SYMBOL_819j
libesintA1.so.2:_Z18esintA1_SYMBOL_888Pvjjj
libesintA1.so.2:_Z18esintA1_SYMBOL_889Pvjj
libesintA1.so.2:_Z18esintA1_SYMBOL_891Pvj
libesintA1.so.2:_Z18esintA1_SYMBOL_898Pvj
libesintA1.so.2:_ZN18esintA1_SYMBOL_51218esintA1_SYMBOL_450E16stScanning_Param
libesintA1.so.2:_ZN18esintA1_SYMBOL_51218esintA1_SYMBOL_453E16stScanning_Param
libesintA1.so.2:_ZN18esintA1_SYMBOL_51218esintA1_SYMBOL_454E16stScanning_Param
libesintA1.so.2:_ZN18esintA1_SYMBOL_51218esintA1_SYMBOL_455E16stScanning_Paramh
libesintA1.so.2:_ZN18esintA1_SYMBOL_51218esintA1_SYMBOL_456EPhPtjt
libesintA1.so.2:_ZN18esintA1_SYMBOL_51218esintA1_SYMBOL_457EPtPjjj
libesintA1.so.2:_ZN18esintA1_SYMBOL_51218esintA1_SYMBOL_460EjhPhS0_
libesintA1.so.2:_ZN18esintA1_SYMBOL_51218esintA1_SYMBOL_461E16stScanning_Param
libesintA1.so.2:_ZN18esintA1_SYMBOL_51218esintA1_SYMBOL_463EjPth
libesintA1.so.2:_ZN18esintA1_SYMBOL_51218esintA1_SYMBOL_465E16stScanning_Param9stShading
libesintA1.so.2:_ZN18esintA1_SYMBOL_51218esintA1_SYMBOL_468Ev
libesintA1.so.2:_ZN18esintA1_SYMBOL_51218esintA1_SYMBOL_469E16stScanning_ParamjjP7stShiftj
libesintA1.so.2:_ZN18esintA1_SYMBOL_51218esintA1_SYMBOL_470E16stScanning_ParamjjP7stShift
libesintA1.so.2:_ZN18esintA1_SYMBOL_51218esintA1_SYMBOL_471E16stScanning_ParamjjP7stShiftj
libesintA1.so.2:_ZN18esintA1_SYMBOL_51218esintA1_SYMBOL_472E16stScanning_ParamjjP7stShiftj
libesintA1.so.2:_ZN18esintA1_SYMBOL_51218esintA1_SYMBOL_473E16stScanning_ParamP7stShift
libesintA1.so.2:_ZN18esintA1_SYMBOL_51218esintA1_SYMBOL_474E16stScanning_ParamP7stShift12stSH_SETTINGh
libesintA1.so.2:_ZN18esintA1_SYMBOL_51218esintA1_SYMBOL_475EjhhhPttth
libesintA1.so.2:_ZN18esintA1_SYMBOL_51218esintA1_SYMBOL_476EPhjj17stGainTable_Param
libesintA1.so.2:_ZN18esintA1_SYMBOL_51218esintA1_SYMBOL_477Et
libesintA1.so.2:_ZN18esintA1_SYMBOL_51218esintA1_SYMBOL_478Ehjti
libesintA1.so.2:_ZN18esintA1_SYMBOL_51218esintA1_SYMBOL_479EjhhhPttth
libesintA1.so.2:_ZN18esintA1_SYMBOL_51218esintA1_SYMBOL_480E16stScanning_Param
libesintA1.so.2:_ZN18esintA1_SYMBOL_51218esintA1_SYMBOL_481Eh
libesintA1.so.2:_ZN18esintA1_SYMBOL_51218esintA1_SYMBOL_482EP16stScanning_Param
libesintA1.so.2:_ZN18esintA1_SYMBOL_51218esintA1_SYMBOL_483E16stScanning_Paramj
libesintA1.so.2:_ZN18esintA1_SYMBOL_51218esintA1_SYMBOL_484E16stScanning_Param
libesintA1.so.2:_ZN18esintA1_SYMBOL_51218esintA1_SYMBOL_485E16stScanning_Param
libesintA1.so.2:_ZN18esintA1_SYMBOL_51218esintA1_SYMBOL_486E16stScanning_Param
libesintA1.so.2:_ZN18esintA1_SYMBOL_51218esintA1_SYMBOL_489Ev
libesintA1.so.2:_ZN18esintA1_SYMBOL_51218esintA1_SYMBOL_490EPhj17stALOCTable_Param17stGainTable_Param
libesintA1.so.2:_ZN18esintA1_SYMBOL_51218esintA1_SYMBOL_491Ej17stALOCTable_Param
libesintA1.so.2:_ZN18esintA1_SYMBOL_51218esintA1_SYMBOL_492Ejjjtj
libesintA1.so.2:_ZN18esintA1_SYMBOL_51218esintA1_SYMBOL_493Ei
libesintA1.so.2:_ZN18esintA1_SYMBOL_51218esintA1_SYMBOL_494Ehh
libesintA1.so.2:_ZN18esintA1_SYMBOL_51218esintA1_SYMBOL_495Ev
libesintA1.so.2:_ZN18esintA1_SYMBOL_51218esintA1_SYMBOL_496E16stScanning_Param
libesintA1.so.2:_ZN18esintA1_SYMBOL_51218esintA1_SYMBOL_497E16stScanning_Param
libesintA1.so.2:_ZN18esintA1_SYMBOL_51218esintA1_SYMBOL_498E16stScanning_Param
libesintA1.so.2:_ZN18esintA1_SYMBOL_51218esintA1_SYMBOL_499E16stScanning_Param
libesintA1.so.2:_ZN18esintA1_SYMBOL_51218esintA1_SYMBOL_500EhP16stScanning_Param
libesintA1.so.2:_ZN18esintA1_SYMBOL_51218esintA1_SYMBOL_501Ev
libesintA1.so.2:_ZN18esintA1_SYMBOL_51218esintA1_SYMBOL_502Ehhh
libesintA1.so.2:_ZN18esintA1_SYMBOL_51218esintA1_SYMBOL_504E10stCCD_Time
libesintA1.so.2:_ZN18esintA1_SYMBOL_51218esintA1_SYMBOL_505E5stADC
libesintA1.so.2:_ZN18esintA1_SYMBOL_51218esintA1_SYMBOL_506Eh
libesintA1.so.2:_ZN18esintA1_SYMBOL_51218esintA1_SYMBOL_507Ev
libesintA1.so.2:_ZN18esintA1_SYMBOL_51218esintA1_SYMBOL_508Ejjt
libesintA1.so.2:_ZN18esintA1_SYMBOL_51218esintA1_SYMBOL_509Et
libesintA1.so.2:_ZN18esintA1_SYMBOL_51218esintA1_SYMBOL_511Ejh
libesintA1.so.2:_ZN18esintA1_SYMBOL_51218esintA1_SYMBOL_516EPhj
libesintA1.so.2:_ZN18esintA1_SYMBOL_51218esintA1_SYMBOL_517EPhj
libesintA1.so.2:_ZN18esintA1_SYMBOL_51218esintA1_SYMBOL_518E16stScanning_Param
libesintA1.so.2:_ZN18esintA1_SYMBOL_51218esintA1_SYMBOL_519EPht
libesintA1.so.2:_ZN18esintA1_SYMBOL_51218esintA1_SYMBOL_524EhjjPh
libesintA1.so.2:_ZN18esintA1_SYMBOL_51218esintA1_SYMBOL_525EhjjPj
libesintA1.so.2:_ZN18esintA1_SYMBOL_51218esintA1_SYMBOL_526EhjjPt
libesintA1.so.2:_ZN18esintA1_SYMBOL_51218esintA1_SYMBOL_530Eh
libesintA1.so.2:_ZN18esintA1_SYMBOL_51218esintA1_SYMBOL_531EPh
libesintA1.so.2:_ZN18esintA1_SYMBOL_51218esintA1_SYMBOL_532EPh
libesintA1.so.2:_ZN18esintA1_SYMBOL_51218esintA1_SYMBOL_533EPhh
libesintA1.so.2:_ZN18esintA1_SYMBOL_51218esintA1_SYMBOL_534EPh
libesintA1.so.2:_ZN18esintA1_SYMBOL_51218esintA1_SYMBOL_535EPhh
libesintA1.so.2:_ZN18esintA1_SYMBOL_51218esintA1_SYMBOL_536EPhh
libesintA1.so.2:_ZN18esintA1_SYMBOL_51218esintA1_SYMBOL_537EPhh
libesintA1.so.2:_ZN18esintA1_SYMBOL_51218esintA1_SYMBOL_538EPhh
libesintA1.so.2:_ZN18esintA1_SYMBOL_51218esintA1_SYMBOL_539EPhh
libesintA1.so.2:_ZN18esintA1_SYMBOL_51218esintA1_SYMBOL_540EPhh
libesintA1.so.2:_ZN18esintA1_SYMBOL_51218esintA1_SYMBOL_541EPh
libesintA1.so.2:_ZN18esintA1_SYMBOL_51218esintA1_SYMBOL_542EPh
libesintA1.so.2:_ZN18esintA1_SYMBOL_51218esintA1_SYMBOL_543EPh
libesintA1.so.2:_ZN18esintA1_SYMBOL_51218esintA1_SYMBOL_544EPh
libesintA1.so.2:_ZN18esintA1_SYMBOL_51218esintA1_SYMBOL_545EPh
libesintA1.so.2:_ZN18esintA1_SYMBOL_51218esintA1_SYMBOL_546EPh
libesintA1.so.2:_ZN18esintA1_SYMBOL_51218esintA1_SYMBOL_547EPh
libesintA1.so.2:_ZN18esintA1_SYMBOL_51218esintA1_SYMBOL_548EPhh
libesintA1.so.2:_ZN18esintA1_SYMBOL_51218esintA1_SYMBOL_549EPhh
libesintA1.so.2:_ZN18esintA1_SYMBOL_51218esintA1_SYMBOL_550EPhh
libesintA1.so.2:_ZN18esintA1_SYMBOL_51218esintA1_SYMBOL_551EPhh
libesintA1.so.2:_ZN18esintA1_SYMBOL_51218esintA1_SYMBOL_552EPh
libesintA1.so.2:_ZN18esintA1_SYMBOL_51218esintA1_SYMBOL_555EPhh
libesintA1.so.2:_ZN18esintA1_SYMBOL_51218esintA1_SYMBOL_556EPh
libesintA1.so.2:_ZN18esintA1_SYMBOL_51218esintA1_SYMBOL_557EPhh
libesintA1.so.2:_ZN18esintA1_SYMBOL_51218esintA1_SYMBOL_558EPh
libesintA1.so.2:_ZN18esintA1_SYMBOL_51218esintA1_SYMBOL_559EPh
libesintA1.so.2:_ZN18esintA1_SYMBOL_51218esintA1_SYMBOL_560EPh
libesintA1.so.2:_ZN18esintA1_SYMBOL_51218esintA1_SYMBOL_561EPhh
libesintA1.so.2:_ZN18esintA1_SYMBOL_51218esintA1_SYMBOL_562Ev
libesintA1.so.2:_ZN18esintA1_SYMBOL_51218esintA1_SYMBOL_564EPhj
libesintA1.so.2:_ZN18esintA1_SYMBOL_51218esintA1_SYMBOL_565EPh
libesintA1.so.2:_ZN18esintA1_SYMBOL_51218esintA1_SYMBOL_566Ev
libesintA1.so.2:_ZN18esintA1_SYMBOL_51218esintA1_SYMBOL_567EPh
libesintA1.so.2:_ZN18esintA1_SYMBOL_51218esintA1_SYMBOL_568EPhh
libesintA1.so.2:_ZN18esintA1_SYMBOL_51218esintA1_SYMBOL_569EPh
libesintA1.so.2:_ZN18esintA1_SYMBOL_51218esintA1_SYMBOL_570EPh
libesintA1.so.2:_ZN18esintA1_SYMBOL_51218esintA1_SYMBOL_571EPh
libesintA1.so.2:_ZN18esintA1_SYMBOL_51218esintA1_SYMBOL_572EPh
libesintA1.so.2:_ZN18esintA1_SYMBOL_51218esintA1_SYMBOL_573Ev
libesintA1.so.2:_ZN18esintA1_SYMBOL_51218esintA1_SYMBOL_574EPh
libesintA1.so.2:_ZN18esintA1_SYMBOL_51218esintA1_SYMBOL_575EPh
libesintA1.so.2:_ZN18esintA1_SYMBOL_51218esintA1_SYMBOL_577Eh
libesintA1.so.2:_ZN18esintA1_SYMBOL_51218esintA1_SYMBOL_578E16stScanning_Param
libesintA1.so.2:_ZN18esintA1_SYMBOL_51218esintA1_SYMBOL_579EPh
libesintA1.so.2:_ZN18esintA1_SYMBOL_51218esintA1_SYMBOL_580Ev
libesintA1.so.2:_ZN18esintA1_SYMBOL_51218esintA1_SYMBOL_581Ev
libesintA1.so.2:_ZN18esintA1_SYMBOL_51218esintA1_SYMBOL_582Ev
libesintA1.so.2:_ZN18esintA1_SYMBOL_51218esintA1_SYMBOL_583Ev
libesintA1.so.2:_ZN18esintA1_SYMBOL_51218esintA1_SYMBOL_584Ev
libesintA1.so.2:_ZN18esintA1_SYMBOL_51218esintA1_SYMBOL_585Ev
libesintA1.so.2:_ZN18esintA1_SYMBOL_51218esintA1_SYMBOL_587EPh
libesintA1.so.2:_ZN18esintA1_SYMBOL_51218esintA1_SYMBOL_588EPhh
libesintA1.so.2:_ZN18esintA1_SYMBOL_51218esintA1_SYMBOL_589EPh
libesintA1.so.2:_ZN18esintA1_SYMBOL_51218esintA1_SYMBOL_590EPh
libesintA1.so.2:_ZN18esintA1_SYMBOL_51218esintA1_SYMBOL_591EPh
libesintA1.so.2:_ZN18esintA1_SYMBOL_51218esintA1_SYMBOL_596E10stCCD_Time
libesintA1.so.2:_ZN18esintA1_SYMBOL_51218esintA1_SYMBOL_597E10stCCD_Time
libesintA1.so.2:_ZN18esintA1_SYMBOL_51218esintA1_SYMBOL_599Ev
libesintA1.so.2:_ZN18esintA1_SYMBOL_51218esintA1_SYMBOL_601EPh
libesintA1.so.2:_ZN18esintA1_SYMBOL_51218esintA1_SYMBOL_602Ev
libesintA1.so.2:_ZN18esintA1_SYMBOL_51218esintA1_SYMBOL_603Eh
libesintA1.so.2:_ZN18esintA1_SYMBOL_51218esintA1_SYMBOL_604EPh
libesintA1.so.2:_ZN18esintA1_SYMBOL_51218esintA1_SYMBOL_605EPh
libesintA1.so.2:_ZN18esintA1_SYMBOL_51218esintA1_SYMBOL_606Eh
libesintA1.so.2:_ZN18esintA1_SYMBOL_51218esintA1_SYMBOL_608Ev
libesintA1.so.2:_ZN18esintA1_SYMBOL_51218esintA1_SYMBOL_635EPhjhjjjjjh
libesintA1.so.2:_ZN18esintA1_SYMBOL_51218esintA1_SYMBOL_636EPtjjjjjjhhhhhh
libesintA1.so.2:_ZN18esintA1_SYMBOL_51218esintA1_SYMBOL_637EPhjjjjjjhhhhh
libesintA1.so.2:_ZN18esintA1_SYMBOL_51218esintA1_SYMBOL_640Ev
libesintA1.so.2:_ZN18esintA1_SYMBOL_51218esintA1_SYMBOL_641Ev
libesintA1.so.2:_ZN18esintA1_SYMBOL_51218esintA1_SYMBOL_642EP16stScanning_Paramh
libesintA1.so.2:_ZN18esintA1_SYMBOL_51218esintA1_SYMBOL_644Ev
libesintA1.so.2:_ZN18esintA1_SYMBOL_51218esintA1_SYMBOL_645Ev
libesintA1.so.2:_ZN18esintA1_SYMBOL_51218esintA1_SYMBOL_646Ev
libesintA1.so.2:_ZN18esintA1_SYMBOL_51218esintA1_SYMBOL_647Ev
libesintA1.so.2:_ZN18esintA1_SYMBOL_51218esintA1_SYMBOL_648Ev
libesintA1.so.2:_ZN18esintA1_SYMBOL_51218esintA1_SYMBOL_649Ev
libesintA1.so.2:_ZN18esintA1_SYMBOL_51218esintA1_SYMBOL_650Ei
libesintA1.so.2:_ZN18esintA1_SYMBOL_51218esintA1_SYMBOL_651EP16stScanning_Paramh
libesintA1.so.2:_ZN18esintA1_SYMBOL_51218esintA1_SYMBOL_667E16stScanning_Paramh
libesintA1.so.2:_ZN18esintA1_SYMBOL_51218esintA1_SYMBOL_668E16stScanning_Param
libesintA1.so.2:_ZN18esintA1_SYMBOL_51218esintA1_SYMBOL_669E16stScanning_Param
libesintA1.so.2:_ZN18esintA1_SYMBOL_51218esintA1_SYMBOL_670E16stScanning_Param
libesintA1.so.2:_ZN18esintA1_SYMBOL_51218esintA1_SYMBOL_671EPjjjj17stALOCTable_Param
libesintA1.so.2:_ZN18esintA1_SYMBOL_51218esintA1_SYMBOL_672Ei
libesintA1.so.2:_ZN18esintA1_SYMBOL_51218esintA1_SYMBOL_673Ei
libesintA1.so.2:_ZN18esintA1_SYMBOL_51218esintA1_SYMBOL_674Ev
libesintA1.so.2:_ZN18esintA1_SYMBOL_51218esintA1_SYMBOL_675E16stScanning_Param
libesintA1.so.2:_ZN18esintA1_SYMBOL_51218esintA1_SYMBOL_676E16stScanning_Param
libesintA1.so.2:_ZN18esintA1_SYMBOL_51218esintA1_SYMBOL_677E16stScanning_Param
libesintA1.so.2:_ZN18esintA1_SYMBOL_51218esintA1_SYMBOL_678Eh
libesintA1.so.2:_ZN18esintA1_SYMBOL_51218esintA1_SYMBOL_679E16stScanning_Param
libesintA1.so.2:_ZN18esintA1_SYMBOL_51218esintA1_SYMBOL_680EhjPhS0_
libesintA1.so.2:_ZN18esintA1_SYMBOL_51218esintA1_SYMBOL_681EhjPhS0_
libesintA1.so.2:_ZN18esintA1_SYMBOL_51218esintA1_SYMBOL_682EhjPhS0_
libesintA1.so.2:_ZN18esintA1_SYMBOL_51218esintA1_SYMBOL_683Ev
libesintA1.so.2:_ZN18esintA1_SYMBOL_51218esintA1_SYMBOL_685Eh
libesintA1.so.2:_ZN18esintA1_SYMBOL_51218esintA1_SYMBOL_686Eh
libesintA1.so.2:_ZN18esintA1_SYMBOL_51218esintA1_SYMBOL_687EhjPh
libesintA1.so.2:_ZN18esintA1_SYMBOL_51218esintA1_SYMBOL_688EhjPh
libesintA1.so.2:_ZN18esintA1_SYMBOL_51218esintA1_SYMBOL_689EhjPh
libesintA1.so.2:_ZN18esintA1_SYMBOL_51218esintA1_SYMBOL_690Eh
libesintA1.so.2:_ZN18esintA1_SYMBOL_51218esintA1_SYMBOL_691E16stScanning_Param
libesintA1.so.2:_ZN18esintA1_SYMBOL_51218esintA1_SYMBOL_692EhjPhS0_
libesintA1.so.2:_ZN18esintA1_SYMBOL_51218esintA1_SYMBOL_693EhjPhS0_
libesintA1.so.2:_ZN18esintA1_SYMBOL_51218esintA1_SYMBOL_694EhjPhS0_
libesintA1.so.2:_ZN18esintA1_SYMBOL_51218esintA1_SYMBOL_695Ev
libesintA1.so.2:_ZN18esintA1_SYMBOL_51218esintA1_SYMBOL_697E16stScanning_ParamPh
libesintA1.so.2:_ZN18esintA1_SYMBOL_51218esintA1_SYMBOL_698Eh
libesintA1.so.2:_ZN18esintA1_SYMBOL_51218esintA1_SYMBOL_699Eh
libesintA1.so.2:_ZN18esintA1_SYMBOL_51218esintA1_SYMBOL_700EhjPh
libesintA1.so.2:_ZN18esintA1_SYMBOL_51218esintA1_SYMBOL_701EhjPh
libesintA1.so.2:_ZN18esintA1_SYMBOL_51218esintA1_SYMBOL_702EhjPh
libesintA1.so.2:_ZN18esintA1_SYMBOL_51218esintA1_SYMBOL_703E16stScanning_ParamjPhh
libesintA1.so.2:_ZN18esintA1_SYMBOL_51218esintA1_SYMBOL_704Eihih
libesintA1.so.2:_ZN18esintA1_SYMBOL_51218esintA1_SYMBOL_705Eihih
libesintA1.so.2:_ZN18esintA1_SYMBOL_51218esintA1_SYMBOL_706EPhhih
libesintA1.so.2:_ZN18esintA1_SYMBOL_51218esintA1_SYMBOL_707EPPhih
libesintA1.so.2:_ZN18esintA1_SYMBOL_51218esintA1_SYMBOL_708EPhjt
libesintA1.so.2:_ZN18esintA1_SYMBOL_51218esintA1_SYMBOL_709E16stScanning_Param
libesintA1.so.2:_ZN18esintA1_SYMBOL_51218esintA1_SYMBOL_719EjhPh
libesintA1.so.2:_ZN18esintA1_SYMBOL_51218esintA1_SYMBOL_722EPhj
libesintA1.so.2:_ZN18esintA1_SYMBOL_51218esintA1_SYMBOL_723EPtS0_j
libesintA1.so.2:_ZN18esintA1_SYMBOL_51218esintA1_SYMBOL_724EPhj
libesintA1.so.2:_ZN18esintA1_SYMBOL_51218esintA1_SYMBOL_725EPhS0_j
libesintA1.so.2:_ZN18esintA1_SYMBOL_51218esintA1_SYMBOL_726EPlS0_j
libesintA1.so.2:_ZN18esintA1_SYMBOL_51218esintA1_SYMBOL_728EPhj
libesintA1.so.2:_ZN18esintA1_SYMBOL_51218esintA1_SYMBOL_729EPhj
libesintA1.so.2:_ZN18esintA1_SYMBOL_51218esintA1_SYMBOL_730EPhjhh
libesintA1.so.2:_ZN18esintA1_SYMBOL_51218esintA1_SYMBOL_731E16stScanning_ParamjhPhS1_
libesintA1.so.2:_ZN18esintA1_SYMBOL_51218esintA1_SYMBOL_734E16stScanning_ParamjhPh
libesintA1.so.2:_ZN18esintA1_SYMBOL_51218esintA1_SYMBOL_735E16stScanning_ParamjhPh
libesintA1.so.2:_ZN18esintA1_SYMBOL_51218esintA1_SYMBOL_739Ev
libesintA1.so.2:_ZN18esintA1_SYMBOL_51218esintA1_SYMBOL_742EPi
libesintA1.so.2:_ZN18esintA1_SYMBOL_51218esintA1_SYMBOL_748E16stScanning_Param
libesintA1.so.2:_ZN18esintA1_SYMBOL_51218esintA1_SYMBOL_750EPhj
libesintA1.so.2:_ZN18esintA1_SYMBOL_51218esintA1_SYMBOL_756Ev
libesintA1.so.2:_ZN18esintA1_SYMBOL_51218esintA1_SYMBOL_757Eh
libesintA1.so.2:_ZN18esintA1_SYMBOL_51218esintA1_SYMBOL_759EPhj
libesintA1.so.2:_ZN18esintA1_SYMBOL_51218esintA1_SYMBOL_760E16stScanning_ParamPh
libesintA1.so.2:_ZN18esintA1_SYMBOL_51218esintA1_SYMBOL_762EPh
libesintA1.so.2:_ZN18esintA1_SYMBOL_51218esintA1_SYMBOL_763EPPhji
libesintA1.so.2:_ZN18esintA1_SYMBOL_51218esintA1_SYMBOL_763EPhj
libesintA1.so.2:_ZN18esintA1_SYMBOL_51218esintA1_SYMBOL_763EPhjjj
libesintA1.so.2:_ZN18esintA1_SYMBOL_51218esintA1_SYMBOL_764Ev
libesintA1.so.2:_ZN18esintA1_SYMBOL_51218esintA1_SYMBOL_765Ev
libesintA1.so.2:_ZN18esintA1_SYMBOL_51218esintA1_SYMBOL_766EjPh
libesintA1.so.2:_ZN18esintA1_SYMBOL_51218esintA1_SYMBOL_767EjPh
libesintA1.so.2:_ZN18esintA1_SYMBOL_51218esintA1_SYMBOL_768EjPh
libesintA1.so.2:_ZN18esintA1_SYMBOL_51218esintA1_SYMBOL_769EPh
libesintA1.so.2:_ZN18esintA1_SYMBOL_51218esintA1_SYMBOL_770EPh
libesintA1.so.2:_ZN18esintA1_SYMBOL_51218esintA1_SYMBOL_772E9stESC_CMD
libesintA1.so.2:_ZN18esintA1_SYMBOL_51218esintA1_SYMBOL_774Eh
libesintA1.so.2:_ZN18esintA1_SYMBOL_51218esintA1_SYMBOL_775Ev
libesintA1.so.2:_ZN18esintA1_SYMBOL_51218esintA1_SYMBOL_777E16stScanning_Param
libesintA1.so.2:_ZN18esintA1_SYMBOL_51218esintA1_SYMBOL_778Ev
libesintA1.so.2:_ZN18esintA1_SYMBOL_51218esintA1_SYMBOL_779Ehh
libesintA1.so.2:_ZN18esintA1_SYMBOL_51218esintA1_SYMBOL_780EPhj
libesintA1.so.2:_ZN18esintA1_SYMBOL_51218esintA1_SYMBOL_781Ehi
libesintA1.so.2:_ZN18esintA1_SYMBOL_51218esintA1_SYMBOL_782Ev
libesintA1.so.2:_ZN18esintA1_SYMBOL_51218esintA1_SYMBOL_783EhPt
libesintA1.so.2:_ZN18esintA1_SYMBOL_51218esintA1_SYMBOL_784E16stScanning_Param
libesintA1.so.2:_ZN18esintA1_SYMBOL_51218esintA1_SYMBOL_785Ev
libesintA1.so.2:_ZN18esintA1_SYMBOL_51218esintA1_SYMBOL_786E16stScanning_Param
libesintA1.so.2:_ZN18esintA1_SYMBOL_51218esintA1_SYMBOL_787Ev
libesintA1.so.2:_ZN18esintA1_SYMBOL_51218esintA1_SYMBOL_788E15stMotor_Control
libesintA1.so.2:_ZN18esintA1_SYMBOL_51218esintA1_SYMBOL_789Ev
libesintA1.so.2:_ZN18esintA1_SYMBOL_51218esintA1_SYMBOL_790Ehi
libesintA1.so.2:_ZN18esintA1_SYMBOL_51218esintA1_SYMBOL_791EjPt
libesintA1.so.2:_ZN18esintA1_SYMBOL_51218esintA1_SYMBOL_792E16stScanning_Param
libesintA1.so.2:_ZN18esintA1_SYMBOL_51218esintA1_SYMBOL_793Eh
libesintA1.so.2:_ZN18esintA1_SYMBOL_51218esintA1_SYMBOL_794Ej
libesintA1.so.2:_ZN18esintA1_SYMBOL_51218esintA1_SYMBOL_795E16stScanning_Param
libesintA1.so.2:_ZN18esintA1_SYMBOL_51218esintA1_SYMBOL_796E16stScanning_Param
libesintA1.so.2:_ZN18esintA1_SYMBOL_51218esintA1_SYMBOL_797EP16stScanning_Param
libesintA1.so.2:_ZN18esintA1_SYMBOL_51218esintA1_SYMBOL_799E16stScanning_Param
libesintA1.so.2:_ZN18esintA1_SYMBOL_51218esintA1_SYMBOL_800E16stScanning_Param
libesintA1.so.2:_ZN18esintA1_SYMBOL_51218esintA1_SYMBOL_801Eh
libesintA1.so.2:_ZN18esintA1_SYMBOL_51218esintA1_SYMBOL_802E16stScanning_Param
libesintA1.so.2:_ZN18esintA1_SYMBOL_51218esintA1_SYMBOL_803E16stScanning_ParamPtPhh
libesintA1.so.2:_ZN18esintA1_SYMBOL_51218esintA1_SYMBOL_804E16stScanning_Param
libesintA1.so.2:_ZN18esintA1_SYMBOL_51218esintA1_SYMBOL_805EP16stScanning_Param
libesintA1.so.2:_ZN18esintA1_SYMBOL_51218esintA1_SYMBOL_807E16stScanning_Param
libesintA1.so.2:_ZN18esintA1_SYMBOL_51218esintA1_SYMBOL_808E16stScanning_Param
libesintA1.so.2:_ZN18esintA1_SYMBOL_51218esintA1_SYMBOL_809E16stScanning_Paramh
libesintA1.so.2:_ZN18esintA1_SYMBOL_51218esintA1_SYMBOL_810E16stScanning_Param
libesintA1.so.2:_ZN18esintA1_SYMBOL_51218esintA1_SYMBOL_811E16stScanning_Param
libesintA1.so.2:_ZN18esintA1_SYMBOL_51218esintA1_SYMBOL_812E16stScanning_Param
libesintA1.so.2:_ZN18esintA1_SYMBOL_51218esintA1_SYMBOL_814E16stScanning_Param
libesintA1.so.2:_ZN18esintA1_SYMBOL_51218esintA1_SYMBOL_815E16stScanning_Param
libesintA1.so.2:_ZN18esintA1_SYMBOL_51218esintA1_SYMBOL_821Ev
libesintA1.so.2:_ZN18esintA1_SYMBOL_51218esintA1_SYMBOL_822Ev
libesintA1.so.2:_ZN18esintA1_SYMBOL_51218esintA1_SYMBOL_823Ev
libesintA1.so.2:_ZN18esintA1_SYMBOL_51218esintA1_SYMBOL_824Ev
libesintA1.so.2:_ZN18esintA1_SYMBOL_51218esintA1_SYMBOL_830E10stCCD_Time
libesintA1.so.2:_ZN18esintA1_SYMBOL_51218esintA1_SYMBOL_831E5stADC
libesintA1.so.2:_ZN18esintA1_SYMBOL_51218esintA1_SYMBOL_832Ev
libesintA1.so.2:_ZN18esintA1_SYMBOL_51218esintA1_SYMBOL_840EPhj
libesintA1.so.2:_ZN18esintA1_SYMBOL_51218esintA1_SYMBOL_841EPhj
libesintA1.so.2:_ZN18esintA1_SYMBOL_51218esintA1_SYMBOL_842EPhj
libesintA1.so.2:_ZN18esintA1_SYMBOL_51218esintA1_SYMBOL_843EPjPhj
libesintA1.so.2:_ZN18esintA1_SYMBOL_51218esintA1_SYMBOL_844EPhj
libesintA1.so.2:_ZN18esintA1_SYMBOL_51218esintA1_SYMBOL_845EPtPhj
libesintA1.so.2:_ZN18esintA1_SYMBOL_51218esintA1_SYMBOL_846E16stScanning_ParamPh
libesintA1.so.2:_ZN18esintA1_SYMBOL_51218esintA1_SYMBOL_848Eh
libesintA1.so.2:_ZN18esintA1_SYMBOL_51218esintA1_SYMBOL_849E16stScanning_Paramh
libesintA1.so.2:_ZN18esintA1_SYMBOL_51218esintA1_SYMBOL_850E16stScanning_Paramh
libesintA1.so.2:_ZN18esintA1_SYMBOL_51218esintA1_SYMBOL_851E16stScanning_Paramh
libesintA1.so.2:_ZN18esintA1_SYMBOL_51218esintA1_SYMBOL_852E16stScanning_Paramh
libesintA1.so.2:_ZN18esintA1_SYMBOL_51218esintA1_SYMBOL_853E16stScanning_Paramh
libesintA1.so.2:_ZN18esintA1_SYMBOL_51218esintA1_SYMBOL_854Eh
libesintA1.so.2:_ZN18esintA1_SYMBOL_51218esintA1_SYMBOL_855E16stScanning_Param
libesintA1.so.2:_ZN18esintA1_SYMBOL_51218esintA1_SYMBOL_856Eh
libesintA1.so.2:_ZN18esintA1_SYMBOL_51218esintA1_SYMBOL_857E16stScanning_Param
libesintA1.so.2:_ZN18esintA1_SYMBOL_51218esintA1_SYMBOL_858E16stScanning_Param
libesintA1.so.2:_ZN18esintA1_SYMBOL_51218esintA1_SYMBOL_859EPjjjj17stALOCTable_Param
libesintA1.so.2:_ZN18esintA1_SYMBOL_51218esintA1_SYMBOL_860Ejh
libesintA1.so.2:_ZN18esintA1_SYMBOL_51218esintA1_SYMBOL_861EiP16stScanning_Param
libesintA1.so.2:_ZN18esintA1_SYMBOL_51218esintA1_SYMBOL_862EhPhS0_h16stScanning_Param
libesintA1.so.2:_ZN18esintA1_SYMBOL_51218esintA1_SYMBOL_863E16stScanning_Param
libesintA1.so.2:_ZN18esintA1_SYMBOL_51218esintA1_SYMBOL_864E16stScanning_Param
libesintA1.so.2:_ZN18esintA1_SYMBOL_51218esintA1_SYMBOL_865Eh
libesintA1.so.2:_ZN18esintA1_SYMBOL_51218esintA1_SYMBOL_866Ev
libesintA1.so.2:_ZN18esintA1_SYMBOL_51218esintA1_SYMBOL_867Ev
libesintA1.so.2:_ZN18esintA1_SYMBOL_51218esintA1_SYMBOL_869E16stScanning_Param
libesintA1.so.2:_ZN18esintA1_SYMBOL_51218esintA1_SYMBOL_870E16stScanning_Param
libesintA1.so.2:_ZN18esintA1_SYMBOL_51218esintA1_SYMBOL_871E16stScanning_Param
libesintA1.so.2:_ZN18esintA1_SYMBOL_51218esintA1_SYMBOL_872Ev
libesintA1.so.2:_ZN18esintA1_SYMBOL_51218esintA1_SYMBOL_873Ev
libesintA1.so.2:_ZN18esintA1_SYMBOL_51218esintA1_SYMBOL_874Ev
libesintA1.so.2:_ZN18esintA1_SYMBOL_51218esintA1_SYMBOL_876Ev
libesintA1.so.2:_ZN18esintA1_SYMBOL_51218esintA1_SYMBOL_877E16stScanning_Param
libesintA1.so.2:_ZN18esintA1_SYMBOL_51218esintA1_SYMBOL_878E7stShift
libesintA1.so.2:_ZN18esintA1_SYMBOL_51218esintA1_SYMBOL_879E16stScanning_Param
libesintA1.so.2:_ZN18esintA1_SYMBOL_51218esintA1_SYMBOL_880E16stScanning_Param
libesintA1.so.2:_ZN18esintA1_SYMBOL_51218esintA1_SYMBOL_881E16stScanning_Param
libesintA1.so.2:_ZN18esintA1_SYMBOL_51218esintA1_SYMBOL_882Ev
libesintA1.so.2:_ZN18esintA1_SYMBOL_51218esintA1_SYMBOL_883Ev
libesintA1.so.2:_ZN18esintA1_SYMBOL_51218esintA1_SYMBOL_884EhjjPh
libesintA1.so.2:_ZN18esintA1_SYMBOL_51218esintA1_SYMBOL_894Eh
libesintA1.so.2:_ZN18esintA1_SYMBOL_51218esintA1_SYMBOL_895Ejh
libesintA1.so.2:_ZN18esintA1_SYMBOL_51218esintA1_SYMBOL_896Ejj
libesintA1.so.2:_ZN18esintA1_SYMBOL_51218esintA1_SYMBOL_897Ejt
libesintA1.so.2:_ZN18esintA1_SYMBOL_512C1Ev
libesintA1.so.2:_ZN18esintA1_SYMBOL_512C2Ev
libesintA1.so.2:_ZN18esintA1_SYMBOL_512D1Ev
libesintA1.so.2:_ZN18esintA1_SYMBOL_512D2Ev
libesintA1.so.2:_ZN18esintA1_SYMBOL_51318esintA1_SYMBOL_466EPhj
libesintA1.so.2:_ZN18esintA1_SYMBOL_51318esintA1_SYMBOL_467EPhj
libesintA1.so.2:_ZN18esintA1_SYMBOL_513C1Ev
libesintA1.so.2:_ZN18esintA1_SYMBOL_513C2Ev
libesintA1.so.2:_ZN18esintA1_SYMBOL_513D0Ev
libesintA1.so.2:_ZN18esintA1_SYMBOL_513D1Ev
libesintA1.so.2:_ZN18esintA1_SYMBOL_513D2Ev
libesintA1.so.2:_ZN18esintA1_SYMBOL_51418esintA1_SYMBOL_520Ev
libesintA1.so.2:_ZN18esintA1_SYMBOL_51418esintA1_SYMBOL_521Ev
libesintA1.so.2:_ZN18esintA1_SYMBOL_51418esintA1_SYMBOL_523Ev
libesintA1.so.2:_ZN18esintA1_SYMBOL_51418esintA1_SYMBOL_576ERKh
libesintA1.so.2:_ZN18esintA1_SYMBOL_51418esintA1_SYMBOL_598Ev
libesintA1.so.2:_ZN18esintA1_SYMBOL_51418esintA1_SYMBOL_616Ev
libesintA1.so.2:_ZN18esintA1_SYMBOL_51418esintA1_SYMBOL_643Ev
libesintA1.so.2:_ZN18esintA1_SYMBOL_51418esintA1_SYMBOL_753EPvPjS0_
libesintA1.so.2:_ZN18esintA1_SYMBOL_51418esintA1_SYMBOL_754EPvjS0_
libesintA1.so.2:_ZN18esintA1_SYMBOL_51418esintA1_SYMBOL_886EPvj
libesintA1.so.2:_ZN18esintA1_SYMBOL_51418esintA1_SYMBOL_887EPvj
libesintA1.so.2:_ZN18esintA1_SYMBOL_514C1Ev
libesintA1.so.2:_ZN18esintA1_SYMBOL_514C2Ev
libesintA1.so.2:_ZN18esintA1_SYMBOL_514D1Ev
libesintA1.so.2:_ZN18esintA1_SYMBOL_514D2Ev
libesintA1.so.2:_ZN18esintA1_SYMBOL_65418esintA1_SYMBOL_755EPhj
libesintA1.so.2:_ZN18esintA1_SYMBOL_65418esintA1_SYMBOL_893EPhj
libesintA1.so.2:_ZN18esintA1_SYMBOL_654C1Ev
libesintA1.so.2:_ZN18esintA1_SYMBOL_654C2Ev
libesintA1.so.2:_ZN18esintA1_SYMBOL_654D1Ev
libesintA1.so.2:_ZN18esintA1_SYMBOL_654D2Ev
libesintA1.so.2:__bss_start
libesintA1.so.2:_edata
libesintA1.so.2:_end
libesintA1.so.2:_fini
libesintA1.so.2:_init
libesintA1.so.2:esintA1_SYMBOL_451
libesintA1.so.2:esintA1_SYMBOL_452
libesintA1.so.2:esintA1_SYMBOL_462
libesintA1.so.2:esintA1_SYMBOL_487
libesintA1.so.2:esintA1_SYMBOL_488
libesintA1.so.2:esintA1_SYMBOL_515
libesintA1.so.2:esintA1_SYMBOL_527
libesintA1.so.2:esintA1_SYMBOL_553
libesintA1.so.2:esintA1_SYMBOL_554
libesintA1.so.2:esintA1_SYMBOL_563
libesintA1.so.2:esintA1_SYMBOL_594
libesintA1.so.2:esintA1_SYMBOL_595
libesintA1.so.2:esintA1_SYMBOL_609
libesintA1.so.2:esintA1_SYMBOL_610
libesintA1.so.2:esintA1_SYMBOL_611
libesintA1.so.2:esintA1_SYMBOL_612
libesintA1.so.2:esintA1_SYMBOL_613
libesintA1.so.2:esintA1_SYMBOL_614
libesintA1.so.2:esintA1_SYMBOL_615
libesintA1.so.2:esintA1_SYMBOL_617
libesintA1.so.2:esintA1_SYMBOL_618
libesintA1.so.2:esintA1_SYMBOL_623
libesintA1.so.2:esintA1_SYMBOL_626
libesintA1.so.2:esintA1_SYMBOL_627
libesintA1.so.2:esintA1_SYMBOL_628
libesintA1.so.2:esintA1_SYMBOL_629
libesintA1.so.2:esintA1_SYMBOL_630
libesintA1.so.2:esintA1_SYMBOL_631
libesintA1.so.2:esintA1_SYMBOL_632
libesintA1.so.2:esintA1_SYMBOL_633
libesintA1.so.2:esintA1_SYMBOL_634
libesintA1.so.2:esintA1_SYMBOL_638
libesintA1.so.2:esintA1_SYMBOL_652
libesintA1.so.2:esintA1_SYMBOL_653
libesintA1.so.2:esintA1_SYMBOL_656
libesintA1.so.2:esintA1_SYMBOL_658
libesintA1.so.2:esintA1_SYMBOL_663
libesintA1.so.2:esintA1_SYMBOL_666
libesintA1.so.2:esintA1_SYMBOL_684
libesintA1.so.2:esintA1_SYMBOL_696
libesintA1.so.2:esintA1_SYMBOL_710
libesintA1.so.2:esintA1_SYMBOL_714
libesintA1.so.2:esintA1_SYMBOL_715
libesintA1.so.2:esintA1_SYMBOL_716
libesintA1.so.2:esintA1_SYMBOL_717
libesintA1.so.2:esintA1_SYMBOL_718
libesintA1.so.2:esintA1_SYMBOL_732
libesintA1.so.2:esintA1_SYMBOL_733
libesintA1.so.2:esintA1_SYMBOL_738
libesintA1.so.2:esintA1_SYMBOL_740
libesintA1.so.2:esintA1_SYMBOL_741
libesintA1.so.2:esintA1_SYMBOL_743
libesintA1.so.2:esintA1_SYMBOL_744
libesintA1.so.2:esintA1_SYMBOL_745
libesintA1.so.2:esintA1_SYMBOL_746
libesintA1.so.2:esintA1_SYMBOL_747
libesintA1.so.2:esintA1_SYMBOL_749
libesintA1.so.2:esintA1_SYMBOL_758
libesintA1.so.2:esintA1_SYMBOL_773
libesintA1.so.2:esintA1_SYMBOL_776
libesintA1.so.2:esintA1_SYMBOL_806
libesintA1.so.2:esintA1_SYMBOL_813
libesintA1.so.2:esintA1_SYMBOL_816
libesintA1.so.2:esintA1_SYMBOL_817
libesintA1.so.2:esintA1_SYMBOL_818
libesintA1.so.2:esintA1_SYMBOL_820
libesintA1.so.2:esintA1_SYMBOL_825
libesintA1.so.2:esintA1_SYMBOL_827
libesintA1.so.2:esintA1_SYMBOL_828
libesintA1.so.2:esintA1_SYMBOL_829
libesintA1.so.2:esintA1_SYMBOL_833
libesintA1.so.2:esintA1_SYMBOL_834
libesintA1.so.2:esintA1_SYMBOL_835
libesintA1.so.2:esintA1_SYMBOL_836
libesintA1.so.2:esintA1_SYMBOL_837
libesintA1.so.2:esintA1_SYMBOL_838
libesintA1.so.2:esintA1_SYMBOL_839
libesintA1.so.2:esintA1_SYMBOL_868
libesintA1.so.2:esintA1_SYMBOL_875
libesintA1.so.2:esintA1_SYMBOL_885
libesintA1.so.2:esintA1_SYMBOL_892
libesintA1.so.2:function_s_0
libesintA1.so.2:function_s_1
libesintA1.so.2:int_power_saving_mode
libesintA1.so.2:interpreter_ctor
libesintA1.so.2:interpreter_dtor
libesintA1.so.2:interpreter_reader
libesintA1.so.2:interpreter_writer
libimf6.so:
libimf6.so:IMGFLT_CloseAberration
libimf6.so:IMGFLT_CloseDDEAas
libimf6.so:IMGFLT_CloseDDEBin
libimf6.so:IMGFLT_CloseDDEColor
libimf6.so:IMGFLT_CloseDDEEnhance
libimf6.so:IMGFLT_CloseFocus
libimf6.so:IMGFLT_CloseMoire
libimf6.so:IMGFLT_CloseResize
libimf6.so:IMGFLT_Focus_FocusFilter
libimf6.so:IMGFLT_Focus_GetSendInLine
libimf6.so:IMGFLT_Focus_MakeClippingTable
libimf6.so:IMGFLT_Focus_MakeLimitParam
libimf6.so:IMGFLT_Focus_ReviseUSM
libimf6.so:IMGFLT_GetVersion
libimf6.so:IMGFLT_InitAberration
libimf6.so:IMGFLT_InitDDEAas
libimf6.so:IMGFLT_InitDDEBin
libimf6.so:IMGFLT_InitDDEColor
libimf6.so:IMGFLT_InitDDEEnhance
libimf6.so:IMGFLT_InitFocus
libimf6.so:IMGFLT_InitMoire
libimf6.so:IMGFLT_InitResize
libimf6.so:IMGFLT_Moire_GetSendInLine
libimf6.so:IMGFLT_Moire_RemoveMoire
libimf6.so:IMGFLT_Resize_GetSendInLine
libimf6.so:IMGFLT_Resize_Zoom
libimf6.so:_Z10FreeMemoryPv
libimf6.so:_Z14AllocateMemoryj
libimf6.so:_ZN10CBilateral11GaussLine08EPh
libimf6.so:_ZN10CBilateral11GaussLine16EPh
libimf6.so:_ZN10CBilateral11GaussLine24EPh
libimf6.so:_ZN10CBilateral11GaussLine48EPh
libimf6.so:_ZN10CBilateral13InitSrcLine08Ej
libimf6.so:_ZN10CBilateral13InitSrcLine16Ej
libimf6.so:_ZN10CBilateral13InitSrcLine24Ej
libimf6.so:_ZN10CBilateral13InitSrcLine48Ej
libimf6.so:_ZN10CBilateral14AllocateBufferEii
libimf6.so:_ZN10CBilateral14GaussLine08_03EPh
libimf6.so:_ZN10CBilateral14GaussLine08_05EPh
libimf6.so:_ZN10CBilateral14GaussLine08_07EPh
libimf6.so:_ZN10CBilateral14GaussLine08_09EPh
libimf6.so:_ZN10CBilateral14GaussLine08_11EPh
libimf6.so:_ZN10CBilateral14GaussLine08_13EPh
libimf6.so:_ZN10CBilateral14GaussLine16_03EPh
libimf6.so:_ZN10CBilateral14GaussLine16_05EPh
libimf6.so:_ZN10CBilateral14GaussLine16_07EPh
libimf6.so:_ZN10CBilateral14GaussLine16_09EPh
libimf6.so:_ZN10CBilateral14GaussLine16_11EPh
libimf6.so:_ZN10CBilateral14GaussLine16_13EPh
libimf6.so:_ZN10CBilateral14GaussLine24_03EPh
libimf6.so:_ZN10CBilateral14GaussLine24_05EPh
libimf6.so:_ZN10CBilateral14GaussLine24_07EPh
libimf6.so:_ZN10CBilateral14GaussLine24_09EPh
libimf6.so:_ZN10CBilateral14GaussLine24_11EPh
libimf6.so:_ZN10CBilateral14GaussLine24_13EPh
libimf6.so:_ZN10CBilateral14GaussLine48_03EPh
libimf6.so:_ZN10CBilateral14GaussLine48_05EPh
libimf6.so:_ZN10CBilateral14GaussLine48_07EPh
libimf6.so:_ZN10CBilateral14GaussLine48_09EPh
libimf6.so:_ZN10CBilateral14GaussLine48_11EPh
libimf6.so:_ZN10CBilateral14GaussLine48_13EPh
libimf6.so:_ZN10CBilateral14MakeVariance08Ev
libimf6.so:_ZN10CBilateral14MakeVariance16Ev
libimf6.so:_ZN10CBilateral14MakeVariance24Ev
libimf6.so:_ZN10CBilateral14MakeVariance48Ev
libimf6.so:_ZN10CBilateral14MakeWeightDataEv
libimf6.so:_ZN10CBilateral15UpdateSrcLine08EPhjj
libimf6.so:_ZN10CBilateral15UpdateSrcLine16EPhjj
libimf6.so:_ZN10CBilateral15UpdateSrcLine24EPhjj
libimf6.so:_ZN10CBilateral15UpdateSrcLine48EPhjj
libimf6.so:_ZN10CBilateral18BilateralSmoothingEP13tagIMAGE_INFOS1_Phi
libimf6.so:_ZN10CBilateral18SmoothingLine08_03EPhjh
libimf6.so:_ZN10CBilateral18SmoothingLine08_05EPhjh
libimf6.so:_ZN10CBilateral18SmoothingLine08_07EPhjh
libimf6.so:_ZN10CBilateral18SmoothingLine08_09EPhjh
libimf6.so:_ZN10CBilateral18SmoothingLine08_11EPhjh
libimf6.so:_ZN10CBilateral18SmoothingLine08_13EPhjh
libimf6.so:_ZN10CBilateral18SmoothingLine16_03EPhjh
libimf6.so:_ZN10CBilateral18SmoothingLine16_05EPhjh
libimf6.so:_ZN10CBilateral18SmoothingLine16_07EPhjh
libimf6.so:_ZN10CBilateral18SmoothingLine16_09EPhjh
libimf6.so:_ZN10CBilateral18SmoothingLine16_11EPhjh
libimf6.so:_ZN10CBilateral18SmoothingLine16_13EPhjh
libimf6.so:_ZN10CBilateral18SmoothingLine24_03EPhjh
libimf6.so:_ZN10CBilateral18SmoothingLine24_05EPhjh
libimf6.so:_ZN10CBilateral18SmoothingLine24_07EPhjh
libimf6.so:_ZN10CBilateral18SmoothingLine24_09EPhjh
libimf6.so:_ZN10CBilateral18SmoothingLine24_11EPhjh
libimf6.so:_ZN10CBilateral18SmoothingLine24_13EPhjh
libimf6.so:_ZN10CBilateral18SmoothingLine48_03EPhjh
libimf6.so:_ZN10CBilateral18SmoothingLine48_05EPhjh
libimf6.so:_ZN10CBilateral18SmoothingLine48_07EPhjh
libimf6.so:_ZN10CBilateral18SmoothingLine48_09EPhjh
libimf6.so:_ZN10CBilateral18SmoothingLine48_11EPhjh
libimf6.so:_ZN10CBilateral18SmoothingLine48_13EPhjh
libimf6.so:_ZN10CBilateralC1Ejjj
libimf6.so:_ZN10CBilateralC2Ejjj
libimf6.so:_ZN10CBilateralD0Ev
libimf6.so:_ZN10CBilateralD1Ev
libimf6.so:_ZN10CBilateralD2Ev
libimf6.so:_ZN10CColorSlip10InitializeEv
libimf6.so:_ZN10CColorSlip12ColorSlipOffEP13tagIMAGE_INFOS1_
libimf6.so:_ZN10CColorSlip13GetSendInLineEl
libimf6.so:_ZN10CColorSlip14CalculateEdgeXEPjj
libimf6.so:_ZN10CColorSlip14CalculateEdgeYEPjj
libimf6.so:_ZN10CColorSlip16FilterMatrixLineEPhj
libimf6.so:_ZN10CColorSlipC1EP16tagIMAGE_SETTINGR16_tagSCSParamInfoj
libimf6.so:_ZN10CColorSlipC2EP16tagIMAGE_SETTINGR16_tagSCSParamInfoj
libimf6.so:_ZN10CColorSlipD0Ev
libimf6.so:_ZN10CColorSlipD1Ev
libimf6.so:_ZN10CColorSlipD2Ev
libimf6.so:_ZN10CDDE_Param14ReadColorParamEj
libimf6.so:_ZN10CDDE_Param17GetColorParamaterEjPv
libimf6.so:_ZN10CDDE_Param4OpenEv
libimf6.so:_ZN10CDDE_Param5CloseEv
libimf6.so:_ZN10CDDE_Param8ReadDataEPvi
libimf6.so:_ZN10CDDE_Param8SeekDataEi
libimf6.so:_ZN10CDDE_ParamC1Ev
libimf6.so:_ZN10CDDE_ParamC2Ev
libimf6.so:_ZN10CDDE_ParamD0Ev
libimf6.so:_ZN10CDDE_ParamD1Ev
libimf6.so:_ZN10CDDE_ParamD2Ev
libimf6.so:_ZN10CParamBase13OpenParamFileEv
libimf6.so:_ZN10CParamBase14CloseParamFileEv
libimf6.so:_ZN10CParamBase16GetLongLinerDataEjPsttPiS1_
libimf6.so:_ZN10CParamBase17GetShortLinerDataEjPsttS0_S0_
libimf6.so:_ZN10CParamBase19ReadResolutionTableEjPsPtS1_
libimf6.so:_ZN10CParamBase8ReadDataEPvi
libimf6.so:_ZN10CParamBase8SeekDataEi
libimf6.so:_ZN10CParamBaseC1Ev
libimf6.so:_ZN10CParamBaseC2Ev
libimf6.so:_ZN10CParamBaseD0Ev
libimf6.so:_ZN10CParamBaseD1Ev
libimf6.so:_ZN10CParamBaseD2Ev
libimf6.so:_ZN10DDEEnhance10InitializeEv
libimf6.so:_ZN10DDEEnhance11FreeBuffersEv
libimf6.so:_ZN10DDEEnhance12DDEEnhanceDoEP13tagIMAGE_INFOS1_
libimf6.so:_ZN10DDEEnhance12GetParameterEjjjR20_tagSPreADEParamInfo
libimf6.so:_ZN10DDEEnhance13GetSendInLineEl
libimf6.so:_ZN10DDEEnhance13MakeBlurImageER13tagIMAGE_INFOS1_
libimf6.so:_ZN10DDEEnhance15Smooth08_01LineER13tagIMAGE_INFOS1_
libimf6.so:_ZN10DDEEnhance15Smooth08_03LineER13tagIMAGE_INFOS1_PKs
libimf6.so:_ZN10DDEEnhance15Smooth08_05LineER13tagIMAGE_INFOS1_PKs
libimf6.so:_ZN10DDEEnhance15Smooth24_01LineER13tagIMAGE_INFOS1_
libimf6.so:_ZN10DDEEnhance15Smooth24_03LineER13tagIMAGE_INFOS1_PKs
libimf6.so:_ZN10DDEEnhance15Smooth24_05LineER13tagIMAGE_INFOS1_PKs
libimf6.so:_ZN10DDEEnhance7MakeLUTEv
libimf6.so:_ZN10DDEEnhanceC1EP16tagIMAGE_SETTINGP10tagDDEINFO
libimf6.so:_ZN10DDEEnhanceC2EP16tagIMAGE_SETTINGP10tagDDEINFO
libimf6.so:_ZN10DDEEnhanceD0Ev
libimf6.so:_ZN10DDEEnhanceD1Ev
libimf6.so:_ZN10DDEEnhanceD2Ev
libimf6.so:_ZN11CAberration10InitializeEv
libimf6.so:_ZN11CAberration12GetParameterEjR16_tagSACParamInfoS1_R16_tagSCSParamInfo
libimf6.so:_ZN11CAberration13GetSendInLineEl
libimf6.so:_ZN11CAberration16ReduceAberrationEP13tagIMAGE_INFOS1_
libimf6.so:_ZN11CAberrationC1EP16tagIMAGE_SETTINGjj
libimf6.so:_ZN11CAberrationC2EP16tagIMAGE_SETTINGjj
libimf6.so:_ZN11CAberrationD0Ev
libimf6.so:_ZN11CAberrationD1Ev
libimf6.so:_ZN11CAberrationD2Ev
libimf6.so:_ZN12CFilterBase110InitializeEv
libimf6.so:_ZN12CFilterBase111FilterImageERK13tagIMAGE_INFOS2_
libimf6.so:_ZN12CFilterBase111FilterImageERK13tagIMAGE_INFOS2_Phi
libimf6.so:_ZN12CFilterBase112MakeWorkLineEjPKhPh
libimf6.so:_ZN12CFilterBase113GetSendInLineEl
libimf6.so:_ZN12CFilterBase115FilterBandImageERK13tagIMAGE_INFO
libimf6.so:_ZN12CFilterBase118MakeWorkImage_LastEjjj
libimf6.so:_ZN12CFilterBase118MakeWorkImage_PageEjj
libimf6.so:_ZN12CFilterBase119MakeWorkImage_FirstEjjj
libimf6.so:_ZN12CFilterBase120MakeWorkImage_MiddleEjjj
libimf6.so:_ZN12CFilterBase126MakeWorkImage_WithAddImageEjjPhi
libimf6.so:_ZN12CFilterBase1C1EP16tagIMAGE_SETTING
libimf6.so:_ZN12CFilterBase1C2EP16tagIMAGE_SETTING
libimf6.so:_ZN12CFilterBase1D0Ev
libimf6.so:_ZN12CFilterBase1D1Ev
libimf6.so:_ZN12CFilterBase1D2Ev
libimf6.so:_ZN13CDDE_ParamAAS12GetParamaterEjjR17_tagSAASParamInfo
libimf6.so:_ZN13CDDE_ParamAAS13ReadParamFileEjjR17_tagSAASParamInfo
libimf6.so:_ZN13CDDE_ParamAAS15GetPreParamaterEjjR20_tagSPreAASParamInfo
libimf6.so:_ZN13CDDE_ParamAAS16ReadPreParamFileEjjR20_tagSPreAASParamInfo
libimf6.so:_ZN13CDDE_ParamAASC1Ev
libimf6.so:_ZN13CDDE_ParamAASC2Ev
libimf6.so:_ZN13CDDE_ParamAASD0Ev
libimf6.so:_ZN13CDDE_ParamAASD1Ev
libimf6.so:_ZN13CDDE_ParamAASD2Ev
libimf6.so:_ZN13CDDE_ParamADE12GetParamaterEjjR17_tagSADEParamInfo
libimf6.so:_ZN13CDDE_ParamADE13ReadParamFileEjjR17_tagSADEParamInfo
libimf6.so:_ZN13CDDE_ParamADE15GetPreParamaterEjjjR20_tagSPreADEParamInfo
libimf6.so:_ZN13CDDE_ParamADE16ReadPreParamFileEjjjR20_tagSPreADEParamInfo
libimf6.so:_ZN13CDDE_ParamADEC1Ev
libimf6.so:_ZN13CDDE_ParamADEC2Ev
libimf6.so:_ZN13CDDE_ParamADED0Ev
libimf6.so:_ZN13CDDE_ParamADED1Ev
libimf6.so:_ZN13CDDE_ParamADED2Ev
libimf6.so:_ZN14CDDE_ParamBase13ReadParamFileEjjR18_tagSBaseParamInfo
libimf6.so:_ZN14CDDE_ParamBase16ReadPreParamFileEjjR21_tagSPreBaseParamInfo
libimf6.so:_ZN14CDDE_ParamBase17MoveParamLocationEj10PARAM_KIND
libimf6.so:_ZN14CDDE_ParamBaseC1Ev
libimf6.so:_ZN14CDDE_ParamBaseC2Ev
libimf6.so:_ZN14CDDE_ParamBaseD0Ev
libimf6.so:_ZN14CDDE_ParamBaseD1Ev
libimf6.so:_ZN14CDDE_ParamBaseD2Ev
libimf6.so:_ZN15CDDE_ParamHDbin12GetParamaterEjjR19_tagSHDBinParamInfo
libimf6.so:_ZN15CDDE_ParamHDbin13ReadParamFileEjjR19_tagSHDBinParamInfo
libimf6.so:_ZN15CDDE_ParamHDbin15GetPreParamaterEjjjR22_tagSPreHDBinParamInfo
libimf6.so:_ZN15CDDE_ParamHDbin16ReadPreParamFileEjjjR22_tagSPreHDBinParamInfo
libimf6.so:_ZN15CDDE_ParamHDbinC1Ev
libimf6.so:_ZN15CDDE_ParamHDbinC2Ev
libimf6.so:_ZN15CDDE_ParamHDbinD0Ev
libimf6.so:_ZN15CDDE_ParamHDbinD1Ev
libimf6.so:_ZN15CDDE_ParamHDbinD2Ev
libimf6.so:_ZN15CImfl_ParamBase17MoveParamLocationEj15IMFL_PARAM_KIND
libimf6.so:_ZN15CImfl_ParamBaseC1Ev
libimf6.so:_ZN15CImfl_ParamBaseC2Ev
libimf6.so:_ZN15CImfl_ParamBaseD0Ev
libimf6.so:_ZN15CImfl_ParamBaseD1Ev
libimf6.so:_ZN15CImfl_ParamBaseD2Ev
libimf6.so:_ZN21CImfl_ParamAberration20GetAvecolorParamaterEjR16_tagSACParamInfoS1_
libimf6.so:_ZN21CImfl_ParamAberration21GetColorSlipParamaterEjR16_tagSCSParamInfo
libimf6.so:_ZN21CImfl_ParamAberration21ReadAvecolorParamaterER16_tagSACParamInfo
libimf6.so:_ZN21CImfl_ParamAberration22ReadColorSlipParamaterER16_tagSCSParamInfo
libimf6.so:_ZN21CImfl_ParamAberrationC1Ev
libimf6.so:_ZN21CImfl_ParamAberrationC2Ev
libimf6.so:_ZN21CImfl_ParamAberrationD0Ev
libimf6.so:_ZN21CImfl_ParamAberrationD1Ev
libimf6.so:_ZN21CImfl_ParamAberrationD2Ev
libimf6.so:_ZN5CBase9SetUseIPPEb
libimf6.so:_ZN5CBase9s_bUseIPPE
libimf6.so:_ZN5CBaseC1EP16tagIMAGE_SETTING
libimf6.so:_ZN5CBaseC2EP16tagIMAGE_SETTING
libimf6.so:_ZN5Focus16ReviseUSMGetSizeEs
libimf6.so:_ZN5Focus9ReviseUSMEP15tagREVISE_PARMS
libimf6.so:_ZN6CSharp12InitStrengthEmP15tagREVISE_PARMSs
libimf6.so:_ZN6CSharp12initSharpRGBEP13tagIMAGE_INFOS1_PhmmmPmi
libimf6.so:_ZN6CSharp14makeMaskBufferEv
libimf6.so:_ZN6CSharp16Photo_USM8_3LineEP13tagIMAGE_INFOS1_
libimf6.so:_ZN6CSharp16Photo_USM8_5LineEP13tagIMAGE_INFOS1_
libimf6.so:_ZN6CSharp16Photo_USM8_7LineEP13tagIMAGE_INFOS1_
libimf6.so:_ZN6CSharp16Photo_USM8_9LineEP13tagIMAGE_INFOS1_
libimf6.so:_ZN6CSharp17Photo_USM16_3LineEP13tagIMAGE_INFOS1_
libimf6.so:_ZN6CSharp17Photo_USM16_5LineEP13tagIMAGE_INFOS1_
libimf6.so:_ZN6CSharp17Photo_USM16_7LineEP13tagIMAGE_INFOS1_
libimf6.so:_ZN6CSharp17Photo_USM16_9LineEP13tagIMAGE_INFOS1_
libimf6.so:_ZN6CSharp17Photo_USM8_11LineEP13tagIMAGE_INFOS1_
libimf6.so:_ZN6CSharp17Photo_USM8_13LineEP13tagIMAGE_INFOS1_
libimf6.so:_ZN6CSharp18Photo_USM16_11LineEP13tagIMAGE_INFOS1_
libimf6.so:_ZN6CSharp18Photo_USM16_13LineEP13tagIMAGE_INFOS1_
libimf6.so:_ZN6CSharp21Photo_USM24_3Line_RGBEP13tagIMAGE_INFOS1_
libimf6.so:_ZN6CSharp21Photo_USM24_5Line_RGBEP13tagIMAGE_INFOS1_
libimf6.so:_ZN6CSharp21Photo_USM24_7Line_RGBEP13tagIMAGE_INFOS1_
libimf6.so:_ZN6CSharp21Photo_USM24_9Line_RGBEP13tagIMAGE_INFOS1_
libimf6.so:_ZN6CSharp21Photo_USM48_3Line_RGBEP13tagIMAGE_INFOS1_
libimf6.so:_ZN6CSharp21Photo_USM48_5Line_RGBEP13tagIMAGE_INFOS1_
libimf6.so:_ZN6CSharp21Photo_USM48_7Line_RGBEP13tagIMAGE_INFOS1_
libimf6.so:_ZN6CSharp21Photo_USM48_9Line_RGBEP13tagIMAGE_INFOS1_
libimf6.so:_ZN6CSharp22Photo_USM24_11Line_RGBEP13tagIMAGE_INFOS1_
libimf6.so:_ZN6CSharp22Photo_USM24_13Line_RGBEP13tagIMAGE_INFOS1_
libimf6.so:_ZN6CSharp22Photo_USM48_11Line_RGBEP13tagIMAGE_INFOS1_
libimf6.so:_ZN6CSharp22Photo_USM48_13Line_RGBEP13tagIMAGE_INFOS1_
libimf6.so:_ZN6CSharp8SwapWORDEllPt
libimf6.so:_ZN6CSharpC1Em
libimf6.so:_ZN6CSharpC2Em
libimf6.so:_ZN6CSharpD1Ev
libimf6.so:_ZN6CSharpD2Ev
libimf6.so:_ZN6CWatch7EndTimeEv
libimf6.so:_ZN6CWatch9StartTimeEv
libimf6.so:_ZN6CWatchC1Ev
libimf6.so:_ZN6CWatchC2Ev
libimf6.so:_ZN6CWatchD1Ev
libimf6.so:_ZN6CWatchD2Ev
libimf6.so:_ZN6DDEAas10InitializeEv
libimf6.so:_ZN6DDEAas11FreeBuffersEv
libimf6.so:_ZN6DDEAas12GetParameterEjjR20_tagSPreAASParamInfo
libimf6.so:_ZN6DDEAas12MakeLUTImageER13tagIMAGE_INFOS1_
libimf6.so:_ZN6DDEAas13GetSendInLineEl
libimf6.so:_ZN6DDEAas13MakeBlurImageER13tagIMAGE_INFOS1_
libimf6.so:_ZN6DDEAas15Smooth08_03LineER13tagIMAGE_INFOS1_PKs
libimf6.so:_ZN6DDEAas15Smooth08_05LineER13tagIMAGE_INFOS1_PKs
libimf6.so:_ZN6DDEAas20AutoAreaSegmentationEP13tagIMAGE_INFOS1_
libimf6.so:_ZN6DDEAas7MakeLUTEv
libimf6.so:_ZN6DDEAasC1EP16tagIMAGE_SETTINGP10tagDDEINFO
libimf6.so:_ZN6DDEAasC2EP16tagIMAGE_SETTINGP10tagDDEINFO
libimf6.so:_ZN6DDEAasD0Ev
libimf6.so:_ZN6DDEAasD1Ev
libimf6.so:_ZN6DDEAasD2Ev
libimf6.so:_ZN6DDEBin10InitializeEv
libimf6.so:_ZN6DDEBin11FreeBuffersEv
libimf6.so:_ZN6DDEBin12GetParameterEjjjR22_tagSPreHDBinParamInfo
libimf6.so:_ZN6DDEBin12MakeLUTImageER13tagIMAGE_INFOS1_
libimf6.so:_ZN6DDEBin13GetSendInLineEl
libimf6.so:_ZN6DDEBin13MakeBlurImageER13tagIMAGE_INFOS1_
libimf6.so:_ZN6DDEBin15Smooth08_03LineER13tagIMAGE_INFOS1_PKs
libimf6.so:_ZN6DDEBin15Smooth08_05LineER13tagIMAGE_INFOS1_PKs
libimf6.so:_ZN6DDEBin7MakeLUTEv
libimf6.so:_ZN6DDEBin9PreDDEBinEP13tagIMAGE_INFOS1_
libimf6.so:_ZN6DDEBinC1EP16tagIMAGE_SETTINGP10tagDDEINFO
libimf6.so:_ZN6DDEBinC2EP16tagIMAGE_SETTINGP10tagDDEINFO
libimf6.so:_ZN6DDEBinD0Ev
libimf6.so:_ZN6DDEBinD1Ev
libimf6.so:_ZN6DDEBinD2Ev
libimf6.so:_ZN6Resize10ExeBicubicEllPhmllS0_ms
libimf6.so:_ZN6Resize10ExeNearestEllPhmllS0_ms
libimf6.so:_ZN6Resize10GetMinLineEv
libimf6.so:_ZN6Resize11ExeBilinearEllPhmllS0_ms
libimf6.so:_ZN6Resize11GetHeadLineEm
libimf6.so:_ZN6Resize12getBandImageEPhlS0_
libimf6.so:_ZN6Resize13GetSendInLineEl
libimf6.so:_ZN6Resize4ZoomEP13tagIMAGE_INFOS1_
libimf6.so:_ZN6ResizeC1EP16tagIMAGE_SETTINGh
libimf6.so:_ZN6ResizeC2EP16tagIMAGE_SETTINGh
libimf6.so:_ZN6ResizeD0Ev
libimf6.so:_ZN6ResizeD1Ev
libimf6.so:_ZN6ResizeD2Ev
libimf6.so:_ZN6UMOIRE11RemoveMoireEP13tagIMAGE_INFOS1_
libimf6.so:_ZN6UMOIRE12FocusErrCodeE11FFErrorCode
libimf6.so:_ZN6UMOIRE13GetSendInLineEl
libimf6.so:_ZN6UMOIRE13ResizeErrCodeE11ZMErrorCode
libimf6.so:_ZN6UMOIREC1EP16tagIMAGE_SETTINGP17tagFILTER_SETTINGhii
libimf6.so:_ZN6UMOIREC2EP16tagIMAGE_SETTINGP17tagFILTER_SETTINGhii
libimf6.so:_ZN6UMOIRED0Ev
libimf6.so:_ZN6UMOIRED1Ev
libimf6.so:_ZN6UMOIRED2Ev
libimf6.so:_ZN7CSmooth10initSmoothEP13tagIMAGE_INFOS1_Phmi
libimf6.so:_ZN7CSmooth14makeMaskBufferEv
libimf6.so:_ZN7CSmooth19Photo_Smooth8_3LineEP13tagIMAGE_INFOS1_
libimf6.so:_ZN7CSmooth19Photo_Smooth8_5LineEP13tagIMAGE_INFOS1_
libimf6.so:_ZN7CSmooth19Photo_Smooth8_7LineEP13tagIMAGE_INFOS1_
libimf6.so:_ZN7CSmooth19Photo_Smooth8_9LineEP13tagIMAGE_INFOS1_
libimf6.so:_ZN7CSmooth20Photo_Smooth16_3LineEP13tagIMAGE_INFOS1_
libimf6.so:_ZN7CSmooth20Photo_Smooth16_5LineEP13tagIMAGE_INFOS1_
libimf6.so:_ZN7CSmooth20Photo_Smooth16_7LineEP13tagIMAGE_INFOS1_
libimf6.so:_ZN7CSmooth20Photo_Smooth16_9LineEP13tagIMAGE_INFOS1_
libimf6.so:_ZN7CSmooth20Photo_Smooth24_3LineEP13tagIMAGE_INFOS1_
libimf6.so:_ZN7CSmooth20Photo_Smooth24_5LineEP13tagIMAGE_INFOS1_
libimf6.so:_ZN7CSmooth20Photo_Smooth24_7LineEP13tagIMAGE_INFOS1_
libimf6.so:_ZN7CSmooth20Photo_Smooth24_9LineEP13tagIMAGE_INFOS1_
libimf6.so:_ZN7CSmooth20Photo_Smooth48_3LineEP13tagIMAGE_INFOS1_
libimf6.so:_ZN7CSmooth20Photo_Smooth48_5LineEP13tagIMAGE_INFOS1_
libimf6.so:_ZN7CSmooth20Photo_Smooth48_7LineEP13tagIMAGE_INFOS1_
libimf6.so:_ZN7CSmooth20Photo_Smooth48_9LineEP13tagIMAGE_INFOS1_
libimf6.so:_ZN7CSmooth20Photo_Smooth8_11LineEP13tagIMAGE_INFOS1_
libimf6.so:_ZN7CSmooth20Photo_Smooth8_13LineEP13tagIMAGE_INFOS1_
libimf6.so:_ZN7CSmooth21Photo_Smooth16_11LineEP13tagIMAGE_INFOS1_
libimf6.so:_ZN7CSmooth21Photo_Smooth16_13LineEP13tagIMAGE_INFOS1_
libimf6.so:_ZN7CSmooth21Photo_Smooth24_11LineEP13tagIMAGE_INFOS1_
libimf6.so:_ZN7CSmooth21Photo_Smooth24_13LineEP13tagIMAGE_INFOS1_
libimf6.so:_ZN7CSmooth21Photo_Smooth48_11LineEP13tagIMAGE_INFOS1_
libimf6.so:_ZN7CSmooth21Photo_Smooth48_13LineEP13tagIMAGE_INFOS1_
libimf6.so:_ZN7CSmooth8SwapWORDEllPt
libimf6.so:_ZN7CSmoothC1Em
libimf6.so:_ZN7CSmoothC2Em
libimf6.so:_ZN7CSmoothD1Ev
libimf6.so:_ZN7CSmoothD2Ev
libimf6.so:_ZN8CBicubic16MakeBicubicTableEdtP12BICUBICTABLEm
libimf6.so:_ZN8CBicubic17BicubicPreSmooth8EllPhmllS0_mS0_S0_i
libimf6.so:_ZN8CBicubic18BicubicPreSmooth24EllPhmllS0_mS0_S0_i
libimf6.so:_ZN8CBicubic21BicubicPreSmooth16_48EllPtmllS0_mS0_S0_i
libimf6.so:_ZN8CBicubicC1Ell
libimf6.so:_ZN8CBicubicC2Ell
libimf6.so:_ZN8CNearest8Nearest1EllPhmllS0_mS0_S0_i
libimf6.so:_ZN8CNearest8Nearest8EllPhmllS0_mS0_S0_i
libimf6.so:_ZN8CNearest9Nearest16EllPtmllS0_mS0_S0_i
libimf6.so:_ZN8CNearest9Nearest24EllPhmllS0_mS0_S0_i
libimf6.so:_ZN8CNearest9Nearest48EllPtmllS0_mS0_S0_i
libimf6.so:_ZN8CNearestC1Ell
libimf6.so:_ZN8CNearestC2Ell
libimf6.so:_ZN8DDEColor13GetSendInLineEl
libimf6.so:_ZN8DDEColor13getColorParamEjP11COLOR_PARAM
libimf6.so:_ZN8DDEColor5ColorEP13tagIMAGE_INFOS1_
libimf6.so:_ZN8DDEColor7CheckHSEll
libimf6.so:_ZN8DDEColorC1EP16tagIMAGE_SETTINGP16tagCOLOR_SETTING
libimf6.so:_ZN8DDEColorC2EP16tagIMAGE_SETTINGP16tagCOLOR_SETTING
libimf6.so:_ZN8DDEColorD0Ev
libimf6.so:_ZN8DDEColorD1Ev
libimf6.so:_ZN8DDEColorD2Ev
libimf6.so:_ZN9CAvecolor10InitializeEv
libimf6.so:_ZN9CAvecolor12AverageColorEP13tagIMAGE_INFOS1_
libimf6.so:_ZN9CAvecolor13GetSendInLineEl
libimf6.so:_ZN9CAvecolor16FilterMatrixLineEPhj
libimf6.so:_ZN9CAvecolorC1EP16tagIMAGE_SETTINGR16_tagSACParamInfojj
libimf6.so:_ZN9CAvecolorC2EP16tagIMAGE_SETTINGR16_tagSACParamInfojj
libimf6.so:_ZN9CAvecolorD0Ev
libimf6.so:_ZN9CAvecolorD1Ev
libimf6.so:_ZN9CAvecolorD2Ev
libimf6.so:_ZN9CBilinear18BilinearAndSmooth8EllPhmllS0_mS0_S0_i
libimf6.so:_ZN9CBilinear19BilinearAndSmooth24EllPhmllS0_mS0_S0_i
libimf6.so:_ZN9CBilinear22BilinearAndSmooth16_48EllPtmllS0_mS0_S0_i
libimf6.so:_ZN9CBilinearC1Ell
libimf6.so:_ZN9CBilinearC2Ell
libimf6.so:_ZN9CMakeFunc11calFuncLineER13MAKE_FUNC_PRMPt
libimf6.so:_ZN9CMakeFunc11calFuncQuadER13MAKE_FUNC_PRMPt
libimf6.so:_ZN9CMakeFunc12calFuncLineDER13MAKE_FUNC_PRMd
libimf6.so:_ZN9CMakeFunc12calFuncQuadDER13MAKE_FUNC_PRMd
libimf6.so:_ZN9CMakeFunc12makeFuncLineER13MAKE_FUNC_PRM
libimf6.so:_ZN9CMakeFunc12makeFuncQuadER13MAKE_FUNC_PRM
libimf6.so:_ZN9CMakeFunc13makeFuncLineDER13MAKE_FUNC_PRM
libimf6.so:_ZN9CMakeFunc13makeFuncQuadDER13MAKE_FUNC_PRM
libimf6.so:_ZN9CMakeFunc13setDataMaxMinER9MAKE_FUNC
libimf6.so:_ZN9CMakeFunc16makeFuncLineDataER9MAKE_FUNC
libimf6.so:_ZN9CMakeFunc16makeFuncQuadDataER9MAKE_FUNC
libimf6.so:_ZN9CMakeFuncC1Ev
libimf6.so:_ZN9CMakeFuncC2Ev
libimf6.so:_ZN9CMakeFuncD1Ev
libimf6.so:_ZN9CMakeFuncD2Ev
libimf6.so:_ZThn8_N10CColorSlip10InitializeEv
libimf6.so:_ZThn8_N10CColorSlip13GetSendInLineEl
libimf6.so:_ZThn8_N10CColorSlip16FilterMatrixLineEPhj
libimf6.so:_ZThn8_N10CColorSlipD0Ev
libimf6.so:_ZThn8_N10CColorSlipD1Ev
libimf6.so:_ZThn8_N10DDEEnhanceD0Ev
libimf6.so:_ZThn8_N10DDEEnhanceD1Ev
libimf6.so:_ZThn8_N6DDEAasD0Ev
libimf6.so:_ZThn8_N6DDEAasD1Ev
libimf6.so:_ZThn8_N6DDEBinD0Ev
libimf6.so:_ZThn8_N6DDEBinD1Ev
libimf6.so:_ZThn8_N6ResizeD0Ev
libimf6.so:_ZThn8_N6ResizeD1Ev
libimf6.so:_ZThn8_N6UMOIRED0Ev
libimf6.so:_ZThn8_N6UMOIRED1Ev
libimf6.so:_ZThn8_N8DDEColorD0Ev
libimf6.so:_ZThn8_N8DDEColorD1Ev
libimf6.so:_ZThn8_N9CAvecolor10InitializeEv
libimf6.so:_ZThn8_N9CAvecolor13GetSendInLineEl
libimf6.so:_ZThn8_N9CAvecolor16FilterMatrixLineEPhj
libimf6.so:_ZThn8_N9CAvecolorD0Ev
libimf6.so:_ZThn8_N9CAvecolorD1Ev
libimf6.so:__bss_start
libimf6.so:_edata
libimf6.so:_end
libimf6.so:_fini
libimf6.so:_init
libiscan-plugin-perfection-v370.so.0:
libiscan-plugin-perfection-v370.so.0:_Z35libiscan_plugin_perfection_v370_129PFilE
libiscan-plugin-perfection-v370.so.0:_Z35libiscan_plugin_perfection_v370_350v
libiscan-plugin-perfection-v370.so.0:_Z35libiscan_plugin_perfection_v370_351v
libiscan-plugin-perfection-v370.so.0:_ZN34libiscan_plugin_perfection_v370_2134libiscan_plugin_perfection_v370_15EPhj
libiscan-plugin-perfection-v370.so.0:_ZN34libiscan_plugin_perfection_v370_2134libiscan_plugin_perfection_v370_16EPhj
libiscan-plugin-perfection-v370.so.0:_ZN34libiscan_plugin_perfection_v370_21C1Ev
libiscan-plugin-perfection-v370.so.0:_ZN34libiscan_plugin_perfection_v370_21C2Ev
libiscan-plugin-perfection-v370.so.0:_ZN34libiscan_plugin_perfection_v370_21D0Ev
libiscan-plugin-perfection-v370.so.0:_ZN34libiscan_plugin_perfection_v370_21D1Ev
libiscan-plugin-perfection-v370.so.0:_ZN34libiscan_plugin_perfection_v370_21D2Ev
libiscan-plugin-perfection-v370.so.0:_ZN35libiscan_plugin_perfection_v370_13835libiscan_plugin_perfection_v370_195EPhj
libiscan-plugin-perfection-v370.so.0:_ZN35libiscan_plugin_perfection_v370_13835libiscan_plugin_perfection_v370_307EPhj
libiscan-plugin-perfection-v370.so.0:_ZN35libiscan_plugin_perfection_v370_13835libiscan_plugin_perfection_v370_308EjPhjjjj
libiscan-plugin-perfection-v370.so.0:_ZN35libiscan_plugin_perfection_v370_13835libiscan_plugin_perfection_v370_309EPKc
libiscan-plugin-perfection-v370.so.0:_ZN35libiscan_plugin_perfection_v370_13835libiscan_plugin_perfection_v370_309EPdjPc
libiscan-plugin-perfection-v370.so.0:_ZN35libiscan_plugin_perfection_v370_13835libiscan_plugin_perfection_v370_309EPhjPc
libiscan-plugin-perfection-v370.so.0:_ZN35libiscan_plugin_perfection_v370_13835libiscan_plugin_perfection_v370_309EPjjPc
libiscan-plugin-perfection-v370.so.0:_ZN35libiscan_plugin_perfection_v370_13835libiscan_plugin_perfection_v370_309EPtjPc
libiscan-plugin-perfection-v370.so.0:_ZN35libiscan_plugin_perfection_v370_13835libiscan_plugin_perfection_v370_309EdPc
libiscan-plugin-perfection-v370.so.0:_ZN35libiscan_plugin_perfection_v370_13835libiscan_plugin_perfection_v370_309EhPKc
libiscan-plugin-perfection-v370.so.0:_ZN35libiscan_plugin_perfection_v370_13835libiscan_plugin_perfection_v370_309EjPc
libiscan-plugin-perfection-v370.so.0:_ZN35libiscan_plugin_perfection_v370_13835libiscan_plugin_perfection_v370_309EsPc
libiscan-plugin-perfection-v370.so.0:_ZN35libiscan_plugin_perfection_v370_13835libiscan_plugin_perfection_v370_309EtPc
libiscan-plugin-perfection-v370.so.0:_ZN35libiscan_plugin_perfection_v370_13835libiscan_plugin_perfection_v370_310EhPhjjjj
libiscan-plugin-perfection-v370.so.0:_ZN35libiscan_plugin_perfection_v370_13835libiscan_plugin_perfection_v370_311EPhjPc
libiscan-plugin-perfection-v370.so.0:_ZN35libiscan_plugin_perfection_v370_13835libiscan_plugin_perfection_v370_312EhPhjj
libiscan-plugin-perfection-v370.so.0:_ZN35libiscan_plugin_perfection_v370_138C1Ev
libiscan-plugin-perfection-v370.so.0:_ZN35libiscan_plugin_perfection_v370_138C2Ev
libiscan-plugin-perfection-v370.so.0:_ZN35libiscan_plugin_perfection_v370_138D1Ev
libiscan-plugin-perfection-v370.so.0:_ZN35libiscan_plugin_perfection_v370_138D2Ev
libiscan-plugin-perfection-v370.so.0:_ZN35libiscan_plugin_perfection_v370_32833libiscan_plugin_perfection_v370_5Ev
libiscan-plugin-perfection-v370.so.0:_ZN35libiscan_plugin_perfection_v370_32833libiscan_plugin_perfection_v370_6EPhPtjt
libiscan-plugin-perfection-v370.so.0:_ZN35libiscan_plugin_perfection_v370_32833libiscan_plugin_perfection_v370_7EPtPjjj
libiscan-plugin-perfection-v370.so.0:_ZN35libiscan_plugin_perfection_v370_32833libiscan_plugin_perfection_v370_9EjhPhS0_
libiscan-plugin-perfection-v370.so.0:_ZN35libiscan_plugin_perfection_v370_32834libiscan_plugin_perfection_v370_10E35libiscan_plugin_perfection_v370_373
libiscan-plugin-perfection-v370.so.0:_ZN35libiscan_plugin_perfection_v370_32834libiscan_plugin_perfection_v370_12E35libiscan_plugin_perfection_v370_373
libiscan-plugin-perfection-v370.so.0:_ZN35libiscan_plugin_perfection_v370_32834libiscan_plugin_perfection_v370_13EjPth
libiscan-plugin-perfection-v370.so.0:_ZN35libiscan_plugin_perfection_v370_32834libiscan_plugin_perfection_v370_14E35libiscan_plugin_perfection_v370_373
libiscan-plugin-perfection-v370.so.0:_ZN35libiscan_plugin_perfection_v370_32834libiscan_plugin_perfection_v370_20Ejh
libiscan-plugin-perfection-v370.so.0:_ZN35libiscan_plugin_perfection_v370_32834libiscan_plugin_perfection_v370_22E35libiscan_plugin_perfection_v370_373
libiscan-plugin-perfection-v370.so.0:_ZN35libiscan_plugin_perfection_v370_32834libiscan_plugin_perfection_v370_23EPhjj
libiscan-plugin-perfection-v370.so.0:_ZN35libiscan_plugin_perfection_v370_32834libiscan_plugin_perfection_v370_24Et
libiscan-plugin-perfection-v370.so.0:_ZN35libiscan_plugin_perfection_v370_32834libiscan_plugin_perfection_v370_25Ehjti
libiscan-plugin-perfection-v370.so.0:_ZN35libiscan_plugin_perfection_v370_32834libiscan_plugin_perfection_v370_26EjhhhPtih
libiscan-plugin-perfection-v370.so.0:_ZN35libiscan_plugin_perfection_v370_32834libiscan_plugin_perfection_v370_27EjhhhPtih
libiscan-plugin-perfection-v370.so.0:_ZN35libiscan_plugin_perfection_v370_32834libiscan_plugin_perfection_v370_28E35libiscan_plugin_perfection_v370_373
libiscan-plugin-perfection-v370.so.0:_ZN35libiscan_plugin_perfection_v370_32834libiscan_plugin_perfection_v370_29E35libiscan_plugin_perfection_v370_373j
libiscan-plugin-perfection-v370.so.0:_ZN35libiscan_plugin_perfection_v370_32834libiscan_plugin_perfection_v370_30EP35libiscan_plugin_perfection_v370_373
libiscan-plugin-perfection-v370.so.0:_ZN35libiscan_plugin_perfection_v370_32834libiscan_plugin_perfection_v370_31Ejjjtj
libiscan-plugin-perfection-v370.so.0:_ZN35libiscan_plugin_perfection_v370_32834libiscan_plugin_perfection_v370_32Ei
libiscan-plugin-perfection-v370.so.0:_ZN35libiscan_plugin_perfection_v370_32834libiscan_plugin_perfection_v370_33Eh
libiscan-plugin-perfection-v370.so.0:_ZN35libiscan_plugin_perfection_v370_32834libiscan_plugin_perfection_v370_34Eh
libiscan-plugin-perfection-v370.so.0:_ZN35libiscan_plugin_perfection_v370_32834libiscan_plugin_perfection_v370_35E35libiscan_plugin_perfection_v370_373
libiscan-plugin-perfection-v370.so.0:_ZN35libiscan_plugin_perfection_v370_32834libiscan_plugin_perfection_v370_36EiPit
libiscan-plugin-perfection-v370.so.0:_ZN35libiscan_plugin_perfection_v370_32834libiscan_plugin_perfection_v370_37EPhjjjj
libiscan-plugin-perfection-v370.so.0:_ZN35libiscan_plugin_perfection_v370_32834libiscan_plugin_perfection_v370_38Eh
libiscan-plugin-perfection-v370.so.0:_ZN35libiscan_plugin_perfection_v370_32834libiscan_plugin_perfection_v370_41EPhj
libiscan-plugin-perfection-v370.so.0:_ZN35libiscan_plugin_perfection_v370_32834libiscan_plugin_perfection_v370_42EPhj
libiscan-plugin-perfection-v370.so.0:_ZN35libiscan_plugin_perfection_v370_32834libiscan_plugin_perfection_v370_43Eih
libiscan-plugin-perfection-v370.so.0:_ZN35libiscan_plugin_perfection_v370_32834libiscan_plugin_perfection_v370_44EPht
libiscan-plugin-perfection-v370.so.0:_ZN35libiscan_plugin_perfection_v370_32834libiscan_plugin_perfection_v370_45EhjjPh
libiscan-plugin-perfection-v370.so.0:_ZN35libiscan_plugin_perfection_v370_32834libiscan_plugin_perfection_v370_46EhjjPj
libiscan-plugin-perfection-v370.so.0:_ZN35libiscan_plugin_perfection_v370_32834libiscan_plugin_perfection_v370_47EhjjPt
libiscan-plugin-perfection-v370.so.0:_ZN35libiscan_plugin_perfection_v370_32834libiscan_plugin_perfection_v370_49EPh
libiscan-plugin-perfection-v370.so.0:_ZN35libiscan_plugin_perfection_v370_32834libiscan_plugin_perfection_v370_50EPh
libiscan-plugin-perfection-v370.so.0:_ZN35libiscan_plugin_perfection_v370_32834libiscan_plugin_perfection_v370_51EPhh
libiscan-plugin-perfection-v370.so.0:_ZN35libiscan_plugin_perfection_v370_32834libiscan_plugin_perfection_v370_52EPh
libiscan-plugin-perfection-v370.so.0:_ZN35libiscan_plugin_perfection_v370_32834libiscan_plugin_perfection_v370_53EPhh
libiscan-plugin-perfection-v370.so.0:_ZN35libiscan_plugin_perfection_v370_32834libiscan_plugin_perfection_v370_54EPhh
libiscan-plugin-perfection-v370.so.0:_ZN35libiscan_plugin_perfection_v370_32834libiscan_plugin_perfection_v370_55EPhh
libiscan-plugin-perfection-v370.so.0:_ZN35libiscan_plugin_perfection_v370_32834libiscan_plugin_perfection_v370_56EPh
libiscan-plugin-perfection-v370.so.0:_ZN35libiscan_plugin_perfection_v370_32834libiscan_plugin_perfection_v370_57EPh
libiscan-plugin-perfection-v370.so.0:_ZN35libiscan_plugin_perfection_v370_32834libiscan_plugin_perfection_v370_58EPh
libiscan-plugin-perfection-v370.so.0:_ZN35libiscan_plugin_perfection_v370_32834libiscan_plugin_perfection_v370_59EPh
libiscan-plugin-perfection-v370.so.0:_ZN35libiscan_plugin_perfection_v370_32834libiscan_plugin_perfection_v370_60EPh
libiscan-plugin-perfection-v370.so.0:_ZN35libiscan_plugin_perfection_v370_32834libiscan_plugin_perfection_v370_61EPh
libiscan-plugin-perfection-v370.so.0:_ZN35libiscan_plugin_perfection_v370_32834libiscan_plugin_perfection_v370_62EPh
libiscan-plugin-perfection-v370.so.0:_ZN35libiscan_plugin_perfection_v370_32834libiscan_plugin_perfection_v370_63EPh
libiscan-plugin-perfection-v370.so.0:_ZN35libiscan_plugin_perfection_v370_32834libiscan_plugin_perfection_v370_66EPhh
libiscan-plugin-perfection-v370.so.0:_ZN35libiscan_plugin_perfection_v370_32834libiscan_plugin_perfection_v370_67EPh
libiscan-plugin-perfection-v370.so.0:_ZN35libiscan_plugin_perfection_v370_32834libiscan_plugin_perfection_v370_70EPh
libiscan-plugin-perfection-v370.so.0:_ZN35libiscan_plugin_perfection_v370_32834libiscan_plugin_perfection_v370_71EPh
libiscan-plugin-perfection-v370.so.0:_ZN35libiscan_plugin_perfection_v370_32834libiscan_plugin_perfection_v370_72EPhh
libiscan-plugin-perfection-v370.so.0:_ZN35libiscan_plugin_perfection_v370_32834libiscan_plugin_perfection_v370_73Ev
libiscan-plugin-perfection-v370.so.0:_ZN35libiscan_plugin_perfection_v370_32834libiscan_plugin_perfection_v370_75EPh
libiscan-plugin-perfection-v370.so.0:_ZN35libiscan_plugin_perfection_v370_32834libiscan_plugin_perfection_v370_76Ev
libiscan-plugin-perfection-v370.so.0:_ZN35libiscan_plugin_perfection_v370_32834libiscan_plugin_perfection_v370_77EPh
libiscan-plugin-perfection-v370.so.0:_ZN35libiscan_plugin_perfection_v370_32834libiscan_plugin_perfection_v370_78EPhh
libiscan-plugin-perfection-v370.so.0:_ZN35libiscan_plugin_perfection_v370_32834libiscan_plugin_perfection_v370_79EPh
libiscan-plugin-perfection-v370.so.0:_ZN35libiscan_plugin_perfection_v370_32834libiscan_plugin_perfection_v370_80EPh
libiscan-plugin-perfection-v370.so.0:_ZN35libiscan_plugin_perfection_v370_32834libiscan_plugin_perfection_v370_81EPh
libiscan-plugin-perfection-v370.so.0:_ZN35libiscan_plugin_perfection_v370_32834libiscan_plugin_perfection_v370_82EPh
libiscan-plugin-perfection-v370.so.0:_ZN35libiscan_plugin_perfection_v370_32834libiscan_plugin_perfection_v370_83EPhh
libiscan-plugin-perfection-v370.so.0:_ZN35libiscan_plugin_perfection_v370_32834libiscan_plugin_perfection_v370_84EPhh
libiscan-plugin-perfection-v370.so.0:_ZN35libiscan_plugin_perfection_v370_32834libiscan_plugin_perfection_v370_85EPh
libiscan-plugin-perfection-v370.so.0:_ZN35libiscan_plugin_perfection_v370_32834libiscan_plugin_perfection_v370_86EPh
libiscan-plugin-perfection-v370.so.0:_ZN35libiscan_plugin_perfection_v370_32834libiscan_plugin_perfection_v370_87EPhj
libiscan-plugin-perfection-v370.so.0:_ZN35libiscan_plugin_perfection_v370_32834libiscan_plugin_perfection_v370_88EPh
libiscan-plugin-perfection-v370.so.0:_ZN35libiscan_plugin_perfection_v370_32834libiscan_plugin_perfection_v370_89Ev
libiscan-plugin-perfection-v370.so.0:_ZN35libiscan_plugin_perfection_v370_32834libiscan_plugin_perfection_v370_90EPh
libiscan-plugin-perfection-v370.so.0:_ZN35libiscan_plugin_perfection_v370_32834libiscan_plugin_perfection_v370_92EPh
libiscan-plugin-perfection-v370.so.0:_ZN35libiscan_plugin_perfection_v370_32834libiscan_plugin_perfection_v370_93E35libiscan_plugin_perfection_v370_373
libiscan-plugin-perfection-v370.so.0:_ZN35libiscan_plugin_perfection_v370_32834libiscan_plugin_perfection_v370_94Ev
libiscan-plugin-perfection-v370.so.0:_ZN35libiscan_plugin_perfection_v370_32834libiscan_plugin_perfection_v370_95Ev
libiscan-plugin-perfection-v370.so.0:_ZN35libiscan_plugin_perfection_v370_32834libiscan_plugin_perfection_v370_96EPh
libiscan-plugin-perfection-v370.so.0:_ZN35libiscan_plugin_perfection_v370_32834libiscan_plugin_perfection_v370_97EPhh
libiscan-plugin-perfection-v370.so.0:_ZN35libiscan_plugin_perfection_v370_32834libiscan_plugin_perfection_v370_98EPh
libiscan-plugin-perfection-v370.so.0:_ZN35libiscan_plugin_perfection_v370_32834libiscan_plugin_perfection_v370_99EPh
libiscan-plugin-perfection-v370.so.0:_ZN35libiscan_plugin_perfection_v370_32835libiscan_plugin_perfection_v370_100EPh
libiscan-plugin-perfection-v370.so.0:_ZN35libiscan_plugin_perfection_v370_32835libiscan_plugin_perfection_v370_101Eh
libiscan-plugin-perfection-v370.so.0:_ZN35libiscan_plugin_perfection_v370_32835libiscan_plugin_perfection_v370_106EPh
libiscan-plugin-perfection-v370.so.0:_ZN35libiscan_plugin_perfection_v370_32835libiscan_plugin_perfection_v370_107Eh
libiscan-plugin-perfection-v370.so.0:_ZN35libiscan_plugin_perfection_v370_32835libiscan_plugin_perfection_v370_109EPh
libiscan-plugin-perfection-v370.so.0:_ZN35libiscan_plugin_perfection_v370_32835libiscan_plugin_perfection_v370_110EPh
libiscan-plugin-perfection-v370.so.0:_ZN35libiscan_plugin_perfection_v370_32835libiscan_plugin_perfection_v370_112Ev
libiscan-plugin-perfection-v370.so.0:_ZN35libiscan_plugin_perfection_v370_32835libiscan_plugin_perfection_v370_113Ev
libiscan-plugin-perfection-v370.so.0:_ZN35libiscan_plugin_perfection_v370_32835libiscan_plugin_perfection_v370_114Ev
libiscan-plugin-perfection-v370.so.0:_ZN35libiscan_plugin_perfection_v370_32835libiscan_plugin_perfection_v370_115Eh
libiscan-plugin-perfection-v370.so.0:_ZN35libiscan_plugin_perfection_v370_32835libiscan_plugin_perfection_v370_131EPtjjjjjjhhhhh
libiscan-plugin-perfection-v370.so.0:_ZN35libiscan_plugin_perfection_v370_32835libiscan_plugin_perfection_v370_132EPhjjjjjjhhhhh
libiscan-plugin-perfection-v370.so.0:_ZN35libiscan_plugin_perfection_v370_32835libiscan_plugin_perfection_v370_134Ev
libiscan-plugin-perfection-v370.so.0:_ZN35libiscan_plugin_perfection_v370_32835libiscan_plugin_perfection_v370_135E35libiscan_plugin_perfection_v370_373
libiscan-plugin-perfection-v370.so.0:_ZN35libiscan_plugin_perfection_v370_32835libiscan_plugin_perfection_v370_136Ei
libiscan-plugin-perfection-v370.so.0:_ZN35libiscan_plugin_perfection_v370_32835libiscan_plugin_perfection_v370_139Eh
libiscan-plugin-perfection-v370.so.0:_ZN35libiscan_plugin_perfection_v370_32835libiscan_plugin_perfection_v370_140E35libiscan_plugin_perfection_v370_373
libiscan-plugin-perfection-v370.so.0:_ZN35libiscan_plugin_perfection_v370_32835libiscan_plugin_perfection_v370_141EhjiPhS0_h
libiscan-plugin-perfection-v370.so.0:_ZN35libiscan_plugin_perfection_v370_32835libiscan_plugin_perfection_v370_142EhjiPhS0_h
libiscan-plugin-perfection-v370.so.0:_ZN35libiscan_plugin_perfection_v370_32835libiscan_plugin_perfection_v370_143EhjiPhS0_h
libiscan-plugin-perfection-v370.so.0:_ZN35libiscan_plugin_perfection_v370_32835libiscan_plugin_perfection_v370_144E35libiscan_plugin_perfection_v370_373Ph
libiscan-plugin-perfection-v370.so.0:_ZN35libiscan_plugin_perfection_v370_32835libiscan_plugin_perfection_v370_145Eh
libiscan-plugin-perfection-v370.so.0:_ZN35libiscan_plugin_perfection_v370_32835libiscan_plugin_perfection_v370_146Eh
libiscan-plugin-perfection-v370.so.0:_ZN35libiscan_plugin_perfection_v370_32835libiscan_plugin_perfection_v370_147EhjiPhh
libiscan-plugin-perfection-v370.so.0:_ZN35libiscan_plugin_perfection_v370_32835libiscan_plugin_perfection_v370_148EhjiPhh
libiscan-plugin-perfection-v370.so.0:_ZN35libiscan_plugin_perfection_v370_32835libiscan_plugin_perfection_v370_149EhjiPhh
libiscan-plugin-perfection-v370.so.0:_ZN35libiscan_plugin_perfection_v370_32835libiscan_plugin_perfection_v370_151Eh
libiscan-plugin-perfection-v370.so.0:_ZN35libiscan_plugin_perfection_v370_32835libiscan_plugin_perfection_v370_152E35libiscan_plugin_perfection_v370_373
libiscan-plugin-perfection-v370.so.0:_ZN35libiscan_plugin_perfection_v370_32835libiscan_plugin_perfection_v370_153EhjiPhS0_h
libiscan-plugin-perfection-v370.so.0:_ZN35libiscan_plugin_perfection_v370_32835libiscan_plugin_perfection_v370_154EhjiPhS0_h
libiscan-plugin-perfection-v370.so.0:_ZN35libiscan_plugin_perfection_v370_32835libiscan_plugin_perfection_v370_155EhjiPhS0_h
libiscan-plugin-perfection-v370.so.0:_ZN35libiscan_plugin_perfection_v370_32835libiscan_plugin_perfection_v370_156E35libiscan_plugin_perfection_v370_373Ph
libiscan-plugin-perfection-v370.so.0:_ZN35libiscan_plugin_perfection_v370_32835libiscan_plugin_perfection_v370_157Eh
libiscan-plugin-perfection-v370.so.0:_ZN35libiscan_plugin_perfection_v370_32835libiscan_plugin_perfection_v370_158Eh
libiscan-plugin-perfection-v370.so.0:_ZN35libiscan_plugin_perfection_v370_32835libiscan_plugin_perfection_v370_159EhjiPhh
libiscan-plugin-perfection-v370.so.0:_ZN35libiscan_plugin_perfection_v370_32835libiscan_plugin_perfection_v370_160EhjiPhh
libiscan-plugin-perfection-v370.so.0:_ZN35libiscan_plugin_perfection_v370_32835libiscan_plugin_perfection_v370_161EhjiPhh
libiscan-plugin-perfection-v370.so.0:_ZN35libiscan_plugin_perfection_v370_32835libiscan_plugin_perfection_v370_162EhjiPhhh
libiscan-plugin-perfection-v370.so.0:_ZN35libiscan_plugin_perfection_v370_32835libiscan_plugin_perfection_v370_167EPhS0_S0_
libiscan-plugin-perfection-v370.so.0:_ZN35libiscan_plugin_perfection_v370_32835libiscan_plugin_perfection_v370_168EPhjt
libiscan-plugin-perfection-v370.so.0:_ZN35libiscan_plugin_perfection_v370_32835libiscan_plugin_perfection_v370_169EPhhi
libiscan-plugin-perfection-v370.so.0:_ZN35libiscan_plugin_perfection_v370_32835libiscan_plugin_perfection_v370_170EPPhi
libiscan-plugin-perfection-v370.so.0:_ZN35libiscan_plugin_perfection_v370_32835libiscan_plugin_perfection_v370_172Ev
libiscan-plugin-perfection-v370.so.0:_ZN35libiscan_plugin_perfection_v370_32835libiscan_plugin_perfection_v370_173EPhjj
libiscan-plugin-perfection-v370.so.0:_ZN35libiscan_plugin_perfection_v370_32835libiscan_plugin_perfection_v370_174E35libiscan_plugin_perfection_v370_373
libiscan-plugin-perfection-v370.so.0:_ZN35libiscan_plugin_perfection_v370_32835libiscan_plugin_perfection_v370_175Ev
libiscan-plugin-perfection-v370.so.0:_ZN35libiscan_plugin_perfection_v370_32835libiscan_plugin_perfection_v370_179EPhj
libiscan-plugin-perfection-v370.so.0:_ZN35libiscan_plugin_perfection_v370_32835libiscan_plugin_perfection_v370_180EPtS0_j
libiscan-plugin-perfection-v370.so.0:_ZN35libiscan_plugin_perfection_v370_32835libiscan_plugin_perfection_v370_181EPhj
libiscan-plugin-perfection-v370.so.0:_ZN35libiscan_plugin_perfection_v370_32835libiscan_plugin_perfection_v370_182EPhj35libiscan_plugin_perfection_v370_373
libiscan-plugin-perfection-v370.so.0:_ZN35libiscan_plugin_perfection_v370_32835libiscan_plugin_perfection_v370_183EPhS0_j
libiscan-plugin-perfection-v370.so.0:_ZN35libiscan_plugin_perfection_v370_32835libiscan_plugin_perfection_v370_184EPhj
libiscan-plugin-perfection-v370.so.0:_ZN35libiscan_plugin_perfection_v370_32835libiscan_plugin_perfection_v370_185EPhj
libiscan-plugin-perfection-v370.so.0:_ZN35libiscan_plugin_perfection_v370_32835libiscan_plugin_perfection_v370_186EPhjhh
libiscan-plugin-perfection-v370.so.0:_ZN35libiscan_plugin_perfection_v370_32835libiscan_plugin_perfection_v370_187E35libiscan_plugin_perfection_v370_373jhPhS1_
libiscan-plugin-perfection-v370.so.0:_ZN35libiscan_plugin_perfection_v370_32835libiscan_plugin_perfection_v370_189E35libiscan_plugin_perfection_v370_373jhPh
libiscan-plugin-perfection-v370.so.0:_ZN35libiscan_plugin_perfection_v370_32835libiscan_plugin_perfection_v370_190E35libiscan_plugin_perfection_v370_373jhPh
libiscan-plugin-perfection-v370.so.0:_ZN35libiscan_plugin_perfection_v370_32835libiscan_plugin_perfection_v370_191EPi
libiscan-plugin-perfection-v370.so.0:_ZN35libiscan_plugin_perfection_v370_32835libiscan_plugin_perfection_v370_193EPhj
libiscan-plugin-perfection-v370.so.0:_ZN35libiscan_plugin_perfection_v370_32835libiscan_plugin_perfection_v370_196EPhj
libiscan-plugin-perfection-v370.so.0:_ZN35libiscan_plugin_perfection_v370_32835libiscan_plugin_perfection_v370_197E35libiscan_plugin_perfection_v370_373Ph
libiscan-plugin-perfection-v370.so.0:_ZN35libiscan_plugin_perfection_v370_32835libiscan_plugin_perfection_v370_198EPh
libiscan-plugin-perfection-v370.so.0:_ZN35libiscan_plugin_perfection_v370_32835libiscan_plugin_perfection_v370_199EPPhji
libiscan-plugin-perfection-v370.so.0:_ZN35libiscan_plugin_perfection_v370_32835libiscan_plugin_perfection_v370_199EPhjjj
libiscan-plugin-perfection-v370.so.0:_ZN35libiscan_plugin_perfection_v370_32835libiscan_plugin_perfection_v370_200EPh
libiscan-plugin-perfection-v370.so.0:_ZN35libiscan_plugin_perfection_v370_32835libiscan_plugin_perfection_v370_201EPh
libiscan-plugin-perfection-v370.so.0:_ZN35libiscan_plugin_perfection_v370_32835libiscan_plugin_perfection_v370_202Ev
libiscan-plugin-perfection-v370.so.0:_ZN35libiscan_plugin_perfection_v370_32835libiscan_plugin_perfection_v370_203Ev
libiscan-plugin-perfection-v370.so.0:_ZN35libiscan_plugin_perfection_v370_32835libiscan_plugin_perfection_v370_204EjPh
libiscan-plugin-perfection-v370.so.0:_ZN35libiscan_plugin_perfection_v370_32835libiscan_plugin_perfection_v370_205EjPh
libiscan-plugin-perfection-v370.so.0:_ZN35libiscan_plugin_perfection_v370_32835libiscan_plugin_perfection_v370_206EjPh
libiscan-plugin-perfection-v370.so.0:_ZN35libiscan_plugin_perfection_v370_32835libiscan_plugin_perfection_v370_207Ev
libiscan-plugin-perfection-v370.so.0:_ZN35libiscan_plugin_perfection_v370_32835libiscan_plugin_perfection_v370_208Ev
libiscan-plugin-perfection-v370.so.0:_ZN35libiscan_plugin_perfection_v370_32835libiscan_plugin_perfection_v370_214E35libiscan_plugin_perfection_v370_373Ph
libiscan-plugin-perfection-v370.so.0:_ZN35libiscan_plugin_perfection_v370_32835libiscan_plugin_perfection_v370_215E35libiscan_plugin_perfection_v370_368
libiscan-plugin-perfection-v370.so.0:_ZN35libiscan_plugin_perfection_v370_32835libiscan_plugin_perfection_v370_218EPhj
libiscan-plugin-perfection-v370.so.0:_ZN35libiscan_plugin_perfection_v370_32835libiscan_plugin_perfection_v370_219Ehi
libiscan-plugin-perfection-v370.so.0:_ZN35libiscan_plugin_perfection_v370_32835libiscan_plugin_perfection_v370_220Ehi
libiscan-plugin-perfection-v370.so.0:_ZN35libiscan_plugin_perfection_v370_32835libiscan_plugin_perfection_v370_221Ev
libiscan-plugin-perfection-v370.so.0:_ZN35libiscan_plugin_perfection_v370_32835libiscan_plugin_perfection_v370_222E35libiscan_plugin_perfection_v370_373
libiscan-plugin-perfection-v370.so.0:_ZN35libiscan_plugin_perfection_v370_32835libiscan_plugin_perfection_v370_223Eih
libiscan-plugin-perfection-v370.so.0:_ZN35libiscan_plugin_perfection_v370_32835libiscan_plugin_perfection_v370_224EhPt
libiscan-plugin-perfection-v370.so.0:_ZN35libiscan_plugin_perfection_v370_32835libiscan_plugin_perfection_v370_225Ev
libiscan-plugin-perfection-v370.so.0:_ZN35libiscan_plugin_perfection_v370_32835libiscan_plugin_perfection_v370_226E35libiscan_plugin_perfection_v370_373
libiscan-plugin-perfection-v370.so.0:_ZN35libiscan_plugin_perfection_v370_32835libiscan_plugin_perfection_v370_227Ev
libiscan-plugin-perfection-v370.so.0:_ZN35libiscan_plugin_perfection_v370_32835libiscan_plugin_perfection_v370_228Ev
libiscan-plugin-perfection-v370.so.0:_ZN35libiscan_plugin_perfection_v370_32835libiscan_plugin_perfection_v370_229Ev
libiscan-plugin-perfection-v370.so.0:_ZN35libiscan_plugin_perfection_v370_32835libiscan_plugin_perfection_v370_230EjPt
libiscan-plugin-perfection-v370.so.0:_ZN35libiscan_plugin_perfection_v370_32835libiscan_plugin_perfection_v370_231E35libiscan_plugin_perfection_v370_373
libiscan-plugin-perfection-v370.so.0:_ZN35libiscan_plugin_perfection_v370_32835libiscan_plugin_perfection_v370_232Eh
libiscan-plugin-perfection-v370.so.0:_ZN35libiscan_plugin_perfection_v370_32835libiscan_plugin_perfection_v370_233Ejj
libiscan-plugin-perfection-v370.so.0:_ZN35libiscan_plugin_perfection_v370_32835libiscan_plugin_perfection_v370_234Eh
libiscan-plugin-perfection-v370.so.0:_ZN35libiscan_plugin_perfection_v370_32835libiscan_plugin_perfection_v370_235E35libiscan_plugin_perfection_v370_373
libiscan-plugin-perfection-v370.so.0:_ZN35libiscan_plugin_perfection_v370_32835libiscan_plugin_perfection_v370_236E35libiscan_plugin_perfection_v370_373
libiscan-plugin-perfection-v370.so.0:_ZN35libiscan_plugin_perfection_v370_32835libiscan_plugin_perfection_v370_237EP35libiscan_plugin_perfection_v370_373
libiscan-plugin-perfection-v370.so.0:_ZN35libiscan_plugin_perfection_v370_32835libiscan_plugin_perfection_v370_238E35libiscan_plugin_perfection_v370_373
libiscan-plugin-perfection-v370.so.0:_ZN35libiscan_plugin_perfection_v370_32835libiscan_plugin_perfection_v370_239Ejjjj
libiscan-plugin-perfection-v370.so.0:_ZN35libiscan_plugin_perfection_v370_32835libiscan_plugin_perfection_v370_240E35libiscan_plugin_perfection_v370_373
libiscan-plugin-perfection-v370.so.0:_ZN35libiscan_plugin_perfection_v370_32835libiscan_plugin_perfection_v370_241E35libiscan_plugin_perfection_v370_373PtPhh
libiscan-plugin-perfection-v370.so.0:_ZN35libiscan_plugin_perfection_v370_32835libiscan_plugin_perfection_v370_242E35libiscan_plugin_perfection_v370_373
libiscan-plugin-perfection-v370.so.0:_ZN35libiscan_plugin_perfection_v370_32835libiscan_plugin_perfection_v370_243E35libiscan_plugin_perfection_v370_373
libiscan-plugin-perfection-v370.so.0:_ZN35libiscan_plugin_perfection_v370_32835libiscan_plugin_perfection_v370_244EP35libiscan_plugin_perfection_v370_373
libiscan-plugin-perfection-v370.so.0:_ZN35libiscan_plugin_perfection_v370_32835libiscan_plugin_perfection_v370_245Ev
libiscan-plugin-perfection-v370.so.0:_ZN35libiscan_plugin_perfection_v370_32835libiscan_plugin_perfection_v370_246E35libiscan_plugin_perfection_v370_373
libiscan-plugin-perfection-v370.so.0:_ZN35libiscan_plugin_perfection_v370_32835libiscan_plugin_perfection_v370_247E35libiscan_plugin_perfection_v370_373
libiscan-plugin-perfection-v370.so.0:_ZN35libiscan_plugin_perfection_v370_32835libiscan_plugin_perfection_v370_248E35libiscan_plugin_perfection_v370_373
libiscan-plugin-perfection-v370.so.0:_ZN35libiscan_plugin_perfection_v370_32835libiscan_plugin_perfection_v370_249E35libiscan_plugin_perfection_v370_373h
libiscan-plugin-perfection-v370.so.0:_ZN35libiscan_plugin_perfection_v370_32835libiscan_plugin_perfection_v370_251E35libiscan_plugin_perfection_v370_373
libiscan-plugin-perfection-v370.so.0:_ZN35libiscan_plugin_perfection_v370_32835libiscan_plugin_perfection_v370_252E35libiscan_plugin_perfection_v370_373
libiscan-plugin-perfection-v370.so.0:_ZN35libiscan_plugin_perfection_v370_32835libiscan_plugin_perfection_v370_253E35libiscan_plugin_perfection_v370_373
libiscan-plugin-perfection-v370.so.0:_ZN35libiscan_plugin_perfection_v370_32835libiscan_plugin_perfection_v370_254E35libiscan_plugin_perfection_v370_373
libiscan-plugin-perfection-v370.so.0:_ZN35libiscan_plugin_perfection_v370_32835libiscan_plugin_perfection_v370_255E35libiscan_plugin_perfection_v370_373
libiscan-plugin-perfection-v370.so.0:_ZN35libiscan_plugin_perfection_v370_32835libiscan_plugin_perfection_v370_256E35libiscan_plugin_perfection_v370_373
libiscan-plugin-perfection-v370.so.0:_ZN35libiscan_plugin_perfection_v370_32835libiscan_plugin_perfection_v370_261EPhj
libiscan-plugin-perfection-v370.so.0:_ZN35libiscan_plugin_perfection_v370_32835libiscan_plugin_perfection_v370_262EPhj
libiscan-plugin-perfection-v370.so.0:_ZN35libiscan_plugin_perfection_v370_32835libiscan_plugin_perfection_v370_263EPhj
libiscan-plugin-perfection-v370.so.0:_ZN35libiscan_plugin_perfection_v370_32835libiscan_plugin_perfection_v370_264EPjPhj
libiscan-plugin-perfection-v370.so.0:_ZN35libiscan_plugin_perfection_v370_32835libiscan_plugin_perfection_v370_265EPhj
libiscan-plugin-perfection-v370.so.0:_ZN35libiscan_plugin_perfection_v370_32835libiscan_plugin_perfection_v370_266EPtPhj
libiscan-plugin-perfection-v370.so.0:_ZN35libiscan_plugin_perfection_v370_32835libiscan_plugin_perfection_v370_267E35libiscan_plugin_perfection_v370_373jhPhh
libiscan-plugin-perfection-v370.so.0:_ZN35libiscan_plugin_perfection_v370_32835libiscan_plugin_perfection_v370_268Ejh
libiscan-plugin-perfection-v370.so.0:_ZN35libiscan_plugin_perfection_v370_32835libiscan_plugin_perfection_v370_270EP35libiscan_plugin_perfection_v370_372j
libiscan-plugin-perfection-v370.so.0:_ZN35libiscan_plugin_perfection_v370_32835libiscan_plugin_perfection_v370_271Eh
libiscan-plugin-perfection-v370.so.0:_ZN35libiscan_plugin_perfection_v370_32835libiscan_plugin_perfection_v370_272E35libiscan_plugin_perfection_v370_373
libiscan-plugin-perfection-v370.so.0:_ZN35libiscan_plugin_perfection_v370_32835libiscan_plugin_perfection_v370_273E35libiscan_plugin_perfection_v370_373jj
libiscan-plugin-perfection-v370.so.0:_ZN35libiscan_plugin_perfection_v370_32835libiscan_plugin_perfection_v370_274EP35libiscan_plugin_perfection_v370_372j
libiscan-plugin-perfection-v370.so.0:_ZN35libiscan_plugin_perfection_v370_32835libiscan_plugin_perfection_v370_275EP35libiscan_plugin_perfection_v370_372j
libiscan-plugin-perfection-v370.so.0:_ZN35libiscan_plugin_perfection_v370_32835libiscan_plugin_perfection_v370_276EP35libiscan_plugin_perfection_v370_372jh
libiscan-plugin-perfection-v370.so.0:_ZN35libiscan_plugin_perfection_v370_32835libiscan_plugin_perfection_v370_277EP35libiscan_plugin_perfection_v370_372j
libiscan-plugin-perfection-v370.so.0:_ZN35libiscan_plugin_perfection_v370_32835libiscan_plugin_perfection_v370_278EP35libiscan_plugin_perfection_v370_372j
libiscan-plugin-perfection-v370.so.0:_ZN35libiscan_plugin_perfection_v370_32835libiscan_plugin_perfection_v370_279EP35libiscan_plugin_perfection_v370_372j
libiscan-plugin-perfection-v370.so.0:_ZN35libiscan_plugin_perfection_v370_32835libiscan_plugin_perfection_v370_280EP35libiscan_plugin_perfection_v370_372j
libiscan-plugin-perfection-v370.so.0:_ZN35libiscan_plugin_perfection_v370_32835libiscan_plugin_perfection_v370_281EP35libiscan_plugin_perfection_v370_372j
libiscan-plugin-perfection-v370.so.0:_ZN35libiscan_plugin_perfection_v370_32835libiscan_plugin_perfection_v370_282EP35libiscan_plugin_perfection_v370_372j
libiscan-plugin-perfection-v370.so.0:_ZN35libiscan_plugin_perfection_v370_32835libiscan_plugin_perfection_v370_283EPjjjj
libiscan-plugin-perfection-v370.so.0:_ZN35libiscan_plugin_perfection_v370_32835libiscan_plugin_perfection_v370_284Ev
libiscan-plugin-perfection-v370.so.0:_ZN35libiscan_plugin_perfection_v370_32835libiscan_plugin_perfection_v370_285Ev
libiscan-plugin-perfection-v370.so.0:_ZN35libiscan_plugin_perfection_v370_32835libiscan_plugin_perfection_v370_286Ev
libiscan-plugin-perfection-v370.so.0:_ZN35libiscan_plugin_perfection_v370_32835libiscan_plugin_perfection_v370_287Ev
libiscan-plugin-perfection-v370.so.0:_ZN35libiscan_plugin_perfection_v370_32835libiscan_plugin_perfection_v370_288E35libiscan_plugin_perfection_v370_373h35libiscan_plugin_perfection_v370_371jj
libiscan-plugin-perfection-v370.so.0:_ZN35libiscan_plugin_perfection_v370_32835libiscan_plugin_perfection_v370_289E35libiscan_plugin_perfection_v370_373
libiscan-plugin-perfection-v370.so.0:_ZN35libiscan_plugin_perfection_v370_32835libiscan_plugin_perfection_v370_290E35libiscan_plugin_perfection_v370_373
libiscan-plugin-perfection-v370.so.0:_ZN35libiscan_plugin_perfection_v370_32835libiscan_plugin_perfection_v370_291E35libiscan_plugin_perfection_v370_373
libiscan-plugin-perfection-v370.so.0:_ZN35libiscan_plugin_perfection_v370_32835libiscan_plugin_perfection_v370_292E35libiscan_plugin_perfection_v370_373
libiscan-plugin-perfection-v370.so.0:_ZN35libiscan_plugin_perfection_v370_32835libiscan_plugin_perfection_v370_293E35libiscan_plugin_perfection_v370_373
libiscan-plugin-perfection-v370.so.0:_ZN35libiscan_plugin_perfection_v370_32835libiscan_plugin_perfection_v370_294E35libiscan_plugin_perfection_v370_373
libiscan-plugin-perfection-v370.so.0:_ZN35libiscan_plugin_perfection_v370_32835libiscan_plugin_perfection_v370_295E35libiscan_plugin_perfection_v370_373h
libiscan-plugin-perfection-v370.so.0:_ZN35libiscan_plugin_perfection_v370_32835libiscan_plugin_perfection_v370_296E35libiscan_plugin_perfection_v370_373
libiscan-plugin-perfection-v370.so.0:_ZN35libiscan_plugin_perfection_v370_32835libiscan_plugin_perfection_v370_297E35libiscan_plugin_perfection_v370_373
libiscan-plugin-perfection-v370.so.0:_ZN35libiscan_plugin_perfection_v370_32835libiscan_plugin_perfection_v370_298Ev
libiscan-plugin-perfection-v370.so.0:_ZN35libiscan_plugin_perfection_v370_32835libiscan_plugin_perfection_v370_299Ev
libiscan-plugin-perfection-v370.so.0:_ZN35libiscan_plugin_perfection_v370_32835libiscan_plugin_perfection_v370_300Eh
libiscan-plugin-perfection-v370.so.0:_ZN35libiscan_plugin_perfection_v370_32835libiscan_plugin_perfection_v370_302Ev
libiscan-plugin-perfection-v370.so.0:_ZN35libiscan_plugin_perfection_v370_32835libiscan_plugin_perfection_v370_303Ev
libiscan-plugin-perfection-v370.so.0:_ZN35libiscan_plugin_perfection_v370_32835libiscan_plugin_perfection_v370_304EjjPh
libiscan-plugin-perfection-v370.so.0:_ZN35libiscan_plugin_perfection_v370_32835libiscan_plugin_perfection_v370_313Eh
libiscan-plugin-perfection-v370.so.0:_ZN35libiscan_plugin_perfection_v370_32835libiscan_plugin_perfection_v370_314Ejh
libiscan-plugin-perfection-v370.so.0:_ZN35libiscan_plugin_perfection_v370_32835libiscan_plugin_perfection_v370_315Ejj
libiscan-plugin-perfection-v370.so.0:_ZN35libiscan_plugin_perfection_v370_32835libiscan_plugin_perfection_v370_316Ejt
libiscan-plugin-perfection-v370.so.0:_ZN35libiscan_plugin_perfection_v370_32835libiscan_plugin_perfection_v370_329Eh
libiscan-plugin-perfection-v370.so.0:_ZN35libiscan_plugin_perfection_v370_32835libiscan_plugin_perfection_v370_330E35libiscan_plugin_perfection_v370_373
libiscan-plugin-perfection-v370.so.0:_ZN35libiscan_plugin_perfection_v370_32835libiscan_plugin_perfection_v370_331Ev
libiscan-plugin-perfection-v370.so.0:_ZN35libiscan_plugin_perfection_v370_32835libiscan_plugin_perfection_v370_332Ejjt
libiscan-plugin-perfection-v370.so.0:_ZN35libiscan_plugin_perfection_v370_32835libiscan_plugin_perfection_v370_338Eh
libiscan-plugin-perfection-v370.so.0:_ZN35libiscan_plugin_perfection_v370_32835libiscan_plugin_perfection_v370_352Ev
libiscan-plugin-perfection-v370.so.0:_ZN35libiscan_plugin_perfection_v370_32835libiscan_plugin_perfection_v370_353Ev
libiscan-plugin-perfection-v370.so.0:_ZN35libiscan_plugin_perfection_v370_32835libiscan_plugin_perfection_v370_359Eih
libiscan-plugin-perfection-v370.so.0:_ZN35libiscan_plugin_perfection_v370_32835libiscan_plugin_perfection_v370_360Eih
libiscan-plugin-perfection-v370.so.0:_ZN35libiscan_plugin_perfection_v370_32835libiscan_plugin_perfection_v370_362EPlS0_j
libiscan-plugin-perfection-v370.so.0:_ZN35libiscan_plugin_perfection_v370_32835libiscan_plugin_perfection_v370_364Eh
libiscan-plugin-perfection-v370.so.0:_ZN35libiscan_plugin_perfection_v370_32835libiscan_plugin_perfection_v370_365Ev
libiscan-plugin-perfection-v370.so.0:_ZN35libiscan_plugin_perfection_v370_32835libiscan_plugin_perfection_v370_366E35libiscan_plugin_perfection_v370_373
libiscan-plugin-perfection-v370.so.0:_ZN35libiscan_plugin_perfection_v370_32835libiscan_plugin_perfection_v370_375Ev
libiscan-plugin-perfection-v370.so.0:_ZN35libiscan_plugin_perfection_v370_32835libiscan_plugin_perfection_v370_376Ev
libiscan-plugin-perfection-v370.so.0:_ZN35libiscan_plugin_perfection_v370_32835libiscan_plugin_perfection_v370_377Ev
libiscan-plugin-perfection-v370.so.0:_ZN35libiscan_plugin_perfection_v370_32835libiscan_plugin_perfection_v370_378Ev
libiscan-plugin-perfection-v370.so.0:_ZN35libiscan_plugin_perfection_v370_328C1Ev
libiscan-plugin-perfection-v370.so.0:_ZN35libiscan_plugin_perfection_v370_328C2Ev
libiscan-plugin-perfection-v370.so.0:_ZN35libiscan_plugin_perfection_v370_328D1Ev
libiscan-plugin-perfection-v370.so.0:_ZN35libiscan_plugin_perfection_v370_328D2Ev
libiscan-plugin-perfection-v370.so.0:_ZN35libiscan_plugin_perfection_v370_34235libiscan_plugin_perfection_v370_336EPFiPviES2_PKc
libiscan-plugin-perfection-v370.so.0:_ZN35libiscan_plugin_perfection_v370_34235libiscan_plugin_perfection_v370_339EPFiPviEh
libiscan-plugin-perfection-v370.so.0:_ZN35libiscan_plugin_perfection_v370_34235libiscan_plugin_perfection_v370_348EPKc
libiscan-plugin-perfection-v370.so.0:_ZN35libiscan_plugin_perfection_v370_34235libiscan_plugin_perfection_v370_361EPFiPviES2_PKc
libiscan-plugin-perfection-v370.so.0:__bss_start
libiscan-plugin-perfection-v370.so.0:_edata
libiscan-plugin-perfection-v370.so.0:_end
libiscan-plugin-perfection-v370.so.0:_fini
libiscan-plugin-perfection-v370.so.0:_init
libiscan-plugin-perfection-v370.so.0:function_s_0
libiscan-plugin-perfection-v370.so.0:function_s_1
libiscan-plugin-perfection-v370.so.0:int_power_saving_mode
libiscan-plugin-perfection-v370.so.0:interpreter_ctor
libiscan-plugin-perfection-v370.so.0:interpreter_dtor
libiscan-plugin-perfection-v370.so.0:interpreter_reader
libiscan-plugin-perfection-v370.so.0:interpreter_writer
libiscan-plugin-perfection-v370.so.0:libiscan_plugin_perfection_v370_1
libiscan-plugin-perfection-v370.so.0:libiscan_plugin_perfection_v370_102
libiscan-plugin-perfection-v370.so.0:libiscan_plugin_perfection_v370_103
libiscan-plugin-perfection-v370.so.0:libiscan_plugin_perfection_v370_104
libiscan-plugin-perfection-v370.so.0:libiscan_plugin_perfection_v370_105
libiscan-plugin-perfection-v370.so.0:libiscan_plugin_perfection_v370_108
libiscan-plugin-perfection-v370.so.0:libiscan_plugin_perfection_v370_11
libiscan-plugin-perfection-v370.so.0:libiscan_plugin_perfection_v370_111
libiscan-plugin-perfection-v370.so.0:libiscan_plugin_perfection_v370_116
libiscan-plugin-perfection-v370.so.0:libiscan_plugin_perfection_v370_117
libiscan-plugin-perfection-v370.so.0:libiscan_plugin_perfection_v370_118
libiscan-plugin-perfection-v370.so.0:libiscan_plugin_perfection_v370_119
libiscan-plugin-perfection-v370.so.0:libiscan_plugin_perfection_v370_120
libiscan-plugin-perfection-v370.so.0:libiscan_plugin_perfection_v370_121
libiscan-plugin-perfection-v370.so.0:libiscan_plugin_perfection_v370_122
libiscan-plugin-perfection-v370.so.0:libiscan_plugin_perfection_v370_123
libiscan-plugin-perfection-v370.so.0:libiscan_plugin_perfection_v370_124
libiscan-plugin-perfection-v370.so.0:libiscan_plugin_perfection_v370_125
libiscan-plugin-perfection-v370.so.0:libiscan_plugin_perfection_v370_126
libiscan-plugin-perfection-v370.so.0:libiscan_plugin_perfection_v370_127
libiscan-plugin-perfection-v370.so.0:libiscan_plugin_perfection_v370_128
libiscan-plugin-perfection-v370.so.0:libiscan_plugin_perfection_v370_130
libiscan-plugin-perfection-v370.so.0:libiscan_plugin_perfection_v370_133
libiscan-plugin-perfection-v370.so.0:libiscan_plugin_perfection_v370_137
libiscan-plugin-perfection-v370.so.0:libiscan_plugin_perfection_v370_150
libiscan-plugin-perfection-v370.so.0:libiscan_plugin_perfection_v370_163
libiscan-plugin-perfection-v370.so.0:libiscan_plugin_perfection_v370_164
libiscan-plugin-perfection-v370.so.0:libiscan_plugin_perfection_v370_165
libiscan-plugin-perfection-v370.so.0:libiscan_plugin_perfection_v370_166
libiscan-plugin-perfection-v370.so.0:libiscan_plugin_perfection_v370_17
libiscan-plugin-perfection-v370.so.0:libiscan_plugin_perfection_v370_171
libiscan-plugin-perfection-v370.so.0:libiscan_plugin_perfection_v370_176
libiscan-plugin-perfection-v370.so.0:libiscan_plugin_perfection_v370_177
libiscan-plugin-perfection-v370.so.0:libiscan_plugin_perfection_v370_178
libiscan-plugin-perfection-v370.so.0:libiscan_plugin_perfection_v370_18
libiscan-plugin-perfection-v370.so.0:libiscan_plugin_perfection_v370_188
libiscan-plugin-perfection-v370.so.0:libiscan_plugin_perfection_v370_19
libiscan-plugin-perfection-v370.so.0:libiscan_plugin_perfection_v370_192
libiscan-plugin-perfection-v370.so.0:libiscan_plugin_perfection_v370_194
libiscan-plugin-perfection-v370.so.0:libiscan_plugin_perfection_v370_2
libiscan-plugin-perfection-v370.so.0:libiscan_plugin_perfection_v370_209
libiscan-plugin-perfection-v370.so.0:libiscan_plugin_perfection_v370_210
libiscan-plugin-perfection-v370.so.0:libiscan_plugin_perfection_v370_211
libiscan-plugin-perfection-v370.so.0:libiscan_plugin_perfection_v370_212
libiscan-plugin-perfection-v370.so.0:libiscan_plugin_perfection_v370_213
libiscan-plugin-perfection-v370.so.0:libiscan_plugin_perfection_v370_216
libiscan-plugin-perfection-v370.so.0:libiscan_plugin_perfection_v370_217
libiscan-plugin-perfection-v370.so.0:libiscan_plugin_perfection_v370_250
libiscan-plugin-perfection-v370.so.0:libiscan_plugin_perfection_v370_257
libiscan-plugin-perfection-v370.so.0:libiscan_plugin_perfection_v370_258
libiscan-plugin-perfection-v370.so.0:libiscan_plugin_perfection_v370_259
libiscan-plugin-perfection-v370.so.0:libiscan_plugin_perfection_v370_260
libiscan-plugin-perfection-v370.so.0:libiscan_plugin_perfection_v370_269
libiscan-plugin-perfection-v370.so.0:libiscan_plugin_perfection_v370_3
libiscan-plugin-perfection-v370.so.0:libiscan_plugin_perfection_v370_301
libiscan-plugin-perfection-v370.so.0:libiscan_plugin_perfection_v370_305
libiscan-plugin-perfection-v370.so.0:libiscan_plugin_perfection_v370_306
libiscan-plugin-perfection-v370.so.0:libiscan_plugin_perfection_v370_317
libiscan-plugin-perfection-v370.so.0:libiscan_plugin_perfection_v370_323
libiscan-plugin-perfection-v370.so.0:libiscan_plugin_perfection_v370_324
libiscan-plugin-perfection-v370.so.0:libiscan_plugin_perfection_v370_325
libiscan-plugin-perfection-v370.so.0:libiscan_plugin_perfection_v370_326
libiscan-plugin-perfection-v370.so.0:libiscan_plugin_perfection_v370_327
libiscan-plugin-perfection-v370.so.0:libiscan_plugin_perfection_v370_333
libiscan-plugin-perfection-v370.so.0:libiscan_plugin_perfection_v370_334
libiscan-plugin-perfection-v370.so.0:libiscan_plugin_perfection_v370_335
libiscan-plugin-perfection-v370.so.0:libiscan_plugin_perfection_v370_337
libiscan-plugin-perfection-v370.so.0:libiscan_plugin_perfection_v370_343
libiscan-plugin-perfection-v370.so.0:libiscan_plugin_perfection_v370_344
libiscan-plugin-perfection-v370.so.0:libiscan_plugin_perfection_v370_345
libiscan-plugin-perfection-v370.so.0:libiscan_plugin_perfection_v370_346
libiscan-plugin-perfection-v370.so.0:libiscan_plugin_perfection_v370_347
libiscan-plugin-perfection-v370.so.0:libiscan_plugin_perfection_v370_349
libiscan-plugin-perfection-v370.so.0:libiscan_plugin_perfection_v370_363
libiscan-plugin-perfection-v370.so.0:libiscan_plugin_perfection_v370_367
libiscan-plugin-perfection-v370.so.0:libiscan_plugin_perfection_v370_369
libiscan-plugin-perfection-v370.so.0:libiscan_plugin_perfection_v370_370
libiscan-plugin-perfection-v370.so.0:libiscan_plugin_perfection_v370_374
libiscan-plugin-perfection-v370.so.0:libiscan_plugin_perfection_v370_379
libiscan-plugin-perfection-v370.so.0:libiscan_plugin_perfection_v370_380
libiscan-plugin-perfection-v370.so.0:libiscan_plugin_perfection_v370_39
libiscan-plugin-perfection-v370.so.0:libiscan_plugin_perfection_v370_4
libiscan-plugin-perfection-v370.so.0:libiscan_plugin_perfection_v370_40
libiscan-plugin-perfection-v370.so.0:libiscan_plugin_perfection_v370_48
libiscan-plugin-perfection-v370.so.0:libiscan_plugin_perfection_v370_68
libiscan-plugin-perfection-v370.so.0:libiscan_plugin_perfection_v370_69
libiscan-plugin-perfection-v370.so.0:libiscan_plugin_perfection_v370_74
libiscan-plugin-perfection-v370.so.0:libiscan_plugin_perfection_v370_8
libiscan-plugin-perfection-v370.so.0:libiscan_plugin_perfection_v370_91
libiscan-plugin-perfection-v550.so.0:
libiscan-plugin-perfection-v550.so.0:_Z35libiscan_plugin_perfection_v550_156PFilE
libiscan-plugin-perfection-v550.so.0:_ZN34libiscan_plugin_perfection_v550_1634libiscan_plugin_perfection_v550_12EPhj
libiscan-plugin-perfection-v550.so.0:_ZN34libiscan_plugin_perfection_v550_1634libiscan_plugin_perfection_v550_13EPhj
libiscan-plugin-perfection-v550.so.0:_ZN34libiscan_plugin_perfection_v550_16C1Ev
libiscan-plugin-perfection-v550.so.0:_ZN34libiscan_plugin_perfection_v550_16C2Ev
libiscan-plugin-perfection-v550.so.0:_ZN34libiscan_plugin_perfection_v550_16D0Ev
libiscan-plugin-perfection-v550.so.0:_ZN34libiscan_plugin_perfection_v550_16D1Ev
libiscan-plugin-perfection-v550.so.0:_ZN34libiscan_plugin_perfection_v550_16D2Ev
libiscan-plugin-perfection-v550.so.0:_ZN35libiscan_plugin_perfection_v550_18335libiscan_plugin_perfection_v550_258EPhj
libiscan-plugin-perfection-v550.so.0:_ZN35libiscan_plugin_perfection_v550_18335libiscan_plugin_perfection_v550_376EPhj
libiscan-plugin-perfection-v550.so.0:_ZN35libiscan_plugin_perfection_v550_183C1Ev
libiscan-plugin-perfection-v550.so.0:_ZN35libiscan_plugin_perfection_v550_183C2Ev
libiscan-plugin-perfection-v550.so.0:_ZN35libiscan_plugin_perfection_v550_183D1Ev
libiscan-plugin-perfection-v550.so.0:_ZN35libiscan_plugin_perfection_v550_183D2Ev
libiscan-plugin-perfection-v550.so.0:_ZN35libiscan_plugin_perfection_v550_38533libiscan_plugin_perfection_v550_2E35libiscan_plugin_perfection_v550_430h
libiscan-plugin-perfection-v550.so.0:_ZN35libiscan_plugin_perfection_v550_38533libiscan_plugin_perfection_v550_4EPhPtjt
libiscan-plugin-perfection-v550.so.0:_ZN35libiscan_plugin_perfection_v550_38533libiscan_plugin_perfection_v550_5EPtPjjj
libiscan-plugin-perfection-v550.so.0:_ZN35libiscan_plugin_perfection_v550_38533libiscan_plugin_perfection_v550_6EjhPhS0_
libiscan-plugin-perfection-v550.so.0:_ZN35libiscan_plugin_perfection_v550_38533libiscan_plugin_perfection_v550_7E35libiscan_plugin_perfection_v550_430
libiscan-plugin-perfection-v550.so.0:_ZN35libiscan_plugin_perfection_v550_38533libiscan_plugin_perfection_v550_9EjPth
libiscan-plugin-perfection-v550.so.0:_ZN35libiscan_plugin_perfection_v550_38534libiscan_plugin_perfection_v550_10E35libiscan_plugin_perfection_v550_43035libiscan_plugin_perfection_v550_431
libiscan-plugin-perfection-v550.so.0:_ZN35libiscan_plugin_perfection_v550_38534libiscan_plugin_perfection_v550_11E35libiscan_plugin_perfection_v550_43035libiscan_plugin_perfection_v550_431
libiscan-plugin-perfection-v550.so.0:_ZN35libiscan_plugin_perfection_v550_38534libiscan_plugin_perfection_v550_15Ejh
libiscan-plugin-perfection-v550.so.0:_ZN35libiscan_plugin_perfection_v550_38534libiscan_plugin_perfection_v550_17Ev
libiscan-plugin-perfection-v550.so.0:_ZN35libiscan_plugin_perfection_v550_38534libiscan_plugin_perfection_v550_18E35libiscan_plugin_perfection_v550_430jjP35libiscan_plugin_perfection_v550_432j
libiscan-plugin-perfection-v550.so.0:_ZN35libiscan_plugin_perfection_v550_38534libiscan_plugin_perfection_v550_19E35libiscan_plugin_perfection_v550_430jjP35libiscan_plugin_perfection_v550_432j
libiscan-plugin-perfection-v550.so.0:_ZN35libiscan_plugin_perfection_v550_38534libiscan_plugin_perfection_v550_20E35libiscan_plugin_perfection_v550_430jjP35libiscan_plugin_perfection_v550_432
libiscan-plugin-perfection-v550.so.0:_ZN35libiscan_plugin_perfection_v550_38534libiscan_plugin_perfection_v550_21E35libiscan_plugin_perfection_v550_430jjP35libiscan_plugin_perfection_v550_432j
libiscan-plugin-perfection-v550.so.0:_ZN35libiscan_plugin_perfection_v550_38534libiscan_plugin_perfection_v550_22E35libiscan_plugin_perfection_v550_430jjP35libiscan_plugin_perfection_v550_432j
libiscan-plugin-perfection-v550.so.0:_ZN35libiscan_plugin_perfection_v550_38534libiscan_plugin_perfection_v550_23E35libiscan_plugin_perfection_v550_430jjP35libiscan_plugin_perfection_v550_432j
libiscan-plugin-perfection-v550.so.0:_ZN35libiscan_plugin_perfection_v550_38534libiscan_plugin_perfection_v550_24E35libiscan_plugin_perfection_v550_430P35libiscan_plugin_perfection_v550_432
libiscan-plugin-perfection-v550.so.0:_ZN35libiscan_plugin_perfection_v550_38534libiscan_plugin_perfection_v550_25E35libiscan_plugin_perfection_v550_430P35libiscan_plugin_perfection_v550_43235libiscan_plugin_perfection_v550_429h
libiscan-plugin-perfection-v550.so.0:_ZN35libiscan_plugin_perfection_v550_38534libiscan_plugin_perfection_v550_26E35libiscan_plugin_perfection_v550_430
libiscan-plugin-perfection-v550.so.0:_ZN35libiscan_plugin_perfection_v550_38534libiscan_plugin_perfection_v550_27E35libiscan_plugin_perfection_v550_430
libiscan-plugin-perfection-v550.so.0:_ZN35libiscan_plugin_perfection_v550_38534libiscan_plugin_perfection_v550_28EPhjj35libiscan_plugin_perfection_v550_425
libiscan-plugin-perfection-v550.so.0:_ZN35libiscan_plugin_perfection_v550_38534libiscan_plugin_perfection_v550_29Et
libiscan-plugin-perfection-v550.so.0:_ZN35libiscan_plugin_perfection_v550_38534libiscan_plugin_perfection_v550_30Ehjti
libiscan-plugin-perfection-v550.so.0:_ZN35libiscan_plugin_perfection_v550_38534libiscan_plugin_perfection_v550_31EjhhhPttth
libiscan-plugin-perfection-v550.so.0:_ZN35libiscan_plugin_perfection_v550_38534libiscan_plugin_perfection_v550_32EjhhhPttth
libiscan-plugin-perfection-v550.so.0:_ZN35libiscan_plugin_perfection_v550_38534libiscan_plugin_perfection_v550_33E35libiscan_plugin_perfection_v550_430
libiscan-plugin-perfection-v550.so.0:_ZN35libiscan_plugin_perfection_v550_38534libiscan_plugin_perfection_v550_34E35libiscan_plugin_perfection_v550_430j
libiscan-plugin-perfection-v550.so.0:_ZN35libiscan_plugin_perfection_v550_38534libiscan_plugin_perfection_v550_35EP35libiscan_plugin_perfection_v550_430
libiscan-plugin-perfection-v550.so.0:_ZN35libiscan_plugin_perfection_v550_38534libiscan_plugin_perfection_v550_37Ejjjtj
libiscan-plugin-perfection-v550.so.0:_ZN35libiscan_plugin_perfection_v550_38534libiscan_plugin_perfection_v550_38Ei
libiscan-plugin-perfection-v550.so.0:_ZN35libiscan_plugin_perfection_v550_38534libiscan_plugin_perfection_v550_39Ehh
libiscan-plugin-perfection-v550.so.0:_ZN35libiscan_plugin_perfection_v550_38534libiscan_plugin_perfection_v550_40E35libiscan_plugin_perfection_v550_430
libiscan-plugin-perfection-v550.so.0:_ZN35libiscan_plugin_perfection_v550_38534libiscan_plugin_perfection_v550_41E35libiscan_plugin_perfection_v550_430
libiscan-plugin-perfection-v550.so.0:_ZN35libiscan_plugin_perfection_v550_38534libiscan_plugin_perfection_v550_42E35libiscan_plugin_perfection_v550_430
libiscan-plugin-perfection-v550.so.0:_ZN35libiscan_plugin_perfection_v550_38534libiscan_plugin_perfection_v550_43E35libiscan_plugin_perfection_v550_430
libiscan-plugin-perfection-v550.so.0:_ZN35libiscan_plugin_perfection_v550_38534libiscan_plugin_perfection_v550_44E35libiscan_plugin_perfection_v550_430
libiscan-plugin-perfection-v550.so.0:_ZN35libiscan_plugin_perfection_v550_38534libiscan_plugin_perfection_v550_45EhP35libiscan_plugin_perfection_v550_430
libiscan-plugin-perfection-v550.so.0:_ZN35libiscan_plugin_perfection_v550_38534libiscan_plugin_perfection_v550_46Ehhh
libiscan-plugin-perfection-v550.so.0:_ZN35libiscan_plugin_perfection_v550_38534libiscan_plugin_perfection_v550_47Ev
libiscan-plugin-perfection-v550.so.0:_ZN35libiscan_plugin_perfection_v550_38534libiscan_plugin_perfection_v550_48Ev
libiscan-plugin-perfection-v550.so.0:_ZN35libiscan_plugin_perfection_v550_38534libiscan_plugin_perfection_v550_49EPhj35libiscan_plugin_perfection_v550_41935libiscan_plugin_perfection_v550_425
libiscan-plugin-perfection-v550.so.0:_ZN35libiscan_plugin_perfection_v550_38534libiscan_plugin_perfection_v550_50Ej35libiscan_plugin_perfection_v550_419
libiscan-plugin-perfection-v550.so.0:_ZN35libiscan_plugin_perfection_v550_38534libiscan_plugin_perfection_v550_51Ev
libiscan-plugin-perfection-v550.so.0:_ZN35libiscan_plugin_perfection_v550_38534libiscan_plugin_perfection_v550_52E35libiscan_plugin_perfection_v550_418
libiscan-plugin-perfection-v550.so.0:_ZN35libiscan_plugin_perfection_v550_38534libiscan_plugin_perfection_v550_53E35libiscan_plugin_perfection_v550_422
libiscan-plugin-perfection-v550.so.0:_ZN35libiscan_plugin_perfection_v550_38534libiscan_plugin_perfection_v550_54Eh
libiscan-plugin-perfection-v550.so.0:_ZN35libiscan_plugin_perfection_v550_38534libiscan_plugin_perfection_v550_55Ev
libiscan-plugin-perfection-v550.so.0:_ZN35libiscan_plugin_perfection_v550_38534libiscan_plugin_perfection_v550_56Et
libiscan-plugin-perfection-v550.so.0:_ZN35libiscan_plugin_perfection_v550_38534libiscan_plugin_perfection_v550_58EPhj
libiscan-plugin-perfection-v550.so.0:_ZN35libiscan_plugin_perfection_v550_38534libiscan_plugin_perfection_v550_59EPhj
libiscan-plugin-perfection-v550.so.0:_ZN35libiscan_plugin_perfection_v550_38534libiscan_plugin_perfection_v550_60E35libiscan_plugin_perfection_v550_430
libiscan-plugin-perfection-v550.so.0:_ZN35libiscan_plugin_perfection_v550_38534libiscan_plugin_perfection_v550_61EPht
libiscan-plugin-perfection-v550.so.0:_ZN35libiscan_plugin_perfection_v550_38534libiscan_plugin_perfection_v550_62EhjjPh
libiscan-plugin-perfection-v550.so.0:_ZN35libiscan_plugin_perfection_v550_38534libiscan_plugin_perfection_v550_63EhjjPj
libiscan-plugin-perfection-v550.so.0:_ZN35libiscan_plugin_perfection_v550_38534libiscan_plugin_perfection_v550_64EhjjPt
libiscan-plugin-perfection-v550.so.0:_ZN35libiscan_plugin_perfection_v550_38534libiscan_plugin_perfection_v550_66EPh
libiscan-plugin-perfection-v550.so.0:_ZN35libiscan_plugin_perfection_v550_38534libiscan_plugin_perfection_v550_67EPh
libiscan-plugin-perfection-v550.so.0:_ZN35libiscan_plugin_perfection_v550_38534libiscan_plugin_perfection_v550_68EPhh
libiscan-plugin-perfection-v550.so.0:_ZN35libiscan_plugin_perfection_v550_38534libiscan_plugin_perfection_v550_69EPh
libiscan-plugin-perfection-v550.so.0:_ZN35libiscan_plugin_perfection_v550_38534libiscan_plugin_perfection_v550_70EPhh
libiscan-plugin-perfection-v550.so.0:_ZN35libiscan_plugin_perfection_v550_38534libiscan_plugin_perfection_v550_71EPhh
libiscan-plugin-perfection-v550.so.0:_ZN35libiscan_plugin_perfection_v550_38534libiscan_plugin_perfection_v550_72EPhh
libiscan-plugin-perfection-v550.so.0:_ZN35libiscan_plugin_perfection_v550_38534libiscan_plugin_perfection_v550_73EPhh
libiscan-plugin-perfection-v550.so.0:_ZN35libiscan_plugin_perfection_v550_38534libiscan_plugin_perfection_v550_74EPhh
libiscan-plugin-perfection-v550.so.0:_ZN35libiscan_plugin_perfection_v550_38534libiscan_plugin_perfection_v550_75EPhh
libiscan-plugin-perfection-v550.so.0:_ZN35libiscan_plugin_perfection_v550_38534libiscan_plugin_perfection_v550_76EPh
libiscan-plugin-perfection-v550.so.0:_ZN35libiscan_plugin_perfection_v550_38534libiscan_plugin_perfection_v550_77EPh
libiscan-plugin-perfection-v550.so.0:_ZN35libiscan_plugin_perfection_v550_38534libiscan_plugin_perfection_v550_78EPh
libiscan-plugin-perfection-v550.so.0:_ZN35libiscan_plugin_perfection_v550_38534libiscan_plugin_perfection_v550_79EPh
libiscan-plugin-perfection-v550.so.0:_ZN35libiscan_plugin_perfection_v550_38534libiscan_plugin_perfection_v550_80EPh
libiscan-plugin-perfection-v550.so.0:_ZN35libiscan_plugin_perfection_v550_38534libiscan_plugin_perfection_v550_81EPh
libiscan-plugin-perfection-v550.so.0:_ZN35libiscan_plugin_perfection_v550_38534libiscan_plugin_perfection_v550_82EPh
libiscan-plugin-perfection-v550.so.0:_ZN35libiscan_plugin_perfection_v550_38534libiscan_plugin_perfection_v550_83EPhh
libiscan-plugin-perfection-v550.so.0:_ZN35libiscan_plugin_perfection_v550_38534libiscan_plugin_perfection_v550_84EPhh
libiscan-plugin-perfection-v550.so.0:_ZN35libiscan_plugin_perfection_v550_38534libiscan_plugin_perfection_v550_85EPhh
libiscan-plugin-perfection-v550.so.0:_ZN35libiscan_plugin_perfection_v550_38534libiscan_plugin_perfection_v550_86EPhh
libiscan-plugin-perfection-v550.so.0:_ZN35libiscan_plugin_perfection_v550_38534libiscan_plugin_perfection_v550_87EPh
libiscan-plugin-perfection-v550.so.0:_ZN35libiscan_plugin_perfection_v550_38534libiscan_plugin_perfection_v550_90EPh
libiscan-plugin-perfection-v550.so.0:_ZN35libiscan_plugin_perfection_v550_38534libiscan_plugin_perfection_v550_91EPh
libiscan-plugin-perfection-v550.so.0:_ZN35libiscan_plugin_perfection_v550_38534libiscan_plugin_perfection_v550_92EPhh
libiscan-plugin-perfection-v550.so.0:_ZN35libiscan_plugin_perfection_v550_38534libiscan_plugin_perfection_v550_93Ev
libiscan-plugin-perfection-v550.so.0:_ZN35libiscan_plugin_perfection_v550_38534libiscan_plugin_perfection_v550_95EPh
libiscan-plugin-perfection-v550.so.0:_ZN35libiscan_plugin_perfection_v550_38534libiscan_plugin_perfection_v550_96Ev
libiscan-plugin-perfection-v550.so.0:_ZN35libiscan_plugin_perfection_v550_38534libiscan_plugin_perfection_v550_97EPh
libiscan-plugin-perfection-v550.so.0:_ZN35libiscan_plugin_perfection_v550_38534libiscan_plugin_perfection_v550_98EPhh
libiscan-plugin-perfection-v550.so.0:_ZN35libiscan_plugin_perfection_v550_38534libiscan_plugin_perfection_v550_99EPh
libiscan-plugin-perfection-v550.so.0:_ZN35libiscan_plugin_perfection_v550_38535libiscan_plugin_perfection_v550_100EPh
libiscan-plugin-perfection-v550.so.0:_ZN35libiscan_plugin_perfection_v550_38535libiscan_plugin_perfection_v550_101EPh
libiscan-plugin-perfection-v550.so.0:_ZN35libiscan_plugin_perfection_v550_38535libiscan_plugin_perfection_v550_102EPh
libiscan-plugin-perfection-v550.so.0:_ZN35libiscan_plugin_perfection_v550_38535libiscan_plugin_perfection_v550_103EPhh
libiscan-plugin-perfection-v550.so.0:_ZN35libiscan_plugin_perfection_v550_38535libiscan_plugin_perfection_v550_104EPhh
libiscan-plugin-perfection-v550.so.0:_ZN35libiscan_plugin_perfection_v550_38535libiscan_plugin_perfection_v550_105EPh
libiscan-plugin-perfection-v550.so.0:_ZN35libiscan_plugin_perfection_v550_38535libiscan_plugin_perfection_v550_106EPh
libiscan-plugin-perfection-v550.so.0:_ZN35libiscan_plugin_perfection_v550_38535libiscan_plugin_perfection_v550_107EPhj
libiscan-plugin-perfection-v550.so.0:_ZN35libiscan_plugin_perfection_v550_38535libiscan_plugin_perfection_v550_108EPh
libiscan-plugin-perfection-v550.so.0:_ZN35libiscan_plugin_perfection_v550_38535libiscan_plugin_perfection_v550_109Ev
libiscan-plugin-perfection-v550.so.0:_ZN35libiscan_plugin_perfection_v550_38535libiscan_plugin_perfection_v550_110EPh
libiscan-plugin-perfection-v550.so.0:_ZN35libiscan_plugin_perfection_v550_38535libiscan_plugin_perfection_v550_111EPh
libiscan-plugin-perfection-v550.so.0:_ZN35libiscan_plugin_perfection_v550_38535libiscan_plugin_perfection_v550_112E35libiscan_plugin_perfection_v550_430h
libiscan-plugin-perfection-v550.so.0:_ZN35libiscan_plugin_perfection_v550_38535libiscan_plugin_perfection_v550_113E35libiscan_plugin_perfection_v550_430
libiscan-plugin-perfection-v550.so.0:_ZN35libiscan_plugin_perfection_v550_38535libiscan_plugin_perfection_v550_114Ev
libiscan-plugin-perfection-v550.so.0:_ZN35libiscan_plugin_perfection_v550_38535libiscan_plugin_perfection_v550_115Ev
libiscan-plugin-perfection-v550.so.0:_ZN35libiscan_plugin_perfection_v550_38535libiscan_plugin_perfection_v550_116Ev
libiscan-plugin-perfection-v550.so.0:_ZN35libiscan_plugin_perfection_v550_38535libiscan_plugin_perfection_v550_117Ev
libiscan-plugin-perfection-v550.so.0:_ZN35libiscan_plugin_perfection_v550_38535libiscan_plugin_perfection_v550_118Ev
libiscan-plugin-perfection-v550.so.0:_ZN35libiscan_plugin_perfection_v550_38535libiscan_plugin_perfection_v550_119Ev
libiscan-plugin-perfection-v550.so.0:_ZN35libiscan_plugin_perfection_v550_38535libiscan_plugin_perfection_v550_120EPh
libiscan-plugin-perfection-v550.so.0:_ZN35libiscan_plugin_perfection_v550_38535libiscan_plugin_perfection_v550_121EPhh
libiscan-plugin-perfection-v550.so.0:_ZN35libiscan_plugin_perfection_v550_38535libiscan_plugin_perfection_v550_122EPh
libiscan-plugin-perfection-v550.so.0:_ZN35libiscan_plugin_perfection_v550_38535libiscan_plugin_perfection_v550_123EPh
libiscan-plugin-perfection-v550.so.0:_ZN35libiscan_plugin_perfection_v550_38535libiscan_plugin_perfection_v550_124EPh
libiscan-plugin-perfection-v550.so.0:_ZN35libiscan_plugin_perfection_v550_38535libiscan_plugin_perfection_v550_125Eh
libiscan-plugin-perfection-v550.so.0:_ZN35libiscan_plugin_perfection_v550_38535libiscan_plugin_perfection_v550_128E35libiscan_plugin_perfection_v550_422
libiscan-plugin-perfection-v550.so.0:_ZN35libiscan_plugin_perfection_v550_38535libiscan_plugin_perfection_v550_129E35libiscan_plugin_perfection_v550_422
libiscan-plugin-perfection-v550.so.0:_ZN35libiscan_plugin_perfection_v550_38535libiscan_plugin_perfection_v550_130EPh
libiscan-plugin-perfection-v550.so.0:_ZN35libiscan_plugin_perfection_v550_38535libiscan_plugin_perfection_v550_131Eh
libiscan-plugin-perfection-v550.so.0:_ZN35libiscan_plugin_perfection_v550_38535libiscan_plugin_perfection_v550_133EPh
libiscan-plugin-perfection-v550.so.0:_ZN35libiscan_plugin_perfection_v550_38535libiscan_plugin_perfection_v550_134EPh
libiscan-plugin-perfection-v550.so.0:_ZN35libiscan_plugin_perfection_v550_38535libiscan_plugin_perfection_v550_136Ev
libiscan-plugin-perfection-v550.so.0:_ZN35libiscan_plugin_perfection_v550_38535libiscan_plugin_perfection_v550_137Ev
libiscan-plugin-perfection-v550.so.0:_ZN35libiscan_plugin_perfection_v550_38535libiscan_plugin_perfection_v550_158E35libiscan_plugin_perfection_v550_430
libiscan-plugin-perfection-v550.so.0:_ZN35libiscan_plugin_perfection_v550_38535libiscan_plugin_perfection_v550_159EPjjjj35libiscan_plugin_perfection_v550_419
libiscan-plugin-perfection-v550.so.0:_ZN35libiscan_plugin_perfection_v550_38535libiscan_plugin_perfection_v550_160Ev
libiscan-plugin-perfection-v550.so.0:_ZN35libiscan_plugin_perfection_v550_38535libiscan_plugin_perfection_v550_161E35libiscan_plugin_perfection_v550_430
libiscan-plugin-perfection-v550.so.0:_ZN35libiscan_plugin_perfection_v550_38535libiscan_plugin_perfection_v550_162E35libiscan_plugin_perfection_v550_430
libiscan-plugin-perfection-v550.so.0:_ZN35libiscan_plugin_perfection_v550_38535libiscan_plugin_perfection_v550_163E35libiscan_plugin_perfection_v550_430
libiscan-plugin-perfection-v550.so.0:_ZN35libiscan_plugin_perfection_v550_38535libiscan_plugin_perfection_v550_164E35libiscan_plugin_perfection_v550_430h
libiscan-plugin-perfection-v550.so.0:_ZN35libiscan_plugin_perfection_v550_38535libiscan_plugin_perfection_v550_165E35libiscan_plugin_perfection_v550_430
libiscan-plugin-perfection-v550.so.0:_ZN35libiscan_plugin_perfection_v550_38535libiscan_plugin_perfection_v550_166E35libiscan_plugin_perfection_v550_430
libiscan-plugin-perfection-v550.so.0:_ZN35libiscan_plugin_perfection_v550_38535libiscan_plugin_perfection_v550_167Ei
libiscan-plugin-perfection-v550.so.0:_ZN35libiscan_plugin_perfection_v550_38535libiscan_plugin_perfection_v550_168Ei
libiscan-plugin-perfection-v550.so.0:_ZN35libiscan_plugin_perfection_v550_38535libiscan_plugin_perfection_v550_169EPhjhjjjjjh
libiscan-plugin-perfection-v550.so.0:_ZN35libiscan_plugin_perfection_v550_38535libiscan_plugin_perfection_v550_170EPtjjjjjjhhhhhh
libiscan-plugin-perfection-v550.so.0:_ZN35libiscan_plugin_perfection_v550_38535libiscan_plugin_perfection_v550_171EPtjjjjjjhhhhhh
libiscan-plugin-perfection-v550.so.0:_ZN35libiscan_plugin_perfection_v550_38535libiscan_plugin_perfection_v550_172EPhjjjjjjhhhhh
libiscan-plugin-perfection-v550.so.0:_ZN35libiscan_plugin_perfection_v550_38535libiscan_plugin_perfection_v550_173EPhjjjjjjhhhhh
libiscan-plugin-perfection-v550.so.0:_ZN35libiscan_plugin_perfection_v550_38535libiscan_plugin_perfection_v550_174EPhjhjjjjjh
libiscan-plugin-perfection-v550.so.0:_ZN35libiscan_plugin_perfection_v550_38535libiscan_plugin_perfection_v550_176Ev
libiscan-plugin-perfection-v550.so.0:_ZN35libiscan_plugin_perfection_v550_38535libiscan_plugin_perfection_v550_177Ev
libiscan-plugin-perfection-v550.so.0:_ZN35libiscan_plugin_perfection_v550_38535libiscan_plugin_perfection_v550_178Ev
libiscan-plugin-perfection-v550.so.0:_ZN35libiscan_plugin_perfection_v550_38535libiscan_plugin_perfection_v550_179Ev
libiscan-plugin-perfection-v550.so.0:_ZN35libiscan_plugin_perfection_v550_38535libiscan_plugin_perfection_v550_180Ev
libiscan-plugin-perfection-v550.so.0:_ZN35libiscan_plugin_perfection_v550_38535libiscan_plugin_perfection_v550_181Ei
libiscan-plugin-perfection-v550.so.0:_ZN35libiscan_plugin_perfection_v550_38535libiscan_plugin_perfection_v550_184Eh
libiscan-plugin-perfection-v550.so.0:_ZN35libiscan_plugin_perfection_v550_38535libiscan_plugin_perfection_v550_185E35libiscan_plugin_perfection_v550_430
libiscan-plugin-perfection-v550.so.0:_ZN35libiscan_plugin_perfection_v550_38535libiscan_plugin_perfection_v550_186EhjPhS0_
libiscan-plugin-perfection-v550.so.0:_ZN35libiscan_plugin_perfection_v550_38535libiscan_plugin_perfection_v550_187EhjPhS0_
libiscan-plugin-perfection-v550.so.0:_ZN35libiscan_plugin_perfection_v550_38535libiscan_plugin_perfection_v550_188EhjPhS0_
libiscan-plugin-perfection-v550.so.0:_ZN35libiscan_plugin_perfection_v550_38535libiscan_plugin_perfection_v550_189Ev
libiscan-plugin-perfection-v550.so.0:_ZN35libiscan_plugin_perfection_v550_38535libiscan_plugin_perfection_v550_190Eh
libiscan-plugin-perfection-v550.so.0:_ZN35libiscan_plugin_perfection_v550_38535libiscan_plugin_perfection_v550_191Eh
libiscan-plugin-perfection-v550.so.0:_ZN35libiscan_plugin_perfection_v550_38535libiscan_plugin_perfection_v550_192EhjPh
libiscan-plugin-perfection-v550.so.0:_ZN35libiscan_plugin_perfection_v550_38535libiscan_plugin_perfection_v550_193EhjPh
libiscan-plugin-perfection-v550.so.0:_ZN35libiscan_plugin_perfection_v550_38535libiscan_plugin_perfection_v550_194EhjPh
libiscan-plugin-perfection-v550.so.0:_ZN35libiscan_plugin_perfection_v550_38535libiscan_plugin_perfection_v550_196Eh
libiscan-plugin-perfection-v550.so.0:_ZN35libiscan_plugin_perfection_v550_38535libiscan_plugin_perfection_v550_197E35libiscan_plugin_perfection_v550_430
libiscan-plugin-perfection-v550.so.0:_ZN35libiscan_plugin_perfection_v550_38535libiscan_plugin_perfection_v550_198EhjPhS0_
libiscan-plugin-perfection-v550.so.0:_ZN35libiscan_plugin_perfection_v550_38535libiscan_plugin_perfection_v550_199EhjPhS0_
libiscan-plugin-perfection-v550.so.0:_ZN35libiscan_plugin_perfection_v550_38535libiscan_plugin_perfection_v550_200EhjPhS0_
libiscan-plugin-perfection-v550.so.0:_ZN35libiscan_plugin_perfection_v550_38535libiscan_plugin_perfection_v550_201Ev
libiscan-plugin-perfection-v550.so.0:_ZN35libiscan_plugin_perfection_v550_38535libiscan_plugin_perfection_v550_202Eh
libiscan-plugin-perfection-v550.so.0:_ZN35libiscan_plugin_perfection_v550_38535libiscan_plugin_perfection_v550_203E35libiscan_plugin_perfection_v550_430
libiscan-plugin-perfection-v550.so.0:_ZN35libiscan_plugin_perfection_v550_38535libiscan_plugin_perfection_v550_204EhjPhS0_S0_
libiscan-plugin-perfection-v550.so.0:_ZN35libiscan_plugin_perfection_v550_38535libiscan_plugin_perfection_v550_205EhjPhS0_S0_
libiscan-plugin-perfection-v550.so.0:_ZN35libiscan_plugin_perfection_v550_38535libiscan_plugin_perfection_v550_206E35libiscan_plugin_perfection_v550_430Ph
libiscan-plugin-perfection-v550.so.0:_ZN35libiscan_plugin_perfection_v550_38535libiscan_plugin_perfection_v550_207Eh
libiscan-plugin-perfection-v550.so.0:_ZN35libiscan_plugin_perfection_v550_38535libiscan_plugin_perfection_v550_208Eh
libiscan-plugin-perfection-v550.so.0:_ZN35libiscan_plugin_perfection_v550_38535libiscan_plugin_perfection_v550_209EhjPh
libiscan-plugin-perfection-v550.so.0:_ZN35libiscan_plugin_perfection_v550_38535libiscan_plugin_perfection_v550_210EhjPh
libiscan-plugin-perfection-v550.so.0:_ZN35libiscan_plugin_perfection_v550_38535libiscan_plugin_perfection_v550_211E35libiscan_plugin_perfection_v550_430Ph
libiscan-plugin-perfection-v550.so.0:_ZN35libiscan_plugin_perfection_v550_38535libiscan_plugin_perfection_v550_212Eh
libiscan-plugin-perfection-v550.so.0:_ZN35libiscan_plugin_perfection_v550_38535libiscan_plugin_perfection_v550_213Eh
libiscan-plugin-perfection-v550.so.0:_ZN35libiscan_plugin_perfection_v550_38535libiscan_plugin_perfection_v550_214EhjPh
libiscan-plugin-perfection-v550.so.0:_ZN35libiscan_plugin_perfection_v550_38535libiscan_plugin_perfection_v550_215EhjPh
libiscan-plugin-perfection-v550.so.0:_ZN35libiscan_plugin_perfection_v550_38535libiscan_plugin_perfection_v550_216EhjPh
libiscan-plugin-perfection-v550.so.0:_ZN35libiscan_plugin_perfection_v550_38535libiscan_plugin_perfection_v550_217E35libiscan_plugin_perfection_v550_430jPhh
libiscan-plugin-perfection-v550.so.0:_ZN35libiscan_plugin_perfection_v550_38535libiscan_plugin_perfection_v550_219E35libiscan_plugin_perfection_v550_430
libiscan-plugin-perfection-v550.so.0:_ZN35libiscan_plugin_perfection_v550_38535libiscan_plugin_perfection_v550_223EPhjt
libiscan-plugin-perfection-v550.so.0:_ZN35libiscan_plugin_perfection_v550_38535libiscan_plugin_perfection_v550_224EPhhih
libiscan-plugin-perfection-v550.so.0:_ZN35libiscan_plugin_perfection_v550_38535libiscan_plugin_perfection_v550_225EPPhih
libiscan-plugin-perfection-v550.so.0:_ZN35libiscan_plugin_perfection_v550_38535libiscan_plugin_perfection_v550_230EjhPh
libiscan-plugin-perfection-v550.so.0:_ZN35libiscan_plugin_perfection_v550_38535libiscan_plugin_perfection_v550_231EPhj
libiscan-plugin-perfection-v550.so.0:_ZN35libiscan_plugin_perfection_v550_38535libiscan_plugin_perfection_v550_232EPtS0_j
libiscan-plugin-perfection-v550.so.0:_ZN35libiscan_plugin_perfection_v550_38535libiscan_plugin_perfection_v550_233EPhj
libiscan-plugin-perfection-v550.so.0:_ZN35libiscan_plugin_perfection_v550_38535libiscan_plugin_perfection_v550_234EPhS0_j
libiscan-plugin-perfection-v550.so.0:_ZN35libiscan_plugin_perfection_v550_38535libiscan_plugin_perfection_v550_235EPhj
libiscan-plugin-perfection-v550.so.0:_ZN35libiscan_plugin_perfection_v550_38535libiscan_plugin_perfection_v550_236EPhj
libiscan-plugin-perfection-v550.so.0:_ZN35libiscan_plugin_perfection_v550_38535libiscan_plugin_perfection_v550_237EPhjhh
libiscan-plugin-perfection-v550.so.0:_ZN35libiscan_plugin_perfection_v550_38535libiscan_plugin_perfection_v550_238E35libiscan_plugin_perfection_v550_430jhPhS1_
libiscan-plugin-perfection-v550.so.0:_ZN35libiscan_plugin_perfection_v550_38535libiscan_plugin_perfection_v550_242E35libiscan_plugin_perfection_v550_430jhPh
libiscan-plugin-perfection-v550.so.0:_ZN35libiscan_plugin_perfection_v550_38535libiscan_plugin_perfection_v550_243E35libiscan_plugin_perfection_v550_430jhPh
libiscan-plugin-perfection-v550.so.0:_ZN35libiscan_plugin_perfection_v550_38535libiscan_plugin_perfection_v550_246Ev
libiscan-plugin-perfection-v550.so.0:_ZN35libiscan_plugin_perfection_v550_38535libiscan_plugin_perfection_v550_248EPi
libiscan-plugin-perfection-v550.so.0:_ZN35libiscan_plugin_perfection_v550_38535libiscan_plugin_perfection_v550_251E35libiscan_plugin_perfection_v550_430
libiscan-plugin-perfection-v550.so.0:_ZN35libiscan_plugin_perfection_v550_38535libiscan_plugin_perfection_v550_255E35libiscan_plugin_perfection_v550_430
libiscan-plugin-perfection-v550.so.0:_ZN35libiscan_plugin_perfection_v550_38535libiscan_plugin_perfection_v550_257EPhj
libiscan-plugin-perfection-v550.so.0:_ZN35libiscan_plugin_perfection_v550_38535libiscan_plugin_perfection_v550_259EPhj
libiscan-plugin-perfection-v550.so.0:_ZN35libiscan_plugin_perfection_v550_38535libiscan_plugin_perfection_v550_260E35libiscan_plugin_perfection_v550_430Ph
libiscan-plugin-perfection-v550.so.0:_ZN35libiscan_plugin_perfection_v550_38535libiscan_plugin_perfection_v550_261EPh
libiscan-plugin-perfection-v550.so.0:_ZN35libiscan_plugin_perfection_v550_38535libiscan_plugin_perfection_v550_262EPPhji
libiscan-plugin-perfection-v550.so.0:_ZN35libiscan_plugin_perfection_v550_38535libiscan_plugin_perfection_v550_262EPhj
libiscan-plugin-perfection-v550.so.0:_ZN35libiscan_plugin_perfection_v550_38535libiscan_plugin_perfection_v550_262EPhjjj
libiscan-plugin-perfection-v550.so.0:_ZN35libiscan_plugin_perfection_v550_38535libiscan_plugin_perfection_v550_263Ev
libiscan-plugin-perfection-v550.so.0:_ZN35libiscan_plugin_perfection_v550_38535libiscan_plugin_perfection_v550_264EPh
libiscan-plugin-perfection-v550.so.0:_ZN35libiscan_plugin_perfection_v550_38535libiscan_plugin_perfection_v550_265EPh
libiscan-plugin-perfection-v550.so.0:_ZN35libiscan_plugin_perfection_v550_38535libiscan_plugin_perfection_v550_266Ev
libiscan-plugin-perfection-v550.so.0:_ZN35libiscan_plugin_perfection_v550_38535libiscan_plugin_perfection_v550_267Eh
libiscan-plugin-perfection-v550.so.0:_ZN35libiscan_plugin_perfection_v550_38535libiscan_plugin_perfection_v550_268EjPh
libiscan-plugin-perfection-v550.so.0:_ZN35libiscan_plugin_perfection_v550_38535libiscan_plugin_perfection_v550_269EjPh
libiscan-plugin-perfection-v550.so.0:_ZN35libiscan_plugin_perfection_v550_38535libiscan_plugin_perfection_v550_270EjPh
libiscan-plugin-perfection-v550.so.0:_ZN35libiscan_plugin_perfection_v550_38535libiscan_plugin_perfection_v550_273E35libiscan_plugin_perfection_v550_430Ph
libiscan-plugin-perfection-v550.so.0:_ZN35libiscan_plugin_perfection_v550_38535libiscan_plugin_perfection_v550_274E35libiscan_plugin_perfection_v550_423
libiscan-plugin-perfection-v550.so.0:_ZN35libiscan_plugin_perfection_v550_38535libiscan_plugin_perfection_v550_276E35libiscan_plugin_perfection_v550_430
libiscan-plugin-perfection-v550.so.0:_ZN35libiscan_plugin_perfection_v550_38535libiscan_plugin_perfection_v550_278EPhj
libiscan-plugin-perfection-v550.so.0:_ZN35libiscan_plugin_perfection_v550_38535libiscan_plugin_perfection_v550_279Ehi
libiscan-plugin-perfection-v550.so.0:_ZN35libiscan_plugin_perfection_v550_38535libiscan_plugin_perfection_v550_280Ev
libiscan-plugin-perfection-v550.so.0:_ZN35libiscan_plugin_perfection_v550_38535libiscan_plugin_perfection_v550_281Ehi
libiscan-plugin-perfection-v550.so.0:_ZN35libiscan_plugin_perfection_v550_38535libiscan_plugin_perfection_v550_282Ev
libiscan-plugin-perfection-v550.so.0:_ZN35libiscan_plugin_perfection_v550_38535libiscan_plugin_perfection_v550_283Ehh
libiscan-plugin-perfection-v550.so.0:_ZN35libiscan_plugin_perfection_v550_38535libiscan_plugin_perfection_v550_284Ev
libiscan-plugin-perfection-v550.so.0:_ZN35libiscan_plugin_perfection_v550_38535libiscan_plugin_perfection_v550_285EhPt
libiscan-plugin-perfection-v550.so.0:_ZN35libiscan_plugin_perfection_v550_38535libiscan_plugin_perfection_v550_286E35libiscan_plugin_perfection_v550_430
libiscan-plugin-perfection-v550.so.0:_ZN35libiscan_plugin_perfection_v550_38535libiscan_plugin_perfection_v550_287Ev
libiscan-plugin-perfection-v550.so.0:_ZN35libiscan_plugin_perfection_v550_38535libiscan_plugin_perfection_v550_288E35libiscan_plugin_perfection_v550_430
libiscan-plugin-perfection-v550.so.0:_ZN35libiscan_plugin_perfection_v550_38535libiscan_plugin_perfection_v550_289Ev
libiscan-plugin-perfection-v550.so.0:_ZN35libiscan_plugin_perfection_v550_38535libiscan_plugin_perfection_v550_290E35libiscan_plugin_perfection_v550_428
libiscan-plugin-perfection-v550.so.0:_ZN35libiscan_plugin_perfection_v550_38535libiscan_plugin_perfection_v550_291EjPt
libiscan-plugin-perfection-v550.so.0:_ZN35libiscan_plugin_perfection_v550_38535libiscan_plugin_perfection_v550_292E35libiscan_plugin_perfection_v550_430
libiscan-plugin-perfection-v550.so.0:_ZN35libiscan_plugin_perfection_v550_38535libiscan_plugin_perfection_v550_293Eh
libiscan-plugin-perfection-v550.so.0:_ZN35libiscan_plugin_perfection_v550_38535libiscan_plugin_perfection_v550_294Ej
libiscan-plugin-perfection-v550.so.0:_ZN35libiscan_plugin_perfection_v550_38535libiscan_plugin_perfection_v550_295Eh
libiscan-plugin-perfection-v550.so.0:_ZN35libiscan_plugin_perfection_v550_38535libiscan_plugin_perfection_v550_296E35libiscan_plugin_perfection_v550_430
libiscan-plugin-perfection-v550.so.0:_ZN35libiscan_plugin_perfection_v550_38535libiscan_plugin_perfection_v550_297E35libiscan_plugin_perfection_v550_430
libiscan-plugin-perfection-v550.so.0:_ZN35libiscan_plugin_perfection_v550_38535libiscan_plugin_perfection_v550_298EP35libiscan_plugin_perfection_v550_430
libiscan-plugin-perfection-v550.so.0:_ZN35libiscan_plugin_perfection_v550_38535libiscan_plugin_perfection_v550_299E35libiscan_plugin_perfection_v550_430
libiscan-plugin-perfection-v550.so.0:_ZN35libiscan_plugin_perfection_v550_38535libiscan_plugin_perfection_v550_300E35libiscan_plugin_perfection_v550_430PtPhh
libiscan-plugin-perfection-v550.so.0:_ZN35libiscan_plugin_perfection_v550_38535libiscan_plugin_perfection_v550_301E35libiscan_plugin_perfection_v550_430
libiscan-plugin-perfection-v550.so.0:_ZN35libiscan_plugin_perfection_v550_38535libiscan_plugin_perfection_v550_302E35libiscan_plugin_perfection_v550_430
libiscan-plugin-perfection-v550.so.0:_ZN35libiscan_plugin_perfection_v550_38535libiscan_plugin_perfection_v550_303EP35libiscan_plugin_perfection_v550_430
libiscan-plugin-perfection-v550.so.0:_ZN35libiscan_plugin_perfection_v550_38535libiscan_plugin_perfection_v550_304E35libiscan_plugin_perfection_v550_430
libiscan-plugin-perfection-v550.so.0:_ZN35libiscan_plugin_perfection_v550_38535libiscan_plugin_perfection_v550_305E35libiscan_plugin_perfection_v550_430
libiscan-plugin-perfection-v550.so.0:_ZN35libiscan_plugin_perfection_v550_38535libiscan_plugin_perfection_v550_306Ev
libiscan-plugin-perfection-v550.so.0:_ZN35libiscan_plugin_perfection_v550_38535libiscan_plugin_perfection_v550_307E35libiscan_plugin_perfection_v550_430h
libiscan-plugin-perfection-v550.so.0:_ZN35libiscan_plugin_perfection_v550_38535libiscan_plugin_perfection_v550_309E35libiscan_plugin_perfection_v550_430
libiscan-plugin-perfection-v550.so.0:_ZN35libiscan_plugin_perfection_v550_38535libiscan_plugin_perfection_v550_310E35libiscan_plugin_perfection_v550_430
libiscan-plugin-perfection-v550.so.0:_ZN35libiscan_plugin_perfection_v550_38535libiscan_plugin_perfection_v550_311E35libiscan_plugin_perfection_v550_430
libiscan-plugin-perfection-v550.so.0:_ZN35libiscan_plugin_perfection_v550_38535libiscan_plugin_perfection_v550_312E35libiscan_plugin_perfection_v550_430
libiscan-plugin-perfection-v550.so.0:_ZN35libiscan_plugin_perfection_v550_38535libiscan_plugin_perfection_v550_313E35libiscan_plugin_perfection_v550_430
libiscan-plugin-perfection-v550.so.0:_ZN35libiscan_plugin_perfection_v550_38535libiscan_plugin_perfection_v550_314E35libiscan_plugin_perfection_v550_430
libiscan-plugin-perfection-v550.so.0:_ZN35libiscan_plugin_perfection_v550_38535libiscan_plugin_perfection_v550_315E35libiscan_plugin_perfection_v550_430
libiscan-plugin-perfection-v550.so.0:_ZN35libiscan_plugin_perfection_v550_38535libiscan_plugin_perfection_v550_316E35libiscan_plugin_perfection_v550_430
libiscan-plugin-perfection-v550.so.0:_ZN35libiscan_plugin_perfection_v550_38535libiscan_plugin_perfection_v550_317E35libiscan_plugin_perfection_v550_430
libiscan-plugin-perfection-v550.so.0:_ZN35libiscan_plugin_perfection_v550_38535libiscan_plugin_perfection_v550_318E35libiscan_plugin_perfection_v550_430
libiscan-plugin-perfection-v550.so.0:_ZN35libiscan_plugin_perfection_v550_38535libiscan_plugin_perfection_v550_322E35libiscan_plugin_perfection_v550_418
libiscan-plugin-perfection-v550.so.0:_ZN35libiscan_plugin_perfection_v550_38535libiscan_plugin_perfection_v550_323E35libiscan_plugin_perfection_v550_422
libiscan-plugin-perfection-v550.so.0:_ZN35libiscan_plugin_perfection_v550_38535libiscan_plugin_perfection_v550_324Ev
libiscan-plugin-perfection-v550.so.0:_ZN35libiscan_plugin_perfection_v550_38535libiscan_plugin_perfection_v550_330EPhj
libiscan-plugin-perfection-v550.so.0:_ZN35libiscan_plugin_perfection_v550_38535libiscan_plugin_perfection_v550_331EPhj
libiscan-plugin-perfection-v550.so.0:_ZN35libiscan_plugin_perfection_v550_38535libiscan_plugin_perfection_v550_332EPhj
libiscan-plugin-perfection-v550.so.0:_ZN35libiscan_plugin_perfection_v550_38535libiscan_plugin_perfection_v550_333EPjPhj
libiscan-plugin-perfection-v550.so.0:_ZN35libiscan_plugin_perfection_v550_38535libiscan_plugin_perfection_v550_334EPhj
libiscan-plugin-perfection-v550.so.0:_ZN35libiscan_plugin_perfection_v550_38535libiscan_plugin_perfection_v550_335EPtPhj
libiscan-plugin-perfection-v550.so.0:_ZN35libiscan_plugin_perfection_v550_38535libiscan_plugin_perfection_v550_336Ejh
libiscan-plugin-perfection-v550.so.0:_ZN35libiscan_plugin_perfection_v550_38535libiscan_plugin_perfection_v550_339E35libiscan_plugin_perfection_v550_430h
libiscan-plugin-perfection-v550.so.0:_ZN35libiscan_plugin_perfection_v550_38535libiscan_plugin_perfection_v550_340Eh
libiscan-plugin-perfection-v550.so.0:_ZN35libiscan_plugin_perfection_v550_38535libiscan_plugin_perfection_v550_341E35libiscan_plugin_perfection_v550_430
libiscan-plugin-perfection-v550.so.0:_ZN35libiscan_plugin_perfection_v550_38535libiscan_plugin_perfection_v550_342Eh
libiscan-plugin-perfection-v550.so.0:_ZN35libiscan_plugin_perfection_v550_38535libiscan_plugin_perfection_v550_343E35libiscan_plugin_perfection_v550_430
libiscan-plugin-perfection-v550.so.0:_ZN35libiscan_plugin_perfection_v550_38535libiscan_plugin_perfection_v550_344EPjjjj35libiscan_plugin_perfection_v550_419
libiscan-plugin-perfection-v550.so.0:_ZN35libiscan_plugin_perfection_v550_38535libiscan_plugin_perfection_v550_345EiP35libiscan_plugin_perfection_v550_430
libiscan-plugin-perfection-v550.so.0:_ZN35libiscan_plugin_perfection_v550_38535libiscan_plugin_perfection_v550_346EhPhS0_h35libiscan_plugin_perfection_v550_430
libiscan-plugin-perfection-v550.so.0:_ZN35libiscan_plugin_perfection_v550_38535libiscan_plugin_perfection_v550_347E35libiscan_plugin_perfection_v550_430
libiscan-plugin-perfection-v550.so.0:_ZN35libiscan_plugin_perfection_v550_38535libiscan_plugin_perfection_v550_348E35libiscan_plugin_perfection_v550_430
libiscan-plugin-perfection-v550.so.0:_ZN35libiscan_plugin_perfection_v550_38535libiscan_plugin_perfection_v550_349Eh
libiscan-plugin-perfection-v550.so.0:_ZN35libiscan_plugin_perfection_v550_38535libiscan_plugin_perfection_v550_350Ev
libiscan-plugin-perfection-v550.so.0:_ZN35libiscan_plugin_perfection_v550_38535libiscan_plugin_perfection_v550_351Ev
libiscan-plugin-perfection-v550.so.0:_ZN35libiscan_plugin_perfection_v550_38535libiscan_plugin_perfection_v550_352Ev
libiscan-plugin-perfection-v550.so.0:_ZN35libiscan_plugin_perfection_v550_38535libiscan_plugin_perfection_v550_353Ev
libiscan-plugin-perfection-v550.so.0:_ZN35libiscan_plugin_perfection_v550_38535libiscan_plugin_perfection_v550_354E35libiscan_plugin_perfection_v550_430
libiscan-plugin-perfection-v550.so.0:_ZN35libiscan_plugin_perfection_v550_38535libiscan_plugin_perfection_v550_355E35libiscan_plugin_perfection_v550_432
libiscan-plugin-perfection-v550.so.0:_ZN35libiscan_plugin_perfection_v550_38535libiscan_plugin_perfection_v550_356E35libiscan_plugin_perfection_v550_430
libiscan-plugin-perfection-v550.so.0:_ZN35libiscan_plugin_perfection_v550_38535libiscan_plugin_perfection_v550_357E35libiscan_plugin_perfection_v550_430
libiscan-plugin-perfection-v550.so.0:_ZN35libiscan_plugin_perfection_v550_38535libiscan_plugin_perfection_v550_358E35libiscan_plugin_perfection_v550_430
libiscan-plugin-perfection-v550.so.0:_ZN35libiscan_plugin_perfection_v550_38535libiscan_plugin_perfection_v550_359E35libiscan_plugin_perfection_v550_430h
libiscan-plugin-perfection-v550.so.0:_ZN35libiscan_plugin_perfection_v550_38535libiscan_plugin_perfection_v550_360E35libiscan_plugin_perfection_v550_430h
libiscan-plugin-perfection-v550.so.0:_ZN35libiscan_plugin_perfection_v550_38535libiscan_plugin_perfection_v550_361E35libiscan_plugin_perfection_v550_430h
libiscan-plugin-perfection-v550.so.0:_ZN35libiscan_plugin_perfection_v550_38535libiscan_plugin_perfection_v550_362E35libiscan_plugin_perfection_v550_430h
libiscan-plugin-perfection-v550.so.0:_ZN35libiscan_plugin_perfection_v550_38535libiscan_plugin_perfection_v550_363E35libiscan_plugin_perfection_v550_430
libiscan-plugin-perfection-v550.so.0:_ZN35libiscan_plugin_perfection_v550_38535libiscan_plugin_perfection_v550_364E35libiscan_plugin_perfection_v550_430
libiscan-plugin-perfection-v550.so.0:_ZN35libiscan_plugin_perfection_v550_38535libiscan_plugin_perfection_v550_365E35libiscan_plugin_perfection_v550_430
libiscan-plugin-perfection-v550.so.0:_ZN35libiscan_plugin_perfection_v550_38535libiscan_plugin_perfection_v550_366E35libiscan_plugin_perfection_v550_430
libiscan-plugin-perfection-v550.so.0:_ZN35libiscan_plugin_perfection_v550_38535libiscan_plugin_perfection_v550_367Ev
libiscan-plugin-perfection-v550.so.0:_ZN35libiscan_plugin_perfection_v550_38535libiscan_plugin_perfection_v550_368Ev
libiscan-plugin-perfection-v550.so.0:_ZN35libiscan_plugin_perfection_v550_38535libiscan_plugin_perfection_v550_369Eh
libiscan-plugin-perfection-v550.so.0:_ZN35libiscan_plugin_perfection_v550_38535libiscan_plugin_perfection_v550_371Ev
libiscan-plugin-perfection-v550.so.0:_ZN35libiscan_plugin_perfection_v550_38535libiscan_plugin_perfection_v550_372EhjjPh
libiscan-plugin-perfection-v550.so.0:_ZN35libiscan_plugin_perfection_v550_38535libiscan_plugin_perfection_v550_373Ev
libiscan-plugin-perfection-v550.so.0:_ZN35libiscan_plugin_perfection_v550_38535libiscan_plugin_perfection_v550_377Eh
libiscan-plugin-perfection-v550.so.0:_ZN35libiscan_plugin_perfection_v550_38535libiscan_plugin_perfection_v550_378Ejh
libiscan-plugin-perfection-v550.so.0:_ZN35libiscan_plugin_perfection_v550_38535libiscan_plugin_perfection_v550_379Ejj
libiscan-plugin-perfection-v550.so.0:_ZN35libiscan_plugin_perfection_v550_38535libiscan_plugin_perfection_v550_380Ejt
libiscan-plugin-perfection-v550.so.0:_ZN35libiscan_plugin_perfection_v550_38535libiscan_plugin_perfection_v550_382E35libiscan_plugin_perfection_v550_430
libiscan-plugin-perfection-v550.so.0:_ZN35libiscan_plugin_perfection_v550_38535libiscan_plugin_perfection_v550_383E35libiscan_plugin_perfection_v550_430
libiscan-plugin-perfection-v550.so.0:_ZN35libiscan_plugin_perfection_v550_38535libiscan_plugin_perfection_v550_384E35libiscan_plugin_perfection_v550_430
libiscan-plugin-perfection-v550.so.0:_ZN35libiscan_plugin_perfection_v550_38535libiscan_plugin_perfection_v550_386Eh
libiscan-plugin-perfection-v550.so.0:_ZN35libiscan_plugin_perfection_v550_38535libiscan_plugin_perfection_v550_387E35libiscan_plugin_perfection_v550_430
libiscan-plugin-perfection-v550.so.0:_ZN35libiscan_plugin_perfection_v550_38535libiscan_plugin_perfection_v550_388Ejjt
libiscan-plugin-perfection-v550.so.0:_ZN35libiscan_plugin_perfection_v550_38535libiscan_plugin_perfection_v550_391Eh
libiscan-plugin-perfection-v550.so.0:_ZN35libiscan_plugin_perfection_v550_38535libiscan_plugin_perfection_v550_399Ev
libiscan-plugin-perfection-v550.so.0:_ZN35libiscan_plugin_perfection_v550_38535libiscan_plugin_perfection_v550_400Eh
libiscan-plugin-perfection-v550.so.0:_ZN35libiscan_plugin_perfection_v550_38535libiscan_plugin_perfection_v550_403Ev
libiscan-plugin-perfection-v550.so.0:_ZN35libiscan_plugin_perfection_v550_38535libiscan_plugin_perfection_v550_404EP35libiscan_plugin_perfection_v550_430h
libiscan-plugin-perfection-v550.so.0:_ZN35libiscan_plugin_perfection_v550_38535libiscan_plugin_perfection_v550_405EP35libiscan_plugin_perfection_v550_430h
libiscan-plugin-perfection-v550.so.0:_ZN35libiscan_plugin_perfection_v550_38535libiscan_plugin_perfection_v550_406Ev
libiscan-plugin-perfection-v550.so.0:_ZN35libiscan_plugin_perfection_v550_38535libiscan_plugin_perfection_v550_407Ev
libiscan-plugin-perfection-v550.so.0:_ZN35libiscan_plugin_perfection_v550_38535libiscan_plugin_perfection_v550_408Eihih
libiscan-plugin-perfection-v550.so.0:_ZN35libiscan_plugin_perfection_v550_38535libiscan_plugin_perfection_v550_409Eihih
libiscan-plugin-perfection-v550.so.0:_ZN35libiscan_plugin_perfection_v550_38535libiscan_plugin_perfection_v550_412EPlS0_j
libiscan-plugin-perfection-v550.so.0:_ZN35libiscan_plugin_perfection_v550_38535libiscan_plugin_perfection_v550_414Ev
libiscan-plugin-perfection-v550.so.0:_ZN35libiscan_plugin_perfection_v550_38535libiscan_plugin_perfection_v550_415Eh
libiscan-plugin-perfection-v550.so.0:_ZN35libiscan_plugin_perfection_v550_38535libiscan_plugin_perfection_v550_416Ev
libiscan-plugin-perfection-v550.so.0:_ZN35libiscan_plugin_perfection_v550_38535libiscan_plugin_perfection_v550_417E35libiscan_plugin_perfection_v550_430
libiscan-plugin-perfection-v550.so.0:_ZN35libiscan_plugin_perfection_v550_38535libiscan_plugin_perfection_v550_434Ev
libiscan-plugin-perfection-v550.so.0:_ZN35libiscan_plugin_perfection_v550_38535libiscan_plugin_perfection_v550_435Ev
libiscan-plugin-perfection-v550.so.0:_ZN35libiscan_plugin_perfection_v550_38535libiscan_plugin_perfection_v550_436Ev
libiscan-plugin-perfection-v550.so.0:_ZN35libiscan_plugin_perfection_v550_38535libiscan_plugin_perfection_v550_437Ev
libiscan-plugin-perfection-v550.so.0:_ZN35libiscan_plugin_perfection_v550_385C1Ev
libiscan-plugin-perfection-v550.so.0:_ZN35libiscan_plugin_perfection_v550_385C2Ev
libiscan-plugin-perfection-v550.so.0:_ZN35libiscan_plugin_perfection_v550_385D1Ev
libiscan-plugin-perfection-v550.so.0:_ZN35libiscan_plugin_perfection_v550_385D2Ev
libiscan-plugin-perfection-v550.so.0:_ZN35libiscan_plugin_perfection_v550_39335libiscan_plugin_perfection_v550_390EPFiPviES2_PKc
libiscan-plugin-perfection-v550.so.0:_ZN35libiscan_plugin_perfection_v550_39335libiscan_plugin_perfection_v550_392EPFiPviEh
libiscan-plugin-perfection-v550.so.0:_ZN35libiscan_plugin_perfection_v550_39335libiscan_plugin_perfection_v550_401EPKc
libiscan-plugin-perfection-v550.so.0:_ZN35libiscan_plugin_perfection_v550_39335libiscan_plugin_perfection_v550_410EPFiPviES2_PKc
libiscan-plugin-perfection-v550.so.0:__bss_start
libiscan-plugin-perfection-v550.so.0:_edata
libiscan-plugin-perfection-v550.so.0:_end
libiscan-plugin-perfection-v550.so.0:_fini
libiscan-plugin-perfection-v550.so.0:_init
libiscan-plugin-perfection-v550.so.0:function_s_0
libiscan-plugin-perfection-v550.so.0:function_s_1
libiscan-plugin-perfection-v550.so.0:int_power_saving_mode
libiscan-plugin-perfection-v550.so.0:interpreter_ctor
libiscan-plugin-perfection-v550.so.0:interpreter_dtor
libiscan-plugin-perfection-v550.so.0:interpreter_reader
libiscan-plugin-perfection-v550.so.0:interpreter_writer
libiscan-plugin-perfection-v550.so.0:libiscan_plugin_perfection_v550_1
libiscan-plugin-perfection-v550.so.0:libiscan_plugin_perfection_v550_126
libiscan-plugin-perfection-v550.so.0:libiscan_plugin_perfection_v550_127
libiscan-plugin-perfection-v550.so.0:libiscan_plugin_perfection_v550_132
libiscan-plugin-perfection-v550.so.0:libiscan_plugin_perfection_v550_135
libiscan-plugin-perfection-v550.so.0:libiscan_plugin_perfection_v550_138
libiscan-plugin-perfection-v550.so.0:libiscan_plugin_perfection_v550_139
libiscan-plugin-perfection-v550.so.0:libiscan_plugin_perfection_v550_14
libiscan-plugin-perfection-v550.so.0:libiscan_plugin_perfection_v550_140
libiscan-plugin-perfection-v550.so.0:libiscan_plugin_perfection_v550_141
libiscan-plugin-perfection-v550.so.0:libiscan_plugin_perfection_v550_142
libiscan-plugin-perfection-v550.so.0:libiscan_plugin_perfection_v550_143
libiscan-plugin-perfection-v550.so.0:libiscan_plugin_perfection_v550_144
libiscan-plugin-perfection-v550.so.0:libiscan_plugin_perfection_v550_145
libiscan-plugin-perfection-v550.so.0:libiscan_plugin_perfection_v550_146
libiscan-plugin-perfection-v550.so.0:libiscan_plugin_perfection_v550_147
libiscan-plugin-perfection-v550.so.0:libiscan_plugin_perfection_v550_148
libiscan-plugin-perfection-v550.so.0:libiscan_plugin_perfection_v550_149
libiscan-plugin-perfection-v550.so.0:libiscan_plugin_perfection_v550_150
libiscan-plugin-perfection-v550.so.0:libiscan_plugin_perfection_v550_151
libiscan-plugin-perfection-v550.so.0:libiscan_plugin_perfection_v550_152
libiscan-plugin-perfection-v550.so.0:libiscan_plugin_perfection_v550_153
libiscan-plugin-perfection-v550.so.0:libiscan_plugin_perfection_v550_154
libiscan-plugin-perfection-v550.so.0:libiscan_plugin_perfection_v550_155
libiscan-plugin-perfection-v550.so.0:libiscan_plugin_perfection_v550_157
libiscan-plugin-perfection-v550.so.0:libiscan_plugin_perfection_v550_175
libiscan-plugin-perfection-v550.so.0:libiscan_plugin_perfection_v550_182
libiscan-plugin-perfection-v550.so.0:libiscan_plugin_perfection_v550_195
libiscan-plugin-perfection-v550.so.0:libiscan_plugin_perfection_v550_218
libiscan-plugin-perfection-v550.so.0:libiscan_plugin_perfection_v550_220
libiscan-plugin-perfection-v550.so.0:libiscan_plugin_perfection_v550_221
libiscan-plugin-perfection-v550.so.0:libiscan_plugin_perfection_v550_222
libiscan-plugin-perfection-v550.so.0:libiscan_plugin_perfection_v550_226
libiscan-plugin-perfection-v550.so.0:libiscan_plugin_perfection_v550_227
libiscan-plugin-perfection-v550.so.0:libiscan_plugin_perfection_v550_228
libiscan-plugin-perfection-v550.so.0:libiscan_plugin_perfection_v550_229
libiscan-plugin-perfection-v550.so.0:libiscan_plugin_perfection_v550_239
libiscan-plugin-perfection-v550.so.0:libiscan_plugin_perfection_v550_240
libiscan-plugin-perfection-v550.so.0:libiscan_plugin_perfection_v550_241
libiscan-plugin-perfection-v550.so.0:libiscan_plugin_perfection_v550_244
libiscan-plugin-perfection-v550.so.0:libiscan_plugin_perfection_v550_245
libiscan-plugin-perfection-v550.so.0:libiscan_plugin_perfection_v550_247
libiscan-plugin-perfection-v550.so.0:libiscan_plugin_perfection_v550_249
libiscan-plugin-perfection-v550.so.0:libiscan_plugin_perfection_v550_250
libiscan-plugin-perfection-v550.so.0:libiscan_plugin_perfection_v550_252
libiscan-plugin-perfection-v550.so.0:libiscan_plugin_perfection_v550_253
libiscan-plugin-perfection-v550.so.0:libiscan_plugin_perfection_v550_254
libiscan-plugin-perfection-v550.so.0:libiscan_plugin_perfection_v550_256
libiscan-plugin-perfection-v550.so.0:libiscan_plugin_perfection_v550_271
libiscan-plugin-perfection-v550.so.0:libiscan_plugin_perfection_v550_272
libiscan-plugin-perfection-v550.so.0:libiscan_plugin_perfection_v550_275
libiscan-plugin-perfection-v550.so.0:libiscan_plugin_perfection_v550_277
libiscan-plugin-perfection-v550.so.0:libiscan_plugin_perfection_v550_3
libiscan-plugin-perfection-v550.so.0:libiscan_plugin_perfection_v550_308
libiscan-plugin-perfection-v550.so.0:libiscan_plugin_perfection_v550_319
libiscan-plugin-perfection-v550.so.0:libiscan_plugin_perfection_v550_320
libiscan-plugin-perfection-v550.so.0:libiscan_plugin_perfection_v550_321
libiscan-plugin-perfection-v550.so.0:libiscan_plugin_perfection_v550_325
libiscan-plugin-perfection-v550.so.0:libiscan_plugin_perfection_v550_326
libiscan-plugin-perfection-v550.so.0:libiscan_plugin_perfection_v550_327
libiscan-plugin-perfection-v550.so.0:libiscan_plugin_perfection_v550_328
libiscan-plugin-perfection-v550.so.0:libiscan_plugin_perfection_v550_329
libiscan-plugin-perfection-v550.so.0:libiscan_plugin_perfection_v550_337
libiscan-plugin-perfection-v550.so.0:libiscan_plugin_perfection_v550_338
libiscan-plugin-perfection-v550.so.0:libiscan_plugin_perfection_v550_36
libiscan-plugin-perfection-v550.so.0:libiscan_plugin_perfection_v550_370
libiscan-plugin-perfection-v550.so.0:libiscan_plugin_perfection_v550_374
libiscan-plugin-perfection-v550.so.0:libiscan_plugin_perfection_v550_375
libiscan-plugin-perfection-v550.so.0:libiscan_plugin_perfection_v550_381
libiscan-plugin-perfection-v550.so.0:libiscan_plugin_perfection_v550_389
libiscan-plugin-perfection-v550.so.0:libiscan_plugin_perfection_v550_394
libiscan-plugin-perfection-v550.so.0:libiscan_plugin_perfection_v550_395
libiscan-plugin-perfection-v550.so.0:libiscan_plugin_perfection_v550_396
libiscan-plugin-perfection-v550.so.0:libiscan_plugin_perfection_v550_397
libiscan-plugin-perfection-v550.so.0:libiscan_plugin_perfection_v550_398
libiscan-plugin-perfection-v550.so.0:libiscan_plugin_perfection_v550_402
libiscan-plugin-perfection-v550.so.0:libiscan_plugin_perfection_v550_411
libiscan-plugin-perfection-v550.so.0:libiscan_plugin_perfection_v550_413
libiscan-plugin-perfection-v550.so.0:libiscan_plugin_perfection_v550_420
libiscan-plugin-perfection-v550.so.0:libiscan_plugin_perfection_v550_421
libiscan-plugin-perfection-v550.so.0:libiscan_plugin_perfection_v550_424
libiscan-plugin-perfection-v550.so.0:libiscan_plugin_perfection_v550_426
libiscan-plugin-perfection-v550.so.0:libiscan_plugin_perfection_v550_427
libiscan-plugin-perfection-v550.so.0:libiscan_plugin_perfection_v550_433
libiscan-plugin-perfection-v550.so.0:libiscan_plugin_perfection_v550_438
libiscan-plugin-perfection-v550.so.0:libiscan_plugin_perfection_v550_439
libiscan-plugin-perfection-v550.so.0:libiscan_plugin_perfection_v550_57
libiscan-plugin-perfection-v550.so.0:libiscan_plugin_perfection_v550_65
libiscan-plugin-perfection-v550.so.0:libiscan_plugin_perfection_v550_8
libiscan-plugin-perfection-v550.so.0:libiscan_plugin_perfection_v550_88
libiscan-plugin-perfection-v550.so.0:libiscan_plugin_perfection_v550_89
libiscan-plugin-perfection-v550.so.0:libiscan_plugin_perfection_v550_94
libocr-bmpmem.so.0:
libocr-bmpmem.so.0:GetImageInf
libocr-bmpmem.so.0:GetImageInfW
libocr-bmpmem.so.0:ReadImage
libocr-bmpmem.so.0:ReadImageW
libocr-bmpmem.so.0:YdReadImageA
libocr-bmpmem.so.0:YdReadImageW
libocr-bmpmem.so.0:_ZN11CYdBitmapIO11GetSkipByteEP8_IO_FILEtPj
libocr-bmpmem.so.0:_ZN11CYdBitmapIO11PaletteSizeEP19tagBITMAPINFOHEADER
libocr-bmpmem.so.0:_ZN11CYdBitmapIO11ReadImageCAEPKcPvttPt
libocr-bmpmem.so.0:_ZN11CYdBitmapIO11ReadImageCWEPKDsPvttPt
libocr-bmpmem.so.0:_ZN11CYdBitmapIO12DIBNumColorsEP19tagBITMAPINFOHEADER
libocr-bmpmem.so.0:_ZN11CYdBitmapIO12GetColorTypeEP8_IO_FILEPttS2_
libocr-bmpmem.so.0:_ZN11CYdBitmapIO12GetImageInfCEP8_IO_FILEP9tagIMGINFPt
libocr-bmpmem.so.0:_ZN11CYdBitmapIO12GetTotalPageEP8_IO_FILE
libocr-bmpmem.so.0:_ZN11CYdBitmapIO13ReadImageMonoEP8_IO_FILEP10tagIMGHEADtPt
libocr-bmpmem.so.0:_ZN11CYdBitmapIO13ReadWriteBitsEiPiS0_S0_PhS1_PlPS1_i
libocr-bmpmem.so.0:_ZN11CYdBitmapIO14ReadImageColorEP8_IO_FILEP10tagIMGHEADtPt
libocr-bmpmem.so.0:_ZN11CYdBitmapIO19ColorDecompress4to1EPv
libocr-bmpmem.so.0:_ZN11CYdBitmapIO19ColorDecompress8to1EPv
libocr-bmpmem.so.0:_ZN11CYdBitmapIO20LoadBITMAPFILEHEADEREP8_IO_FILER19tagBITMAPFILEHEADER
libocr-bmpmem.so.0:_ZN11CYdBitmapIO6Check1EP8_IO_FILER19tagBITMAPFILEHEADERRiPcltS4_Pt
libocr-bmpmem.so.0:_ZN11CYdBitmapIO6Check2EP8_IO_FILER19tagBITMAPFILEHEADERRiPcltRjS4_Pt
libocr-bmpmem.so.0:_ZN11CYdBitmapIO9HiorLoBitEPhi
libocr-bmpmem.so.0:__bss_start
libocr-bmpmem.so.0:_edata
libocr-bmpmem.so.0:_end
libocr-bmpmem.so.0:_fini
libocr-bmpmem.so.0:_init
libocr-cnvres.so.0:
libocr-cnvres.so.0:BLACK_POINT_VALUE
libocr-cnvres.so.0:BLACK_POINT_VALUE16
libocr-cnvres.so.0:COLOR_MAX_VALUE
libocr-cnvres.so.0:COLOR_MAX_VALUE16
libocr-cnvres.so.0:ConvertResolution
libocr-cnvres.so.0:ConvertResolution2
libocr-cnvres.so.0:GetBufferSize
libocr-cnvres.so.0:STATIC_COLOR
libocr-cnvres.so.0:STATIC_CUBE
libocr-cnvres.so.0:WEIGHT_TABLE_A
libocr-cnvres.so.0:WEIGHT_TABLE_B
libocr-cnvres.so.0:WHITE_POINT_VALUE
libocr-cnvres.so.0:WHITE_POINT_VALUE16
libocr-cnvres.so.0:_Z10CompareRGB10tagRGBQUADj
libocr-cnvres.so.0:_Z10RestoreRLEPh
libocr-cnvres.so.0:_Z11CompareBlue12CColorTrans2S_
libocr-cnvres.so.0:_Z11CompareRGBT12tagRGBTRIPLEj
libocr-cnvres.so.0:_Z11DIBBitCountPh
libocr-cnvres.so.0:_Z11GetBitIndexPhii
libocr-cnvres.so.0:_Z11PaletteSizePh
libocr-cnvres.so.0:_Z11RestoreRLE4Ph
libocr-cnvres.so.0:_Z11RestoreRLE8Ph
libocr-cnvres.so.0:_Z11SetBitIndexPhiit
libocr-cnvres.so.0:_Z12CompareColor12CColorTrans2S_10tagRGBQUAD
libocr-cnvres.so.0:_Z12CompareDenom12CColorTrans2S_
libocr-cnvres.so.0:_Z12ConvertImagePvPS_
libocr-cnvres.so.0:_Z12DIBNumColorsPh
libocr-cnvres.so.0:_Z12NormalizeDIBPh
libocr-cnvres.so.0:_Z13ColorToMono16j
libocr-cnvres.so.0:_Z13ConvertImage2PvPS_
libocr-cnvres.so.0:_Z13GetBaseColorsPvPj
libocr-cnvres.so.0:_Z13GetColorIndexPhj
libocr-cnvres.so.0:_Z13GetIndexColorPhi
libocr-cnvres.so.0:_Z13SetIndexColorPhij
libocr-cnvres.so.0:_Z14ColorToMono256j
libocr-cnvres.so.0:_Z14CompareRGBQUAD10tagRGBQUADhhh
libocr-cnvres.so.0:_Z14CopyColorTablePhS_
libocr-cnvres.so.0:_Z16CompareRGBTRIPLE12tagRGBTRIPLEhhh
libocr-cnvres.so.0:_Z16CreateDIBPalettePh
libocr-cnvres.so.0:_Z17ColorToMono16Easyj
libocr-cnvres.so.0:_Z17ConvertTo16BPPDIBPh
libocr-cnvres.so.0:_Z17ConvertTo24BPPDIBPh
libocr-cnvres.so.0:_Z17GetColorsCallbackPvl
libocr-cnvres.so.0:_Z17TopDownToBottomUpPh
libocr-cnvres.so.0:_Z18ColorToMono256Easyj
libocr-cnvres.so.0:_Z19ColorToMono16MinMaxj
libocr-cnvres.so.0:_Z19LinearTransformMaintPKvPvPFitEti
libocr-cnvres.so.0:_Z20ColorToMono256MinMaxj
libocr-cnvres.so.0:_Z27GetTransformImageMemorySizetPKvtPj
libocr-cnvres.so.0:_Z5QsortP12CColorTrans210tagRGBQUADiPFiS_S_S1_E
libocr-cnvres.so.0:_Z5QsortP12CColorTrans2iPFiS_S_E
libocr-cnvres.so.0:_Z6SetDIBPhjjt
libocr-cnvres.so.0:_Z7CopyRGBP10tagRGBQUADj
libocr-cnvres.so.0:_Z7DIBBitsPh
libocr-cnvres.so.0:_Z7DIBMaskPhRjS0_S0_
libocr-cnvres.so.0:_Z7DIBSizePh
libocr-cnvres.so.0:_Z8CopyRGBTP12tagRGBTRIPLEj
libocr-cnvres.so.0:_Z8DIBWidthPh
libocr-cnvres.so.0:_Z9CreateDIBjjt
libocr-cnvres.so.0:_Z9DIBHeightPh
libocr-cnvres.so.0:_Z9GetShiftsjRtS_
libocr-cnvres.so.0:_ZN13CImgConverter13CheckColorMapERi
libocr-cnvres.so.0:_ZN13CImgConverter16MakeGray256ImageERPv
libocr-cnvres.so.0:_ZN13CImgConverter18MakeFullColorImageERPv
libocr-cnvres.so.0:_ZN13CImgConverter19GetGray256ImageSizeEv
libocr-cnvres.so.0:_ZN13CImgConverter21GetFullColorImageSizeEv
libocr-cnvres.so.0:_ZN18CConvertResolution10BiLinear16ERK12_tagDIBPARAMPK7tagRECTS5_RS0_PFiiiE
libocr-cnvres.so.0:_ZN18CConvertResolution10BiLinear24ERK12_tagDIBPARAMPK7tagRECTS5_RS0_PFiiiE
libocr-cnvres.so.0:_ZN18CConvertResolution10BiLinear32ERK12_tagDIBPARAMPK7tagRECTS5_RS0_PFiiiE
libocr-cnvres.so.0:_ZN18CConvertResolution10BiLinear48ERK12_tagDIBPARAMPK7tagRECTS5_RS0_PFiiiE
libocr-cnvres.so.0:_ZN18CConvertResolution10BiLinear64ERK12_tagDIBPARAMPK7tagRECTS5_RS0_PFiiiE
libocr-cnvres.so.0:_ZN18CConvertResolution10GetBitsTopEPKh
libocr-cnvres.so.0:_ZN18CConvertResolution11GetBitsMaskERK12_tagDIBPARAM
libocr-cnvres.so.0:_ZN18CConvertResolution11SetDIBParamEPKhR12_tagDIBPARAM
libocr-cnvres.so.0:_ZN18CConvertResolution12GetCoordUnitERK12_tagDIBPARAMRK7tagSIZE
libocr-cnvres.so.0:_ZN18CConvertResolution13GetCoordTableERK12_tagDIBPARAMiii
libocr-cnvres.so.0:_ZN18CConvertResolution14GetPaletteSizeEPKv
libocr-cnvres.so.0:_ZN18CConvertResolution17BiLinearSmallBitsERK12_tagDIBPARAMPK7tagRECTS5_RS0_PFiiiE
libocr-cnvres.so.0:_ZN18CConvertResolution18ConvertResolution_EPvjjPt
libocr-cnvres.so.0:_ZN18CConvertResolution8BiLinearEPKhPK7tagRECTS4_PFiiiE
libocr-cnvres.so.0:_ZN18CConvertResolution9BiLinear8ERK12_tagDIBPARAMPK7tagRECTS5_RS0_PFiiiE
libocr-cnvres.so.0:_ZN18CConvertResolution9CreateDIBEPK13tagBITMAPINFOPKv
libocr-cnvres.so.0:_ZN19CLinearTransformMem10CloseImageEt
libocr-cnvres.so.0:_ZN19CLinearTransformMem11CreateImageEti
libocr-cnvres.so.0:_ZN19CLinearTransformMem11IsGrayImageEv
libocr-cnvres.so.0:_ZN19CLinearTransformMem12GetImageLineEtPh
libocr-cnvres.so.0:_ZN19CLinearTransformMem15LinearTransformEtPFitEti
libocr-cnvres.so.0:_ZN19CLinearTransformMem15MakeBWImageLineEdPhS0_S0_
libocr-cnvres.so.0:_ZN19CLinearTransformMem16CreateOutputDataEv
libocr-cnvres.so.0:_ZN19CLinearTransformMem18GetSourceImageInfoEv
libocr-cnvres.so.0:_ZN19CLinearTransformMem21Make4bitGrayImageLineEdPhS0_S0_
libocr-cnvres.so.0:_ZN19CLinearTransformMem21Make8bitGrayImageLineEdPhS0_S0_
libocr-cnvres.so.0:_ZN19CLinearTransformMem21MakeRGBColorImageLineEdPhS0_S0_
libocr-cnvres.so.0:_ZN19CLinearTransformMem25SetOutputBitmapInfoHeaderEPvi
libocr-cnvres.so.0:_ZN19CLinearTransformMem29Make8bitPaletteColorImageLineEdPhS0_S0_
libocr-cnvres.so.0:_ZN19CLinearTransformMem9OpenImageEt
libocr-cnvres.so.0:_ZN7CHandle4FreeEv
libocr-cnvres.so.0:_ZN7CHandle4LockEv
libocr-cnvres.so.0:_ZN7CHandle6DetachEv
libocr-cnvres.so.0:_ZN7CHandle6UnLockEv
libocr-cnvres.so.0:_ZN7CHandle7CleanupEv
libocr-cnvres.so.0:_ZN7CHandle7IsEmptyEv
libocr-cnvres.so.0:_ZN7CHandle9GetHandleEv
libocr-cnvres.so.0:_ZN7CHandle9SetHandleEPv
libocr-cnvres.so.0:_ZN7CHandleC1EPv
libocr-cnvres.so.0:_ZN7CHandleC2EPv
libocr-cnvres.so.0:_ZN7CHandleD0Ev
libocr-cnvres.so.0:_ZN7CHandleD1Ev
libocr-cnvres.so.0:_ZN7CHandleD2Ev
libocr-cnvres.so.0:_ZN7CHandleaSERKS_
libocr-cnvres.so.0:_ZN7CHandlecvPcEv
libocr-cnvres.so.0:_ZN7CHandlecvPhEv
libocr-cnvres.so.0:_ZN7CHandlecvPiEv
libocr-cnvres.so.0:_ZN7CHandlecvPjEv
libocr-cnvres.so.0:_ZN7CHandlecvPlEv
libocr-cnvres.so.0:_ZN7CHandlecvPsEv
libocr-cnvres.so.0:_ZN7CHandlecvPtEv
libocr-cnvres.so.0:_ZN7CHandleixEi
libocr-cnvres.so.0:_ZN8CNiGoRo210InitOctreeEv
libocr-cnvres.so.0:_ZN8CNiGoRo211CountColorsEjRji
libocr-cnvres.so.0:_ZN8CNiGoRo211CutBranchesEjj
libocr-cnvres.so.0:_ZN8CNiGoRo211InsertColorEhhhi
libocr-cnvres.so.0:_ZN8CNiGoRo212BuildPaletteEP10tagRGBQUAD
libocr-cnvres.so.0:_ZN8CNiGoRo212QuantizeBF16EPtiiPhMS_FhhhhE
libocr-cnvres.so.0:_ZN8CNiGoRo212QuantizeBF32EPjiiPhMS_FhhhhE
libocr-cnvres.so.0:_ZN8CNiGoRo212QuantizeBM16EPtiiPhMS_FhhhhE
libocr-cnvres.so.0:_ZN8CNiGoRo212QuantizeBM24EPhiiS0_MS_FhhhhE
libocr-cnvres.so.0:_ZN8CNiGoRo212ReduceColorsEv
libocr-cnvres.so.0:_ZN8CNiGoRo213AddStaticListEiii12CColorTrans2
libocr-cnvres.so.0:_ZN8CNiGoRo214InitSearchCubeEv
libocr-cnvres.so.0:_ZN8CNiGoRo214QuantizeBitmapEii
libocr-cnvres.so.0:_ZN8CNiGoRo214m_iStcColorNumE
libocr-cnvres.so.0:_ZN8CNiGoRo215BuildSearchCubeEP10tagRGBQUAD
libocr-cnvres.so.0:_ZN8CNiGoRo215SetStaticColorsEv
libocr-cnvres.so.0:_ZN8CNiGoRo216DeleteSearchCubeEv
libocr-cnvres.so.0:_ZN8CNiGoRo219CreateColorTableRecEjRj
libocr-cnvres.so.0:_ZN8CNiGoRo219InsertDefaultColorsEv
libocr-cnvres.so.0:_ZN8CNiGoRo220InitStaticSearchCubeEv
libocr-cnvres.so.0:_ZN8CNiGoRo221GetNearestColorIndexCEhhh
libocr-cnvres.so.0:_ZN8CNiGoRo221GetNearestColorIndexLEhhh
libocr-cnvres.so.0:_ZN8CNiGoRo222CreateStaticSearchCubeEv
libocr-cnvres.so.0:_ZN8CNiGoRo222DeleteStaticSearchCubeEv
libocr-cnvres.so.0:_ZN8CNiGoRo23CutEjP6CCube2
libocr-cnvres.so.0:_ZN8CNiGoRo27AddListEiii12CColorTrans2
libocr-cnvres.so.0:_ZN8CNiGoRo28FillTreeEv
libocr-cnvres.so.0:_ZN8CNiGoRo28QuantizeEv
libocr-cnvres.so.0:_ZN8CNiGoRo2C1EPhtti
libocr-cnvres.so.0:_ZN8CNiGoRo2C2EPhtti
libocr-cnvres.so.0:_ZN8CNiGoRo2D1Ev
libocr-cnvres.so.0:_ZN8CNiGoRo2D2Ev
libocr-cnvres.so.0:__bss_start
libocr-cnvres.so.0:_edata
libocr-cnvres.so.0:_end
libocr-cnvres.so.0:_fini
libocr-cnvres.so.0:_init
libocr-colbin.so.0:
libocr-colbin.so.0:AfxMessageBox
libocr-colbin.so.0:CloseHandle
libocr-colbin.so.0:ColorToBinary
libocr-colbin.so.0:CopyMemory
libocr-colbin.so.0:CreateFile
libocr-colbin.so.0:CreatePalette
libocr-colbin.so.0:DispatchMessage
libocr-colbin.so.0:EnumObjects
libocr-colbin.so.0:FillMemory
libocr-colbin.so.0:FreeLibrary
libocr-colbin.so.0:GetLastError
libocr-colbin.so.0:GetModuleFileName
libocr-colbin.so.0:GetModuleHandle
libocr-colbin.so.0:GetPrivateProfileString
libocr-colbin.so.0:GetProcAddress
libocr-colbin.so.0:GetSystemInfo
libocr-colbin.so.0:GlobalAlloc
libocr-colbin.so.0:GlobalFlags
libocr-colbin.so.0:GlobalFree
libocr-colbin.so.0:GlobalLock
libocr-colbin.so.0:GlobalReAlloc
libocr-colbin.so.0:GlobalSize
libocr-colbin.so.0:GlobalUnlock
libocr-colbin.so.0:GrayToBinary
libocr-colbin.so.0:HIBYTE
libocr-colbin.so.0:HIWORD
libocr-colbin.so.0:HeapAlloc
libocr-colbin.so.0:HeapCreate
libocr-colbin.so.0:HeapDestroy
libocr-colbin.so.0:HeapFree
libocr-colbin.so.0:IsBadReadPtr
libocr-colbin.so.0:LOBYTE
libocr-colbin.so.0:LOWORD
libocr-colbin.so.0:LoadLibraryEx
libocr-colbin.so.0:MAKELONG32
libocr-colbin.so.0:MAKEWORD
libocr-colbin.so.0:MakeBinaryImage
libocr-colbin.so.0:MessageBox
libocr-colbin.so.0:OutputDebugStringA
libocr-colbin.so.0:OutputDebugStringW
libocr-colbin.so.0:PeekMessage
libocr-colbin.so.0:QueryPerformanceCounter
libocr-colbin.so.0:QueryPerformanceFrequency
libocr-colbin.so.0:ReadFile
libocr-colbin.so.0:SendMessage
libocr-colbin.so.0:SetFilePointer
libocr-colbin.so.0:SetRect
libocr-colbin.so.0:Sleep
libocr-colbin.so.0:TranslateMessage
libocr-colbin.so.0:WaitForMultipleObjects
libocr-colbin.so.0:WaitForSingleObject
libocr-colbin.so.0:WriteFile
libocr-colbin.so.0:ZeroMemory
libocr-colbin.so.0:_Z11CreateEventP20_SECURITY_ATTRIBUTESiiPKc
libocr-colbin.so.0:_Z12utf16_fgetwsPDsiP8_IO_FILE
libocr-colbin.so.0:_Z12utf16_wcschrPKDsDs
libocr-colbin.so.0:_Z12utf16_wcscmpPKDsS0_
libocr-colbin.so.0:_Z12utf16_wcslenPKDs
libocr-colbin.so.0:_Z12utf16_wcslwrPDs
libocr-colbin.so.0:_Z12utf16_wfopenPKDsS0_
libocr-colbin.so.0:_Z13utf16_wremovePKDs
libocr-colbin.so.0:_Z14_beginthreadexP20_SECURITY_ATTRIBUTESjPFPvS1_ES1_jPm
libocr-colbin.so.0:_Z14utf16_wcscpy_sPDsmPKDs
libocr-colbin.so.0:_Z14utf16_wcslwr_sPDsm
libocr-colbin.so.0:_Z14utf16_wcsupr_sPDsm
libocr-colbin.so.0:_Z14utf16_wfopen_sPP8_IO_FILEPKDsS3_
libocr-colbin.so.0:_Z15YdGetProfileIntPKcS0_j
libocr-colbin.so.0:_Z15utf16_wcsncpy_sPDsmPKDsm
libocr-colbin.so.0:_Z16MakeBinaryImage2P9ICBMemoryPv12YDBW_PARAM_tPFitEPt
libocr-colbin.so.0:_Z16utf16_fwprintf_sP8_IO_FILEPKDsz
libocr-colbin.so.0:_Z17GetRegistrySZ_MacPKcS0_Pcj
libocr-colbin.so.0:_Z18IsDebuggerAvaiablev
libocr-colbin.so.0:_Z19InterlockedExchangePii
libocr-colbin.so.0:_Z20EnterCriticalSectionP16CRITICAL_SECTION
libocr-colbin.so.0:_Z20GetRegistryDWORD_MacPKcS0_j
libocr-colbin.so.0:_Z20GetYndProfileInt_MacPKcS0_j
libocr-colbin.so.0:_Z20LeaveCriticalSectionP16CRITICAL_SECTION
libocr-colbin.so.0:_Z21DeleteCriticalSectionP16CRITICAL_SECTION
libocr-colbin.so.0:_Z21MakeBinaryImage_LocalPPvS_12YDBW_PARAM_tPFitEPt
libocr-colbin.so.0:_Z23GetYndProfileString_MacPKcS0_Pc
libocr-colbin.so.0:_Z25InitializeCriticalSectionP16CRITICAL_SECTION
libocr-colbin.so.0:_Z33GetFolderStringRelativeBaseModulePv16ModuleFolderType
libocr-colbin.so.0:_Z3RGBhhh
libocr-colbin.so.0:_Z7DllMainPvjS_
libocr-colbin.so.0:_Z8SetEventPv
libocr-colbin.so.0:_Z9GetBValuej
libocr-colbin.so.0:_Z9GetGValuej
libocr-colbin.so.0:_Z9GetRValuej
libocr-colbin.so.0:_ZN10CDecodeRLE10DecodeRLE4EPv
libocr-colbin.so.0:_ZN10CDecodeRLE10DecodeRLE8EPv
libocr-colbin.so.0:_ZN10CDecodeRLE13FillDIBHeaderEPhS0_
libocr-colbin.so.0:_ZN10CDecodeRLE13ReadWriteBitsEiPiS0_S0_PhS1_S0_PjPS1_i
libocr-colbin.so.0:_ZN10CDecodeRLE9DecodeRLEEPv
libocr-colbin.so.0:_ZN10CDecodeRLE9HiorLoBitEPhi
libocr-colbin.so.0:_ZN10CTempImage10GraySelectE10tagRGBQUAD
libocr-colbin.so.0:_ZN10CTempImage10GraySelectEPh
libocr-colbin.so.0:_ZN10CTempImage11GraySelectGE10tagRGBQUAD
libocr-colbin.so.0:_ZN10CTempImage13FillTempImageEPviii
libocr-colbin.so.0:_ZN10CTempImage13MakeFrequencyE7tagRECTPj
libocr-colbin.so.0:_ZN10CTempImage17AllocateTempImageEP19tagBITMAPINFOHEADER
libocr-colbin.so.0:_ZN10CTempImage19Convert4toTempImageEPvii
libocr-colbin.so.0:_ZN10CTempImage19Convert8toTempImageEPvii
libocr-colbin.so.0:_ZN10CTempImage20Convert24toTempImageEPvii
libocr-colbin.so.0:_ZN10CTempImage23CreateTempImageFromGrayEPvii
libocr-colbin.so.0:_ZN10CTempImage9SetMarginEi
libocr-colbin.so.0:_ZN10Gray2binEx4initEv
libocr-colbin.so.0:_ZN10Gray2binEx6DoOtsuEj
libocr-colbin.so.0:_ZN10Gray2binEx6SetDIBEPvPt
libocr-colbin.so.0:_ZN10Gray2binEx7DisposeEv
libocr-colbin.so.0:_ZN10Gray2binEx7releaseEv
libocr-colbin.so.0:_ZN10Gray2binEx8DoSimpleEh
libocr-colbin.so.0:_ZN10Gray2binEx9DoNiblackEj
libocr-colbin.so.0:_ZN10Gray2binEx9DoSauvolaEj
libocr-colbin.so.0:_ZN10Gray2binEx9GetBinDIBEPt
libocr-colbin.so.0:_ZN10Gray2binExC1Ev
libocr-colbin.so.0:_ZN10Gray2binExC2Ev
libocr-colbin.so.0:_ZN10Gray2binExD1Ev
libocr-colbin.so.0:_ZN10Gray2binExD2Ev
libocr-colbin.so.0:_ZN12CToBinaryDIB10ChangeModeEjjiii
libocr-colbin.so.0:_ZN12CToBinaryDIB11ToBinaryDIBEPviPt
libocr-colbin.so.0:_ZN12CToBinaryDIB12BinarizationEPv
libocr-colbin.so.0:_ZN12CToBinaryDIB12SimpleBinaryEPvR10CTempImageS0_i
libocr-colbin.so.0:_ZN12CToBinaryDIB15ThresholdThreadEPv
libocr-colbin.so.0:_ZN12CToBinaryDIB16RemoveBackgroundEPvR10CTempImageS0_i
libocr-colbin.so.0:_ZN12CToBinaryDIB18BinarizationThreadEPv
libocr-colbin.so.0:_ZN12CToBinaryDIB18CalculateThresholdER10CTempImage7tagRECTii
libocr-colbin.so.0:_ZN12CToBinaryDIB19SetBitmapInfoHeaderE19tagBITMAPINFOHEADER
libocr-colbin.so.0:_ZN12CToBinaryDIB20GrayBitsToBinaryBitsER10CTempImagePhj7tagRECTi
libocr-colbin.so.0:_ZN12CToBinaryDIB21SearchForMinThresholdEiiRsS0_Ps
libocr-colbin.so.0:_ZN12CToBinaryDIB22CalculateThresholdMainEPv
libocr-colbin.so.0:_ZN12CToBinaryDIB9GetBorderEPsS0_isS0_S0_S0_
libocr-colbin.so.0:_ZN12CToBinaryDIBC1EP20CToBinaryDIBProgress
libocr-colbin.so.0:_ZN12CToBinaryDIBC2EP20CToBinaryDIBProgress
libocr-colbin.so.0:_ZN9CDIBImage11PaletteSizeEP19tagBITMAPINFOHEADER
libocr-colbin.so.0:_ZN9CDIBImage12DIBNumColorsEP19tagBITMAPINFOHEADER
libocr-colbin.so.0:_ZN9CDIBImage14GetDibBitsAddrEP19tagBITMAPINFOHEADERPv
libocr-colbin.so.0:_ZN9CDIBImage17CheckGrayScaleDIBEPv
libocr-colbin.so.0:__bss_start
libocr-colbin.so.0:_edata
libocr-colbin.so.0:_end
libocr-colbin.so.0:_fini
libocr-colbin.so.0:_init
libocr-colbin.so.0:_itoa_s
libocr-colbin.so.0:_mbbtombc
libocr-colbin.so.0:_mbcjistojms
libocr-colbin.so.0:_mbcjmstojis
libocr-colbin.so.0:_mbsbtype
libocr-colbin.so.0:_mbscat_s
libocr-colbin.so.0:_mbschr
libocr-colbin.so.0:_mbscmp
libocr-colbin.so.0:_mbscpy_s
libocr-colbin.so.0:_mbslen
libocr-colbin.so.0:_mbsncpy_s
libocr-colbin.so.0:_splitpath_s
libocr-colbin.so.0:_tcscat_s
libocr-colbin.so.0:_tcscpy_s
libocr-colbin.so.0:_tcsrchr
libocr-colbin.so.0:ascii_1byteto2byte_table
libocr-colbin.so.0:fopen_s
libocr-colbin.so.0:g_dwLastError
libocr-colbin.so.0:katakana_1byteto2byte_table
libocr-colbin.so.0:memcpy_s
libocr-colbin.so.0:sprintf_s
libocr-colbin.so.0:strcat_s
libocr-colbin.so.0:strcpy_s
libocr-colbin.so.0:stricmp
libocr-colbin.so.0:strncpy_s
libocr-ijglib.so.0:
libocr-ijglib.so.0:_Z10jpeg_abortP18jpeg_common_struct
libocr-ijglib.so.0:_Z12jpeg_destroyP18jpeg_common_struct
libocr-ijglib.so.0:_Z13jdiv_round_upii
libocr-ijglib.so.0:_Z13jpeg_idct_1x1P22jpeg_decompress_structP19jpeg_component_infoPsPPhj
libocr-ijglib.so.0:_Z13jpeg_idct_2x2P22jpeg_decompress_structP19jpeg_component_infoPsPPhj
libocr-ijglib.so.0:_Z13jpeg_idct_4x4P22jpeg_decompress_structP19jpeg_component_infoPsPPhj
libocr-ijglib.so.0:_Z13jpeg_mem_initP18jpeg_common_struct
libocr-ijglib.so.0:_Z13jpeg_mem_termP18jpeg_common_struct
libocr-ijglib.so.0:_Z14jpeg_get_largeP18jpeg_common_structm
libocr-ijglib.so.0:_Z14jpeg_get_smallP18jpeg_common_structm
libocr-ijglib.so.0:_Z14jpeg_std_errorP14jpeg_error_mgr
libocr-ijglib.so.0:_Z14jpeg_stdio_srcP22jpeg_decompress_structP8_IO_FILE
libocr-ijglib.so.0:_Z15jcopy_block_rowPA64_sS0_j
libocr-ijglib.so.0:_Z15jinit_upsamplerP22jpeg_decompress_struct
libocr-ijglib.so.0:_Z15jpeg_fdct_floatPf
libocr-ijglib.so.0:_Z15jpeg_fdct_ifastPi
libocr-ijglib.so.0:_Z15jpeg_fdct_islowPi
libocr-ijglib.so.0:_Z15jpeg_free_largeP18jpeg_common_structPvm
libocr-ijglib.so.0:_Z15jpeg_free_smallP18jpeg_common_structPvm
libocr-ijglib.so.0:_Z15jpeg_idct_floatP22jpeg_decompress_structP19jpeg_component_infoPsPPhj
libocr-ijglib.so.0:_Z15jpeg_idct_ifastP22jpeg_decompress_structP19jpeg_component_infoPsPPhj
libocr-ijglib.so.0:_Z15jpeg_idct_islowP22jpeg_decompress_structP19jpeg_component_infoPsPPhj
libocr-ijglib.so.0:_Z15jpeg_stdio_destP20jpeg_compress_structP8_IO_FILE
libocr-ijglib.so.0:_Z16jinit_memory_mgrP18jpeg_common_struct
libocr-ijglib.so.0:_Z16jpeg_huff_decodeP21bitread_working_stateiiP13d_derived_tbli
libocr-ijglib.so.0:_Z16jpeg_memory_destP20jpeg_compress_struct
libocr-ijglib.so.0:_Z16jpeg_read_headerP22jpeg_decompress_structh
libocr-ijglib.so.0:_Z16jpeg_set_qualityP20jpeg_compress_structih
libocr-ijglib.so.0:_Z17jcopy_sample_rowsPPhiS0_iij
libocr-ijglib.so.0:_Z17jinit_downsamplerP20jpeg_compress_struct
libocr-ijglib.so.0:_Z17jinit_forward_dctP20jpeg_compress_struct
libocr-ijglib.so.0:_Z17jinit_inverse_dctP22jpeg_decompress_struct
libocr-ijglib.so.0:_Z17jpeg_new_colormapP22jpeg_decompress_struct
libocr-ijglib.so.0:_Z17jpeg_save_markersP22jpeg_decompress_structij
libocr-ijglib.so.0:_Z17jpeg_set_defaultsP20jpeg_compress_struct
libocr-ijglib.so.0:_Z17jpeg_start_outputP22jpeg_decompress_structi
libocr-ijglib.so.0:_Z17jpeg_write_m_byteP20jpeg_compress_structi
libocr-ijglib.so.0:_Z17jpeg_write_markerP20jpeg_compress_structiPKhj
libocr-ijglib.so.0:_Z17jpeg_write_tablesP20jpeg_compress_struct
libocr-ijglib.so.0:_Z18jinit_huff_decoderP22jpeg_decompress_struct
libocr-ijglib.so.0:_Z18jinit_huff_encoderP20jpeg_compress_struct
libocr-ijglib.so.0:_Z18jpeg_consume_inputP22jpeg_decompress_struct
libocr-ijglib.so.0:_Z18jpeg_finish_outputP22jpeg_decompress_struct
libocr-ijglib.so.0:_Z18jpeg_mem_availableP18jpeg_common_structiii
libocr-ijglib.so.0:_Z18jpeg_read_raw_dataP22jpeg_decompress_structPPPhj
libocr-ijglib.so.0:_Z19jinit_marker_readerP22jpeg_decompress_struct
libocr-ijglib.so.0:_Z19jinit_marker_writerP20jpeg_compress_struct
libocr-ijglib.so.0:_Z19jinit_phuff_decoderP22jpeg_decompress_struct
libocr-ijglib.so.0:_Z19jinit_phuff_encoderP20jpeg_compress_struct
libocr-ijglib.so.0:_Z19jpeg_CreateCompressP20jpeg_compress_structim
libocr-ijglib.so.0:_Z19jpeg_abort_compressP20jpeg_compress_struct
libocr-ijglib.so.0:_Z19jpeg_input_completeP22jpeg_decompress_struct
libocr-ijglib.so.0:_Z19jpeg_read_scanlinesP22jpeg_decompress_structPPhj
libocr-ijglib.so.0:_Z19jpeg_set_colorspaceP20jpeg_compress_struct13J_COLOR_SPACE
libocr-ijglib.so.0:_Z19jpeg_start_compressP20jpeg_compress_structh
libocr-ijglib.so.0:_Z19jpeg_write_m_headerP20jpeg_compress_structij
libocr-ijglib.so.0:_Z19jpeg_write_raw_dataP20jpeg_compress_structPPPhj
libocr-ijglib.so.0:_Z20jpeg_add_quant_tableP20jpeg_compress_structiPKjih
libocr-ijglib.so.0:_Z20jpeg_fill_bit_bufferP21bitread_working_stateiii
libocr-ijglib.so.0:_Z20jpeg_finish_compressP20jpeg_compress_struct
libocr-ijglib.so.0:_Z20jpeg_quality_scalingi
libocr-ijglib.so.0:_Z20jpeg_suppress_tablesP20jpeg_compress_structh
libocr-ijglib.so.0:_Z20jpeg_write_scanlinesP20jpeg_compress_structPPhj
libocr-ijglib.so.0:_Z21jinit_1pass_quantizerP22jpeg_decompress_struct
libocr-ijglib.so.0:_Z21jinit_2pass_quantizerP22jpeg_decompress_struct
libocr-ijglib.so.0:_Z21jinit_color_converterP20jpeg_compress_struct
libocr-ijglib.so.0:_Z21jinit_compress_masterP20jpeg_compress_struct
libocr-ijglib.so.0:_Z21jpeg_CreateDecompressP22jpeg_decompress_structim
libocr-ijglib.so.0:_Z21jpeg_abort_decompressP22jpeg_decompress_struct
libocr-ijglib.so.0:_Z21jpeg_alloc_huff_tableP18jpeg_common_struct
libocr-ijglib.so.0:_Z21jpeg_destroy_compressP20jpeg_compress_struct
libocr-ijglib.so.0:_Z21jpeg_start_decompressP22jpeg_decompress_struct
libocr-ijglib.so.0:_Z22jinit_c_master_controlP20jpeg_compress_structh
libocr-ijglib.so.0:_Z22jinit_input_controllerP22jpeg_decompress_struct
libocr-ijglib.so.0:_Z22jinit_merged_upsamplerP22jpeg_decompress_struct
libocr-ijglib.so.0:_Z22jpeg_alloc_quant_tableP18jpeg_common_struct
libocr-ijglib.so.0:_Z22jpeg_finish_decompressP22jpeg_decompress_struct
libocr-ijglib.so.0:_Z22jpeg_gen_optimal_tableP20jpeg_compress_structP9JHUFF_TBLPi
libocr-ijglib.so.0:_Z22jpeg_read_coefficientsP22jpeg_decompress_struct
libocr-ijglib.so.0:_Z22jpeg_resync_to_restartP22jpeg_decompress_structi
libocr-ijglib.so.0:_Z23jinit_c_coef_controllerP20jpeg_compress_structh
libocr-ijglib.so.0:_Z23jinit_c_main_controllerP20jpeg_compress_structh
libocr-ijglib.so.0:_Z23jinit_c_prep_controllerP20jpeg_compress_structh
libocr-ijglib.so.0:_Z23jinit_color_deconverterP22jpeg_decompress_struct
libocr-ijglib.so.0:_Z23jinit_d_coef_controllerP22jpeg_decompress_structh
libocr-ijglib.so.0:_Z23jinit_d_main_controllerP22jpeg_decompress_structh
libocr-ijglib.so.0:_Z23jinit_d_post_controllerP22jpeg_decompress_structh
libocr-ijglib.so.0:_Z23jinit_master_decompressP22jpeg_decompress_struct
libocr-ijglib.so.0:_Z23jpeg_default_colorspaceP20jpeg_compress_struct
libocr-ijglib.so.0:_Z23jpeg_destroy_decompressP22jpeg_decompress_struct
libocr-ijglib.so.0:_Z23jpeg_has_multiple_scansP22jpeg_decompress_struct
libocr-ijglib.so.0:_Z23jpeg_make_c_derived_tblP20jpeg_compress_structhiPP13c_derived_tbl
libocr-ijglib.so.0:_Z23jpeg_make_d_derived_tblP22jpeg_decompress_structhiPP13d_derived_tbl
libocr-ijglib.so.0:_Z23jpeg_open_backing_storeP18jpeg_common_structP20backing_store_structi
libocr-ijglib.so.0:_Z23jpeg_set_linear_qualityP20jpeg_compress_structih
libocr-ijglib.so.0:_Z23jpeg_simple_progressionP20jpeg_compress_struct
libocr-ijglib.so.0:_Z25jpeg_set_marker_processorP22jpeg_decompress_structiPFhS0_E
libocr-ijglib.so.0:_Z27jpeg_calc_output_dimensionsP22jpeg_decompress_struct
libocr-ijglib.so.0:_Z9jround_upii
libocr-ijglib.so.0:_Z9jzero_farPvm
libocr-ijglib.so.0:__bss_start
libocr-ijglib.so.0:_edata
libocr-ijglib.so.0:_end
libocr-ijglib.so.0:_fini
libocr-ijglib.so.0:_init
libocr-ijglib.so.0:jpeg_natural_order
libocr-ijglib.so.0:main
libocr-imgmem.so.0:
libocr-imgmem.so.0:GetYndImageInfo
libocr-imgmem.so.0:LoadYndImage
libocr-imgmem.so.0:_Z12ProgressProcPvjml
libocr-imgmem.so.0:_Z14local_callbacki
libocr-imgmem.so.0:_Z7DllMainPvjS_
libocr-imgmem.so.0:_ZN14CImageToMemory13CreateOCRHEADERPv
libocr-imgmem.so.0:_ZN14CImageToMemory14CreateProgressEPFitE
libocr-imgmem.so.0:_ZN14CImageToMemory14DestroyOCRHEADERPv
libocr-imgmem.so.0:_ZN14CImageToMemory14LoadYndImage_LEPKcltPFitEPt
libocr-imgmem.so.0:_ZN14CImageToMemory15DestroyProgressEv
libocr-imgmem.so.0:_ZN14CImageToMemory17GetYndImageInfo_LEPKctPlP19tagBITMAPINFOHEADERPtS5_
libocr-imgmem.so.0:_ZN14CImageToMemory19CreateDIBfromOCRIMGEP10tagIMGHEAD
libocr-imgmem.so.0:__bss_start
libocr-imgmem.so.0:_edata
libocr-imgmem.so.0:_end
libocr-imgmem.so.0:_fini
libocr-imgmem.so.0:_init
libocr-imgmem.so.0:g_moduleTable
libocr-imgmem.so.0:g_pProgress
libocr-imgmem.so.0:g_pProgressCallback
libocr-jpgmem.so.0:
libocr-jpgmem.so.0:GetImageInf
libocr-jpgmem.so.0:GetImageInfW
libocr-jpgmem.so.0:ReadImage
libocr-jpgmem.so.0:ReadImageW
libocr-jpgmem.so.0:YdReadImageA
libocr-jpgmem.so.0:YdReadImageW
libocr-jpgmem.so.0:_Z10ByteChangePtS_
libocr-jpgmem.so.0:_Z12GetImageDataPvP19tagBITMAPINFOHEADER
libocr-jpgmem.so.0:_Z13my_error_exitP18jpeg_common_struct
libocr-jpgmem.so.0:_Z14JpegFileCheckAPKcPt
libocr-jpgmem.so.0:_Z14JpegFileCheckWPKDsPt
libocr-jpgmem.so.0:_Z14output_messageP18jpeg_common_struct
libocr-jpgmem.so.0:_Z17GetJpegResolutionPcPtS0_
libocr-jpgmem.so.0:_Z18GetImageResolutioni
libocr-jpgmem.so.0:_ZN11CJpg_memAppC1Ev
libocr-jpgmem.so.0:_ZN11CJpg_memAppC2Ev
libocr-jpgmem.so.0:_ZN5CJpeg11ReadImageCAEPKcPvttPt
libocr-jpgmem.so.0:_ZN5CJpeg11ReadImageCWEPKDsPvttPt
libocr-jpgmem.so.0:_ZN5CJpeg13GetImageInfCAEPKcP9tagIMGINFPt
libocr-jpgmem.so.0:_ZN5CJpeg13GetImageInfCWEPKDsP9tagIMGINFPt
libocr-jpgmem.so.0:_ZN5CJpeg13GetResolutionEP8_IO_FILERtS2_S2_
libocr-jpgmem.so.0:_ZN5CJpeg17GetExifResolutionEP8_IO_FILERtS2_
libocr-jpgmem.so.0:_ZN5CJpeg6GetDIBEP8_IO_FILEPt
libocr-jpgmem.so.0:_ZN5CJpeg8ScanFaceEP22jpeg_decompress_structPh
libocr-jpgmem.so.0:_ZN5CJpeg9GetDIBinfEP8_IO_FILEPtPiS3_
libocr-jpgmem.so.0:__bss_start
libocr-jpgmem.so.0:_edata
libocr-jpgmem.so.0:_end
libocr-jpgmem.so.0:_fini
libocr-jpgmem.so.0:_init
libocr-jpgmem.so.0:theApp
libocr-lngdic.so.0:
libocr-lngdic.so.0:AfxMessageBox
libocr-lngdic.so.0:CloseHandle
libocr-lngdic.so.0:CopyMemory
libocr-lngdic.so.0:CreateFile
libocr-lngdic.so.0:CreatePalette
libocr-lngdic.so.0:DispatchMessage
libocr-lngdic.so.0:EnumObjects
libocr-lngdic.so.0:FillMemory
libocr-lngdic.so.0:FreeLibrary
libocr-lngdic.so.0:GetLastError
libocr-lngdic.so.0:GetModuleFileName
libocr-lngdic.so.0:GetModuleHandle
libocr-lngdic.so.0:GetPrivateProfileString
libocr-lngdic.so.0:GetProcAddress
libocr-lngdic.so.0:GetSystemInfo
libocr-lngdic.so.0:GlobalAlloc
libocr-lngdic.so.0:GlobalFlags
libocr-lngdic.so.0:GlobalFree
libocr-lngdic.so.0:GlobalLock
libocr-lngdic.so.0:GlobalReAlloc
libocr-lngdic.so.0:GlobalSize
libocr-lngdic.so.0:GlobalUnlock
libocr-lngdic.so.0:HIBYTE
libocr-lngdic.so.0:HIWORD
libocr-lngdic.so.0:HeapAlloc
libocr-lngdic.so.0:HeapCreate
libocr-lngdic.so.0:HeapDestroy
libocr-lngdic.so.0:HeapFree
libocr-lngdic.so.0:IsBadReadPtr
libocr-lngdic.so.0:LOBYTE
libocr-lngdic.so.0:LOWORD
libocr-lngdic.so.0:LngDicCreateAnErrorListE
libocr-lngdic.so.0:LngDicDecideLetter
libocr-lngdic.so.0:LngDicGetAgglutItem
libocr-lngdic.so.0:LngDicGetAgglutNum
libocr-lngdic.so.0:LngDicGetListItem
libocr-lngdic.so.0:LngDicGetWordNum
libocr-lngdic.so.0:LngDicLoadDicE
libocr-lngdic.so.0:LngDicLoadDicJ
libocr-lngdic.so.0:LngDicLongestMatch
libocr-lngdic.so.0:LngDicSearchTopWordE
libocr-lngdic.so.0:LngDicSearchWordE
libocr-lngdic.so.0:LngDicSearchWordJ
libocr-lngdic.so.0:LoadLibraryEx
libocr-lngdic.so.0:MAKELONG32
libocr-lngdic.so.0:MAKEWORD
libocr-lngdic.so.0:MessageBox
libocr-lngdic.so.0:OutputDebugStringA
libocr-lngdic.so.0:OutputDebugStringW
libocr-lngdic.so.0:PeekMessage
libocr-lngdic.so.0:QueryPerformanceCounter
libocr-lngdic.so.0:QueryPerformanceFrequency
libocr-lngdic.so.0:ReadFile
libocr-lngdic.so.0:SendMessage
libocr-lngdic.so.0:SetFilePointer
libocr-lngdic.so.0:SetRect
libocr-lngdic.so.0:Sleep
libocr-lngdic.so.0:TranslateMessage
libocr-lngdic.so.0:WaitForMultipleObjects
libocr-lngdic.so.0:WaitForSingleObject
libocr-lngdic.so.0:WriteFile
libocr-lngdic.so.0:ZeroMemory
libocr-lngdic.so.0:_Z11CreateEventP20_SECURITY_ATTRIBUTESiiPKc
libocr-lngdic.so.0:_Z11LngDicClosePv
libocr-lngdic.so.0:_Z12utf16_fgetwsPDsiP8_IO_FILE
libocr-lngdic.so.0:_Z12utf16_wcschrPKDsDs
libocr-lngdic.so.0:_Z12utf16_wcscmpPKDsS0_
libocr-lngdic.so.0:_Z12utf16_wcslenPKDs
libocr-lngdic.so.0:_Z12utf16_wcslwrPDs
libocr-lngdic.so.0:_Z12utf16_wfopenPKDsS0_
libocr-lngdic.so.0:_Z13utf16_wremovePKDs
libocr-lngdic.so.0:_Z14GetSegmentRankPK10tagSEGMENT
libocr-lngdic.so.0:_Z14_beginthreadexP20_SECURITY_ATTRIBUTESjPFPvS1_ES1_jPm
libocr-lngdic.so.0:_Z14utf16_wcscpy_sPDsmPKDs
libocr-lngdic.so.0:_Z14utf16_wcslwr_sPDsm
libocr-lngdic.so.0:_Z14utf16_wcsupr_sPDsm
libocr-lngdic.so.0:_Z14utf16_wfopen_sPP8_IO_FILEPKDsS3_
libocr-lngdic.so.0:_Z15GetSegmentScorePK10tagSEGMENT
libocr-lngdic.so.0:_Z15utf16_wcsncpy_sPDsmPKDsm
libocr-lngdic.so.0:_Z16GetSegmentLengthPK10tagSEGMENT
libocr-lngdic.so.0:_Z16GetSegmentStringPK10tagSEGMENTPcj
libocr-lngdic.so.0:_Z16utf16_fwprintf_sP8_IO_FILEPKDsz
libocr-lngdic.so.0:_Z17GetRegistrySZ_MacPKcS0_Pcj
libocr-lngdic.so.0:_Z17GetSegmentCharNumPK10tagSEGMENT
libocr-lngdic.so.0:_Z17LngDicMakeDicFilePK12tagLIST_ITEMjS1_jPKcPFvtE
libocr-lngdic.so.0:_Z18IsDebuggerAvaiablev
libocr-lngdic.so.0:_Z19InterlockedExchangePii
libocr-lngdic.so.0:_Z20EnterCriticalSectionP16CRITICAL_SECTION
libocr-lngdic.so.0:_Z20GetRegistryDWORD_MacPKcS0_j
libocr-lngdic.so.0:_Z20GetYndProfileInt_MacPKcS0_j
libocr-lngdic.so.0:_Z20LeaveCriticalSectionP16CRITICAL_SECTION
libocr-lngdic.so.0:_Z21DeleteCriticalSectionP16CRITICAL_SECTION
libocr-lngdic.so.0:_Z23GetYndProfileString_MacPKcS0_Pc
libocr-lngdic.so.0:_Z25InitializeCriticalSectionP16CRITICAL_SECTION
libocr-lngdic.so.0:_Z33GetFolderStringRelativeBaseModulePv16ModuleFolderType
libocr-lngdic.so.0:_Z3RGBhhh
libocr-lngdic.so.0:_Z8PushVoidRSt6vectorI10tagSEGMENTSaIS0_EE
libocr-lngdic.so.0:_Z8SetEventPv
libocr-lngdic.so.0:_Z9GetBValuej
libocr-lngdic.so.0:_Z9GetGValuej
libocr-lngdic.so.0:_Z9GetRValuej
libocr-lngdic.so.0:_ZN9CLangDicE11SearchWordEEPvPKctPtS3_
libocr-lngdic.so.0:_ZN9CLangDicE12BinarySearchEtP8tagINDEXt
libocr-lngdic.so.0:_ZN9CLangDicE14SearchTopWordEEPvPKctPtS3_
libocr-lngdic.so.0:_ZN9CLangDicE18CreateAnErrorListEEPvPctPS1_ti
libocr-lngdic.so.0:_ZN9CLangDicEC1Ev
libocr-lngdic.so.0:_ZN9CLangDicEC2Ev
libocr-lngdic.so.0:_ZN9CLangDicED1Ev
libocr-lngdic.so.0:_ZN9CLangDicED2Ev
libocr-lngdic.so.0:_ZN9CLangDicJ10AppendDataERK10tagELEMENTRSt6vectorI10tagSEGMENTSaIS4_EEtjtjtP14tagLETTER_NODE
libocr-lngdic.so.0:_ZN9CLangDicJ10GoNextNodeERK10tagELEMENTRSt6vectorI10tagSEGMENTSaIS4_EEtj
libocr-lngdic.so.0:_ZN9CLangDicJ10SearchWordEPKcPtPjS3_S2_
libocr-lngdic.so.0:_ZN9CLangDicJ11AdoptLetterEP10tagELEMENTjPvj
libocr-lngdic.so.0:_ZN9CLangDicJ11GetWordInfoEj
libocr-lngdic.so.0:_ZN9CLangDicJ11GoPunctNodeERK10tagELEMENTRSt6vectorI10tagSEGMENTSaIS4_EEt
libocr-lngdic.so.0:_ZN9CLangDicJ11MakeSegmentERKSt6vectorI10tagELEMENTSaIS1_EEjRS0_I10tagSEGMENTSaIS6_EEj
libocr-lngdic.so.0:_ZN9CLangDicJ12GenerateRuleERK10tagELEMENTRSt6vectorI10tagSEGMENTSaIS4_EEt
libocr-lngdic.so.0:_ZN9CLangDicJ12GoAgglutNodeERK10tagELEMENTRSt6vectorI10tagSEGMENTSaIS4_EEt
libocr-lngdic.so.0:_ZN9CLangDicJ12LongestMatchEP10tagELEMENTjjPj
libocr-lngdic.so.0:_ZN9CLangDicJ12MakeTempTreeERKSt6vectorI12tagLIST_ITEMSaIS1_EERS0_I10tagDICTREESaIS6_EERS0_I12tagWORD_INFOSaISA_EEiPFvtE
libocr-lngdic.so.0:_ZN9CLangDicJ13GetLetterNodeEj
libocr-lngdic.so.0:_ZN9CLangDicJ13LinkAfterNodeERK10tagELEMENTtRSt6vectorI10tagSEGMENTSaIS4_EEtt
libocr-lngdic.so.0:_ZN9CLangDicJ13recMakeStringEPK14tagLETTER_NODEjPctRSt6vectorI12tagLIST_ITEMSaIS5_EE
libocr-lngdic.so.0:_ZN9CLangDicJ13recSearchNodeEPK14tagLETTER_NODEPKttPtPjS6_t
libocr-lngdic.so.0:_ZN9CLangDicJ14GetBestSegmentEPSt6vectorI10tagSEGMENTSaIS1_EES4_jPj
libocr-lngdic.so.0:_ZN9CLangDicJ14LinkDictionaryEPKh
libocr-lngdic.so.0:_ZN9CLangDicJ14MakeAgglutListERSt6vectorI12tagLIST_ITEMSaIS1_EE
libocr-lngdic.so.0:_ZN9CLangDicJ14MakeDictionaryERKSt6vectorI12tagLIST_ITEMSaIS1_EES5_PKcPFvtE
libocr-lngdic.so.0:_ZN9CLangDicJ14OpenDictionaryEPKc
libocr-lngdic.so.0:_ZN9CLangDicJ18DoubleLongestMatchEP10tagELEMENTjj
libocr-lngdic.so.0:_ZN9CLangDicJ19GoNumericAgglutNodeERK10tagELEMENTRSt6vectorI10tagSEGMENTSaIS4_EEt
libocr-lngdic.so.0:_ZN9CLangDicJ20ElementArrayToVectorEPK10tagELEMENTjRSt6vectorIS0_SaIS0_EE
libocr-lngdic.so.0:_ZN9CLangDicJ20ElementVectorToArrayERKSt6vectorI10tagELEMENTSaIS1_EEPS1_j
libocr-lngdic.so.0:_ZN9CLangDicJ7AddWordEPKcjjRSt6vectorI12tagLIST_ITEMSaIS3_EE
libocr-lngdic.so.0:_ZN9CLangDicJ8MakeListERSt6vectorI12tagLIST_ITEMSaIS1_EEPFvtE
libocr-lngdic.so.0:_ZN9CLangDicJC1Ev
libocr-lngdic.so.0:_ZN9CLangDicJC2Ev
libocr-lngdic.so.0:_ZN9CLangDicJD0Ev
libocr-lngdic.so.0:_ZN9CLangDicJD1Ev
libocr-lngdic.so.0:_ZN9CLangDicJD2Ev
libocr-lngdic.so.0:__bss_start
libocr-lngdic.so.0:_edata
libocr-lngdic.so.0:_end
libocr-lngdic.so.0:_fini
libocr-lngdic.so.0:_init
libocr-lngdic.so.0:_itoa_s
libocr-lngdic.so.0:_mbbtombc
libocr-lngdic.so.0:_mbcjistojms
libocr-lngdic.so.0:_mbcjmstojis
libocr-lngdic.so.0:_mbsbtype
libocr-lngdic.so.0:_mbscat_s
libocr-lngdic.so.0:_mbschr
libocr-lngdic.so.0:_mbscmp
libocr-lngdic.so.0:_mbscpy_s
libocr-lngdic.so.0:_mbslen
libocr-lngdic.so.0:_mbsncpy_s
libocr-lngdic.so.0:_splitpath_s
libocr-lngdic.so.0:_tcscat_s
libocr-lngdic.so.0:_tcscpy_s
libocr-lngdic.so.0:_tcsrchr
libocr-lngdic.so.0:ascii_1byteto2byte_table
libocr-lngdic.so.0:fopen_s
libocr-lngdic.so.0:g_dwLastError
libocr-lngdic.so.0:katakana_1byteto2byte_table
libocr-lngdic.so.0:memcpy_s
libocr-lngdic.so.0:sprintf_s
libocr-lngdic.so.0:strcat_s
libocr-lngdic.so.0:strcpy_s
libocr-lngdic.so.0:stricmp
libocr-lngdic.so.0:strncpy_s
libocr-memjpg.so.0:
libocr-memjpg.so.0:WriteImage
libocr-memjpg.so.0:WriteImageMem
libocr-memjpg.so.0:WriteImageW
libocr-memjpg.so.0:YdWriteImageA
libocr-memjpg.so.0:YdWriteImageW
libocr-memjpg.so.0:_Z10ByteChangePtS_
libocr-memjpg.so.0:_Z11DIBBitCountPc
libocr-memjpg.so.0:_Z11FindDIBBitsPc
libocr-memjpg.so.0:_Z11PaletteSizePc
libocr-memjpg.so.0:_Z11SavePicturePvPKcP9CJpegInfotP16CImageIOProgress
libocr-memjpg.so.0:_Z12DIBNumColorsPc
libocr-memjpg.so.0:_Z12GetBWDIBSizeP10tagIMGHEAD
libocr-memjpg.so.0:_Z12SavePictureWPvPKDsP9CJpegInfotP16CImageIOProgress
libocr-memjpg.so.0:_Z13my_error_exitP18jpeg_common_struct
libocr-memjpg.so.0:_Z14DIBCompressionPc
libocr-memjpg.so.0:_Z14SavePictureMemPvPS_P9CJpegInfotP16CImageIOProgresstt
libocr-memjpg.so.0:_Z14WriteInfoBlockP20jpeg_compress_structP9CJpegInfo
libocr-memjpg.so.0:_Z14my_error_exit2P18jpeg_common_struct
libocr-memjpg.so.0:_Z14output_messageP18jpeg_common_struct
libocr-memjpg.so.0:_Z15YdWriteImageMemPPvS_tPFiiEtPt
libocr-memjpg.so.0:_Z15output_message2P18jpeg_common_struct
libocr-memjpg.so.0:_Z19WriteJpegResolutionPKctt
libocr-memjpg.so.0:_Z20WriteJpegResolutionWPKDstt
libocr-memjpg.so.0:_Z24jinit_exif_marker_writerP20jpeg_compress_struct
libocr-memjpg.so.0:_Z7DIBBitsPc
libocr-memjpg.so.0:_Z7DIBSizePc
libocr-memjpg.so.0:_Z8DIBWidthPc
libocr-memjpg.so.0:_Z9CreateDIBjjt
libocr-memjpg.so.0:_Z9DIBHeightPc
libocr-memjpg.so.0:_ZN5CJpeg12SaveJpegFileEPKDsPvP9CJpegInfoi
libocr-memjpg.so.0:_ZN5CJpeg12SaveJpegFileEPKcPvP9CJpegInfoi
libocr-memjpg.so.0:_ZN5CJpeg13SkipMacHeaderEP5CFile
libocr-memjpg.so.0:_ZN5CJpeg14SaveJpegMemoryEPPvS0_P9CJpegInfoitt
libocr-memjpg.so.0:_ZN5CJpeg22my_jpeg_start_compressEP20jpeg_compress_structP9CJpegInfo
libocr-memjpg.so.0:_ZN5CJpeg24my_jinit_compress_masterEP20jpeg_compress_structP9CJpegInfo
libocr-memjpg.so.0:_ZN5CJpeg8ScanFaceEP22jpeg_decompress_structPh
libocr-memjpg.so.0:_ZN7CYdJpeg10RestoreRLEEPh
libocr-memjpg.so.0:_ZN7CYdJpeg11SetBitIndexEPhiit
libocr-memjpg.so.0:_ZN7CYdJpeg12NormalizeDIBEPh
libocr-memjpg.so.0:_ZN7CYdJpeg12WriteImageCAEPKcPvttPt
libocr-memjpg.so.0:_ZN7CYdJpeg12WriteImageCWEPKDsPvttPt
libocr-memjpg.so.0:_ZN7CYdJpeg13GetIndexColorEPhi
libocr-memjpg.so.0:_ZN7CYdJpeg13SetIndexColorEPhij
libocr-memjpg.so.0:_ZN7CYdJpeg14WriteImageMemCEPPvS0_ttPt
libocr-memjpg.so.0:_ZN7CYdJpeg17ConvertTo24BPPDIBEPhi
libocr-memjpg.so.0:_ZN7CYdJpeg17TopDownToBottomUpEPh
libocr-memjpg.so.0:_ZN7CYdJpeg19CreateDIBfromOCRIMGEP10tagIMGHEAD
libocr-memjpg.so.0:_ZN7CYdJpeg7CopyRGBEP10tagRGBQUADj
libocr-memjpg.so.0:_ZN7CYdJpeg8CopyRGBTEP12tagRGBTRIPLEj
libocr-memjpg.so.0:__bss_start
libocr-memjpg.so.0:_edata
libocr-memjpg.so.0:_end
libocr-memjpg.so.0:_fini
libocr-memjpg.so.0:_init
libocr-ocrsys.so.0:
libocr-ocrsys.so.0:AfxMessageBox
libocr-ocrsys.so.0:CloseHandle
libocr-ocrsys.so.0:CopyMemory
libocr-ocrsys.so.0:CreateFile
libocr-ocrsys.so.0:CreatePalette
libocr-ocrsys.so.0:DispatchMessage
libocr-ocrsys.so.0:EnumObjects
libocr-ocrsys.so.0:FillMemory
libocr-ocrsys.so.0:FreeLibrary
libocr-ocrsys.so.0:GetLastError
libocr-ocrsys.so.0:GetModuleFileName
libocr-ocrsys.so.0:GetModuleHandle
libocr-ocrsys.so.0:GetPrivateProfileString
libocr-ocrsys.so.0:GetProcAddress
libocr-ocrsys.so.0:GetSystemInfo
libocr-ocrsys.so.0:GlobalAlloc
libocr-ocrsys.so.0:GlobalFlags
libocr-ocrsys.so.0:GlobalFree
libocr-ocrsys.so.0:GlobalLock
libocr-ocrsys.so.0:GlobalReAlloc
libocr-ocrsys.so.0:GlobalSize
libocr-ocrsys.so.0:GlobalUnlock
libocr-ocrsys.so.0:HIBYTE
libocr-ocrsys.so.0:HIWORD
libocr-ocrsys.so.0:HeapAlloc
libocr-ocrsys.so.0:HeapCreate
libocr-ocrsys.so.0:HeapDestroy
libocr-ocrsys.so.0:HeapFree
libocr-ocrsys.so.0:IsBadReadPtr
libocr-ocrsys.so.0:LOBYTE
libocr-ocrsys.so.0:LOWORD
libocr-ocrsys.so.0:LoadLibraryEx
libocr-ocrsys.so.0:MAKELONG32
libocr-ocrsys.so.0:MAKEWORD
libocr-ocrsys.so.0:MessageBox
libocr-ocrsys.so.0:OutputDebugStringA
libocr-ocrsys.so.0:OutputDebugStringW
libocr-ocrsys.so.0:PeekMessage
libocr-ocrsys.so.0:QueryPerformanceCounter
libocr-ocrsys.so.0:QueryPerformanceFrequency
libocr-ocrsys.so.0:ReadFile
libocr-ocrsys.so.0:SendMessage
libocr-ocrsys.so.0:SetFilePointer
libocr-ocrsys.so.0:SetRect
libocr-ocrsys.so.0:Sleep
libocr-ocrsys.so.0:TranslateMessage
libocr-ocrsys.so.0:WaitForMultipleObjects
libocr-ocrsys.so.0:WaitForSingleObject
libocr-ocrsys.so.0:WriteFile
libocr-ocrsys.so.0:YndCorrectResult
libocr-ocrsys.so.0:YndEnd
libocr-ocrsys.so.0:YndFreeHandle
libocr-ocrsys.so.0:YndFreeImage
libocr-ocrsys.so.0:YndFreeResult
libocr-ocrsys.so.0:YndGetImageEx
libocr-ocrsys.so.0:YndGetImageInfo
libocr-ocrsys.so.0:YndGetLibVersion
libocr-ocrsys.so.0:YndGetOCRHEAD
libocr-ocrsys.so.0:YndGetResultCount
libocr-ocrsys.so.0:YndGetResultEx
libocr-ocrsys.so.0:YndGetRotateAngle
libocr-ocrsys.so.0:YndInit
libocr-ocrsys.so.0:YndLayoutRecog2
libocr-ocrsys.so.0:YndRecog2
libocr-ocrsys.so.0:YndRotateImage
libocr-ocrsys.so.0:YndSetImage
libocr-ocrsys.so.0:ZeroMemory
libocr-ocrsys.so.0:_Z10ImageCheckPv
libocr-ocrsys.so.0:_Z11CreateEventP20_SECURITY_ATTRIBUTESiiPKc
libocr-ocrsys.so.0:_Z11DIBToBinaryPvS_Pt
libocr-ocrsys.so.0:_Z11SetCellDataP11tagCELLDATAhhhhi
libocr-ocrsys.so.0:_Z11YondeCallocmm
libocr-ocrsys.so.0:_Z12DeleteDetailP9tagDETAILt
libocr-ocrsys.so.0:_Z12DeleteResultP9tagRESULTt
libocr-ocrsys.so.0:_Z12utf16_fgetwsPDsiP8_IO_FILE
libocr-ocrsys.so.0:_Z12utf16_wcschrPKDsDs
libocr-ocrsys.so.0:_Z12utf16_wcscmpPKDsS0_
libocr-ocrsys.so.0:_Z12utf16_wcslenPKDs
libocr-ocrsys.so.0:_Z12utf16_wcslwrPDs
libocr-ocrsys.so.0:_Z12utf16_wfopenPKDsS0_
libocr-ocrsys.so.0:_Z13MakeMergeCellP10tagPRMLISTP12tagMERGECELLt
libocr-ocrsys.so.0:_Z13SetCharDetailP9tagRESULTP9tagDETAILtP11RSTCHAREX_t
libocr-ocrsys.so.0:_Z13TransferImagePvS_Phtt
libocr-ocrsys.so.0:_Z13utf16_wremovePKDs
libocr-ocrsys.so.0:_Z14CheckTableCellP10tagPRMLIST7tagRECT8tagPOINT
libocr-ocrsys.so.0:_Z14_beginthreadexP20_SECURITY_ATTRIBUTESjPFPvS1_ES1_jPm
libocr-ocrsys.so.0:_Z14insertion_sortPss
libocr-ocrsys.so.0:_Z14utf16_wcscpy_sPDsmPKDs
libocr-ocrsys.so.0:_Z14utf16_wcslwr_sPDsm
libocr-ocrsys.so.0:_Z14utf16_wcsupr_sPDsm
libocr-ocrsys.so.0:_Z14utf16_wfopen_sPP8_IO_FILEPKDsS3_
libocr-ocrsys.so.0:_Z15CBYdSendMessageml
libocr-ocrsys.so.0:_Z15FreeRgnDataListRPv
libocr-ocrsys.so.0:_Z15HRanExtractFastPhiiPiRi
libocr-ocrsys.so.0:_Z15InitRgnDataListRPv
libocr-ocrsys.so.0:_Z15UpdateMergeCellP10tagPRMLISTP12tagMERGECELL7tagRECTt
libocr-ocrsys.so.0:_Z15utf16_wcsncpy_sPDsmPKDsm
libocr-ocrsys.so.0:_Z16AppendCharResultP9tagRESULTttt
libocr-ocrsys.so.0:_Z16utf16_fwprintf_sP8_IO_FILEPKDsz
libocr-ocrsys.so.0:_Z17CBYdGetProfileIntPKcS0_j
libocr-ocrsys.so.0:_Z17CheckGrayScaleDIBPv
libocr-ocrsys.so.0:_Z17FullbandMargeCellP10tagPRMLISTP15tagCELLEDITLINE7tagRECTt
libocr-ocrsys.so.0:_Z17GetLastLineResultP9tagRESULT
libocr-ocrsys.so.0:_Z17GetRegistrySZ_MacPKcS0_Pcj
libocr-ocrsys.so.0:_Z17GetTableCellCountP11tagCELLDATA
libocr-ocrsys.so.0:_Z17YdGetProfilePathLPcj
libocr-ocrsys.so.0:_Z18CBYdGetProfilePathPcj
libocr-ocrsys.so.0:_Z18CBYdGetProfileTypev
libocr-ocrsys.so.0:_Z18IsDebuggerAvaiablev
libocr-ocrsys.so.0:_Z18SetTableCellDetailP9tagRESULTP9tagDETAILtP9tagREGIONP10tagPRMLISTP11tagCELLDATA
libocr-ocrsys.so.0:_Z19CBYdWriteProfileIntPKcS0_j
libocr-ocrsys.so.0:_Z19CreateDIBfromOCRIMGP10tagIMGHEAD
libocr-ocrsys.so.0:_Z19InterlockedExchangePii
libocr-ocrsys.so.0:_Z19UpdateCellLineTableP10tagPRMLISTP15tagCELLEDITLINE7tagRECTt
libocr-ocrsys.so.0:_Z20CBYdGetProfileStringPKcS0_S0_Pcj
libocr-ocrsys.so.0:_Z20EnterCriticalSectionP16CRITICAL_SECTION
libocr-ocrsys.so.0:_Z20GetRegistryDWORD_MacPKcS0_j
libocr-ocrsys.so.0:_Z20GetYndProfileInt_MacPKcS0_j
libocr-ocrsys.so.0:_Z20InsertLastLineResultP9tagRESULTtt
libocr-ocrsys.so.0:_Z20LeaveCriticalSectionP16CRITICAL_SECTION
libocr-ocrsys.so.0:_Z20UpdateMergeCellTableP10tagPRMLISTP12tagMERGECELL7tagRECTt
libocr-ocrsys.so.0:_Z21DeleteCriticalSectionP16CRITICAL_SECTION
libocr-ocrsys.so.0:_Z21SetBlkstartCharDetailP9tagRESULTP9tagDETAILtP9tagREGIONtt
libocr-ocrsys.so.0:_Z22CBYdWriteProfileStringPKcS0_S0_
libocr-ocrsys.so.0:_Z23GetYndProfileString_MacPKcS0_Pc
libocr-ocrsys.so.0:_Z25InitializeCriticalSectionP16CRITICAL_SECTION
libocr-ocrsys.so.0:_Z33GetFolderStringRelativeBaseModulePv16ModuleFolderType
libocr-ocrsys.so.0:_Z3RGBhhh
libocr-ocrsys.so.0:_Z8SetEventPv
libocr-ocrsys.so.0:_Z8jis2sjist
libocr-ocrsys.so.0:_Z8sjis2jist
libocr-ocrsys.so.0:_Z9GetBValuej
libocr-ocrsys.so.0:_Z9GetDetailP9tagDETAILi
libocr-ocrsys.so.0:_Z9GetGValuej
libocr-ocrsys.so.0:_Z9GetRValuej
libocr-ocrsys.so.0:_Z9GetResultP9tagRESULTii
libocr-ocrsys.so.0:_Z9Jmbbtombcj
libocr-ocrsys.so.0:_Z9Jmbctombbj
libocr-ocrsys.so.0:_ZN10COcrsysApp10GetPrmInfoEP9PRMINFO_tP10tagPRMLISTPt
libocr-ocrsys.so.0:_ZN10COcrsysApp10SetBlkKindEl
libocr-ocrsys.so.0:_ZN10COcrsysApp10SetPrmInfoEP10tagPRMLIST9PRMINFO_ttPt
libocr-ocrsys.so.0:_ZN10COcrsysApp10SetTblDataEv
libocr-ocrsys.so.0:_ZN10COcrsysApp10YndGetParaEP9PRMINFO_tPtS2_
libocr-ocrsys.so.0:_ZN10COcrsysApp10YndSetParaEtP9PRMINFO_ttPt
libocr-ocrsys.so.0:_ZN10COcrsysApp11ConvertCharEtt
libocr-ocrsys.so.0:_ZN10COcrsysApp11DspRatioBarEt
libocr-ocrsys.so.0:_ZN10COcrsysApp11FrameDelAllEv
libocr-ocrsys.so.0:_ZN10COcrsysApp11GetYndErrorEt
libocr-ocrsys.so.0:_ZN10COcrsysApp11SetBlkStyleEl
libocr-ocrsys.so.0:_ZN10COcrsysApp12SetFrameRectE7tagRECT
libocr-ocrsys.so.0:_ZN10COcrsysApp12YndRecogParaE9PRMINFO_ttPt
libocr-ocrsys.so.0:_ZN10COcrsysApp12YndSetImageCEPhjPFitEPt
libocr-ocrsys.so.0:_ZN10COcrsysApp13FreeLibrariesEv
libocr-ocrsys.so.0:_ZN10COcrsysApp13YndFreeImageCEv
libocr-ocrsys.so.0:_ZN10COcrsysApp14YndFreeHandleCEPv
libocr-ocrsys.so.0:_ZN10COcrsysApp14YndFreeResultCEv
libocr-ocrsys.so.0:_ZN10COcrsysApp14YndGetImageExCEtP7tagRECTttPt
libocr-ocrsys.so.0:_ZN10COcrsysApp14YndGetOCRHEADCEPt
libocr-ocrsys.so.0:_ZN10COcrsysApp15GetRstCharCountEv
libocr-ocrsys.so.0:_ZN10COcrsysApp15YndGetResultExCEttPt
libocr-ocrsys.so.0:_ZN10COcrsysApp15YndLayoutRecogCEPtP9PRMINFO_ttPFitES0_
libocr-ocrsys.so.0:_ZN10COcrsysApp15YndRotateImageCEtPFitEPt
libocr-ocrsys.so.0:_ZN10COcrsysApp16AddSetTextResultEt21SETTEXTCALLBACKINFO_t7tagRECT
libocr-ocrsys.so.0:_ZN10COcrsysApp16GetYndProfileIntEPKcS1_j
libocr-ocrsys.so.0:_ZN10COcrsysApp16LoadYdocrdModuleER7CString
libocr-ocrsys.so.0:_ZN10COcrsysApp16SetOcrsysProfileEv
libocr-ocrsys.so.0:_ZN10COcrsysApp16SetRstCharExLineEtP11RSTCHAREX_ttP9tagRESULTP9tagDETAIL
libocr-ocrsys.so.0:_ZN10COcrsysApp16YndGetImageInfoCEP11YDIMGINFO_tPt
libocr-ocrsys.so.0:_ZN10COcrsysApp17YndCorrectResultCEPt
libocr-ocrsys.so.0:_ZN10COcrsysApp18WriteYndProfileIntEPKcS1_j
libocr-ocrsys.so.0:_ZN10COcrsysApp18YndGetResultCountCEPt
libocr-ocrsys.so.0:_ZN10COcrsysApp18YndGetRotateAngleCEPtPFitES0_
libocr-ocrsys.so.0:_ZN10COcrsysApp19GetProfileRecogParaEv
libocr-ocrsys.so.0:_ZN10COcrsysApp19GetYndProfileStringEPKcS1_Pc
libocr-ocrsys.so.0:_ZN10COcrsysApp20RecreateYondeProfileEv
libocr-ocrsys.so.0:_ZN10COcrsysApp21WriteYndProfileStringEPKcS1_S1_
libocr-ocrsys.so.0:_ZN10COcrsysApp7YndEndCEv
libocr-ocrsys.so.0:_ZN10COcrsysApp8YndInitCEPt
libocr-ocrsys.so.0:_ZN10COcrsysApp9YndRecogCEtP9PRMINFO_ttPFitEPt
libocr-ocrsys.so.0:_ZN10COcrsysAppC1Ev
libocr-ocrsys.so.0:_ZN10COcrsysAppC2Ev
libocr-ocrsys.so.0:_ZN10COcrsysAppD1Ev
libocr-ocrsys.so.0:_ZN10COcrsysAppD2Ev
libocr-ocrsys.so.0:_ZN10CYDBWImage10ConnectRanEPSt6vectorI13TYDImgRanPlusItESaIS2_EEt
libocr-ocrsys.so.0:_ZN10CYDBWImage10CountBlackE10TYDImgRectItE
libocr-ocrsys.so.0:_ZN10CYDBWImage10FilletLineEPhRiS1_
libocr-ocrsys.so.0:_ZN10CYDBWImage10FilletRectER10TYDImgRectItE
libocr-ocrsys.so.0:_ZN10CYDBWImage10ProjectionERSt6vectorItSaItEE10TYDImgRectItEiti
libocr-ocrsys.so.0:_ZN10CYDBWImage10RanExtractERSt6vectorI9TYDImgRanItESaIS2_EEtttiit
libocr-ocrsys.so.0:_ZN10CYDBWImage10RanToFrameER12CYDFramePackPSt6vectorI14TYDImgRan2PlusItESaIS4_EES7_ti
libocr-ocrsys.so.0:_ZN10CYDBWImage11FilletRect2ER10TYDImgRectItE
libocr-ocrsys.so.0:_ZN10CYDBWImage11HRanExtractEPSt6vectorI13TYDImgRanPlusItESaIS2_EEttt
libocr-ocrsys.so.0:_ZN10CYDBWImage11HRanExtractEPSt6vectorI14TYDImgRan2PlusItESaIS2_EEttt
libocr-ocrsys.so.0:_ZN10CYDBWImage11HRanExtractERSt6vectorI9TYDImgRanItESaIS2_EEttt
libocr-ocrsys.so.0:_ZN10CYDBWImage11LabelingRanERSt6vectorI14TYDImgRectPlusItESaIS2_EEP10TYDImgRectItEiiiPS_
libocr-ocrsys.so.0:_ZN10CYDBWImage11RanToFrame2ER12CYDFramePackR8CRunListS3_ti
libocr-ocrsys.so.0:_ZN10CYDBWImage11SegmentInitERSt6vectorI10TYDImgRectItESaIS2_EEPS2_iiiPS_
libocr-ocrsys.so.0:_ZN10CYDBWImage11VRanExtractEPSt6vectorI13TYDImgRanPlusItESaIS2_EEttt
libocr-ocrsys.so.0:_ZN10CYDBWImage11VRanExtractEPSt6vectorI14TYDImgRan2PlusItESaIS2_EEttt
libocr-ocrsys.so.0:_ZN10CYDBWImage11VRanExtractERSt6vectorI9TYDImgRanItESaIS2_EEttt
libocr-ocrsys.so.0:_ZN10CYDBWImage12AcquireImageEPhjP10TYDImgRectItE
libocr-ocrsys.so.0:_ZN10CYDBWImage12LocalErosionEP10TYDImgRectItE
libocr-ocrsys.so.0:_ZN10CYDBWImage13DrawFrameRectE10TYDImgRectItE
libocr-ocrsys.so.0:_ZN10CYDBWImage13LocalDilationEP10TYDImgRectItE
libocr-ocrsys.so.0:_ZN10CYDBWImage14EraseFrameRectE10TYDImgRectItE
libocr-ocrsys.so.0:_ZN10CYDBWImage15SegmentLineRectERSt6vectorI10TYDImgRectItESaIS2_EEtiPS2_i
libocr-ocrsys.so.0:_ZN10CYDBWImage16CounterClockwiseEv
libocr-ocrsys.so.0:_ZN10CYDBWImage16HWhiteRanExtractERSt6vectorI9TYDImgRanItESaIS2_EEttt
libocr-ocrsys.so.0:_ZN10CYDBWImage16LabelingLineRectERSt6vectorI14TYDImgRectPlusItESaIS2_EEtiP10TYDImgRectItEi
libocr-ocrsys.so.0:_ZN10CYDBWImage16LocalLabelingRanER12CYDFramePack10TYDImgRectItEiiiiPS_
libocr-ocrsys.so.0:_ZN10CYDBWImage16VWhiteRanExtractERSt6vectorI9TYDImgRanItESaIS2_EEttt
libocr-ocrsys.so.0:_ZN10CYDBWImage19ConvertOutlineImageE10TYDImgRectItE
libocr-ocrsys.so.0:_ZN10CYDBWImage19RanToFrame_4ConnectER12CYDFramePackPSt6vectorI14TYDImgRan2PlusItESaIS4_EES7_ti
libocr-ocrsys.so.0:_ZN10CYDBWImage20ConvertThinningImageEP10TYDImgRectItE
libocr-ocrsys.so.0:_ZN10CYDBWImage20RanToFrame_4Connect2ER12CYDFramePackR8CRunListS3_ti
libocr-ocrsys.so.0:_ZN10CYDBWImage21LocalLabelingLineRectER12CYDFramePackti10TYDImgRectItEii
libocr-ocrsys.so.0:_ZN10CYDBWImage4DrawE10TYDImgRectItE
libocr-ocrsys.so.0:_ZN10CYDBWImage4DrawEtRSt6vectorI9TYDImgRanItESaIS2_EEi
libocr-ocrsys.so.0:_ZN10CYDBWImage4DrawEtt
libocr-ocrsys.so.0:_ZN10CYDBWImage4DrawEttti
libocr-ocrsys.so.0:_ZN10CYDBWImage5EraseE10TYDImgRectItE
libocr-ocrsys.so.0:_ZN10CYDBWImage5EraseEtRSt6vectorI9TYDImgRanItESaIS2_EEi
libocr-ocrsys.so.0:_ZN10CYDBWImage5EraseEtt
libocr-ocrsys.so.0:_ZN10CYDBWImage5EraseEttti
libocr-ocrsys.so.0:_ZN10CYDBWImage6ReDrawEtRSt6vectorI9TYDImgRanItESaIS2_EEiPS2_
libocr-ocrsys.so.0:_ZN10CYDBWImage7ClosingEP10TYDImgRectItEPS_P9TYDImgPosItE
libocr-ocrsys.so.0:_ZN10CYDBWImage7ErosionEP10TYDImgRectItEPS_P9TYDImgPosItE
libocr-ocrsys.so.0:_ZN10CYDBWImage7OpeningEP10TYDImgRectItEPS_P9TYDImgPosItE
libocr-ocrsys.so.0:_ZN10CYDBWImage7ReverseE10TYDImgRectItE
libocr-ocrsys.so.0:_ZN10CYDBWImage7ReverseEtRSt6vectorI9TYDImgRanItESaIS2_EEi
libocr-ocrsys.so.0:_ZN10CYDBWImage7ReverseEtt
libocr-ocrsys.so.0:_ZN10CYDBWImage7ReverseEttti
libocr-ocrsys.so.0:_ZN10CYDBWImage8CopyRectERS_10TYDImgRectItE
libocr-ocrsys.so.0:_ZN10CYDBWImage8DeletePtEPii
libocr-ocrsys.so.0:_ZN10CYDBWImage8DilationEP10TYDImgRectItEPS_P9TYDImgPosItE
libocr-ocrsys.so.0:_ZN10CYDBWImage8MemoryOrEPvPKvtt
libocr-ocrsys.so.0:_ZN10CYDBWImage8TrimRectE10TYDImgRectItE
libocr-ocrsys.so.0:_ZN10CYDBWImage9ClockwiseEv
libocr-ocrsys.so.0:_ZN10CYDBWImage9GradationEt
libocr-ocrsys.so.0:_ZN10CYDBWImage9MemoryAndEPvPKvtt
libocr-ocrsys.so.0:_ZN10CYDBWImage9NumOfBitsEi
libocr-ocrsys.so.0:_ZN11CYDBMPImage14OutputBMPImageEPKc
libocr-ocrsys.so.0:_ZN13CYDThreadPool10GetCommandEv
libocr-ocrsys.so.0:_ZN13CYDThreadPool12WorkerThreadEPv
libocr-ocrsys.so.0:_ZN13CYDThreadPool13RingingChimesEi
libocr-ocrsys.so.0:_ZN13CYDThreadPool5StoreEP10CYDCommand
libocr-ocrsys.so.0:_ZN13CYDThreadPool7ExecuteEv
libocr-ocrsys.so.0:_ZN13CYDThreadPoolC1Ei
libocr-ocrsys.so.0:_ZN13CYDThreadPoolC2Ei
libocr-ocrsys.so.0:_ZN13CYDThreadPoolD0Ev
libocr-ocrsys.so.0:_ZN13CYDThreadPoolD1Ev
libocr-ocrsys.so.0:_ZN13CYDThreadPoolD2Ev
libocr-ocrsys.so.0:_ZN14CYDBWImageTool6RanAndER8CRunListS1_S1_
libocr-ocrsys.so.0:_ZN15CCapitalToSmall7ConvertEt
libocr-ocrsys.so.0:_ZN15CCreateSubImage10ToSmallLv1EPh7tagRECTddddtS0_hi
libocr-ocrsys.so.0:_ZN15CCreateSubImage12GetImageInfoEv
libocr-ocrsys.so.0:_ZN15CCreateSubImage13AddPixelValueEdRdS0_S0_tPh
libocr-ocrsys.so.0:_ZN15CCreateSubImage13ResizeToSmallEtjj7tagRECTRji
libocr-ocrsys.so.0:_ZN15CCreateSubImage13SetPixelValueEPhddddthS0_
libocr-ocrsys.so.0:_ZN15CCreateSubImage14CreateSubImageEP7tagRECTttiPPv
libocr-ocrsys.so.0:_ZN15CCreateSubImage15GetColorOnImageEPh7tagRECTiitS0_i
libocr-ocrsys.so.0:_ZN15CCreateSubImage16ReleaseImageInfoEv
libocr-ocrsys.so.0:_ZN15CCreateSubImage16RenewalParameterERiRht
libocr-ocrsys.so.0:_ZN15CCreateSubImage17BmpGetByteParLineEjj
libocr-ocrsys.so.0:_ZN15CCreateSubImage17FreeDecietOcrHeadEPv
libocr-ocrsys.so.0:_ZN15CCreateSubImage17InCaseOf1BitColorEPh7tagRECTiii
libocr-ocrsys.so.0:_ZN15CCreateSubImage17InCaseOf4BitColorEPh7tagRECTiiS0_
libocr-ocrsys.so.0:_ZN15CCreateSubImage17InCaseOf8BitColorEPh7tagRECTiiS0_
libocr-ocrsys.so.0:_ZN15CCreateSubImage17MakeDeceitOcrHeadEPvS0_jjt
libocr-ocrsys.so.0:_ZN15CCreateSubImage17SetBestColorIndexEPhjjjthS0_
libocr-ocrsys.so.0:_ZN15CCreateSubImage18InCaseOf24BitColorEPh7tagRECTiiS0_
libocr-ocrsys.so.0:_ZN15CCreateSubImage19GetYndProfileStringEPKcS1_Pc
libocr-ocrsys.so.0:_ZN15CCreateSubImage22MakeJPEGMemoryFromDIBsEPPvS0_S0_7tagRECTjjtt
libocr-ocrsys.so.0:_ZN15CSmallToCapital7ConvertEt
libocr-ocrsys.so.0:_ZN17CCapitalToSmallTR7ConvertEt
libocr-ocrsys.so.0:_ZN17CSmallToCapitalTR7ConvertEt
libocr-ocrsys.so.0:_ZN4YDTC10sjistoucs2Et
libocr-ocrsys.so.0:_ZN4YDTC10ucs2tosjisEt
libocr-ocrsys.so.0:_ZN4YDTC7One2TwoEt
libocr-ocrsys.so.0:_ZN4YDTC7Two2OneEti
libocr-ocrsys.so.0:_ZN4YDTC9YdTwo2OneEt
libocr-ocrsys.so.0:_ZN4YDTC9jistosjisEt
libocr-ocrsys.so.0:_ZN4YDTC9jistoucs2Et
libocr-ocrsys.so.0:_ZN4YDTC9sjistojisEt
libocr-ocrsys.so.0:_ZN4YDTC9ucs2tojisEt
libocr-ocrsys.so.0:_ZN5YDIMG10IsBottomUpEPc
libocr-ocrsys.so.0:_ZN5YDIMG10UpsideDownEPc
libocr-ocrsys.so.0:_ZN5YDIMG10WIDTHBYTESEj
libocr-ocrsys.so.0:_ZN5YDIMG11DIBBitCountEPc
libocr-ocrsys.so.0:_ZN5YDIMG11FindDIBBitsEPc
libocr-ocrsys.so.0:_ZN5YDIMG11FindPaletteEPc
libocr-ocrsys.so.0:_ZN5YDIMG11PaletteSizeEPc
libocr-ocrsys.so.0:_ZN5YDIMG12DIBNumColorsEPc
libocr-ocrsys.so.0:_ZN5YDIMG14DIBCompressionEPc
libocr-ocrsys.so.0:_ZN5YDIMG7DIBBitsEPc
libocr-ocrsys.so.0:_ZN5YDIMG7DIBSizeEPc
libocr-ocrsys.so.0:_ZN5YDIMG8DIBWidthEPc
libocr-ocrsys.so.0:_ZN5YDIMG8DPItoDPMEt
libocr-ocrsys.so.0:_ZN5YDIMG8DPMtoDPIEi
libocr-ocrsys.so.0:_ZN5YDIMG9CreateDIBEjjt
libocr-ocrsys.so.0:_ZN5YDIMG9DIBHeightEPc
libocr-ocrsys.so.0:__bss_start
libocr-ocrsys.so.0:_edata
libocr-ocrsys.so.0:_end
libocr-ocrsys.so.0:_fini
libocr-ocrsys.so.0:_init
libocr-ocrsys.so.0:_itoa_s
libocr-ocrsys.so.0:_mbbtombc
libocr-ocrsys.so.0:_mbcjistojms
libocr-ocrsys.so.0:_mbcjmstojis
libocr-ocrsys.so.0:_mbsbtype
libocr-ocrsys.so.0:_mbscat_s
libocr-ocrsys.so.0:_mbschr
libocr-ocrsys.so.0:_mbscmp
libocr-ocrsys.so.0:_mbscpy_s
libocr-ocrsys.so.0:_mbslen
libocr-ocrsys.so.0:_mbsncpy_s
libocr-ocrsys.so.0:_splitpath_s
libocr-ocrsys.so.0:_tcscat_s
libocr-ocrsys.so.0:_tcscpy_s
libocr-ocrsys.so.0:_tcsrchr
libocr-ocrsys.so.0:ascii_1byteto2byte_table
libocr-ocrsys.so.0:fopen_s
libocr-ocrsys.so.0:g_Dialog
libocr-ocrsys.so.0:g_dwLastError
libocr-ocrsys.so.0:g_sjistoucs2_table_01
libocr-ocrsys.so.0:g_sjistoucs2_table_02
libocr-ocrsys.so.0:g_sjistoucs2_table_03
libocr-ocrsys.so.0:g_sjistoucs2_table_04
libocr-ocrsys.so.0:g_ucs2tosjis_table_01
libocr-ocrsys.so.0:g_ucs2tosjis_table_01_2
libocr-ocrsys.so.0:g_ucs2tosjis_table_02
libocr-ocrsys.so.0:g_ucs2tosjis_table_03
libocr-ocrsys.so.0:g_ucs2tosjis_table_04
libocr-ocrsys.so.0:g_ucs2tosjis_table_05
libocr-ocrsys.so.0:g_ucs2tosjis_table_06
libocr-ocrsys.so.0:g_wCtoS_0x0040_0x007f
libocr-ocrsys.so.0:g_wCtoS_0x00c0_0x02af
libocr-ocrsys.so.0:g_wCtoS_0x0380_0x058f
libocr-ocrsys.so.0:g_wCtoS_0x1e00_0x1fff
libocr-ocrsys.so.0:g_wStoC_0x0040_0x007f
libocr-ocrsys.so.0:g_wStoC_0x00c0_0x02af
libocr-ocrsys.so.0:g_wStoC_0x0380_0x058f
libocr-ocrsys.so.0:g_wStoC_0x1e00_0x1fff
libocr-ocrsys.so.0:katakana_1byteto2byte_table
libocr-ocrsys.so.0:memcpy_s
libocr-ocrsys.so.0:sprintf_s
libocr-ocrsys.so.0:strcat_s
libocr-ocrsys.so.0:strcpy_s
libocr-ocrsys.so.0:stricmp
libocr-ocrsys.so.0:strncpy_s
libocr-ocrsys.so.0:theApp
libocr-rotmem.so.0:
libocr-rotmem.so.0:AfxMessageBox
libocr-rotmem.so.0:AppendFrame
libocr-rotmem.so.0:CloseHandle
libocr-rotmem.so.0:CopyMemory
libocr-rotmem.so.0:CreateFile
libocr-rotmem.so.0:CreateFrame
libocr-rotmem.so.0:CreatePalette
libocr-rotmem.so.0:DeleteFrame
libocr-rotmem.so.0:DeleteNoiseChar
libocr-rotmem.so.0:DeleteNotChar
libocr-rotmem.so.0:DetectDirecByFrame
libocr-rotmem.so.0:DetectDirecByImage
libocr-rotmem.so.0:DispatchMessage
libocr-rotmem.so.0:EnumObjects
libocr-rotmem.so.0:FillMemory
libocr-rotmem.so.0:FrameMemInit
libocr-rotmem.so.0:FreeLibrary
libocr-rotmem.so.0:GetFont
libocr-rotmem.so.0:GetFrame
libocr-rotmem.so.0:GetLastError
libocr-rotmem.so.0:GetModuleFileName
libocr-rotmem.so.0:GetModuleHandle
libocr-rotmem.so.0:GetPrivateProfileString
libocr-rotmem.so.0:GetProcAddress
libocr-rotmem.so.0:GetRotateAngle
libocr-rotmem.so.0:GetSystemInfo
libocr-rotmem.so.0:GlobalAlloc
libocr-rotmem.so.0:GlobalFlags
libocr-rotmem.so.0:GlobalFree
libocr-rotmem.so.0:GlobalLock
libocr-rotmem.so.0:GlobalReAlloc
libocr-rotmem.so.0:GlobalSize
libocr-rotmem.so.0:GlobalUnlock
libocr-rotmem.so.0:HIBYTE
libocr-rotmem.so.0:HIWORD
libocr-rotmem.so.0:HeapAlloc
libocr-rotmem.so.0:HeapCreate
libocr-rotmem.so.0:HeapDestroy
libocr-rotmem.so.0:HeapFree
libocr-rotmem.so.0:IsBadReadPtr
libocr-rotmem.so.0:LOBYTE
libocr-rotmem.so.0:LOWORD
libocr-rotmem.so.0:LoadLibraryEx
libocr-rotmem.so.0:MAKELONG32
libocr-rotmem.so.0:MAKEWORD
libocr-rotmem.so.0:MergeFrame
libocr-rotmem.so.0:MessageBox
libocr-rotmem.so.0:NotCharToChar
libocr-rotmem.so.0:OutputDebugStringA
libocr-rotmem.so.0:OutputDebugStringW
libocr-rotmem.so.0:PeekMessage
libocr-rotmem.so.0:QueryPerformanceCounter
libocr-rotmem.so.0:QueryPerformanceFrequency
libocr-rotmem.so.0:ReadFile
libocr-rotmem.so.0:RotateData180
libocr-rotmem.so.0:RotateData90L
libocr-rotmem.so.0:RotateData90R
libocr-rotmem.so.0:RotateFont180
libocr-rotmem.so.0:RotateFont90L
libocr-rotmem.so.0:RotateFont90R
libocr-rotmem.so.0:RotateImage
libocr-rotmem.so.0:RotateImage180
libocr-rotmem.so.0:RotateImage90L
libocr-rotmem.so.0:RotateImage90R
libocr-rotmem.so.0:SendMessage
libocr-rotmem.so.0:SetFilePointer
libocr-rotmem.so.0:SetLarge
libocr-rotmem.so.0:SetNotChar
libocr-rotmem.so.0:SetRect
libocr-rotmem.so.0:Sleep
libocr-rotmem.so.0:TranslateMessage
libocr-rotmem.so.0:WaitForMultipleObjects
libocr-rotmem.so.0:WaitForSingleObject
libocr-rotmem.so.0:WriteFile
libocr-rotmem.so.0:ZeroMemory
libocr-rotmem.so.0:_Z10BackupEdgePvttti
libocr-rotmem.so.0:_Z10MoveSquarePhttti
libocr-rotmem.so.0:_Z10RotateEdgePhS_ttti
libocr-rotmem.so.0:_Z11CreateEventP20_SECURITY_ATTRIBUTESiiPKc
libocr-rotmem.so.0:_Z11DIBBitCountPc
libocr-rotmem.so.0:_Z11FindDIBBitsPc
libocr-rotmem.so.0:_Z11PaletteSizePc
libocr-rotmem.so.0:_Z11RotateEdge4PhS_ttti
libocr-rotmem.so.0:_Z11SetDIBWidthPcj
libocr-rotmem.so.0:_Z12DIBNumColorsPc
libocr-rotmem.so.0:_Z12RotateSquarePhttti
libocr-rotmem.so.0:_Z12SetDIBHeightPcj
libocr-rotmem.so.0:_Z12utf16_fgetwsPDsiP8_IO_FILE
libocr-rotmem.so.0:_Z12utf16_wcschrPKDsDs
libocr-rotmem.so.0:_Z12utf16_wcscmpPKDsS0_
libocr-rotmem.so.0:_Z12utf16_wcslenPKDs
libocr-rotmem.so.0:_Z12utf16_wcslwrPDs
libocr-rotmem.so.0:_Z12utf16_wfopenPKDsS0_
libocr-rotmem.so.0:_Z13RotateSquare4Phttti
libocr-rotmem.so.0:_Z13utf16_wremovePKDs
libocr-rotmem.so.0:_Z14DIBCompressionPc
libocr-rotmem.so.0:_Z14GetSharpValueBPsi
libocr-rotmem.so.0:_Z14NotifyProgresstt
libocr-rotmem.so.0:_Z14RotateImage90CP10tagIMGHEADiPvPt
libocr-rotmem.so.0:_Z14_beginthreadexP20_SECURITY_ATTRIBUTESjPFPvS1_ES1_jPm
libocr-rotmem.so.0:_Z14utf16_wcscpy_sPDsmPKDs
libocr-rotmem.so.0:_Z14utf16_wcslwr_sPDsm
libocr-rotmem.so.0:_Z14utf16_wcsupr_sPDsm
libocr-rotmem.so.0:_Z14utf16_wfopen_sPP8_IO_FILEPKDsS3_
libocr-rotmem.so.0:_Z15HRanExtractFastPhiiPiRi
libocr-rotmem.so.0:_Z15MakeProjectionXPv
libocr-rotmem.so.0:_Z15MakeProjectionYPv
libocr-rotmem.so.0:_Z15RotateImage180CP10tagIMGHEADPvPt
libocr-rotmem.so.0:_Z15utf16_wcsncpy_sPDsmPKDsm
libocr-rotmem.so.0:_Z16GetNearestBranchP23OCRRECPTDB_BRANCHNODE_tiPhP20CCalculateDifference
libocr-rotmem.so.0:_Z16utf16_fwprintf_sP8_IO_FILEPKDsz
libocr-rotmem.so.0:_Z17CheckEstimateCodet
libocr-rotmem.so.0:_Z17GetRegistrySZ_MacPKcS0_Pcj
libocr-rotmem.so.0:_Z18CalcWorkMemorySizePvtPjS0_
libocr-rotmem.so.0:_Z18IsDebuggerAvaiablev
libocr-rotmem.so.0:_Z19InterlockedExchangePii
libocr-rotmem.so.0:_Z20EnterCriticalSectionP16CRITICAL_SECTION
libocr-rotmem.so.0:_Z20GetRegistryDWORD_MacPKcS0_j
libocr-rotmem.so.0:_Z20GetYndProfileInt_MacPKcS0_j
libocr-rotmem.so.0:_Z20LeaveCriticalSectionP16CRITICAL_SECTION
libocr-rotmem.so.0:_Z21DeleteCriticalSectionP16CRITICAL_SECTION
libocr-rotmem.so.0:_Z22RotateRecognitionCheckPv
libocr-rotmem.so.0:_Z23GetYndProfileString_MacPKcS0_Pc
libocr-rotmem.so.0:_Z25InitializeCriticalSectionP16CRITICAL_SECTION
libocr-rotmem.so.0:_Z33GetFolderStringRelativeBaseModulePv16ModuleFolderType
libocr-rotmem.so.0:_Z3RGBhhh
libocr-rotmem.so.0:_Z7DIBBitsPc
libocr-rotmem.so.0:_Z7DIBSizePc
libocr-rotmem.so.0:_Z7DllMainPvjS_
libocr-rotmem.so.0:_Z8DIBWidthPc
libocr-rotmem.so.0:_Z8SetEventPv
libocr-rotmem.so.0:_Z8jis2sjist
libocr-rotmem.so.0:_Z8sjis2jist
libocr-rotmem.so.0:_Z9CreateDIBjjt
libocr-rotmem.so.0:_Z9DIBHeightPc
libocr-rotmem.so.0:_Z9GetBValuej
libocr-rotmem.so.0:_Z9GetGValuej
libocr-rotmem.so.0:_Z9GetRValuej
libocr-rotmem.so.0:_Z9Jmbbtombcj
libocr-rotmem.so.0:_Z9Jmbctombbj
libocr-rotmem.so.0:_ZN10CYDBWImage10ConnectRanEPSt6vectorI13TYDImgRanPlusItESaIS2_EEt
libocr-rotmem.so.0:_ZN10CYDBWImage10CountBlackE10TYDImgRectItE
libocr-rotmem.so.0:_ZN10CYDBWImage10FilletLineEPhRiS1_
libocr-rotmem.so.0:_ZN10CYDBWImage10FilletRectER10TYDImgRectItE
libocr-rotmem.so.0:_ZN10CYDBWImage10ProjectionERSt6vectorItSaItEE10TYDImgRectItEiti
libocr-rotmem.so.0:_ZN10CYDBWImage10RanExtractERSt6vectorI9TYDImgRanItESaIS2_EEtttiit
libocr-rotmem.so.0:_ZN10CYDBWImage10RanToFrameER12CYDFramePackPSt6vectorI14TYDImgRan2PlusItESaIS4_EES7_ti
libocr-rotmem.so.0:_ZN10CYDBWImage11FilletRect2ER10TYDImgRectItE
libocr-rotmem.so.0:_ZN10CYDBWImage11HRanExtractEPSt6vectorI13TYDImgRanPlusItESaIS2_EEttt
libocr-rotmem.so.0:_ZN10CYDBWImage11HRanExtractEPSt6vectorI14TYDImgRan2PlusItESaIS2_EEttt
libocr-rotmem.so.0:_ZN10CYDBWImage11HRanExtractERSt6vectorI9TYDImgRanItESaIS2_EEttt
libocr-rotmem.so.0:_ZN10CYDBWImage11LabelingRanERSt6vectorI14TYDImgRectPlusItESaIS2_EEP10TYDImgRectItEiiiPS_
libocr-rotmem.so.0:_ZN10CYDBWImage11RanToFrame2ER12CYDFramePackR8CRunListS3_ti
libocr-rotmem.so.0:_ZN10CYDBWImage11SegmentInitERSt6vectorI10TYDImgRectItESaIS2_EEPS2_iiiPS_
libocr-rotmem.so.0:_ZN10CYDBWImage11VRanExtractEPSt6vectorI13TYDImgRanPlusItESaIS2_EEttt
libocr-rotmem.so.0:_ZN10CYDBWImage11VRanExtractEPSt6vectorI14TYDImgRan2PlusItESaIS2_EEttt
libocr-rotmem.so.0:_ZN10CYDBWImage11VRanExtractERSt6vectorI9TYDImgRanItESaIS2_EEttt
libocr-rotmem.so.0:_ZN10CYDBWImage12AcquireImageEPhjP10TYDImgRectItE
libocr-rotmem.so.0:_ZN10CYDBWImage12LocalErosionEP10TYDImgRectItE
libocr-rotmem.so.0:_ZN10CYDBWImage13DrawFrameRectE10TYDImgRectItE
libocr-rotmem.so.0:_ZN10CYDBWImage13LocalDilationEP10TYDImgRectItE
libocr-rotmem.so.0:_ZN10CYDBWImage14EraseFrameRectE10TYDImgRectItE
libocr-rotmem.so.0:_ZN10CYDBWImage15SegmentLineRectERSt6vectorI10TYDImgRectItESaIS2_EEtiPS2_i
libocr-rotmem.so.0:_ZN10CYDBWImage16CounterClockwiseEv
libocr-rotmem.so.0:_ZN10CYDBWImage16HWhiteRanExtractERSt6vectorI9TYDImgRanItESaIS2_EEttt
libocr-rotmem.so.0:_ZN10CYDBWImage16LabelingLineRectERSt6vectorI14TYDImgRectPlusItESaIS2_EEtiP10TYDImgRectItEi
libocr-rotmem.so.0:_ZN10CYDBWImage16LocalLabelingRanER12CYDFramePack10TYDImgRectItEiiiiPS_
libocr-rotmem.so.0:_ZN10CYDBWImage16VWhiteRanExtractERSt6vectorI9TYDImgRanItESaIS2_EEttt
libocr-rotmem.so.0:_ZN10CYDBWImage19ConvertOutlineImageE10TYDImgRectItE
libocr-rotmem.so.0:_ZN10CYDBWImage19RanToFrame_4ConnectER12CYDFramePackPSt6vectorI14TYDImgRan2PlusItESaIS4_EES7_ti
libocr-rotmem.so.0:_ZN10CYDBWImage20ConvertThinningImageEP10TYDImgRectItE
libocr-rotmem.so.0:_ZN10CYDBWImage20RanToFrame_4Connect2ER12CYDFramePackR8CRunListS3_ti
libocr-rotmem.so.0:_ZN10CYDBWImage21LocalLabelingLineRectER12CYDFramePackti10TYDImgRectItEii
libocr-rotmem.so.0:_ZN10CYDBWImage4DrawE10TYDImgRectItE
libocr-rotmem.so.0:_ZN10CYDBWImage4DrawEtRSt6vectorI9TYDImgRanItESaIS2_EEi
libocr-rotmem.so.0:_ZN10CYDBWImage4DrawEtt
libocr-rotmem.so.0:_ZN10CYDBWImage4DrawEttti
libocr-rotmem.so.0:_ZN10CYDBWImage5EraseE10TYDImgRectItE
libocr-rotmem.so.0:_ZN10CYDBWImage5EraseEtRSt6vectorI9TYDImgRanItESaIS2_EEi
libocr-rotmem.so.0:_ZN10CYDBWImage5EraseEtt
libocr-rotmem.so.0:_ZN10CYDBWImage5EraseEttti
libocr-rotmem.so.0:_ZN10CYDBWImage6ReDrawEtRSt6vectorI9TYDImgRanItESaIS2_EEiPS2_
libocr-rotmem.so.0:_ZN10CYDBWImage7ClosingEP10TYDImgRectItEPS_P9TYDImgPosItE
libocr-rotmem.so.0:_ZN10CYDBWImage7ErosionEP10TYDImgRectItEPS_P9TYDImgPosItE
libocr-rotmem.so.0:_ZN10CYDBWImage7OpeningEP10TYDImgRectItEPS_P9TYDImgPosItE
libocr-rotmem.so.0:_ZN10CYDBWImage7ReverseE10TYDImgRectItE
libocr-rotmem.so.0:_ZN10CYDBWImage7ReverseEtRSt6vectorI9TYDImgRanItESaIS2_EEi
libocr-rotmem.so.0:_ZN10CYDBWImage7ReverseEtt
libocr-rotmem.so.0:_ZN10CYDBWImage7ReverseEttti
libocr-rotmem.so.0:_ZN10CYDBWImage8CopyRectERS_10TYDImgRectItE
libocr-rotmem.so.0:_ZN10CYDBWImage8DeletePtEPii
libocr-rotmem.so.0:_ZN10CYDBWImage8DilationEP10TYDImgRectItEPS_P9TYDImgPosItE
libocr-rotmem.so.0:_ZN10CYDBWImage8MemoryOrEPvPKvtt
libocr-rotmem.so.0:_ZN10CYDBWImage8TrimRectE10TYDImgRectItE
libocr-rotmem.so.0:_ZN10CYDBWImage9ClockwiseEv
libocr-rotmem.so.0:_ZN10CYDBWImage9GradationEt
libocr-rotmem.so.0:_ZN10CYDBWImage9MemoryAndEPvPKvtt
libocr-rotmem.so.0:_ZN10CYDBWImage9NumOfBitsEi
libocr-rotmem.so.0:_ZN11CYDBMPImage14OutputBMPImageEPKc
libocr-rotmem.so.0:_ZN12CDetectAngle10MergeFrameEP6FRAME2tt
libocr-rotmem.so.0:_ZN12CDetectAngle10RanExtractEPhP9tagRAN_DAtt
libocr-rotmem.so.0:_ZN12CDetectAngle10RanRewriteEP9tagRAN_DAttt
libocr-rotmem.so.0:_ZN12CDetectAngle10RanToFrameEP6FRAME2P9tagRAN_DAS3_ttt
libocr-rotmem.so.0:_ZN12CDetectAngle10SetNotCharEP6FRAME2
libocr-rotmem.so.0:_ZN12CDetectAngle11AppendFrameEP6FRAME2tttt
libocr-rotmem.so.0:_ZN12CDetectAngle11CreateFrameEP6FRAME2ttt
libocr-rotmem.so.0:_ZN12CDetectAngle11DeleteFrameEP6FRAME2t
libocr-rotmem.so.0:_ZN12CDetectAngle11DetectAngleEP12tagCHARINFORiPstt
libocr-rotmem.so.0:_ZN12CDetectAngle11SegmentInitEP6FRAME2
libocr-rotmem.so.0:_ZN12CDetectAngle12CalSkewAngleEPhjjjPsPtjijjS2_
libocr-rotmem.so.0:_ZN12CDetectAngle12FrameMemInitEP6FRAME2
libocr-rotmem.so.0:_ZN12CDetectAngle13DeleteNotCharEP6FRAME2
libocr-rotmem.so.0:_ZN12CDetectAngle14SearchHistPeakEPjjjS0_
libocr-rotmem.so.0:_ZN12CDetectAngle15DeleteNoiseCharEP6FRAME2
libocr-rotmem.so.0:_ZN12CDetectAngle15GetDeskewAngle2ER11CYDBWImage210TYDImgRectItEPs
libocr-rotmem.so.0:_ZN12CDetectAngle16CheckBWRunLengthEPhjjjjjjjijjPj
libocr-rotmem.so.0:_ZN12CDetectAngle16CountActiveFrameEP6FRAME2
libocr-rotmem.so.0:_ZN12CDetectAngle18DeleteNoiseSetSizeEP6FRAME2P9tagRAN_DAtti
libocr-rotmem.so.0:_ZN12CDetectAngle18DetectAngleByImageEP6FRAME2
libocr-rotmem.so.0:_ZN12CDetectAngle8GetFrameEP6FRAME2
libocr-rotmem.so.0:_ZN12CDetectAngle8SetLargeEP6FRAME2
libocr-rotmem.so.0:_ZN12CDetectAngle9ScanAngleEsssPsPj
libocr-rotmem.so.0:_ZN12CDetectAngleC1Ev
libocr-rotmem.so.0:_ZN12CDetectAngleC2Ev
libocr-rotmem.so.0:_ZN12CDetectAngleD1Ev
libocr-rotmem.so.0:_ZN12CDetectAngleD2Ev
libocr-rotmem.so.0:_ZN12CPatternData10EnableUPLTEPv
libocr-rotmem.so.0:_ZN12CPatternData10FreeMemoryEPv
libocr-rotmem.so.0:_ZN12CPatternData11DisableUPLTEv
libocr-rotmem.so.0:_ZN12CPatternData14SetPatternDataEP21OCRRECDB_INFOHEADER_tPviS2_
libocr-rotmem.so.0:_ZN12CPatternData14SetPatternDataEPc
libocr-rotmem.so.0:_ZN12CPatternData20SetDefaultCharFilterER11CCharFilter
libocr-rotmem.so.0:_ZN12CPatternData9GetDBTreeEi
libocr-rotmem.so.0:_ZN12CPatternDataC1Ev
libocr-rotmem.so.0:_ZN12CPatternDataC2Ev
libocr-rotmem.so.0:_ZN12CPatternDataD0Ev
libocr-rotmem.so.0:_ZN12CPatternDataD1Ev
libocr-rotmem.so.0:_ZN12CPatternDataD2Ev
libocr-rotmem.so.0:_ZN13CYDThreadPool10GetCommandEv
libocr-rotmem.so.0:_ZN13CYDThreadPool12WorkerThreadEPv
libocr-rotmem.so.0:_ZN13CYDThreadPool13RingingChimesEi
libocr-rotmem.so.0:_ZN13CYDThreadPool5StoreEP10CYDCommand
libocr-rotmem.so.0:_ZN13CYDThreadPool7ExecuteEv
libocr-rotmem.so.0:_ZN13CYDThreadPoolC1Ei
libocr-rotmem.so.0:_ZN13CYDThreadPoolC2Ei
libocr-rotmem.so.0:_ZN13CYDThreadPoolD0Ev
libocr-rotmem.so.0:_ZN13CYDThreadPoolD1Ev
libocr-rotmem.so.0:_ZN13CYDThreadPoolD2Ev
libocr-rotmem.so.0:_ZN14CYDBWImageTool6RanAndER8CRunListS1_S1_
libocr-rotmem.so.0:_ZN15CCapitalToSmall7ConvertEt
libocr-rotmem.so.0:_ZN15CDiscrimination17InitialNodeSearchER13DATAPACKAGE_tR23OCRRECPTDB_BRANCHNODE_tRii
libocr-rotmem.so.0:_ZN15CDiscrimination19CharRecognitionCoreER13DATAPACKAGE_t
libocr-rotmem.so.0:_ZN15CDiscrimination20EstimateNodeBranchesER13DATAPACKAGE_tR23OCRRECPTDB_BRANCHNODE_tR14NODESCOREELM_t
libocr-rotmem.so.0:_ZN15CDiscrimination22HierarchicalNodeSearchER13DATAPACKAGE_tR23OCRRECPTDB_BRANCHNODE_tRiiR14NODESCOREELM_t
libocr-rotmem.so.0:_ZN15CDiscrimination9RecogCharEP10tagIMGHEADP8tagFRAMEttPtS4_
libocr-rotmem.so.0:_ZN15CSmallToCapital7ConvertEt
libocr-rotmem.so.0:_ZN17CCapitalToSmallTR7ConvertEt
libocr-rotmem.so.0:_ZN17CExtractPDFeature14ExtractFeatureEPhtttS0_
libocr-rotmem.so.0:_ZN17CExtractPDFeature15GetPeriOdTokXL3ERNS_12LOCALIMAGE_tEiiPsS2_S2_
libocr-rotmem.so.0:_ZN17CExtractPDFeature15GetPeriOdTokXR3ERNS_12LOCALIMAGE_tEiiPsS2_S2_
libocr-rotmem.so.0:_ZN17CExtractPDFeature15GetPeriOdTokYD3ERNS_12LOCALIMAGE_tEiiPsS2_S2_
libocr-rotmem.so.0:_ZN17CExtractPDFeature15GetPeriOdTokYU3ERNS_12LOCALIMAGE_tEiiPsS2_S2_
libocr-rotmem.so.0:_ZN17CExtractPDFeature17CreateBufferImageERNS_12LOCALIMAGE_tEi
libocr-rotmem.so.0:_ZN17CExtractPDFeature17DeleteBufferImageERNS_12LOCALIMAGE_tE
libocr-rotmem.so.0:_ZN17CExtractPDFeature18GetVerticalFeatureERNS_12LOCALIMAGE_tEPs
libocr-rotmem.so.0:_ZN17CExtractPDFeature20GetHorizontalFeatureERNS_12LOCALIMAGE_tEPs
libocr-rotmem.so.0:_ZN17CSmallToCapitalTR7ConvertEt
libocr-rotmem.so.0:_ZN20CCalculateDifference12CalculateSADEPhS0_
libocr-rotmem.so.0:_ZN20CCalculateDifference12CalculateSSDEPhS0_
libocr-rotmem.so.0:_ZN20CCalculateDifference15CalculateSAD_64EPhS0_
libocr-rotmem.so.0:_ZN20CCalculateDifference15CalculateSSD_64EPhS0_
libocr-rotmem.so.0:_ZN21CExtractPDFeature_MMX18GetVerticalFeatureERN17CExtractPDFeature12LOCALIMAGE_tEPs
libocr-rotmem.so.0:_ZN21CExtractPDFeature_MMX20GetHorizontalFeatureERN17CExtractPDFeature12LOCALIMAGE_tEPs
libocr-rotmem.so.0:_ZN24CCalculateDifference_MMX12CalculateSADEPhS0_
libocr-rotmem.so.0:_ZN24CCalculateDifference_MMX12CalculateSSDEPhS0_
libocr-rotmem.so.0:_ZN24CCalculateDifference_MMX15CalculateSAD_64EPhS0_
libocr-rotmem.so.0:_ZN24CCalculateDifference_MMX15CalculateSSD_64EPhS0_
libocr-rotmem.so.0:_ZN25CCalculateDifference_SSE212CalculateSADEPhS0_
libocr-rotmem.so.0:_ZN25CCalculateDifference_SSE215CalculateSAD_64EPhS0_
libocr-rotmem.so.0:_ZN4YDTC10sjistoucs2Et
libocr-rotmem.so.0:_ZN4YDTC10ucs2tosjisEt
libocr-rotmem.so.0:_ZN4YDTC7One2TwoEt
libocr-rotmem.so.0:_ZN4YDTC7Two2OneEti
libocr-rotmem.so.0:_ZN4YDTC9YdTwo2OneEt
libocr-rotmem.so.0:_ZN4YDTC9jistosjisEt
libocr-rotmem.so.0:_ZN4YDTC9jistoucs2Et
libocr-rotmem.so.0:_ZN4YDTC9sjistojisEt
libocr-rotmem.so.0:_ZN4YDTC9ucs2tojisEt
libocr-rotmem.so.0:_ZN5YDIMG10IsBottomUpEPc
libocr-rotmem.so.0:_ZN5YDIMG10UpsideDownEPc
libocr-rotmem.so.0:_ZN5YDIMG10WIDTHBYTESEj
libocr-rotmem.so.0:_ZN5YDIMG11DIBBitCountEPc
libocr-rotmem.so.0:_ZN5YDIMG11FindDIBBitsEPc
libocr-rotmem.so.0:_ZN5YDIMG11FindPaletteEPc
libocr-rotmem.so.0:_ZN5YDIMG11PaletteSizeEPc
libocr-rotmem.so.0:_ZN5YDIMG12DIBNumColorsEPc
libocr-rotmem.so.0:_ZN5YDIMG14DIBCompressionEPc
libocr-rotmem.so.0:_ZN5YDIMG7DIBBitsEPc
libocr-rotmem.so.0:_ZN5YDIMG7DIBSizeEPc
libocr-rotmem.so.0:_ZN5YDIMG8DIBWidthEPc
libocr-rotmem.so.0:_ZN5YDIMG8DPItoDPMEt
libocr-rotmem.so.0:_ZN5YDIMG8DPMtoDPIEi
libocr-rotmem.so.0:_ZN5YDIMG9CreateDIBEjjt
libocr-rotmem.so.0:_ZN5YDIMG9DIBHeightEPc
libocr-rotmem.so.0:_ZN8CSegment10RanExtractEPhP6tagRANttPi
libocr-rotmem.so.0:_ZN8CSegment10RanRewriteEP6tagRANttt
libocr-rotmem.so.0:_ZN8CSegment10RanToFrameEP8tagFRAMEP6tagRANS3_ttt
libocr-rotmem.so.0:_ZN8CSegment11DeleteNoiseEP8tagFRAMEP6tagRANt
libocr-rotmem.so.0:_ZN8CSegment11SegmentInitEP10tagIMGHEADPv
libocr-rotmem.so.0:_ZN9CDeskewBW11HRanExtractEPhttttRSt6vectorI7CImgRanSaIS2_EE
libocr-rotmem.so.0:_ZN9CDeskewBW13DeskewBWImageER11CYDBWImage210TYDImgRectItEs
libocr-rotmem.so.0:_ZN9CDeskewBW5VDrawEPhtttt
libocr-rotmem.so.0:_ZN9CDeskewBW6HEraseEPhtttt
libocr-rotmem.so.0:__bss_start
libocr-rotmem.so.0:_edata
libocr-rotmem.so.0:_end
libocr-rotmem.so.0:_fini
libocr-rotmem.so.0:_hwndApp
libocr-rotmem.so.0:_init
libocr-rotmem.so.0:_itoa_s
libocr-rotmem.so.0:_mbbtombc
libocr-rotmem.so.0:_mbcjistojms
libocr-rotmem.so.0:_mbcjmstojis
libocr-rotmem.so.0:_mbsbtype
libocr-rotmem.so.0:_mbscat_s
libocr-rotmem.so.0:_mbschr
libocr-rotmem.so.0:_mbscmp
libocr-rotmem.so.0:_mbscpy_s
libocr-rotmem.so.0:_mbslen
libocr-rotmem.so.0:_mbsncpy_s
libocr-rotmem.so.0:_splitpath_s
libocr-rotmem.so.0:_tcscat_s
libocr-rotmem.so.0:_tcscpy_s
libocr-rotmem.so.0:_tcsrchr
libocr-rotmem.so.0:_wCurRatio
libocr-rotmem.so.0:ascii_1byteto2byte_table
libocr-rotmem.so.0:fopen_s
libocr-rotmem.so.0:g_Table
libocr-rotmem.so.0:g_dwLastError
libocr-rotmem.so.0:g_sjistoucs2_table_01
libocr-rotmem.so.0:g_sjistoucs2_table_02
libocr-rotmem.so.0:g_sjistoucs2_table_03
libocr-rotmem.so.0:g_sjistoucs2_table_04
libocr-rotmem.so.0:g_ucs2tosjis_table_01
libocr-rotmem.so.0:g_ucs2tosjis_table_01_2
libocr-rotmem.so.0:g_ucs2tosjis_table_02
libocr-rotmem.so.0:g_ucs2tosjis_table_03
libocr-rotmem.so.0:g_ucs2tosjis_table_04
libocr-rotmem.so.0:g_ucs2tosjis_table_05
libocr-rotmem.so.0:g_ucs2tosjis_table_06
libocr-rotmem.so.0:g_wCtoS_0x0040_0x007f
libocr-rotmem.so.0:g_wCtoS_0x00c0_0x02af
libocr-rotmem.so.0:g_wCtoS_0x0380_0x058f
libocr-rotmem.so.0:g_wCtoS_0x1e00_0x1fff
libocr-rotmem.so.0:g_wStoC_0x0040_0x007f
libocr-rotmem.so.0:g_wStoC_0x00c0_0x02af
libocr-rotmem.so.0:g_wStoC_0x0380_0x058f
libocr-rotmem.so.0:g_wStoC_0x1e00_0x1fff
libocr-rotmem.so.0:hCommon
libocr-rotmem.so.0:hJRdcHead
libocr-rotmem.so.0:hwndAppInf
libocr-rotmem.so.0:katakana_1byteto2byte_table
libocr-rotmem.so.0:memcpy_s
libocr-rotmem.so.0:sprintf_s
libocr-rotmem.so.0:strcat_s
libocr-rotmem.so.0:strcpy_s
libocr-rotmem.so.0:stricmp
libocr-rotmem.so.0:strncpy_s
libocr-rotmem.so.0:wCurStatusRate
libocr-skwmem.so.0:
libocr-skwmem.so.0:DeskewImage
libocr-skwmem.so.0:GetDeskewAngle
libocr-skwmem.so.0:SkewImageDIB
libocr-skwmem.so.0:_Z12CalSkewAnglePhjjjPsPtjijjS1_
libocr-skwmem.so.0:_Z14GetSharpValueBPsi
libocr-skwmem.so.0:_Z15MakeProjectionXPv
libocr-skwmem.so.0:_Z15MakeProjectionYPv
libocr-skwmem.so.0:_ZN12CDetectAngle11DetectAngleEP12tagCHARINFORiiiPsP13CSkewProgress
libocr-skwmem.so.0:_ZN12CDetectAngle9ScanAngleEsssPsPj
libocr-skwmem.so.0:_ZN12CDetectAngleC1Ev
libocr-skwmem.so.0:_ZN12CDetectAngleC2Ev
libocr-skwmem.so.0:_ZN12CDetectAngleD1Ev
libocr-skwmem.so.0:_ZN12CDetectAngleD2Ev
libocr-skwmem.so.0:_ZN12CSegmentInit10RanExtractEPhP6tagRANtt
libocr-skwmem.so.0:_ZN12CSegmentInit10RanRewriteEP6tagRANttt
libocr-skwmem.so.0:_ZN12CSegmentInit10RanToFrameEP8tagFRAMEP6tagRANS3_ttt
libocr-skwmem.so.0:_ZN12CSegmentInit11SegmentInitEP10tagIMGHEAD9tagREGIONPvP13CSkewProgress
libocr-skwmem.so.0:_ZN12CSegmentInit18DeleteNoiseSetSizeEP8tagFRAMEP6tagRANtti
libocr-skwmem.so.0:_ZN12CSkewBWImage11HRanExtractEPhttttRSt6vectorI7CImgRanSaIS2_EE
libocr-skwmem.so.0:_ZN12CSkewBWImage12DeskewImage2EP10tagIMGHEAD9tagREGIONsPvP13CSkewProgressPt
libocr-skwmem.so.0:_ZN12CSkewBWImage5VDrawEPhtttt
libocr-skwmem.so.0:_ZN12CSkewBWImage6HEraseEPhtttt
libocr-skwmem.so.0:_ZN14CFrameOperator10MergeFrameEP8tagFRAMEtt
libocr-skwmem.so.0:_ZN14CFrameOperator11AppendFrameEP8tagFRAMEtttt
libocr-skwmem.so.0:_ZN14CFrameOperator11CreateFrameEP8tagFRAMEttt
libocr-skwmem.so.0:_ZN14CFrameOperator11DeleteFrameEP8tagFRAMEt
libocr-skwmem.so.0:_ZN14CFrameOperator12FrameMemInitEPv
libocr-skwmem.so.0:_ZN14CFrameOperator8GetFrameEP8tagFRAME
libocr-skwmem.so.0:_ZN15CSkewColorImage11SetCalcDataE9tagREGIONdRdS1_RsS2_
libocr-skwmem.so.0:_ZN15CSkewColorImage14FillSpaceColorEPhiit
libocr-skwmem.so.0:_ZN15CSkewColorImage14InclineImage2CEP10tagIMGHEAD9tagREGIONdPvP13CSkewProgressPt
libocr-skwmem.so.0:_ZN15CSkewColorImage15CalcCoordinatesEPsS0_9tagREGIONtt
libocr-skwmem.so.0:_ZN15CSkewColorImage18CalcWorkMemorySizeEPv9tagREGIONjdPjS2_
libocr-skwmem.so.0:_ZN19CDetectAngleByImage16CountActiveFrameEPv
libocr-skwmem.so.0:_ZN19CDetectAngleByImage18DetectAngleByImageEP10tagIMGHEAD9tagREGIONPvP13CSkewProgress
libocr-skwmem.so.0:_ZN20CFrameClassification10SetNotCharEP10tagIMGHEADPv
libocr-skwmem.so.0:_ZN20CFrameClassification13DeleteNotCharEP10tagIMGHEADPv
libocr-skwmem.so.0:_ZN20CFrameClassification15DeleteNoiseCharEP10tagIMGHEADPv
libocr-skwmem.so.0:_ZN20CFrameClassification19FrameClassificationEP10tagIMGHEADPv
libocr-skwmem.so.0:_ZN20CFrameClassification8SetLargeEP10tagIMGHEADPv
libocr-skwmem.so.0:_ZN5YDIMG11DIBBitCountEPc
libocr-skwmem.so.0:_ZN5YDIMG11FindDIBBitsEPc
libocr-skwmem.so.0:_ZN5YDIMG11PaletteSizeEPc
libocr-skwmem.so.0:_ZN5YDIMG12DIBNumColorsEPc
libocr-skwmem.so.0:_ZN5YDIMG14DIBCompressionEPc
libocr-skwmem.so.0:_ZN5YDIMG7DIBBitsEPc
libocr-skwmem.so.0:_ZN5YDIMG7DIBSizeEPc
libocr-skwmem.so.0:_ZN5YDIMG8DIBWidthEPc
libocr-skwmem.so.0:_ZN5YDIMG9CreateDIBEjjt
libocr-skwmem.so.0:_ZN5YDIMG9DIBHeightEPc
libocr-skwmem.so.0:_ZN8CCalSkew13CalSkewAngleCEPhjjjPsPtjijjS2_
libocr-skwmem.so.0:_ZN8CCalSkew14SearchHistPeakEPjjjS0_
libocr-skwmem.so.0:_ZN8CCalSkew16CheckBWRunLengthEPhjjjjjjjijjPj
libocr-skwmem.so.0:__bss_start
libocr-skwmem.so.0:_edata
libocr-skwmem.so.0:_end
libocr-skwmem.so.0:_fini
libocr-skwmem.so.0:_init
libocr-usrdic.so.0:
libocr-usrdic.so.0:_Z10GetUsrCharPvtPtS0_
libocr-usrdic.so.0:_Z10GetUsrWordPvtPc
libocr-usrdic.so.0:_Z11CheckUsrDicPvPctPt
libocr-usrdic.so.0:_Z11ReadUsrWordPvPcS0_S_PtS1_S1_
libocr-usrdic.so.0:_Z12CreateUsrDicPvPctPt
libocr-usrdic.so.0:_Z12DeleteUsrDicPvPctPt
libocr-usrdic.so.0:_Z12WriteUsrWordPvPcS_PtS1_
libocr-usrdic.so.0:_Z13AppendUsrCharPvPcS_tPtS0_ttS1_S1_
libocr-usrdic.so.0:_Z13AppendUsrWordPvPcS_S0_PtS1_Pii
libocr-usrdic.so.0:_Z13DeleteUsrCharPvPcS_tPt
libocr-usrdic.so.0:_Z13DeleteUsrWordPvPcS_tPt
libocr-usrdic.so.0:_Z13GetUsrPatternPvtPtS0_
libocr-usrdic.so.0:_Z13LoadUsrOcrDicPvPcS_Pt
libocr-usrdic.so.0:_Z13LoadUsrPtnDicPvPcS_Pt
libocr-usrdic.so.0:_Z13LoadUsrWrdDicPvPcS_Pt
libocr-usrdic.so.0:_Z14ReadUsrPatternPvPcS0_S_PtS1_S1_
libocr-usrdic.so.0:_Z15GetUsrCharImagePcPvtS_PtS1_
libocr-usrdic.so.0:_Z15GetUsrTotalCharPv
libocr-usrdic.so.0:_Z15GetUsrTotalWordPv
libocr-usrdic.so.0:_Z15SearchWordToDicPvPcPiS1_Pt
libocr-usrdic.so.0:_Z15UnloadUsrOcrDicPv
libocr-usrdic.so.0:_Z15UnloadUsrPtnDicPv
libocr-usrdic.so.0:_Z15UnloadUsrWrdDicPv
libocr-usrdic.so.0:_Z15WriteUsrPatternPvPcS_PtS1_
libocr-usrdic.so.0:_Z16AppendUsrPatternPvPcS_ttPtS1_
libocr-usrdic.so.0:_Z16DeleteUsrPatternPvPcS_tPt
libocr-usrdic.so.0:_Z18GetUsrTotalPatternPv
libocr-usrdic.so.0:__bss_start
libocr-usrdic.so.0:_edata
libocr-usrdic.so.0:_end
libocr-usrdic.so.0:_fini
libocr-usrdic.so.0:_init
libocr-ydblock.so.0:
libocr-ydblock.so.0:AdjustTargetRegionMain
libocr-ydblock.so.0:AfxMessageBox
libocr-ydblock.so.0:CloseHandle
libocr-ydblock.so.0:CopyMemory
libocr-ydblock.so.0:CreateFile
libocr-ydblock.so.0:CreatePalette
libocr-ydblock.so.0:DispatchMessage
libocr-ydblock.so.0:EnumObjects
libocr-ydblock.so.0:FillMemory
libocr-ydblock.so.0:FreeLibrary
libocr-ydblock.so.0:GetLastError
libocr-ydblock.so.0:GetModuleFileName
libocr-ydblock.so.0:GetModuleHandle
libocr-ydblock.so.0:GetPrivateProfileString
libocr-ydblock.so.0:GetProcAddress
libocr-ydblock.so.0:GetSystemInfo
libocr-ydblock.so.0:GlobalAlloc
libocr-ydblock.so.0:GlobalFlags
libocr-ydblock.so.0:GlobalFree
libocr-ydblock.so.0:GlobalLock
libocr-ydblock.so.0:GlobalReAlloc
libocr-ydblock.so.0:GlobalSize
libocr-ydblock.so.0:GlobalUnlock
libocr-ydblock.so.0:HIBYTE
libocr-ydblock.so.0:HIWORD
libocr-ydblock.so.0:HeapAlloc
libocr-ydblock.so.0:HeapCreate
libocr-ydblock.so.0:HeapDestroy
libocr-ydblock.so.0:HeapFree
libocr-ydblock.so.0:IsBadReadPtr
libocr-ydblock.so.0:LOBYTE
libocr-ydblock.so.0:LOWORD
libocr-ydblock.so.0:LoadLibraryEx
libocr-ydblock.so.0:MAKELONG32
libocr-ydblock.so.0:MAKEWORD
libocr-ydblock.so.0:MessageBox
libocr-ydblock.so.0:OutputDebugStringA
libocr-ydblock.so.0:OutputDebugStringW
libocr-ydblock.so.0:PeekMessage
libocr-ydblock.so.0:QueryPerformanceCounter
libocr-ydblock.so.0:QueryPerformanceFrequency
libocr-ydblock.so.0:ReadFile
libocr-ydblock.so.0:SegmentBlockMain
libocr-ydblock.so.0:SegmentBlockMain2
libocr-ydblock.so.0:SegmentBlockMain3
libocr-ydblock.so.0:SendMessage
libocr-ydblock.so.0:SetFilePointer
libocr-ydblock.so.0:SetRect
libocr-ydblock.so.0:Sleep
libocr-ydblock.so.0:TranslateMessage
libocr-ydblock.so.0:WaitForMultipleObjects
libocr-ydblock.so.0:WaitForSingleObject
libocr-ydblock.so.0:WriteFile
libocr-ydblock.so.0:YdblockEnd
libocr-ydblock.so.0:YdblockInit
libocr-ydblock.so.0:ZeroMemory
libocr-ydblock.so.0:_Z10SetDisableR10TYDImgRectItE
libocr-ydblock.so.0:_Z11CheckEnableR10TYDImgRectItE
libocr-ydblock.so.0:_Z11CreateEventP20_SECURITY_ATTRIBUTESiiPKc
libocr-ydblock.so.0:_Z12CheckOverlapjjj
libocr-ydblock.so.0:_Z12utf16_fgetwsPDsiP8_IO_FILE
libocr-ydblock.so.0:_Z12utf16_wcschrPKDsDs
libocr-ydblock.so.0:_Z12utf16_wcscmpPKDsS0_
libocr-ydblock.so.0:_Z12utf16_wcslenPKDs
libocr-ydblock.so.0:_Z12utf16_wcslwrPDs
libocr-ydblock.so.0:_Z12utf16_wfopenPKDsS0_
libocr-ydblock.so.0:_Z13CheckContain_10TYDImgRectItES0_
libocr-ydblock.so.0:_Z13GetModulePathPcmS_
libocr-ydblock.so.0:_Z13VoteHistogramPtiit
libocr-ydblock.so.0:_Z13VoteHistogramRSt6vectorItSaItEEiit
libocr-ydblock.so.0:_Z13utf16_wremovePKDs
libocr-ydblock.so.0:_Z14HanteiPatternAjjjjj
libocr-ydblock.so.0:_Z14HanteiPatternBjjjjj
libocr-ydblock.so.0:_Z14HanteiPatternEjjjjj
libocr-ydblock.so.0:_Z14HanteiPatternFjjjjj
libocr-ydblock.so.0:_Z14HanteiPatternMjjjjj
libocr-ydblock.so.0:_Z14HanteiPatternNjjjjj
libocr-ydblock.so.0:_Z14MakeProjectionP10CYDBWImagePh10TYDImgRectItEPtS4_
libocr-ydblock.so.0:_Z14_beginthreadexP20_SECURITY_ATTRIBUTESjPFPvS1_ES1_jPm
libocr-ydblock.so.0:_Z14get_lineHeightP11BLFRAME_EXPj
libocr-ydblock.so.0:_Z14utf16_wcscpy_sPDsmPKDs
libocr-ydblock.so.0:_Z14utf16_wcslwr_sPDsm
libocr-ydblock.so.0:_Z14utf16_wcsupr_sPDsm
libocr-ydblock.so.0:_Z14utf16_wfopen_sPP8_IO_FILEPKDsS3_
libocr-ydblock.so.0:_Z15HRanExtractFastPhiiPiRi
libocr-ydblock.so.0:_Z15MainGateTable_LPv
libocr-ydblock.so.0:_Z15utf16_wcsncpy_sPDsmPKDsm
libocr-ydblock.so.0:_Z15white_black_cntPjjjj
libocr-ydblock.so.0:_Z16utf16_fwprintf_sP8_IO_FILEPKDsz
libocr-ydblock.so.0:_Z17CalcBitmapProjectP10CYDBWImagePhPtS2_10TYDImgRectItE
libocr-ydblock.so.0:_Z17GetRegistrySZ_MacPKcS0_Pcj
libocr-ydblock.so.0:_Z17YdGetProfileInt_LPKcS0_j
libocr-ydblock.so.0:_Z18CalcBitmapProject2P10CYDBWImagePhPtS2_10TYDImgRectItE
libocr-ydblock.so.0:_Z18DownSampling4_Ver9R10CYDBWImageR14CBL_ImageParam
libocr-ydblock.so.0:_Z18GetDividePosNormalRSt6vectorItSaItEEttt
libocr-ydblock.so.0:_Z18IsDebuggerAvaiablev
libocr-ydblock.so.0:_Z18SegmentBlockMain_LPvtt16YDLAYOUT_PARAM_tPtP15YDOCRCALLBACK_t
libocr-ydblock.so.0:_Z19CreateBW_BITMAPINFOPhiiii
libocr-ydblock.so.0:_Z19CreateDIBfromOCRIMGP10tagIMGHEAD
libocr-ydblock.so.0:_Z19GetDividePosReverseRSt6vectorItSaItEEttt
libocr-ydblock.so.0:_Z19InterlockedExchangePii
libocr-ydblock.so.0:_Z20EnterCriticalSectionP16CRITICAL_SECTION
libocr-ydblock.so.0:_Z20GetRegistryDWORD_MacPKcS0_j
libocr-ydblock.so.0:_Z20GetYndProfileInt_MacPKcS0_j
libocr-ydblock.so.0:_Z20LeaveCriticalSectionP16CRITICAL_SECTION
libocr-ydblock.so.0:_Z21DeleteCriticalSectionP16CRITICAL_SECTION
libocr-ydblock.so.0:_Z21DeleteRuledLineMain_LPvS_
libocr-ydblock.so.0:_Z22CreateBW_BITMAPINFO_02Phiiii
libocr-ydblock.so.0:_Z23GetYndProfileString_MacPKcS0_Pc
libocr-ydblock.so.0:_Z25InitializeCriticalSectionP16CRITICAL_SECTION
libocr-ydblock.so.0:_Z33GetFolderStringRelativeBaseModulePv16ModuleFolderType
libocr-ydblock.so.0:_Z3RGBhhh
libocr-ydblock.so.0:_Z8SetEventPv
libocr-ydblock.so.0:_Z8jis2sjist
libocr-ydblock.so.0:_Z8sjis2jist
libocr-ydblock.so.0:_Z9GetBValuej
libocr-ydblock.so.0:_Z9GetGValuej
libocr-ydblock.so.0:_Z9GetRValuej
libocr-ydblock.so.0:_Z9Jmbbtombcj
libocr-ydblock.so.0:_Z9Jmbctombbj
libocr-ydblock.so.0:_ZN10CYDBWImage10ConnectRanEPSt6vectorI13TYDImgRanPlusItESaIS2_EEt
libocr-ydblock.so.0:_ZN10CYDBWImage10CountBlackE10TYDImgRectItE
libocr-ydblock.so.0:_ZN10CYDBWImage10FilletLineEPhRiS1_
libocr-ydblock.so.0:_ZN10CYDBWImage10FilletRectER10TYDImgRectItE
libocr-ydblock.so.0:_ZN10CYDBWImage10ProjectionERSt6vectorItSaItEE10TYDImgRectItEiti
libocr-ydblock.so.0:_ZN10CYDBWImage10RanExtractERSt6vectorI9TYDImgRanItESaIS2_EEtttiit
libocr-ydblock.so.0:_ZN10CYDBWImage10RanToFrameER12CYDFramePackPSt6vectorI14TYDImgRan2PlusItESaIS4_EES7_ti
libocr-ydblock.so.0:_ZN10CYDBWImage11FilletRect2ER10TYDImgRectItE
libocr-ydblock.so.0:_ZN10CYDBWImage11HRanExtractEPSt6vectorI13TYDImgRanPlusItESaIS2_EEttt
libocr-ydblock.so.0:_ZN10CYDBWImage11HRanExtractEPSt6vectorI14TYDImgRan2PlusItESaIS2_EEttt
libocr-ydblock.so.0:_ZN10CYDBWImage11HRanExtractERSt6vectorI9TYDImgRanItESaIS2_EEttt
libocr-ydblock.so.0:_ZN10CYDBWImage11LabelingRanERSt6vectorI14TYDImgRectPlusItESaIS2_EEP10TYDImgRectItEiiiPS_
libocr-ydblock.so.0:_ZN10CYDBWImage11RanToFrame2ER12CYDFramePackR8CRunListS3_ti
libocr-ydblock.so.0:_ZN10CYDBWImage11SegmentInitERSt6vectorI10TYDImgRectItESaIS2_EEPS2_iiiPS_
libocr-ydblock.so.0:_ZN10CYDBWImage11VRanExtractEPSt6vectorI13TYDImgRanPlusItESaIS2_EEttt
libocr-ydblock.so.0:_ZN10CYDBWImage11VRanExtractEPSt6vectorI14TYDImgRan2PlusItESaIS2_EEttt
libocr-ydblock.so.0:_ZN10CYDBWImage11VRanExtractERSt6vectorI9TYDImgRanItESaIS2_EEttt
libocr-ydblock.so.0:_ZN10CYDBWImage12AcquireImageEPhjP10TYDImgRectItE
libocr-ydblock.so.0:_ZN10CYDBWImage12LocalErosionEP10TYDImgRectItE
libocr-ydblock.so.0:_ZN10CYDBWImage13DrawFrameRectE10TYDImgRectItE
libocr-ydblock.so.0:_ZN10CYDBWImage13LocalDilationEP10TYDImgRectItE
libocr-ydblock.so.0:_ZN10CYDBWImage14EraseFrameRectE10TYDImgRectItE
libocr-ydblock.so.0:_ZN10CYDBWImage15SegmentLineRectERSt6vectorI10TYDImgRectItESaIS2_EEtiPS2_i
libocr-ydblock.so.0:_ZN10CYDBWImage16CounterClockwiseEv
libocr-ydblock.so.0:_ZN10CYDBWImage16HWhiteRanExtractERSt6vectorI9TYDImgRanItESaIS2_EEttt
libocr-ydblock.so.0:_ZN10CYDBWImage16LabelingLineRectERSt6vectorI14TYDImgRectPlusItESaIS2_EEtiP10TYDImgRectItEi
libocr-ydblock.so.0:_ZN10CYDBWImage16LocalLabelingRanER12CYDFramePack10TYDImgRectItEiiiiPS_
libocr-ydblock.so.0:_ZN10CYDBWImage16VWhiteRanExtractERSt6vectorI9TYDImgRanItESaIS2_EEttt
libocr-ydblock.so.0:_ZN10CYDBWImage19ConvertOutlineImageE10TYDImgRectItE
libocr-ydblock.so.0:_ZN10CYDBWImage19RanToFrame_4ConnectER12CYDFramePackPSt6vectorI14TYDImgRan2PlusItESaIS4_EES7_ti
libocr-ydblock.so.0:_ZN10CYDBWImage20ConvertThinningImageEP10TYDImgRectItE
libocr-ydblock.so.0:_ZN10CYDBWImage20RanToFrame_4Connect2ER12CYDFramePackR8CRunListS3_ti
libocr-ydblock.so.0:_ZN10CYDBWImage21LocalLabelingLineRectER12CYDFramePackti10TYDImgRectItEii
libocr-ydblock.so.0:_ZN10CYDBWImage4DrawE10TYDImgRectItE
libocr-ydblock.so.0:_ZN10CYDBWImage4DrawEtRSt6vectorI9TYDImgRanItESaIS2_EEi
libocr-ydblock.so.0:_ZN10CYDBWImage4DrawEtt
libocr-ydblock.so.0:_ZN10CYDBWImage4DrawEttti
libocr-ydblock.so.0:_ZN10CYDBWImage5EraseE10TYDImgRectItE
libocr-ydblock.so.0:_ZN10CYDBWImage5EraseEtRSt6vectorI9TYDImgRanItESaIS2_EEi
libocr-ydblock.so.0:_ZN10CYDBWImage5EraseEtt
libocr-ydblock.so.0:_ZN10CYDBWImage5EraseEttti
libocr-ydblock.so.0:_ZN10CYDBWImage6ReDrawEtRSt6vectorI9TYDImgRanItESaIS2_EEiPS2_
libocr-ydblock.so.0:_ZN10CYDBWImage7ClosingEP10TYDImgRectItEPS_P9TYDImgPosItE
libocr-ydblock.so.0:_ZN10CYDBWImage7ErosionEP10TYDImgRectItEPS_P9TYDImgPosItE
libocr-ydblock.so.0:_ZN10CYDBWImage7OpeningEP10TYDImgRectItEPS_P9TYDImgPosItE
libocr-ydblock.so.0:_ZN10CYDBWImage7ReverseE10TYDImgRectItE
libocr-ydblock.so.0:_ZN10CYDBWImage7ReverseEtRSt6vectorI9TYDImgRanItESaIS2_EEi
libocr-ydblock.so.0:_ZN10CYDBWImage7ReverseEtt
libocr-ydblock.so.0:_ZN10CYDBWImage7ReverseEttti
libocr-ydblock.so.0:_ZN10CYDBWImage8CopyRectERS_10TYDImgRectItE
libocr-ydblock.so.0:_ZN10CYDBWImage8DeletePtEPii
libocr-ydblock.so.0:_ZN10CYDBWImage8DilationEP10TYDImgRectItEPS_P9TYDImgPosItE
libocr-ydblock.so.0:_ZN10CYDBWImage8MemoryOrEPvPKvtt
libocr-ydblock.so.0:_ZN10CYDBWImage8TrimRectE10TYDImgRectItE
libocr-ydblock.so.0:_ZN10CYDBWImage9ClockwiseEv
libocr-ydblock.so.0:_ZN10CYDBWImage9GradationEt
libocr-ydblock.so.0:_ZN10CYDBWImage9MemoryAndEPvPKvtt
libocr-ydblock.so.0:_ZN10CYDBWImage9NumOfBitsEi
libocr-ydblock.so.0:_ZN11CBL_DropCap11DropCapDoneEjjj
libocr-ydblock.so.0:_ZN11CBL_DropCap12check_cond_1EP11BLFRAME_EXP
libocr-ydblock.so.0:_ZN11CBL_DropCap12check_cond_2EP11BLFRAME_EXP
libocr-ydblock.so.0:_ZN11CBL_DropCap12check_cond_3EjPjPd
libocr-ydblock.so.0:_ZN11CBL_DropCap12check_cond_4Ejj
libocr-ydblock.so.0:_ZN11CBL_DropCap12check_cond_5Ejjd
libocr-ydblock.so.0:_ZN11CBL_DropCap16separate_DropCapEjjjjj
libocr-ydblock.so.0:_ZN11CYDBMPImage14OutputBMPImageEPKc
libocr-ydblock.so.0:_ZN12CBL_CheckPic16CheckPicTableImgE10TYDImgRectItE
libocr-ydblock.so.0:_ZN12CBL_CheckPic20Do_CheckPicTableImg1E10TYDImgRectItER14CBL_ImageParam
libocr-ydblock.so.0:_ZN12CBL_CheckPic20Do_CheckPicTableImg2E10TYDImgRectItER14CBL_ImageParam
libocr-ydblock.so.0:_ZN12CBL_SameLine10BeLongLineEP11BLFRAME_EXPjjjjj10TYDImgRectItEjPjPiR12CBL_CheckPic
libocr-ydblock.so.0:_ZN12CBL_SameLine11true_sikiriEP11BLFRAME_EXPjj
libocr-ydblock.so.0:_ZN12CBL_SameLine12BeLongLine01EP11BLFRAME_EXPRSt6vectorIjSaIjEEjj10TYDImgRectItERjS8_S8_S8_R12CBL_CheckPic
libocr-ydblock.so.0:_ZN12CBL_SameLine12BeLongLine02EP11BLFRAME_EXPRSt6vectorIjSaIjEEjj10TYDImgRectItERjS8_S8_S8_R12CBL_CheckPic
libocr-ydblock.so.0:_ZN12CBL_SameLine12ChangeHanteiEP11BLFRAME_EXPjPj
libocr-ydblock.so.0:_ZN12CBL_SameLine12GetFirstLineEP11BLFRAME_EXPj
libocr-ydblock.so.0:_ZN12CBL_SameLine12SameLineDoneEP11BLFRAME_EXPPjjjjj10TYDImgRectItER12CBL_CheckPic
libocr-ydblock.so.0:_ZN12CBL_SameLine13CheckAndCountEP11BLFRAME_EXPS1_RjS2_S2_S2_
libocr-ydblock.so.0:_ZN12CBL_SameLine13DoForTdwoLineEP11BLFRAME_EXPjj
libocr-ydblock.so.0:_ZN12CBL_SameLine15MergeGroupFrameEP11BLFRAME_EXPjjj
libocr-ydblock.so.0:_ZN12CBL_SameLine17GetMostNearObjectEP11BLFRAME_EXPjPjS2_j10TYDImgRectItEjRSt6vectorIjSaIjEE
libocr-ydblock.so.0:_ZN12CBL_SameLine18BeLongLineFromParaEP11BLFRAME_EXPjjjjjj10TYDImgRectItEjPjPijR12CBL_CheckPic
libocr-ydblock.so.0:_ZN12CBL_SameLine18GetMostNear2ObjectEP11BLFRAME_EXPjPjS2_j10TYDImgRectItEjRSt6vectorIjSaIjEE
libocr-ydblock.so.0:_ZN12CBL_SameLine18JobAfterConnectingEP11BLFRAME_EXPjjjj
libocr-ydblock.so.0:_ZN12CBL_SameLine18SplitUnKnownObjectEP11BLFRAME_EXPjjjjPi
libocr-ydblock.so.0:_ZN12CBL_SameLine19CheckUnKnownConnectEP11BLFRAME_EXPj
libocr-ydblock.so.0:_ZN12CBL_SameLine19true_noise_dot_lineEP11BLFRAME_EXPjj
libocr-ydblock.so.0:_ZN12CBL_SameLine20CheckUnKnownConnect2EP11BLFRAME_EXPj
libocr-ydblock.so.0:_ZN12CBL_SameLine20DoSplitUnKnownObjectEP11BLFRAME_EXPjjjj
libocr-ydblock.so.0:_ZN12CBL_SameLine20SameLineDoneFromParaER10CYDPrmdataR14BLIMG_DOC_V8_tP11BLFRAME_EXPPjjjjjjj10TYDImgRectItER14CBL_ImageParamR12CBL_CheckPic
libocr-ydblock.so.0:_ZN12CBL_SameLine21Research_SIKIRI_NOIZEEP11BLFRAME_EXPjjj
libocr-ydblock.so.0:_ZN12CBL_SameLine21SetRegionAndGetFrame2EP11BLFRAME_EXPj10TYDImgRectItEPS3_S3_RSt6vectorIjSaIjEEjjjjj
libocr-ydblock.so.0:_ZN12CBL_SameLine21SetRegionAndGetFrame3EP11BLFRAME_EXPj10TYDImgRectItEPS3_S3_RSt6vectorIjSaIjEEjjjjj
libocr-ydblock.so.0:_ZN12CBL_SameLine22CheckNewRegionCrossPicEP11BLFRAME_EXPjjjR12CBL_CheckPic
libocr-ydblock.so.0:_ZN12CBL_SameLine22DoSameLineDoneFromParaEP11BLFRAME_EXPPjjjjj10TYDImgRectItEPijR14CBL_ImageParamR12CBL_CheckPic
libocr-ydblock.so.0:_ZN12CBL_SameLine22SetAmountOfLinesInParaEP11BLFRAME_EXPj
libocr-ydblock.so.0:_ZN12CBL_SameLine22true_noise_in_sentenceEP11BLFRAME_EXPjj
libocr-ydblock.so.0:_ZN12CBL_SameLine24SetOrientForUnKnownGroupEP11BLFRAME_EXPjjj
libocr-ydblock.so.0:_ZN12CBL_SameLine25ReCreateParaWithFedwLinesEP11BLFRAME_EXPjj
libocr-ydblock.so.0:_ZN12CBL_SameLine25ReCreateParaWithFedwWordsEP11BLFRAME_EXPj
libocr-ydblock.so.0:_ZN12CBL_SameLine25find_most_near_para_part2EP11BLFRAME_EXP10TYDImgRectItEjPjS4_S4_S4_
libocr-ydblock.so.0:_ZN12CBL_SameLine29CalcGetAverageWordsCntInALineEP11BLFRAME_EXPjPd
libocr-ydblock.so.0:_ZN12CBL_SameLine33SetOrientForUnKnownGroup_StageNo2EP11BLFRAME_EXPjjj
libocr-ydblock.so.0:_ZN12CBL_SameLine8InitParaEP11BLFRAME_EXPjjj
libocr-ydblock.so.0:_ZN13CBL_BlackInfo11CheckBI_001Ev
libocr-ydblock.so.0:_ZN13CBL_BlackInfo11CheckBI_003Ev
libocr-ydblock.so.0:_ZN13CBL_BlackInfo11CheckBI_00aEv
libocr-ydblock.so.0:_ZN13CBL_BlackInfo11CheckBI_014Ev
libocr-ydblock.so.0:_ZN13CBL_BlackInfo11investationE10TYDImgRectItEjPjS2_i
libocr-ydblock.so.0:_ZN13CBL_BlackInfo13get_long_longEPjjjS0_S0_
libocr-ydblock.so.0:_ZN13CBL_BlackInfo14check_fukuzatuEv
libocr-ydblock.so.0:_ZN13CBL_BlackInfo14get_run_info_xE10TYDImgRectItEPjS2_
libocr-ydblock.so.0:_ZN13CBL_BlackInfo14get_run_info_yE10TYDImgRectItEPjS2_
libocr-ydblock.so.0:_ZN13CBL_BlackInfo15get_black_blackE10TYDImgRectItEjPj
libocr-ydblock.so.0:_ZN13CBL_BlackInfo15get_run_info2_xE10TYDImgRectItEPjj
libocr-ydblock.so.0:_ZN13CBL_BlackInfo15get_run_info2_yE10TYDImgRectItEPjj
libocr-ydblock.so.0:_ZN13CBL_BlackInfo18check_fukuzatu_001Ev
libocr-ydblock.so.0:_ZN13CBL_BlackInfo18check_fukuzatu_009Ev
libocr-ydblock.so.0:_ZN13CBL_BlackInfo18get_inner_varianceE10TYDImgRectItEPjS2_i
libocr-ydblock.so.0:_ZN13CBL_BlackInfo19get_long_run_lengthE10TYDImgRectItEPjS2_i
libocr-ydblock.so.0:_ZN13CBL_BlackInfo29get_inner_variance_short_sideE10TYDImgRectItEPjS2_i
libocr-ydblock.so.0:_ZN13CBL_BlackInfo8get_infoE10TYDImgRectItEiR10CYDBWImagePjS4_
libocr-ydblock.so.0:_ZN13CBL_CheckItem11check_countEjj
libocr-ydblock.so.0:_ZN13CBL_CheckItem11check_itemsEP11BLFRAME_EXPPjjjj
libocr-ydblock.so.0:_ZN13CBL_CheckItem14get_items_likeEP11BLFRAME_EXPjRSt6vectorIjSaIjEE
libocr-ydblock.so.0:_ZN13CBL_CheckItem14set_NearRegionEP11BLFRAME_EXPjP10TYDImgRectItE
libocr-ydblock.so.0:_ZN13CBL_CheckItem19check_in_NearRegionEP11BLFRAME_EXPjRSt6vectorIjSaIjEEPj
libocr-ydblock.so.0:_ZN13CBL_CheckItem19store_line_in_ArrayEP11BLFRAME_EXPjRSt6vectorIjSaIjEE
libocr-ydblock.so.0:_ZN13CBL_CheckItem20calc_project_in_paraEP11BLFRAME_EXPjPj
libocr-ydblock.so.0:_ZN13CBL_CheckItem23count_good_relationshipEP11BLFRAME_EXPjPjRSt6vectorIjSaIjEES2_S2_
libocr-ydblock.so.0:_ZN13CBL_CheckItem28change_tateyoko_set_unknodwnEP11BLFRAME_EXPjjj
libocr-ydblock.so.0:_ZN13CYDThreadPool10GetCommandEv
libocr-ydblock.so.0:_ZN13CYDThreadPool12WorkerThreadEPv
libocr-ydblock.so.0:_ZN13CYDThreadPool13RingingChimesEi
libocr-ydblock.so.0:_ZN13CYDThreadPool5StoreEP10CYDCommand
libocr-ydblock.so.0:_ZN13CYDThreadPool7ExecuteEv
libocr-ydblock.so.0:_ZN13CYDThreadPoolC1Ei
libocr-ydblock.so.0:_ZN13CYDThreadPoolC2Ei
libocr-ydblock.so.0:_ZN13CYDThreadPoolD0Ev
libocr-ydblock.so.0:_ZN13CYDThreadPoolD1Ev
libocr-ydblock.so.0:_ZN13CYDThreadPoolD2Ev
libocr-ydblock.so.0:_ZN14CBL_RegionInfo11check_kakoiEP7BLFRAMEj10TYDImgRectItEjjjj
libocr-ydblock.so.0:_ZN14CBL_RegionInfo12check_kakoi2EP7BLFRAMEj10TYDImgRectItEjjjj
libocr-ydblock.so.0:_ZN14CBL_RegionInfo14GetMostLRFrameEP7BLFRAMEjjRjS2_
libocr-ydblock.so.0:_ZN14CBL_RegionInfo14GetMostTBFrameEP7BLFRAMEjjRjS2_
libocr-ydblock.so.0:_ZN14CBL_RegionInfo16GetMostLRFrame02EP7BLFRAMEjjRjS2_
libocr-ydblock.so.0:_ZN14CBL_RegionInfo16GetMostTBFrame02EP7BLFRAMEjjRjS2_
libocr-ydblock.so.0:_ZN14CBL_RegionInfo20get_normal_frame_cntEP7BLFRAME10TYDImgRectItE
libocr-ydblock.so.0:_ZN14CBL_RegionInfo25get_total_black_chocolateER14CBL_ImageParam10TYDImgRectItE
libocr-ydblock.so.0:_ZN14CBL_RegionInfo26calc_total_pixel_in_regionEPhR14CBL_ImageParam10TYDImgRectItEPj
libocr-ydblock.so.0:_ZN14CBL_RegionInfo27IsThisTable_get_region_infoEP7BLFRAME10TYDImgRectItEjjjjjjR14CBL_ImageParamj
libocr-ydblock.so.0:_ZN14CBL_SplitGroup12DoSplitGroupEP11BLFRAME_EXPjjjtt
libocr-ydblock.so.0:_ZN14CBL_SplitGroup17DoSplitGroup_saveEP11BLFRAME_EXPjjRSt6vectorI12CBL_GroupBufSaIS3_EE
libocr-ydblock.so.0:_ZN14CBL_SplitGroup17ReportSplitResultEP11BLFRAME_EXPjjjjj
libocr-ydblock.so.0:_ZN14CBL_SplitGroup17SplitGroup_Stage0EP11BLFRAME_EXPjjjjjjj
libocr-ydblock.so.0:_ZN14CBL_SplitGroup18DoSplitGroup_groupERSt6vectorI12CBL_GroupBufSaIS1_EE
libocr-ydblock.so.0:_ZN14CYDBWImageTool6RanAndER8CRunListS1_S1_
libocr-ydblock.so.0:_ZN15CBL_CheckParaV810get_side_AEP11BLFRAME_EXPjjjRSt6vectorIjSaIjEES5_S5_j
libocr-ydblock.so.0:_ZN15CBL_CheckParaV812check_lengthEP11BLFRAME_EXPjjj
libocr-ydblock.so.0:_ZN15CBL_CheckParaV812get_side_no2EP11BLFRAME_EXPjjjRSt6vectorIjSaIjEES5_j
libocr-ydblock.so.0:_ZN15CBL_CheckParaV814check_line_cntEj
libocr-ydblock.so.0:_ZN15CBL_CheckParaV814record_Up_ParaEP11BLFRAME_EXPjj
libocr-ydblock.so.0:_ZN15CBL_CheckParaV815check_hodw_tateEP11BLFRAME_EXPjjRSt6vectorIjSaIjEES5_
libocr-ydblock.so.0:_ZN15CBL_CheckParaV815check_hodw_yokoEP11BLFRAME_EXPjjRSt6vectorIjSaIjEES5_
libocr-ydblock.so.0:_ZN15CBL_CheckParaV815check_para_ver8EP11BLFRAME_EXPjjj
libocr-ydblock.so.0:_ZN15CBL_CheckParaV815get_cover_up_IDEP11BLFRAME_EXPjjRSt6vectorIjSaIjEEPj
libocr-ydblock.so.0:_ZN15CBL_CheckParaV816record_Left_ParaEP11BLFRAME_EXPjj
libocr-ydblock.so.0:_ZN15CBL_CheckParaV817get_cover_left_IDEP11BLFRAME_EXPjjRSt6vectorIjSaIjEEPj
libocr-ydblock.so.0:_ZN15CBL_CheckParaV817record_Dodwn_ParaEP11BLFRAME_EXPjj
libocr-ydblock.so.0:_ZN15CBL_CheckParaV817record_Right_ParaEP11BLFRAME_EXPjj
libocr-ydblock.so.0:_ZN15CBL_CheckParaV817record_dwTmp3_no2EP11BLFRAME_EXPjRSt6vectorIjSaIjEE
libocr-ydblock.so.0:_ZN15CBL_CheckParaV818get_cover_dodwn_IDEP11BLFRAME_EXPjjRSt6vectorIjSaIjEEPj
libocr-ydblock.so.0:_ZN15CBL_CheckParaV818get_cover_right_IDEP11BLFRAME_EXPjjRSt6vectorIjSaIjEEPj
libocr-ydblock.so.0:_ZN15CBL_CheckParaV818record_dwTmp3_tateEP11BLFRAME_EXPjj
libocr-ydblock.so.0:_ZN15CBL_CheckParaV818record_dwTmp3_yokoEP11BLFRAME_EXPjj
libocr-ydblock.so.0:_ZN15CBL_CheckParaV819check_para_ver8_no2EP11BLFRAME_EXPjj
libocr-ydblock.so.0:_ZN15CBL_CheckParaV819check_para_ver8_no3EP11BLFRAME_EXPj
libocr-ydblock.so.0:_ZN15CBL_CheckParaV819check_para_ver8_no4EP11BLFRAME_EXPj
libocr-ydblock.so.0:_ZN15CBL_CheckParaV821check_upper_pic_tableEP11BLFRAME_EXPjjj
libocr-ydblock.so.0:_ZN15CBL_CheckParaV89check_no2EP11BLFRAME_EXPjRSt6vectorIjSaIjEES5_
libocr-ydblock.so.0:_ZN15CBL_ModifyBlock13CheckTateLineERSt6vectorI10TYDImgRectItESaIS2_EES2_
libocr-ydblock.so.0:_ZN15CBL_ModifyBlock13CheckYokoLineERSt6vectorI10TYDImgRectItESaIS2_EES2_
libocr-ydblock.so.0:_ZN15CBL_ModifyBlock13ExtractRegionERSt6vectorI10TYDImgRectItESaIS2_EES2_
libocr-ydblock.so.0:_ZN15CBL_ModifyBlock17RescueTableRegionEv
libocr-ydblock.so.0:_ZN15CBL_ModifyBlock20LocalModifyBlockMainEv
libocr-ydblock.so.0:_ZN15CBL_ModifyBlock26RescueOrnamentalCharRegionEv
libocr-ydblock.so.0:_ZN15CCapitalToSmall7ConvertEt
libocr-ydblock.so.0:_ZN15CSmallToCapital7ConvertEt
libocr-ydblock.so.0:_ZN16CBL_FrameManager11GetFrame_V8EPj
libocr-ydblock.so.0:_ZN16CBL_FrameManager13init_frame_V8Ev
libocr-ydblock.so.0:_ZN16CBL_FrameManager14CopyStatusFlagEP8tagFRAMEP7BLFRAME
libocr-ydblock.so.0:_ZN16CBL_FrameManager14DeleteFrame_V8Ej
libocr-ydblock.so.0:_ZN16CBL_FrameManager15ending_frame_V8Ev
libocr-ydblock.so.0:_ZN16CBL_FrameManager17get_head_frame_V8Ev
libocr-ydblock.so.0:_ZN16CBL_FrameManager23copy_to_old_frame_styleEPv
libocr-ydblock.so.0:_ZN16CBL_FrameManager25check_dangerous_frame_cntEj
libocr-ydblock.so.0:_ZN16CBL_FrameManager27reallocate_and_replace_dataEv
libocr-ydblock.so.0:_ZN16CBL_SegmentBlock13CheckDocStyleER8CBL_Page
libocr-ydblock.so.0:_ZN16CBL_SegmentBlock14AppendImgBlockER8CBL_Page
libocr-ydblock.so.0:_ZN16CBL_SegmentBlock14AppendTblBlockER8CBL_Page
libocr-ydblock.so.0:_ZN16CBL_SegmentBlock14DecideTblStyleER10CYDPrmdata10TYDImgRectItE
libocr-ydblock.so.0:_ZN16CBL_SegmentBlock14DeleteImageRgnER10CYDPrmdataP16CBL_FrameManager
libocr-ydblock.so.0:_ZN16CBL_SegmentBlock15ChangeBlockKindEP10CYDBWImageR8CBL_Page
libocr-ydblock.so.0:_ZN16CBL_SegmentBlock15CreateBlockListEP16CBL_FrameManagerR8CBL_Page
libocr-ydblock.so.0:_ZN16CBL_SegmentBlock15EAD_SegmentInitEP16CBL_FrameManagerP10CYDBWImageS3_S3_10TYDImgRectIjERSt6vectorI14TYDImgRectPlusItESaIS8_EE
libocr-ydblock.so.0:_ZN16CBL_SegmentBlock16DoDecideTblStyleE10TYDImgRectItE
libocr-ydblock.so.0:_ZN16CBL_SegmentBlock16OcrExecuteTblDivER10CYDPrmdata
libocr-ydblock.so.0:_ZN16CBL_SegmentBlock18OcrExecuteAutoDiveER10CYDPrmdataP12IBL_ProgressP20CBL_EnvironmentValueP10CYDBWImageRSt6vectorI11CBL_PrmDataSaIS9_EE
libocr-ydblock.so.0:_ZN16CBL_SegmentBlock18SegmentBlockChrRgnEP16CBL_FrameManagerR10CYDPrmdataP12IBL_ProgressP20CBL_EnvironmentValueP10CYDBWImage
libocr-ydblock.so.0:_ZN16CBL_SegmentBlock18SegmentBlockTblRgnEP16CBL_FrameManagerR10CYDPrmdata
libocr-ydblock.so.0:_ZN16CBL_SegmentBlock21LocalSegmentBlockMainEP20CBL_EnvironmentValue
libocr-ydblock.so.0:_ZN16CBL_SegmentBlock21SegmentBlockAnyRegionER10CYDPrmdataP12IBL_ProgressP20CBL_EnvironmentValueP10CYDBWImage
libocr-ydblock.so.0:_ZN16CBL_SegmentBlock22RescueTouchedCharacterER10CYDPrmdataP16CBL_FrameManager
libocr-ydblock.so.0:_ZN16CBL_SegmentBlock22SegmentCharRegion_Ver9EP20CBL_EnvironmentValueP10CYDBWImage10TYDImgRectItERSt6vectorIS5_SaIS5_EE
libocr-ydblock.so.0:_ZN16CBL_SegmentBlock25AppendOrnamentalCharBlockER8CBL_Page
libocr-ydblock.so.0:_ZN16CBL_SegmentBlock28SegmentBlockOrnamentalChrRgnEP16CBL_FrameManagerR10CYDPrmdataP12IBL_ProgressP20CBL_EnvironmentValueP10CYDBWImage
libocr-ydblock.so.0:_ZN16CBL_SegmentBlock36RegionKindCorrectionUsingEdgeEntropyERSt6vectorI11CBL_PrmDataSaIS1_EE
libocr-ydblock.so.0:_ZN16CBL_SegmentBlock52cancel_flag_IDFRM_LARGE_IDFRM_LARGE2_notIDFRM_ACTIVEEP16CBL_FrameManager
libocr-ydblock.so.0:_ZN16CBL_SegmentBlock8copy_imgEPhS0_jj
libocr-ydblock.so.0:_ZN17CBL_KeyWordCommon14WhichFirstReadEP11BLFRAME_EXPjjPjS2_j
libocr-ydblock.so.0:_ZN17CBL_KeyWordCommon15get_first_blackEP11BLFRAME_EXPjjjRSt6vectorIjSaIjEEPhj
libocr-ydblock.so.0:_ZN17CBL_KeyWordCommon15get_total_blackEPhjPjjjS1_
libocr-ydblock.so.0:_ZN17CBL_KeyWordCommon16get_second_blackEP11BLFRAME_EXPjjjRSt6vectorIjSaIjEEPhj
libocr-ydblock.so.0:_ZN17CBL_KeyWordCommon18GetFramesInRegionsEP11BLFRAME_EXP10TYDImgRectItEjS3_jRSt6vectorIjSaIjEES7_jjj
libocr-ydblock.so.0:_ZN17CBL_KeyWordCommon18GetFramesInRegionsEP11BLFRAME_EXP10TYDImgRectItEjS3_jRSt6vectorIjSaIjEES7_jjjj
libocr-ydblock.so.0:_ZN17CBL_KeyWordCommon27get_cross_cnt_on_first_sideEjP11BLFRAME_EXPjRSt6vectorIjSaIjEEPj
libocr-ydblock.so.0:_ZN17CBL_KeyWordCommon28get_cross_cnt_on_second_sideEjP11BLFRAME_EXPjRSt6vectorIjSaIjEEPj
libocr-ydblock.so.0:_ZN17CBL_KeyWordCommon29get_attribute_about_separate2EP11BLFRAME_EXPjjjRSt6vectorIjSaIjEES5_PjS6_S6_S6_j
libocr-ydblock.so.0:_ZN17CBL_KeyWordCommon36get_attribute_about_small_line_firstEP11BLFRAME_EXPjjjRSt6vectorIjSaIjEEPjS6_PiS7_
libocr-ydblock.so.0:_ZN17CBL_KeyWordCommon9SetRegionEP11BLFRAME_EXPjjP10TYDImgRectItES4_j
libocr-ydblock.so.0:_ZN17CBL_ParagraphDone10ValidCheckER14BLIMG_DOC_V8_tP11BLFRAME_EXPjj10TYDImgRectItEjjR12CBL_CheckPic
libocr-ydblock.so.0:_ZN17CBL_ParagraphDone11ConnectParaEP11BLFRAME_EXPjj
libocr-ydblock.so.0:_ZN17CBL_ParagraphDone14GetMostNearOneEP11BLFRAME_EXPj10TYDImgRectItERSt6vectorIjSaIjEEPjS3_jj
libocr-ydblock.so.0:_ZN17CBL_ParagraphDone19SetOrientToUnKnodwnEP11BLFRAME_EXPRSt6vectorIjSaIjEEj
libocr-ydblock.so.0:_ZN17CBL_ParagraphDone20ParagraphDone_StageXER14BLIMG_DOC_V8_tP11BLFRAME_EXPjj10TYDImgRectItEjR12CBL_CheckPic
libocr-ydblock.so.0:_ZN17CBL_ParagraphDone21SetRegionAndGetFramesEP11BLFRAME_EXPjP10TYDImgRectItEjjRSt6vectorIjSaIjEEjjS3_j
libocr-ydblock.so.0:_ZN17CBL_ParagraphDone24DoExpandParagraph_StageXER14BLIMG_DOC_V8_tP11BLFRAME_EXPjjj10TYDImgRectItEjjR12CBL_CheckPic
libocr-ydblock.so.0:_ZN17CBL_ParagraphDone24ValidSameParagraphFrame2ER14BLIMG_DOC_V8_tP11BLFRAME_EXPjjjjR12CBL_CheckPic
libocr-ydblock.so.0:_ZN17CBL_ParagraphDone25DoExpandParagraph2_StageXER14BLIMG_DOC_V8_tP11BLFRAME_EXPjjj10TYDImgRectItEjPjjR12CBL_CheckPic
libocr-ydblock.so.0:_ZN17CBL_ParagraphDone33MarkNextConnect2AndJudgeToConnectEP11BLFRAME_EXPjjjPiRSt6vectorIjSaIjEE
libocr-ydblock.so.0:_ZN17CBL_PaticalLayout10MakeSourceEP20CBL_EnvironmentValueP11BLFRAME_EXPjjttj10TYDImgRectItE
libocr-ydblock.so.0:_ZN17CBL_PaticalLayout11IgnoreGroupEtt
libocr-ydblock.so.0:_ZN17CBL_PaticalLayout11MergeFramesEP11BLFRAME_EXPjjjj
libocr-ydblock.so.0:_ZN17CBL_PaticalLayout12SeparateLineEP11BLFRAME_EXPjjjjj
libocr-ydblock.so.0:_ZN17CBL_PaticalLayout13CheckTateYokoEP11BLFRAME_EXPjPj
libocr-ydblock.so.0:_ZN17CBL_PaticalLayout13CutSmallFrameEP11BLFRAME_EXPjj10TYDImgRectItE
libocr-ydblock.so.0:_ZN17CBL_PaticalLayout14CutLineBySharpEP11BLFRAME_EXPjjjj
libocr-ydblock.so.0:_ZN17CBL_PaticalLayout14FromSharpFrameEP11BLFRAME_EXPjRSt6vectorIjSaIjEE
libocr-ydblock.so.0:_ZN17CBL_PaticalLayout14FromSharpGroupEP11BLFRAME_EXPjRSt6vectorIjSaIjEE
libocr-ydblock.so.0:_ZN17CBL_PaticalLayout14Special_StageAEP11BLFRAME_EXPjjj
libocr-ydblock.so.0:_ZN17CBL_PaticalLayout15NeedMoreProcessEP11BLFRAME_EXPj
libocr-ydblock.so.0:_ZN17CBL_PaticalLayout15SelectCharFrameEP20CBL_EnvironmentValueP11BLFRAME_EXPjtt
libocr-ydblock.so.0:_ZN17CBL_PaticalLayout15SetStageXEnviroEP11BLFRAME_EXPRjS2_jjtjPj
libocr-ydblock.so.0:_ZN17CBL_PaticalLayout16DoCutLineBySharpEP11BLFRAME_EXPjjjjRSt6vectorIjSaIjEE
libocr-ydblock.so.0:_ZN17CBL_PaticalLayout16IsThisThinRegionEP11BLFRAME_EXPPhPtS3_10TYDImgRectItE
libocr-ydblock.so.0:_ZN17CBL_PaticalLayout17CheckTateYoko_AAAEP11BLFRAME_EXPjPjt
libocr-ydblock.so.0:_ZN17CBL_PaticalLayout17ForFeedBackLayoutEP11BLFRAME_EXPjjjR12CBL_CheckPic
libocr-ydblock.so.0:_ZN17CBL_PaticalLayout17PaticalLayoutDoneEP20CBL_EnvironmentValueRSt6vectorI10TYDImgRectItESaIS4_EEP11BLFRAME_EXPjjjjjS4_jjjjjjjR12CBL_CheckPic
libocr-ydblock.so.0:_ZN17CBL_PaticalLayout17SplitAgain_Stage0EP11BLFRAME_EXPjjjtt
libocr-ydblock.so.0:_ZN17CBL_PaticalLayout17SplitGroup_StageFEP11BLFRAME_EXPjjjjj
libocr-ydblock.so.0:_ZN17CBL_PaticalLayout18ConsiderSplitGroupEP11BLFRAME_EXPjj
libocr-ydblock.so.0:_ZN17CBL_PaticalLayout18SetAddFrameToArrayEP11BLFRAME_EXPjjRSt6vectorIjSaIjEE
libocr-ydblock.so.0:_ZN17CBL_PaticalLayout19DoGroupJudge_StageEEP11BLFRAME_EXPj
libocr-ydblock.so.0:_ZN17CBL_PaticalLayout19LetsHarvestFestivalEP11BLFRAME_EXPjjjjj
libocr-ydblock.so.0:_ZN17CBL_PaticalLayout20CheckTateYokoFirst_BEP11BLFRAME_EXPjPj
libocr-ydblock.so.0:_ZN17CBL_PaticalLayout20CheckTateYokoFirst_CEP11BLFRAME_EXPjPj
libocr-ydblock.so.0:_ZN17CBL_PaticalLayout20CheckTateYokoFirst_DEP11BLFRAME_EXPjPj
libocr-ydblock.so.0:_ZN17CBL_PaticalLayout20CheckTateYokoFirst_EEP11BLFRAME_EXPjPj
libocr-ydblock.so.0:_ZN17CBL_PaticalLayout20IsThisOneLine_StageBEP11BLFRAME_EXPjPj
libocr-ydblock.so.0:_ZN17CBL_PaticalLayout20IsThisOneLine_StageCEP11BLFRAME_EXPjPj
libocr-ydblock.so.0:_ZN17CBL_PaticalLayout20IsThisOneLine_StageDEP11BLFRAME_EXPjPj
libocr-ydblock.so.0:_ZN17CBL_PaticalLayout20IsThisOneLine_StageEEP11BLFRAME_EXPjPj
libocr-ydblock.so.0:_ZN17CBL_PaticalLayout20SpecialJudgeStageF_AEP11BLFRAME_EXPjj
libocr-ydblock.so.0:_ZN17CBL_PaticalLayout22DecideOrinetForMyWorldEP11BLFRAME_EXPjPj
libocr-ydblock.so.0:_ZN17CBL_PaticalLayout22InfectionSpecialOrientEP11BLFRAME_EXPjj
libocr-ydblock.so.0:_ZN17CBL_PaticalLayout23CalcOverlapFrequencyNewERSt6vectorI10TYDImgRectItESaIS2_EEtt
libocr-ydblock.so.0:_ZN17CBL_PaticalLayout23DoGroupAttribute_Stage0EP11BLFRAME_EXPjt
libocr-ydblock.so.0:_ZN17CBL_PaticalLayout23InvestigationOfTateYokoEP11BLFRAME_EXPjPj
libocr-ydblock.so.0:_ZN17CBL_PaticalLayout24PaticalLayoutStageX_CoreEP11BLFRAME_EXPRjS2_S2_S2_PjttR12CBL_CheckPic
libocr-ydblock.so.0:_ZN17CBL_PaticalLayout25NeedMoreProcess_Cross_PicEP11BLFRAME_EXPjR12CBL_CheckPic
libocr-ydblock.so.0:_ZN17CBL_PaticalLayout27DoGroupAttributeMore_StageCEP11BLFRAME_EXPj
libocr-ydblock.so.0:_ZN17CBL_PaticalLayout27SetRegionForNeedMoreProcessEP11BLFRAME_EXPP10TYDImgRectItEt
libocr-ydblock.so.0:_ZN17CBL_PaticalLayout38CountFramesCrossCenterRegionAndNoCrossEP11BLFRAME_EXPj10TYDImgRectItEPjS4_S4_
libocr-ydblock.so.0:_ZN17CBL_PaticalLayout8SplitJobEP11BLFRAME_EXPjjjj
libocr-ydblock.so.0:_ZN17CBL_PaticalLayout9IsItCrossEP11BLFRAME_EXPjjjPj
libocr-ydblock.so.0:_ZN17CBL_SameParagraph16SetOrientAllParaEP11BLFRAME_EXPj
libocr-ydblock.so.0:_ZN17CBL_SameParagraph17SameParagraphDoneER14BLIMG_DOC_V8_tP11BLFRAME_EXPjjjjj10TYDImgRectItER12CBL_CheckPic
libocr-ydblock.so.0:_ZN17CBL_SameParagraph18MakeFirstParagraphEP11BLFRAME_EXPjj
libocr-ydblock.so.0:_ZN17CBL_SameParagraph20ClearElementTmp1Tmp2EP11BLFRAME_EXPj
libocr-ydblock.so.0:_ZN17CBL_SameParagraph20MakeIsolateParagraphEP11BLFRAME_EXPjjjj
libocr-ydblock.so.0:_ZN17CBL_SegmentBlockT13SegmentBlockTEP16CBL_FrameManageri10TYDImgRectItER8CBL_Page
libocr-ydblock.so.0:_ZN17CBL_SegmentBlockT15PutOutLineNoiseE10TYDImgRectItEPtt
libocr-ydblock.so.0:_ZN17CBL_SegmentBlockT16CreateProjectionEP16CBL_FrameManager10TYDImgRectItEPtS4_
libocr-ydblock.so.0:_ZN17CBL_SegmentBlockT17PutOutColumnNoiseE10TYDImgRectItEPtt
libocr-ydblock.so.0:_ZN17CBL_SegmentBlockT18PutOutColumnNoise2E10TYDImgRectItEPtt
libocr-ydblock.so.0:_ZN17CBL_SeparateBlock11get_run_cntEP10CYDBWImage10TYDImgRectItEjPjS4_S4_S4_S4_
libocr-ydblock.so.0:_ZN17CBL_SeparateBlock12CheckMergeOkEP11BLFRAME_EXPj10TYDImgRectItEj
libocr-ydblock.so.0:_ZN17CBL_SeparateBlock12InformResultER10CYDPrmdataP11BLFRAME_EXPjR8CBL_Page
libocr-ydblock.so.0:_ZN17CBL_SeparateBlock12SetUpSegmentER10CYDPrmdataP12IBL_ProgressP20CBL_EnvironmentValueP16CBL_FrameManagerP13CBL_ShironukiP10CYDBWImage10TYDImgRectItERSt6vectorISD_SaISD_EESB_R12CBL_CheckPicR8CBL_Page
libocr-ydblock.so.0:_ZN17CBL_SeparateBlock12SpecialPaperEP11BLFRAME_EXPjjj
libocr-ydblock.so.0:_ZN17CBL_SeparateBlock13MergeUnOrientEP11BLFRAME_EXPjjR12CBL_CheckPic
libocr-ydblock.so.0:_ZN17CBL_SeparateBlock13check_run_cntEjj
libocr-ydblock.so.0:_ZN17CBL_SeparateBlock14DoSpecialPaperEP11BLFRAME_EXPjjjjj
libocr-ydblock.so.0:_ZN17CBL_SeparateBlock15GetUnOrientParaEP11BLFRAME_EXPjRSt6vectorIjSaIjEE
libocr-ydblock.so.0:_ZN17CBL_SeparateBlock15InitFrameList01ER14BLIMG_DOC_V8_tP7BLFRAMEP11BLFRAME_EXPi10TYDImgRectItER8CBL_Page
libocr-ydblock.so.0:_ZN17CBL_SeparateBlock15InitImgDocumentER14BLIMG_DOC_V8_tP11BLFRAME_EXP
libocr-ydblock.so.0:_ZN17CBL_SeparateBlock15ProgressReport1EP12IBL_Progresst
libocr-ydblock.so.0:_ZN17CBL_SeparateBlock16DecideBlockStyleEP16CBL_FrameManageri10TYDImgRectItE
libocr-ydblock.so.0:_ZN17CBL_SeparateBlock16InspectionOrientEP11BLFRAME_EXPj10TYDImgRectItE
libocr-ydblock.so.0:_ZN17CBL_SeparateBlock17MergeTwoParagraphEP11BLFRAME_EXPjji
libocr-ydblock.so.0:_ZN17CBL_SeparateBlock17SetHorizonElementEPh10TYDImgRectItERSt6vectorIS2_SaIS2_EE
libocr-ydblock.so.0:_ZN17CBL_SeparateBlock19DoMergeUnOrientParaEP11BLFRAME_EXPjRSt6vectorIjSaIjEEj
libocr-ydblock.so.0:_ZN17CBL_SeparateBlock19set_dwMAX_FRAME_CNTEP16CBL_FrameManagerPj10TYDImgRectItE
libocr-ydblock.so.0:_ZN17CBL_SeparateBlock22test_delete_charregionEP11BLFRAME_EXPjP10CYDBWImagejR8CBL_Page
libocr-ydblock.so.0:_ZN17CBL_SeparateBlock23DeleteFramesInFrameDataEP16CBL_FrameManagerP7BLFRAMEj
libocr-ydblock.so.0:_ZN17CBL_SeparateBlock25IsThisRegionCoveredBySomeEj10TYDImgRectItEP11BLFRAME_EXP
libocr-ydblock.so.0:_ZN17CBL_SeparateBlock27SetSeparaterLineFromElementEP16CBL_FrameManagerP11BLFRAME_EXPjjj10TYDImgRectItER14CBL_ImageParamjS5_
libocr-ydblock.so.0:_ZN17CBL_SeparateBlock36LastModification_DeleteParaInDotLineEP11BLFRAME_EXPjP10CYDBWImagej
libocr-ydblock.so.0:_ZN17CBL_SeparateBlock36get_line_cnt_and_straight_and_lengthEP11BLFRAME_EXPjjPjPdS2_
libocr-ydblock.so.0:_ZN17CBL_SeparateBlock40check_line_and_straight_dwline_length_MMEjdj
libocr-ydblock.so.0:_ZN17CBL_SeparateBlock41RegistrationOfOneBlockAndDecideBlockStyleER10CYDPrmdataP16CBL_FrameManagerR8CBL_Page
libocr-ydblock.so.0:_ZN17CBL_SeparateBlock9Final_JobEP11BLFRAME_EXPjjR12CBL_CheckPic
libocr-ydblock.so.0:_ZN17CCapitalToSmallTR7ConvertEt
libocr-ydblock.so.0:_ZN17CSmallToCapitalTR7ConvertEt
libocr-ydblock.so.0:_ZN18CBL_ExtractElement10HIM_ExpandEP7BLFRAMEjjjjj
libocr-ydblock.so.0:_ZN18CBL_ExtractElement12HIM_GetFrameEP16CBL_FrameManagerPj
libocr-ydblock.so.0:_ZN18CBL_ExtractElement13check_too_bigEjj
libocr-ydblock.so.0:_ZN18CBL_ExtractElement14HIM_MergeFrameEP16CBL_FrameManagerjj
libocr-ydblock.so.0:_ZN18CBL_ExtractElement14HIM_RunRewriteEP14TYDImgRan2PlusIjEjjj
libocr-ydblock.so.0:_ZN18CBL_ExtractElement15HIM_CreateFrameEP16CBL_FrameManagerjjjjjPj
libocr-ydblock.so.0:_ZN18CBL_ExtractElement15HIM_DeleteFrameEP16CBL_FrameManagerj
libocr-ydblock.so.0:_ZN18CBL_ExtractElement15HIM_HideElementEP7BLFRAMEjj
libocr-ydblock.so.0:_ZN18CBL_ExtractElement15HIM_UpSampling4ER10CYDBWImageR14CBL_ImageParam
libocr-ydblock.so.0:_ZN18CBL_ExtractElement15IsThisDotRegionE10TYDImgRectItEP7BLFRAMEj
libocr-ydblock.so.0:_ZN18CBL_ExtractElement15mark_thin_frameEP7BLFRAMEjjjj
libocr-ydblock.so.0:_ZN18CBL_ExtractElement15smear_dot_frameER10CYDBWImageP7BLFRAMEjjj
libocr-ydblock.so.0:_ZN18CBL_ExtractElement16HIM_RunToFrame_HEP16CBL_FrameManagerP14TYDImgRan2PlusIjES4_jjjjj
libocr-ydblock.so.0:_ZN18CBL_ExtractElement16HIM_RunToFrame_VEP16CBL_FrameManagerP14TYDImgRan2PlusIjES4_jjjjj
libocr-ydblock.so.0:_ZN18CBL_ExtractElement17EAD_DeleteElementEP16CBL_FrameManagerjj
libocr-ydblock.so.0:_ZN18CBL_ExtractElement17HIM_AppendFrame_HEP16CBL_FrameManagerjjjj
libocr-ydblock.so.0:_ZN18CBL_ExtractElement17HIM_AppendFrame_VEP16CBL_FrameManagerjjjj
libocr-ydblock.so.0:_ZN18CBL_ExtractElement17HIM_ChangeImg_BIGEP16CBL_FrameManagerR10CYDBWImageP7BLFRAMEjjjjR14CBL_ImageParam
libocr-ydblock.so.0:_ZN18CBL_ExtractElement17HIM_CreateFrame_HEP16CBL_FrameManagerjjjjPj
libocr-ydblock.so.0:_ZN18CBL_ExtractElement17HIM_CreateFrame_VEP16CBL_FrameManagerjjjjPj
libocr-ydblock.so.0:_ZN18CBL_ExtractElement17HIM_DeleteNoise_HEP16CBL_FrameManagerP14TYDImgRan2PlusIjEj
libocr-ydblock.so.0:_ZN18CBL_ExtractElement17HIM_DeleteNoise_VEP16CBL_FrameManagerP14TYDImgRan2PlusIjEj
libocr-ydblock.so.0:_ZN18CBL_ExtractElement18EAD_ExtractElementEP16CBL_FrameManagerP10CYDBWImageS3_S3_jjjjjjjjjjjjR14CBL_ImageParamR12CBL_CheckPic
libocr-ydblock.so.0:_ZN18CBL_ExtractElement18clear_EAD_all_flagEP16CBL_FrameManager
libocr-ydblock.so.0:_ZN18CBL_ExtractElement18detect_underline_hE7BLFRAMER10CYDBWImagePS0_PjS4_
libocr-ydblock.so.0:_ZN18CBL_ExtractElement18detect_underline_vE7BLFRAMER10CYDBWImagePS0_PjS4_
libocr-ydblock.so.0:_ZN18CBL_ExtractElement18mark_overlap_frameER10CYDBWImageP7BLFRAMEjjjj
libocr-ydblock.so.0:_ZN18CBL_ExtractElement18mark_too_big_frameEP7BLFRAMEjjjj
libocr-ydblock.so.0:_ZN18CBL_ExtractElement19HIM_ChangeImg_SMALLER10CYDBWImageP7BLFRAME
libocr-ydblock.so.0:_ZN18CBL_ExtractElement19HIM_DoSegmentInit_HEP16CBL_FrameManagerR14CBL_ImageParamjj
libocr-ydblock.so.0:_ZN18CBL_ExtractElement19HIM_DoSegmentInit_VEP16CBL_FrameManagerR14CBL_ImageParamjj
libocr-ydblock.so.0:_ZN18CBL_ExtractElement19detect_black_circleER10CYDBWImageP7BLFRAMEjjjjPjS4_
libocr-ydblock.so.0:_ZN18CBL_ExtractElement19smear_midsize_frameER10CYDBWImageP7BLFRAMEjjjj
libocr-ydblock.so.0:_ZN18CBL_ExtractElement20EAD_DoExtractElementEP16CBL_FrameManagerP10CYDBWImageS3_S3_jjjjjjjjjjjjR14CBL_ImageParam
libocr-ydblock.so.0:_ZN18CBL_ExtractElement21mark_cross_dot_regionEP7BLFRAMEjjjjR14CBL_ImageParam
libocr-ydblock.so.0:_ZN18CBL_ExtractElement21smear_char_rect_frameER10CYDBWImageP7BLFRAMEjjjj
libocr-ydblock.so.0:_ZN18CBL_ExtractElement22CreateImageParamMemoryEjR10CYDBWImageR14CBL_ImageParam
libocr-ydblock.so.0:_ZN18CBL_ExtractElement22HIM_DeleteFrame_StatusEP16CBL_FrameManagerj
libocr-ydblock.so.0:_ZN18CBL_ExtractElement22HIM_SmearWhiteBitFrameEP16CBL_FrameManagerR14CBL_ImageParamj
libocr-ydblock.so.0:_ZN18CBL_ExtractElement22detect_black_chocolateER10CYDBWImageP7BLFRAMEjjjjPjS4_
libocr-ydblock.so.0:_ZN18CBL_ExtractElement22modifyDownSampledImg_HER14CBL_ImageParamjj
libocr-ydblock.so.0:_ZN18CBL_ExtractElement22modifyDownSampledImg_VER14CBL_ImageParamjj
libocr-ydblock.so.0:_ZN18CBL_ExtractElement23HIM_DownSampling4_referER10CYDBWImageR14CBL_ImageParam
libocr-ydblock.so.0:_ZN18CBL_ExtractElement25EAD_SegmentInit_SetStatusEP16CBL_FrameManagerR14CBL_ImageParamj
libocr-ydblock.so.0:_ZN18CBL_ExtractElement25calc_block_cnt_of_projectEjjPjS0_S0_S0_S0_S0_
libocr-ydblock.so.0:_ZN18CBL_ExtractElement25change_EAD_StatusToStatu2EP7BLFRAMEjj
libocr-ydblock.so.0:_ZN18CBL_ExtractElement26check_non_cross_dot_regionE10TYDImgRectIjER14CBL_ImageParam
libocr-ydblock.so.0:_ZN18CBL_ExtractElement29EAD_calc_project_short_long_xE10TYDImgRectItER10CYDBWImagePjS4_j
libocr-ydblock.so.0:_ZN18CBL_ExtractElement29EAD_calc_project_short_long_yE10TYDImgRectItER10CYDBWImagePjS4_j
libocr-ydblock.so.0:_ZN18CBL_ExtractElement30check_underline_h_small_regionE10TYDImgRectItER10CYDBWImagePjS4_
libocr-ydblock.so.0:_ZN18CBL_ExtractElement30check_underline_v_small_regionE10TYDImgRectItER10CYDBWImagePjS4_
libocr-ydblock.so.0:_ZN18CBL_ExtractElement31detect_dot_line_and_smear_blackEP16CBL_FrameManagerR14CBL_ImageParamjjj
libocr-ydblock.so.0:_ZN18CBL_ExtractElement32HIM_DownSampling8_lightExtractedER10CYDBWImageR14CBL_ImageParam
libocr-ydblock.so.0:_ZN18CBL_ExtractElement33HIM_DownSampling8_light_overwriteER10CYDBWImageR14CBL_ImageParam
libocr-ydblock.so.0:_ZN18CBL_ExtractElement34do_black_smear_dot_frame_in_regionEP7BLFRAMER14CBL_ImageParamj10TYDImgRectIjEj
libocr-ydblock.so.0:_ZN18CBL_ExtractElement35black_black_region_for_characters_hE10TYDImgRectItER10CYDBWImagePjS4_
libocr-ydblock.so.0:_ZN18CBL_ExtractElement35black_black_region_for_characters_vE10TYDImgRectItER10CYDBWImagePjS4_
libocr-ydblock.so.0:_ZN18CBL_ExtractElement42HIM_detect_underline_and_delete_small_lineER10CYDBWImageS1_P7BLFRAMEj
libocr-ydblock.so.0:_ZN18CBL_ExtractElement9init_flagEP16CBL_FrameManagerj
libocr-ydblock.so.0:_ZN18CBL_FeedBackLayout14FeedBackLayoutEP11BLFRAME_EXPj
libocr-ydblock.so.0:_ZN18CBL_JudgeBlockKind13CheckPicImageEP16CBL_FrameManager10TYDImgRectItE
libocr-ydblock.so.0:_ZN18CBL_JudgeBlockKind13CheckRevImageEP16CBL_FrameManager10TYDImgRectItE
libocr-ydblock.so.0:_ZN18CBL_JudgeBlockKind14CheckWhiteCharERiRSt6vectorI9TYDImgRanItESaIS3_EES6_Pt
libocr-ydblock.so.0:_ZN18CBL_JudgeBlockKind14NormalFrameCntEP7BLFRAME10TYDImgRectItE
libocr-ydblock.so.0:_ZN18CBL_JudgeBlockKind16CalcFrameInFrameEP16BLFRAMEINFRAME_tjP7BLFRAMERSt6vectorIjSaIjEES7_
libocr-ydblock.so.0:_ZN18CBL_JudgeBlockKind16ExtractDataBlockEPtttRSt6vectorI9TYDImgRanItESaIS3_EEt
libocr-ydblock.so.0:_ZN18CBL_JudgeBlockKind19CalculateDifferenceERSt6vectorI9TYDImgRanItESaIS2_EES5_
libocr-ydblock.so.0:_ZN18CBL_JudgeBlockKind19SetNormalSmallFrameEP16BLFRAMEINFRAME_tPjP7BLFRAME10TYDImgRectItERSt6vectorIjSaIjEESA_
libocr-ydblock.so.0:_ZN18CBL_JudgeBlockKind25CalcFrameProjectWhiteCharEPtS0_P7BLFRAME10TYDImgRectItE
libocr-ydblock.so.0:_ZN18CBL_JudgeBlockKind30GetCnt_CrossAndCoverFrameArrayERSt6vectorIjSaIjEE10TYDImgRectItEP7BLFRAMEPj
libocr-ydblock.so.0:_ZN19CBL_ConsiderKeyWord16ConsiderKeyWord_EP11BLFRAME_EXPjjjjjjjj
libocr-ydblock.so.0:_ZN19CBL_ConsiderKeyWord28get_attribute_about_separateEP11BLFRAME_EXPjjjRSt6vectorIjSaIjEES5_PjS6_S6_S6_S6_S6_S6_S6_S6_S6_j
libocr-ydblock.so.0:_ZN19CBL_ConsiderKeyWord37get_attribute_about_small_line_secondEP11BLFRAME_EXPjjjRSt6vectorIjSaIjEEPjS6_PiS7_
libocr-ydblock.so.0:_ZN19CBL_ConsiderKeyWord43CountLineFromFirstToSecondAtTheViedwOfFirstEP11BLFRAME_EXPjjRSt6vectorIjSaIjEES5_jR14BLKEYWORDPARAM
libocr-ydblock.so.0:_ZN19CBL_ConsiderKeyWord44CountLineFromFirstToSecondAtTheViedwOfSecondEP11BLFRAME_EXPjjRSt6vectorIjSaIjEES5_jR14BLKEYWORDPARAM
libocr-ydblock.so.0:_ZN20CBL_CheckTableRegion18SmoothingHistogramERSt6vectorIiSaIiEE
libocr-ydblock.so.0:_ZN20CBL_CheckTableRegion23CheckTableRegion_Phase1E10TYDImgRectItE
libocr-ydblock.so.0:_ZN20CBL_CheckTableRegion23CheckTableRegion_Phase2E10TYDImgRectItE
libocr-ydblock.so.0:_ZN20CBL_CheckTableRegion23CheckTableRegion_Phase3E10TYDImgRectItE
libocr-ydblock.so.0:_ZN20CBL_CheckTableRegion23CheckTableRegion_Phase4E10TYDImgRectItE
libocr-ydblock.so.0:_ZN20CBL_CheckTableRegion23ExtractPeakDistributionERSt6vectorIiSaIiEERS0_I9TYDImgRanItESaIS5_EEi
libocr-ydblock.so.0:_ZN20CBL_CheckTableRegion23MakeProjectionFromFrameERSt6vectorI10TYDImgRectItESaIS2_EEiRS0_IiSaIiEEi
libocr-ydblock.so.0:_ZN20CBL_CheckTableRegion23MakeProjectionFromImageEP10CYDBWImage10TYDImgRectItERSt6vectorIiSaIiEEi
libocr-ydblock.so.0:_ZN20CBL_ConsiderKeyWord216ConsiderKeyWord2EP11BLFRAME_EXPjjjjjjj10TYDImgRectItES3_S3_S3_S3_S3_S3_S3_
libocr-ydblock.so.0:_ZN20CBL_ConsiderKeyWord243CountLineFromFirstToSecondAtTheViedwOfFirstEP11BLFRAME_EXPjjRSt6vectorIjSaIjEES5_jPjS6_S6_S6_S6_S6_10TYDImgRectItES8_PiS9_S6_S8_S8_S9_S9_
libocr-ydblock.so.0:_ZN20CBL_ConsiderKeyWord244CountLineFromFirstToSecondAtTheViedwOfSecondEP11BLFRAME_EXPjjRSt6vectorIjSaIjEES5_jPjS6_S6_S6_S6_S6_10TYDImgRectItES8_PiS9_S6_S8_S8_S9_S9_
libocr-ydblock.so.0:_ZN20CBL_ConsiderKeyWord316ConsiderKeyWord3EP11BLFRAME_EXPjjjjjj
libocr-ydblock.so.0:_ZN20CBL_DecideBlockOrder10GetControlER17BLCONTROLCENTER_tP13BLCONTROLLISTPt
libocr-ydblock.so.0:_ZN20CBL_DecideBlockOrder10SendSignalEP9BLOCKLISTP13BLCONTROLLISTt
libocr-ydblock.so.0:_ZN20CBL_DecideBlockOrder11AddBlock_IDEP9BLOCKLISTtt
libocr-ydblock.so.0:_ZN20CBL_DecideBlockOrder11InformResutEP9BLOCKLISTtR13CBL_Paragraph
libocr-ydblock.so.0:_ZN20CBL_DecideBlockOrder12GetNearBlockEP9BLOCKLISTRSt6vectorItSaItEEtPt
libocr-ydblock.so.0:_ZN20CBL_DecideBlockOrder13AddControl_IDEP13BLCONTROLLISTtt
libocr-ydblock.so.0:_ZN20CBL_DecideBlockOrder13GetNearSignalEP9BLOCKLISTttPt
libocr-ydblock.so.0:_ZN20CBL_DecideBlockOrder13InitBlockListER17BLCONTROLCENTER_t
libocr-ydblock.so.0:_ZN20CBL_DecideBlockOrder14ArrangeControlER17BLCONTROLCENTER_tP9BLOCKLISTP13BLCONTROLLISTtttt
libocr-ydblock.so.0:_ZN20CBL_DecideBlockOrder14ConnectControlEP13BLCONTROLLISTtt
libocr-ydblock.so.0:_ZN20CBL_DecideBlockOrder14RecursiveCheckEt10TYDImgRectItES1_P9BLOCKLIST
libocr-ydblock.so.0:_ZN20CBL_DecideBlockOrder15ExpandButRegionEtP10TYDImgRectItEP9BLOCKLIST
libocr-ydblock.so.0:_ZN20CBL_DecideBlockOrder15InitBlockSikiriERSt6vectorI10TYDImgRectItESaIS2_EER9BLK_DOC_tP9BLOCKLISTt
libocr-ydblock.so.0:_ZN20CBL_DecideBlockOrder16DecideBlockOrderER10CYDPrmdataRSt6vectorI10TYDImgRectItESaIS4_EEtR13CBL_Paragraph
libocr-ydblock.so.0:_ZN20CBL_DecideBlockOrder16GetControlSenderER17BLCONTROLCENTER_tP9BLOCKLISTP13BLCONTROLLISTPttt
libocr-ydblock.so.0:_ZN20CBL_DecideBlockOrder17DeleteSikiriBlockEP9BLOCKLISTt
libocr-ydblock.so.0:_ZN20CBL_DecideBlockOrder17InitControlCenterER9BLK_DOC_t
libocr-ydblock.so.0:_ZN20CBL_DecideBlockOrder18AddControlGroup_IDEP13BLCONTROLLISTtt
libocr-ydblock.so.0:_ZN20CBL_DecideBlockOrder18BroadCastingSignalEP9BLOCKLISTP13BLCONTROLLISTt
libocr-ydblock.so.0:_ZN20CBL_DecideBlockOrder18GetControlRecieverER17BLCONTROLCENTER_tP9BLOCKLISTP13BLCONTROLLISTPttt
libocr-ydblock.so.0:_ZN20CBL_DecideBlockOrder18GetCrossBlockArrayERSt6vectorItSaItEE10TYDImgRectItEP9BLOCKLISTS3_t
libocr-ydblock.so.0:_ZN20CBL_DecideBlockOrder19GetBlockofTheSignalEP9BLOCKLISTttPt
libocr-ydblock.so.0:_ZN20CBL_DecideBlockOrder22ThisBlockCanSendSignalEP9BLOCKLISTP13BLCONTROLLISTt
libocr-ydblock.so.0:_ZN20CBL_DecideBlockOrder23ChoiceOrderFromPriorityEP9BLOCKLISTtPttRSt6vectorItSaItEE10TYDImgRectItE
libocr-ydblock.so.0:_ZN20CBL_DecideBlockOrder23FindBlocksCanSendSignalEP9BLOCKLISTP13BLCONTROLLISTtRSt6vectorItSaItEE
libocr-ydblock.so.0:_ZN20CBL_DecideBlockOrder24GetCrossBlockForMakeRuleEt10TYDImgRectItES1_P9BLOCKLISTRSt6vectorItSaItEEtttS1_
libocr-ydblock.so.0:_ZN20CBL_DecideBlockOrder24ThisControlCanSendSignalEP13BLCONTROLLISTt
libocr-ydblock.so.0:_ZN20CBL_DecideBlockOrder28SetSearchRegionForMakingRuleEP9BLOCKLISTt10TYDImgRectItEPS3_tt
libocr-ydblock.so.0:_ZN20CBL_DecideBlockOrder7DoCheckEtP10TYDImgRectItEP9BLOCKLISTPi
libocr-ydblock.so.0:_ZN20CBL_DecideBlockOrder8DoSignalEP9BLOCKLISTP13BLCONTROLLISTt10TYDImgRectItE
libocr-ydblock.so.0:_ZN20CBL_DecideBlockOrder8GetBlockER9BLK_DOC_tP9BLOCKLISTPt
libocr-ydblock.so.0:_ZN20CBL_DecideBlockOrder8MakeRuleER9BLK_DOC_tR17BLCONTROLCENTER_tP9BLOCKLISTP13BLCONTROLLIST10TYDImgRectItEt
libocr-ydblock.so.0:_ZN20CBL_DecideBlockOrder9GetMostUpEP9BLOCKLISTRSt6vectorItSaItEEPt
libocr-ydblock.so.0:_ZN20CBL_DecideBlockOrder9InitBlockER9BLK_DOC_tP9BLOCKLISTtR13CBL_Paragraph
libocr-ydblock.so.0:_ZN20CBL_DecideBlockOrder9MakeRule2ER17BLCONTROLCENTER_tP9BLOCKLISTP13BLCONTROLLISTtt10TYDImgRectItEtt
libocr-ydblock.so.0:_ZN21CBL_AppendFrameStatus10SetNotCharEP16CBL_FrameManager
libocr-ydblock.so.0:_ZN21CBL_AppendFrameStatus13DeleteNotCharER10CYDPrmdataP16CBL_FrameManagerR8CBL_Page
libocr-ydblock.so.0:_ZN21CBL_AppendFrameStatus13NotCharToCharEP16CBL_FrameManager
libocr-ydblock.so.0:_ZN21CBL_AppendFrameStatus14Delete1ptFrameEP16CBL_FrameManager
libocr-ydblock.so.0:_ZN21CBL_AppendFrameStatus15DeleteNoiseCharEP16CBL_FrameManager
libocr-ydblock.so.0:_ZN21CBL_AppendFrameStatus17AppendFrameStatusER10CYDPrmdataP16CBL_FrameManageriR8CBL_Page
libocr-ydblock.so.0:_ZN21CBL_AppendFrameStatus7GetFontEPhP7BLFRAMEjS0_tPtS3_
libocr-ydblock.so.0:_ZN21CBL_AppendFrameStatus8SetLargeEP16CBL_FrameManager
libocr-ydblock.so.0:_ZN21CBL_DeleteParaInImage10check_sizeE10TYDImgRectIjE
libocr-ydblock.so.0:_ZN21CBL_DeleteParaInImage10smear_loopEP16CBL_FrameManagerP11BLFRAME_EXPjR14CBL_ImageParamR8CBL_Page
libocr-ydblock.so.0:_ZN21CBL_DeleteParaInImage11cross_frameEP11BLFRAME_EXPj10TYDImgRectItE
libocr-ydblock.so.0:_ZN21CBL_DeleteParaInImage11get_zone_IDE10TYDImgRectItES1_Pj
libocr-ydblock.so.0:_ZN21CBL_DeleteParaInImage12cross_frame2EP11BLFRAME_EXPj10TYDImgRectItE
libocr-ydblock.so.0:_ZN21CBL_DeleteParaInImage13Do_CheckTableE10TYDImgRectItER8CBL_Page
libocr-ydblock.so.0:_ZN21CBL_DeleteParaInImage13check_dropcapEj21CBL_EnvironmentAroundS0_S0_
libocr-ydblock.so.0:_ZN21CBL_DeleteParaInImage13record_removeEP11BLFRAME_EXPj10TYDImgRectIjEj
libocr-ydblock.so.0:_ZN21CBL_DeleteParaInImage14GetSimilarSizeEP11BLFRAME_EXPjjjPd
libocr-ydblock.so.0:_ZN21CBL_DeleteParaInImage14check_bad_lineER10CYDPrmdataP11BLFRAME_EXPjjd
libocr-ydblock.so.0:_ZN21CBL_DeleteParaInImage14check_in_groupER10CYDPrmdataP16CBL_FrameManagerP11BLFRAME_EXPjjjjjjR8CBL_Page
libocr-ydblock.so.0:_ZN21CBL_DeleteParaInImage14get_total_areaEP11BLFRAME_EXPj10TYDImgRectItERSt6vectorIjSaIjEE
libocr-ydblock.so.0:_ZN21CBL_DeleteParaInImage15get_env_all_oneEP11BLFRAME_EXPjjR12CBL_CheckPicj10TYDImgRectItEPiS6_S6_j
libocr-ydblock.so.0:_ZN21CBL_DeleteParaInImage16Do_DownSampling4ER14CBL_ImageParamS1_
libocr-ydblock.so.0:_ZN21CBL_DeleteParaInImage16check_black_zoneER14CBL_ImageParam10TYDImgRectItE
libocr-ydblock.so.0:_ZN21CBL_DeleteParaInImage16check_cross_paraEP11BLFRAME_EXPjjjPj
libocr-ydblock.so.0:_ZN21CBL_DeleteParaInImage17Do_CheckCrossParaEP11BLFRAME_EXPj10TYDImgRectItEjj
libocr-ydblock.so.0:_ZN21CBL_DeleteParaInImage17check_num_featureEP11BLFRAME_EXPj
libocr-ydblock.so.0:_ZN21CBL_DeleteParaInImage17check_page_numberEP11BLFRAME_EXPjjdj10TYDImgRectItEPj
libocr-ydblock.so.0:_ZN21CBL_DeleteParaInImage18SegmentInit_NormalEP16CBL_FrameManagerR10TYDImgRectIjER14CBL_ImageParam
libocr-ydblock.so.0:_ZN21CBL_DeleteParaInImage18get_env_around_allER10CYDPrmdataP11BLFRAME_EXPjjR12CBL_CheckPicjjjP21CBL_EnvironmentAroundS7_S7_S7_
libocr-ydblock.so.0:_ZN21CBL_DeleteParaInImage18get_expaned_regionEP11BLFRAME_EXPjP10TYDImgRectItEj
libocr-ydblock.so.0:_ZN21CBL_DeleteParaInImage18refresh_image_zoneEP16CBL_FrameManagerP13CBL_ShironukiP11BLFRAME_EXPjR14CBL_ImageParamR8CBL_Page
libocr-ydblock.so.0:_ZN21CBL_DeleteParaInImage19check_all_cross_imgE21CBL_EnvironmentAroundS0_S0_S0_jdjjP11BLFRAME_EXPj
libocr-ydblock.so.0:_ZN21CBL_DeleteParaInImage19revisit_page_numberER10CYDPrmdataP11BLFRAME_EXPjR12CBL_CheckPicjjj
libocr-ydblock.so.0:_ZN21CBL_DeleteParaInImage20check_near_cross_imgEjd21CBL_EnvironmentAroundS0_S0_S0_
libocr-ydblock.so.0:_ZN21CBL_DeleteParaInImage20renew_NotCharImgdataEP11BLFRAME_EXPjR14CBL_ImageParam
libocr-ydblock.so.0:_ZN21CBL_DeleteParaInImage21GetTotalCrossArea_001EP11BLFRAME_EXPjRK10TYDImgRectIjE
libocr-ydblock.so.0:_ZN21CBL_DeleteParaInImage21GetTotalCrossArea_003EP11BLFRAME_EXPjRK10TYDImgRectIjE
libocr-ydblock.so.0:_ZN21CBL_DeleteParaInImage21set_black_zone_regionE10TYDImgRectItEPS1_
libocr-ydblock.so.0:_ZN21CBL_DeleteParaInImage22Do_CheckCrossPara_MOREEP11BLFRAME_EXPj10TYDImgRectItEjj
libocr-ydblock.so.0:_ZN21CBL_DeleteParaInImage22check_simple_tate_yokoEP11BLFRAME_EXPj21CBL_EnvironmentAroundS2_S2_S2_jdj
libocr-ydblock.so.0:_ZN21CBL_DeleteParaInImage22delete_para_near_imageER10CYDPrmdataP16CBL_FrameManagerP11BLFRAME_EXPjjR14CBL_ImageParamPiS7_R8CBL_Page
libocr-ydblock.so.0:_ZN21CBL_DeleteParaInImage23get_env_all_one_specialER10CYDPrmdataP11BLFRAME_EXPjjR12CBL_CheckPicj10TYDImgRectItEjPiS8_PjPdS8_jS9_SA_SA_S9_
libocr-ydblock.so.0:_ZN21CBL_DeleteParaInImage24RescueSealTitleCharacterEP10CYDBWImageP11BLFRAME_EXPjR14CBL_ImageParamjj
libocr-ydblock.so.0:_ZN21CBL_DeleteParaInImage24check_cross_para_linecntER10CYDPrmdataP11BLFRAME_EXPj10TYDImgRectIjE
libocr-ydblock.so.0:_ZN21CBL_DeleteParaInImage24get_total_tate_yoko_paraEP11BLFRAME_EXPjPjS2_S2_S2_S2_
libocr-ydblock.so.0:_ZN21CBL_DeleteParaInImage25Do_CheckCrossPara_specialER10CYDPrmdataP11BLFRAME_EXPj10TYDImgRectItEjjjPjPdS6_S7_S7_S6_
libocr-ydblock.so.0:_ZN21CBL_DeleteParaInImage25Do_CheckPicTableImg_FrameEP11BLFRAME_EXPj10TYDImgRectItE
libocr-ydblock.so.0:_ZN21CBL_DeleteParaInImage25get_line_cnt_and_straightER10CYDPrmdataP11BLFRAME_EXPjjPjPdS5_S4_
libocr-ydblock.so.0:_ZN21CBL_DeleteParaInImage26check_cross_non_char_frameEP11BLFRAME_EXPjjdjjjj
libocr-ydblock.so.0:_ZN21CBL_DeleteParaInImage27check_line_cnt_and_straightEjdj
libocr-ydblock.so.0:_ZN21CBL_DeleteParaInImage27smear_black_table_image_nowER14CBL_ImageParamR8CBL_Page
libocr-ydblock.so.0:_ZN21CBL_DeleteParaInImage29check_para_half_cross_or_noneEP11BLFRAME_EXPj10TYDImgRectIjE
libocr-ydblock.so.0:_ZN21CBL_DeleteParaInImage29need_more_check_by_clear_zoneEjjd21CBL_EnvironmentAroundS0_S0_S0_P11BLFRAME_EXPj
libocr-ydblock.so.0:_ZN21CBL_DeleteParaInImage29smear_frame_if_original_blackEP11BLFRAME_EXPR10CYDBWImageR14CBL_ImageParamj
libocr-ydblock.so.0:_ZN21CBL_DeleteParaInImage30check_near_cross_img_by_orientE10TYDImgRectItEjjdj21CBL_EnvironmentAroundS2_S2_S2_
libocr-ydblock.so.0:_ZN21CBL_DeleteParaInImage32check_line_cnt_of_para_in_regionER10CYDPrmdataP11BLFRAME_EXPRSt6vectorIjSaIjEE
libocr-ydblock.so.0:_ZN21CBL_DeleteParaInImage32do_smear_frame_if_original_blackER10CYDBWImageR14CBL_ImageParam10TYDImgRectItE
libocr-ydblock.so.0:_ZN21CBL_DeleteParaInImage34LastModification_DeleteParaInImageER10CYDPrmdataP16CBL_FrameManagerP13CBL_ShironukiP10CYDBWImageP11BLFRAME_EXPjRS6_R12CBL_CheckPicjjjjjjjR8CBL_Page
libocr-ydblock.so.0:_ZN21CBL_DeleteParaInImage34check_page_num_zone_cross_img_charEj21CBL_EnvironmentAroundS0_S0_S0_
libocr-ydblock.so.0:_ZN21CBL_DeleteParaInImage35check_cross_by_orient_and_char_sizeEjjd21CBL_EnvironmentAroundS0_S0_S0_
libocr-ydblock.so.0:_ZN21CBL_DeleteParaInImage35check_near_cross_img_by_orient_moreEjjdj21CBL_EnvironmentAroundS0_S0_S0_
libocr-ydblock.so.0:_ZN21CBL_DeleteParaInImage35smaer_frame_if_not_be_para_in_frameEP11BLFRAME_EXPR14CBL_ImageParamjj
libocr-ydblock.so.0:_ZN21CBL_DeleteParaInImage36DoLastModification_DeleteParaInImageER10CYDPrmdataP16CBL_FrameManagerP11BLFRAME_EXPjR12CBL_CheckPicjPijjjjjjjR8CBL_Page
libocr-ydblock.so.0:_ZN21CBL_DeleteParaInImage36check_near_cross_img_by_orient_more2Ej21CBL_EnvironmentAroundS0_S0_
libocr-ydblock.so.0:_ZN21CBL_DeleteParaInImage36check_search_region_and_total_regionE10TYDImgRectItEP11BLFRAME_EXPRSt6vectorIjSaIjEE
libocr-ydblock.so.0:_ZN21CBL_DeleteParaInImage38get_cross_non_frames_and_no_cross_charEP11BLFRAME_EXPjjjPjS2_j
libocr-ydblock.so.0:_ZN21CBL_DeleteParaInImage40check_remove_and_alive_para_and_pic_areaEP11BLFRAME_EXPjj10TYDImgRectIjEjjjjR8CBL_Page
libocr-ydblock.so.0:_ZN21CBL_DeleteParaInImage42check_cross_by_orient_char_size_and_directEjjd21CBL_EnvironmentAroundS0_S0_S0_
libocr-ydblock.so.0:_ZN21CBL_DeleteParaInImage45get_black_point_cnt_dwithin_black_zone_regionER14CBL_ImageParam10TYDImgRectIjEPj
libocr-ydblock.so.0:_ZN21CBL_EnvironmentAround10InitializeEv
libocr-ydblock.so.0:_ZN21CBL_FindOrient_StageX12CheckPatternEjPj
libocr-ydblock.so.0:_ZN21CBL_FindOrient_StageX17FindOrient_StageXEP11BLFRAME_EXPjjj
libocr-ydblock.so.0:_ZN21CBL_FindOrient_StageX17SetRegionExpandedEP10TYDImgRectItES1_ttj
libocr-ydblock.so.0:_ZN21CBL_FindOrient_StageX18PatrolNeighborhoodEP11BLFRAME_EXPjPjRSt6vectorIjSaIjEE10TYDImgRectItE
libocr-ydblock.so.0:_ZN21CBL_FindOrient_StageX27PossibleOrient_Frame_StageEEP11BLFRAME_EXPjj10TYDImgRectItE
libocr-ydblock.so.0:_ZN21CBL_FindOrient_StageX27PossibleOrient_Group_StageEEP11BLFRAME_EXPjj10TYDImgRectItE
libocr-ydblock.so.0:_ZN21CBL_FindOrient_StageX35RecursivePossibleOrient_Frame_StageEP11BLFRAME_EXPjj10TYDImgRectItEtttttPj
libocr-ydblock.so.0:_ZN21CBL_FindOrient_StageX35RecursivePossibleOrient_Group_StageEP11BLFRAME_EXPjj10TYDImgRectItEtttttPj
libocr-ydblock.so.0:_ZN21CBL_FindOrient_StageX42RecursivePossibleOrientPattern_Group_StageEP11BLFRAME_EXPjj10TYDImgRectItEtttttPj
libocr-ydblock.so.0:_ZN21CBL_FrameExpOperation10ReCalcPropEP11BLFRAME_EXPjj
libocr-ydblock.so.0:_ZN21CBL_FrameExpOperation11CalcOneWordEP11BLFRAME_EXPjj
libocr-ydblock.so.0:_ZN21CBL_FrameExpOperation11ClearStatusEP11BLFRAME_EXPjj
libocr-ydblock.so.0:_ZN21CBL_FrameExpOperation11SetFlagListEP11BLFRAME_EXPjj
libocr-ydblock.so.0:_ZN21CBL_FrameExpOperation12MoveElementsEP11BLFRAME_EXPjj
libocr-ydblock.so.0:_ZN21CBL_FrameExpOperation12SetFlagList2EP11BLFRAME_EXPjj
libocr-ydblock.so.0:_ZN21CBL_FrameExpOperation13GroupToSourceEjjP11BLFRAME_EXP
libocr-ydblock.so.0:_ZN21CBL_FrameExpOperation13MoveElementsCEP11BLFRAME_EXPjj
libocr-ydblock.so.0:_ZN21CBL_FrameExpOperation13UnSetFlagListEP11BLFRAME_EXPjj
libocr-ydblock.so.0:_ZN21CBL_FrameExpOperation14DeleteElementsEP11BLFRAME_EXPjj
libocr-ydblock.so.0:_ZN21CBL_FrameExpOperation14MoveChildFrameEP11BLFRAME_EXPRjS2_
libocr-ydblock.so.0:_ZN21CBL_FrameExpOperation14UnSetFlagList2EP11BLFRAME_EXPjj
libocr-ydblock.so.0:_ZN21CBL_FrameExpOperation15DeleteElements2EP11BLFRAME_EXPjj
libocr-ydblock.so.0:_ZN21CBL_FrameExpOperation15MoveChildFrame2EP11BLFRAME_EXPRjS2_
libocr-ydblock.so.0:_ZN21CBL_FrameExpOperation15MoveElementsExpEP11BLFRAME_EXPjjj
libocr-ydblock.so.0:_ZN21CBL_FrameExpOperation16DeleteChileFrameEP11BLFRAME_EXPRj
libocr-ydblock.so.0:_ZN21CBL_FrameExpOperation16GetCrossFrameAddEj10TYDImgRectItEP11BLFRAME_EXPRSt6vectorIjSaIjEEjj
libocr-ydblock.so.0:_ZN21CBL_FrameExpOperation16GetTailListFrameEP11BLFRAME_EXPjPj
libocr-ydblock.so.0:_ZN21CBL_FrameExpOperation16SetFlagAllInParaEP11BLFRAME_EXPjj
libocr-ydblock.so.0:_ZN21CBL_FrameExpOperation17CalcNewLineRegionEP11BLFRAME_EXPjjP10TYDImgRectItE
libocr-ydblock.so.0:_ZN21CBL_FrameExpOperation18UnSetFlagAllInParaEP11BLFRAME_EXPjj
libocr-ydblock.so.0:_ZN21CBL_FrameExpOperation18WhatOrientThisParaEP11BLFRAME_EXPj
libocr-ydblock.so.0:_ZN21CBL_FrameExpOperation21ReCalcParagraphRegionEP11BLFRAME_EXPjj
libocr-ydblock.so.0:_ZN21CBL_FrameExpOperation23Special_StageAExtractedEP11BLFRAME_EXPRjS2_S2_
libocr-ydblock.so.0:_ZN21CBL_FrameExpOperation28MakeOptimumPicTableExtractedEP11BLFRAME_EXPjj
libocr-ydblock.so.0:_ZN21CBL_FrameExpOperation9ResetFlagEP11BLFRAME_EXPjj
libocr-ydblock.so.0:_ZN21CBL_SegmentTableBlock11make_regionEP14CBL_TableCheckt
libocr-ydblock.so.0:_ZN21CBL_SegmentTableBlock12EAD_SortLineEP12BLLINESTRUCTtS1_t
libocr-ydblock.so.0:_ZN21CBL_SegmentTableBlock12IsTableFrameEP10CYDBWImage10TYDImgRectItE
libocr-ydblock.so.0:_ZN21CBL_SegmentTableBlock13EAD_FilterCutEPtttt
libocr-ydblock.so.0:_ZN21CBL_SegmentTableBlock13expand_regionEP10TYDImgRectItEP7BLFRAMEjPi
libocr-ydblock.so.0:_ZN21CBL_SegmentTableBlock15ProjectionFrameERSt6vectorItSaItEE10TYDImgRectItERS0_IS5_SaIS5_EEi
libocr-ydblock.so.0:_ZN21CBL_SegmentTableBlock16CheckTableBlock2EP10CYDBWImageRSt6vectorI10TYDImgRectItESaIS4_EE
libocr-ydblock.so.0:_ZN21CBL_SegmentTableBlock16CheckTableBlock3EP10CYDBWImageRS0_RSt6vectorI14TYDImgRectPlusItESaIS5_EERS3_I10TYDImgRectItESaISA_EE
libocr-ydblock.so.0:_ZN21CBL_SegmentTableBlock16IsThisTableCheckEP7BLFRAME10TYDImgRectItEjjjjPtS4_S1_S4_S4_P10CYDBWImagej
libocr-ydblock.so.0:_ZN21CBL_SegmentTableBlock17EAD_CheckTblBlockEP16CBL_FrameManagerP7BLFRAMEjjjjjjjjjjjjjjR14CBL_ImageParamP10CYDBWImage10TYDImgRectItE
libocr-ydblock.so.0:_ZN21CBL_SegmentTableBlock18check_image_regionE10TYDImgRectItER8CBL_Page
libocr-ydblock.so.0:_ZN21CBL_SegmentTableBlock19EAD_SegmentTblBlockER10CYDPrmdataP20CBL_EnvironmentValueP16CBL_FrameManagerP10CYDBWImagejjjjjjjjjjjjjjjjR14CBL_ImageParamS7_RSt6vectorI14TYDImgRectPlusItESaISC_EER8CBL_Page
libocr-ydblock.so.0:_ZN21CBL_SegmentTableBlock19IsThisTablePreCheckER14CBL_RegionInfo
libocr-ydblock.so.0:_ZN21CBL_SegmentTableBlock20EAD_CalcLineHElementEP7BLFRAME10TYDImgRectItEjjPttt
libocr-ydblock.so.0:_ZN21CBL_SegmentTableBlock20EAD_CalcLineVElementEP7BLFRAME10TYDImgRectItEjjPttt
libocr-ydblock.so.0:_ZN21CBL_SegmentTableBlock20EAD_SetLineOfStructHEP12BLLINESTRUCTPt10TYDImgRectItEtt
libocr-ydblock.so.0:_ZN21CBL_SegmentTableBlock20EAD_SetLineOfStructVEP12BLLINESTRUCTPt10TYDImgRectItEtt
libocr-ydblock.so.0:_ZN21CBL_SegmentTableBlock20non_active_in_regionEP7BLFRAME10TYDImgRectItE
libocr-ydblock.so.0:_ZN21CBL_SegmentTableBlock20set_status_in_regionEP7BLFRAME10TYDImgRectItEj
libocr-ydblock.so.0:_ZN21CBL_SegmentTableBlock21EAD_CheckLineFromProjEP12BLLINESTRUCTPhPtS3_
libocr-ydblock.so.0:_ZN21CBL_SegmentTableBlock21EAD_SearchPartsLinesHE12BLLINESTRUCTPS0_tS1_10TYDImgRectItE
libocr-ydblock.so.0:_ZN21CBL_SegmentTableBlock21EAD_SearchPartsLinesVE12BLLINESTRUCTPS0_tS1_10TYDImgRectItE
libocr-ydblock.so.0:_ZN21CBL_SegmentTableBlock21EAD_merge_overlap_picEP16CBL_FrameManagerjR8CBL_Page
libocr-ydblock.so.0:_ZN21CBL_SegmentTableBlock21init_struct_line_dataEP12BLLINESTRUCTt
libocr-ydblock.so.0:_ZN21CBL_SegmentTableBlock21set_judge_each_line_hEP12BLLINESTRUCTt
libocr-ydblock.so.0:_ZN21CBL_SegmentTableBlock21set_judge_each_line_vEP12BLLINESTRUCTt
libocr-ydblock.so.0:_ZN21CBL_SegmentTableBlock22EAD_clear_element_flagEP7BLFRAMEjj
libocr-ydblock.so.0:_ZN21CBL_SegmentTableBlock22get_solid_total_line_hEP7BLFRAMEjjPtS2_S2_10TYDImgRectItE
libocr-ydblock.so.0:_ZN21CBL_SegmentTableBlock22get_solid_total_line_vEP7BLFRAMEjjPtS2_S2_10TYDImgRectItE
libocr-ydblock.so.0:_ZN21CBL_SegmentTableBlock23EAD_CheckGoodAndBadLineEP12BLLINESTRUCTS1_ttS1_S1_P10CYDBWImagePtS4_10TYDImgRectItE
libocr-ydblock.so.0:_ZN21CBL_SegmentTableBlock23EAD_clear_element_flag2EP7BLFRAMEjjj
libocr-ydblock.so.0:_ZN21CBL_SegmentTableBlock23ExtractPeakDistributionERSt6vectorItSaItEERS0_I9TYDImgRanItESaIS5_EEi
libocr-ydblock.so.0:_ZN21CBL_SegmentTableBlock24EAD_CheckGoodAndBadLine2EP7BLFRAMEjP12BLLINESTRUCTS3_ttPtS4_10TYDImgRectItEjj
libocr-ydblock.so.0:_ZN21CBL_SegmentTableBlock24EAD_FindwBlkStartwBlkEndEPtttS0_S0_
libocr-ydblock.so.0:_ZN21CBL_SegmentTableBlock26EAD_mark_element_in_regionEP7BLFRAMEjj10TYDImgRectItEttj
libocr-ydblock.so.0:_ZN21CBL_SegmentTableBlock29ChooseTableCandidacyFromFrameEP16CBL_FrameManagerP14CBL_TableCheckPtjjjjjR8CBL_Page
libocr-ydblock.so.0:_ZN21CBL_SegmentTableBlock34EAD_CalcFrameProjectForIsThisTableEPtS0_P7BLFRAME10TYDImgRectItE
libocr-ydblock.so.0:_ZN21CBL_SegmentTableBlock6kdkkkkEP16CBL_FrameManagerjP14CBL_TableCheckt
libocr-ydblock.so.0:_ZN21CBL_SetStatusToFrames16RemoveNomalNoiseEP11BLFRAME_EXPjjjjj
libocr-ydblock.so.0:_ZN21CBL_SetStatusToFrames16RemoveSharpFrameEP11BLFRAME_EXPjjjjj
libocr-ydblock.so.0:_ZN21CBL_SetStatusToFrames16RemoveSharpGroupEP11BLFRAME_EXPjjjjj
libocr-ydblock.so.0:_ZN21CBL_SetStatusToFrames16RemoveSmallNoiseEP11BLFRAME_EXPjjj
libocr-ydblock.so.0:_ZN21CBL_SetStatusToFrames17SetStatusToFramesERSt6vectorI10TYDImgRectItESaIS2_EEP11BLFRAME_EXPjjjjjjjjjR12CBL_CheckPic
libocr-ydblock.so.0:_ZN21CBL_SetStatusToFrames17check_kakko_groupEP11BLFRAME_EXPj
libocr-ydblock.so.0:_ZN21CBL_SetStatusToFrames18GetDwArray_Tmp_CntEP11BLFRAME_EXPRjS2_S2_S2_S2_S2_
libocr-ydblock.so.0:_ZN21CBL_SetStatusToFrames18RemoveNoEntryNoiseEP11BLFRAME_EXPjj
libocr-ydblock.so.0:_ZN21CBL_SetStatusToFrames19MakeOptimumPicTableEP11BLFRAME_EXPjj
libocr-ydblock.so.0:_ZN21CBL_SetStatusToFrames20IsThereCrossFrameAddEj10TYDImgRectItEP11BLFRAME_EXPjjjRSt6vectorIjSaIjEE
libocr-ydblock.so.0:_ZN21CBL_SetStatusToFrames24RemoveSmallFrameAndGroupEP11BLFRAME_EXPjjj
libocr-ydblock.so.0:_ZN21CBL_SetStatusToFrames25FindNoiseAndSetItPicTableEP11BLFRAME_EXPjj
libocr-ydblock.so.0:_ZN21CBL_SetStatusToFrames29CheckChildParentCrossPicTableEP11BLFRAME_EXPjjR12CBL_CheckPic
libocr-ydblock.so.0:_ZN21CBL_SetStatusToFrames29FindSeparatorAndSetItPicTableEP11BLFRAME_EXPjjj
libocr-ydblock.so.0:_ZN21CBL_SetStatusToFrames8ForOrderERSt6vectorI10TYDImgRectItESaIS2_EEP11BLFRAME_EXPjjjj
libocr-ydblock.so.0:_ZN21CBL_SetStatusToFrames9GetSikiriERSt6vectorI10TYDImgRectItESaIS2_EEP11BLFRAME_EXPj
libocr-ydblock.so.0:_ZN22CBL_AnalyzeTableRegion11AttachLabelE10TYDImgRectItEj
libocr-ydblock.so.0:_ZN22CBL_AnalyzeTableRegion11SetGridFlagEiiiit
libocr-ydblock.so.0:_ZN22CBL_AnalyzeTableRegion12LabelingCellEPj
libocr-ydblock.so.0:_ZN22CBL_AnalyzeTableRegion12MakeGridLineEv
libocr-ydblock.so.0:_ZN22CBL_AnalyzeTableRegion12NormalizeRanERSt6vectorI9TYDImgRanItESaIS2_EE
libocr-ydblock.so.0:_ZN22CBL_AnalyzeTableRegion13CheckGridFlagEiiii
libocr-ydblock.so.0:_ZN22CBL_AnalyzeTableRegion13CheckTateLineEiii
libocr-ydblock.so.0:_ZN22CBL_AnalyzeTableRegion13CheckYokoLineEiiii
libocr-ydblock.so.0:_ZN22CBL_AnalyzeTableRegion15CountCrossPixelERSt6vectorI9TYDImgRanItESaIS2_EES2_
libocr-ydblock.so.0:_ZN22CBL_AnalyzeTableRegion16AddTateLineGroupEtRSt6vectorI9TYDImgRanItESaIS2_EE
libocr-ydblock.so.0:_ZN22CBL_AnalyzeTableRegion16AddYokoLineGroupEtRSt6vectorI9TYDImgRanItESaIS2_EE
libocr-ydblock.so.0:_ZN22CBL_AnalyzeTableRegion17CheckLineCellFlagEiii
libocr-ydblock.so.0:_ZN22CBL_AnalyzeTableRegion18AnalyzeTableRegionERSt6vectorI10TYDImgRectItESaIS2_EE
libocr-ydblock.so.0:_ZN22CBL_AnalyzeTableRegion18CheckAdjustabilityEv
libocr-ydblock.so.0:_ZN22CBL_AnalyzeTableRegion18CreateNewTableRectERSt6vectorI10TYDImgRectItESaIS2_EEj
libocr-ydblock.so.0:_ZN22CBL_AnalyzeTableRegion21CheckBiggestTableRectEiiiPi
libocr-ydblock.so.0:_ZN22CBL_AnalyzeTableRegion8MakeGridEii
libocr-ydblock.so.0:_ZN22CBL_RecorrectHVWriting11get_zone_IDEP11BLFRAME_EXPjjPj
libocr-ydblock.so.0:_ZN22CBL_RecorrectHVWriting11modify_paraEP11BLFRAME_EXPj
libocr-ydblock.so.0:_ZN22CBL_RecorrectHVWriting15check_tate_nagaEP11BLFRAME_EXP
libocr-ydblock.so.0:_ZN22CBL_RecorrectHVWriting15check_yoko_nagaEP11BLFRAME_EXP
libocr-ydblock.so.0:_ZN22CBL_RecorrectHVWriting17check_num_featureEP11BLFRAME_EXPj
libocr-ydblock.so.0:_ZN22CBL_RecorrectHVWriting17check_spcial_zoneEP11BLFRAME_EXPjjj
libocr-ydblock.so.0:_ZN22CBL_RecorrectHVWriting22recorrection_TATE_YOKOEP11BLFRAME_EXPj
libocr-ydblock.so.0:_ZN22CBL_SegmentTableBlock210check_dataER11CGroupFrameR10CYDBWImage
libocr-ydblock.so.0:_ZN22CBL_SegmentTableBlock210function_MERSt6vectorI11CGroupFrameSaIS1_EERS0_I10TYDImgRectItESaIS6_EE
libocr-ydblock.so.0:_ZN22CBL_SegmentTableBlock211check_mergeER10CYDBWImageR11CGroupFrameS3_
libocr-ydblock.so.0:_ZN22CBL_SegmentTableBlock213ExtractTable2ERSt6vectorI10TYDImgRectItESaIS2_EES5_R10CYDBWImage
libocr-ydblock.so.0:_ZN22CBL_SegmentTableBlock215CheckGroupMergeER11CGroupFrameS1_R10TYDImgRectItE
libocr-ydblock.so.0:_ZN22CBL_SegmentTableBlock216CheckGroupMerge2ER11CGroupFrameS1_R10TYDImgRectItE
libocr-ydblock.so.0:_ZN22CBL_SegmentTableBlock216CheckGroupMerge2ER11CGroupFrameS1_R10TYDImgRectItER10CYDBWImage
libocr-ydblock.so.0:_ZN22CBL_SegmentTableBlock216CreateWordRegionER10CYDBWImageRSt6vectorI10TYDImgRectItESaIS4_EERS2_I9CWordRectSaIS8_EES7_
libocr-ydblock.so.0:_ZN22CBL_SegmentTableBlock217CreateColumnGroupER10CYDBWImageRSt6vectorI11CGroupFrameSaIS3_EERS2_I9CWordRectSaIS7_EERS2_I10TYDImgRectItESaISC_EE
libocr-ydblock.so.0:_ZN22CBL_SegmentTableBlock218ConnectColumnGroupER10CYDBWImageRSt6vectorI11CGroupFrameSaIS3_EERS2_I10TYDImgRectItESaIS8_EE
libocr-ydblock.so.0:_ZN22CBL_SegmentTableBlock218ExpandAdjacentLineER10CYDBWImageRSt6vectorI11CGroupFrameSaIS3_EERS2_I10TYDImgRectItESaIS8_EE
libocr-ydblock.so.0:_ZN22CBL_SegmentTableBlock220CreateMultipleColumnER10CYDBWImageRSt6vectorI11CGroupFrameSaIS3_EE
libocr-ydblock.so.0:_ZN22CBL_SegmentTableBlock220ExpandTransverseLineER10CYDBWImageRSt6vectorI11CGroupFrameSaIS3_EERS2_I10TYDImgRectItESaIS8_EE
libocr-ydblock.so.0:_ZN22CBL_SegmentTableBlock221ExtractPairedLongLineER10CYDBWImageRSt6vectorI11CGroupFrameSaIS3_EERS2_I10TYDImgRectItESaIS8_EE
libocr-ydblock.so.0:_ZN23CBL_SeparateLinesegment19MakeProjection_TateERSt6vectorI13TYDImgRanPlusItESaIS2_EE
libocr-ydblock.so.0:_ZN23CBL_SeparateLinesegment19MakeProjection_YokoERSt6vectorI13TYDImgRanPlusItESaIS2_EE
libocr-ydblock.so.0:_ZN23CBL_SeparateLinesegment22SeparateStrikeOut_TateERSt6vectorI13TYDImgRanPlusItESaIS2_EE
libocr-ydblock.so.0:_ZN23CBL_SeparateLinesegment22SeparateStrikeOut_YokoERSt6vectorI13TYDImgRanPlusItESaIS2_EE
libocr-ydblock.so.0:_ZN23CBL_SeparateLinesegment22SeparateUnderline_TateERSt6vectorI13TYDImgRanPlusItESaIS2_EE
libocr-ydblock.so.0:_ZN23CBL_SeparateLinesegment22SeparateUnderline_YokoERSt6vectorI13TYDImgRanPlusItESaIS2_EE
libocr-ydblock.so.0:_ZN23CBL_SeparateLinesegment23SeparateLinesegmentMainE10TYDImgRectItERiS2_
libocr-ydblock.so.0:_ZN23CBL_SeparateLinesegment23SetLinesegmentType_TateERSt6vectorI13TYDImgRanPlusItESaIS2_EERi
libocr-ydblock.so.0:_ZN23CBL_SeparateLinesegment23SetLinesegmentType_YokoERSt6vectorI13TYDImgRanPlusItESaIS2_EERi
libocr-ydblock.so.0:_ZN23CBL_SeparateLinesegmentC1ER10CYDBWImageS1_
libocr-ydblock.so.0:_ZN23CBL_SeparateLinesegmentC2ER10CYDBWImageS1_
libocr-ydblock.so.0:_ZN24CBL_ChangeHanteiFromSide10Base_JudgeERK16BLCONNECT_INFO_tPjjjjjjP11BLFRAME_EXP
libocr-ydblock.so.0:_ZN24CBL_ChangeHanteiFromSide14SetRegionCoverEP11BLFRAME_EXPjjjP10TYDImgRectItES4_S4_S4_S4_S4_S4_S4_
libocr-ydblock.so.0:_ZN24CBL_ChangeHanteiFromSide14find_pic_on_upEP11BLFRAME_EXPjjPjS2_
libocr-ydblock.so.0:_ZN24CBL_ChangeHanteiFromSide15DoesItCoverThemEP11BLFRAME_EXPjjjj
libocr-ydblock.so.0:_ZN24CBL_ChangeHanteiFromSide15MostSimpleJudgeEP11BLFRAME_EXPjjjjj
libocr-ydblock.so.0:_ZN24CBL_ChangeHanteiFromSide15find_para_on_upEP11BLFRAME_EXPjjjjjPjS2_
libocr-ydblock.so.0:_ZN24CBL_ChangeHanteiFromSide16ChangeHanteiInfoEP11BLFRAME_EXPjjjjjjPj
libocr-ydblock.so.0:_ZN24CBL_ChangeHanteiFromSide16find_pic_on_leftEP11BLFRAME_EXPjjPjS2_
libocr-ydblock.so.0:_ZN24CBL_ChangeHanteiFromSide17find_para_on_leftEP11BLFRAME_EXPjjjjjPjS2_
libocr-ydblock.so.0:_ZN24CBL_ChangeHanteiFromSide17find_pic_on_dodwnEP11BLFRAME_EXPjjPjS2_
libocr-ydblock.so.0:_ZN24CBL_ChangeHanteiFromSide17find_pic_on_rightEP11BLFRAME_EXPjjPjS2_
libocr-ydblock.so.0:_ZN24CBL_ChangeHanteiFromSide18find_para_on_dodwnEP11BLFRAME_EXPjjjjjPjS2_
libocr-ydblock.so.0:_ZN24CBL_ChangeHanteiFromSide18find_para_on_rightEP11BLFRAME_EXPjjjjjPjS2_
libocr-ydblock.so.0:_ZN24CBL_ChangeHanteiFromSide19find_most_near_paraEP11BLFRAME_EXPjjjPjS2_
libocr-ydblock.so.0:_ZN24CBL_ChangeHanteiFromSide20ChangeHanteiFromSideEP11BLFRAME_EXPjjjjPjjjjjjjjjjjj
libocr-ydblock.so.0:_ZN24CBL_ChangeHanteiFromSide21ConsiderConnectLengthEP11BLFRAME_EXPjjjRK16BLCONNECT_INFO_tjPjj
libocr-ydblock.so.0:_ZN24CBL_ChangeHanteiFromSide28ConsiderConnectLength_Stage2EP11BLFRAME_EXPjjjjjjjPjjjj
libocr-ydblock.so.0:_ZN24CBL_ChangeHanteiFromSide29ChangeHanteiFromSide_Test_001EPK11BLFRAME_EXPjjjjjjj
libocr-ydblock.so.0:_ZN24CBL_ChangeHanteiFromSide29ChangeHanteiFromSide_Test_002EPK11BLFRAME_EXPjjjjjjjj
libocr-ydblock.so.0:_ZN24CBL_ChangeHanteiFromSide29ChangeHanteiFromSide_Test_004EPK11BLFRAME_EXPjjiijjjj
libocr-ydblock.so.0:_ZN24CBL_ChangeHanteiFromSide29ChangeHanteiFromSide_Test_005EPK11BLFRAME_EXPjjjiijjjjjjjjjjjj
libocr-ydblock.so.0:_ZN24CBL_ChangeHanteiFromSide29ChangeHanteiFromSide_Test_006EPK11BLFRAME_EXPjjjjjjjjjjjjij
libocr-ydblock.so.0:_ZN24CBL_ChangeHanteiFromSide29ChangeHanteiFromSide_Test_007Ejjjjjjiij
libocr-ydblock.so.0:_ZN24CBL_ChangeHanteiFromSide29ChangeHanteiFromSide_Test_008EPK11BLFRAME_EXPjjjjjjj
libocr-ydblock.so.0:_ZN24CBL_ChangeHanteiFromSide29ChangeHanteiFromSide_Test_009EPK11BLFRAME_EXPjjjjjjjjjjjj
libocr-ydblock.so.0:_ZN24CBL_ChangeHanteiFromSide29ChangeHanteiFromSide_Test_010EPK11BLFRAME_EXPjjjjjjjjjj
libocr-ydblock.so.0:_ZN24CBL_ChangeHanteiFromSide29ChangeHanteiFromSide_Test_011Ejjjjjiij
libocr-ydblock.so.0:_ZN24CBL_ChangeHanteiFromSide29ChangeHanteiFromSide_Test_012EPK11BLFRAME_EXPjjjjjjjjj
libocr-ydblock.so.0:_ZN24CBL_ChangeHanteiFromSide29ChangeHanteiFromSide_Test_013EPK11BLFRAME_EXPjjjjjjjjjjjjjj
libocr-ydblock.so.0:_ZN24CBL_ChangeHanteiFromSide29ChangeHanteiFromSide_Test_014EPK11BLFRAME_EXPjjjjjjiij
libocr-ydblock.so.0:_ZN24CBL_ChangeHanteiFromSide29ChangeHanteiFromSide_Test_015EPK11BLFRAME_EXPjjjjjjjjjjjiij
libocr-ydblock.so.0:_ZN24CBL_ChangeHanteiFromSide7Rotate1ER16BLCONNECT_INFO_t
libocr-ydblock.so.0:_ZN24CBL_ChangeHanteiFromSide7Rotate2ER16BLCONNECT_INFO_t
libocr-ydblock.so.0:_ZN26CBL_ConsiderConnectPattern11ConnectDoneEP11BLFRAME_EXPjjjj
libocr-ydblock.so.0:_ZN26CBL_ConsiderConnectPattern14AddProjectionXEPjR10TYDImgRectItE
libocr-ydblock.so.0:_ZN26CBL_ConsiderConnectPattern14AddProjectionYEPjR10TYDImgRectItE
libocr-ydblock.so.0:_ZN26CBL_ConsiderConnectPattern16SetProjectRegionE10TYDImgRectItES1_S1_jPS1_S2_jj
libocr-ydblock.so.0:_ZN26CBL_ConsiderConnectPattern17CalcFrameProject2EP11BLFRAME_EXPRSt6vectorIjSaIjEE10TYDImgRectItEPjjjij
libocr-ydblock.so.0:_ZN26CBL_ConsiderConnectPattern17ConnectDoneSecondEP11BLFRAME_EXPjjRSt6vectorIjSaIjEEj
libocr-ydblock.so.0:_ZN26CBL_ConsiderConnectPattern17IsThisGoodGrowingEP11BLFRAME_EXPjjj
libocr-ydblock.so.0:_ZN26CBL_ConsiderConnectPattern20IsThisValidSameLine2EP11BLFRAME_EXPj10TYDImgRectItEjjS3_jjj
libocr-ydblock.so.0:_ZN26CBL_ConsiderConnectPattern22ConsiderConnectPatternEP11BLFRAME_EXPjjj10TYDImgRectItEjjjjjjRSt6vectorIjSaIjEEPijjjjPjiR12CBL_CheckPic
libocr-ydblock.so.0:_ZN26CBL_ConsiderConnectPattern25CalcFrameProjectAndSpace2EP11BLFRAME_EXPRSt6vectorIjSaIjEE10TYDImgRectItES7_PjjjS8_S8_S8_S8_i
libocr-ydblock.so.0:_ZN26CBL_ConsiderConnectPattern25SetRegionAndGetFrameSide2EP11BLFRAME_EXPPP10TYDImgRectItEjjRSt6vectorIjSaIjEEjjj
libocr-ydblock.so.0:_ZN26CBL_ConsiderConnectPattern26CheckIsThisValidNewRegion2EP11BLFRAME_EXPjj10TYDImgRectItEjjjjR12CBL_CheckPic
libocr-ydblock.so.0:_ZN26CBL_ConsiderConnectPattern9CalcSpaceEPjjjS0_S0_
libocr-ydblock.so.0:_ZN4YDTC10sjistoucs2Et
libocr-ydblock.so.0:_ZN4YDTC10ucs2tosjisEt
libocr-ydblock.so.0:_ZN4YDTC7One2TwoEt
libocr-ydblock.so.0:_ZN4YDTC7Two2OneEti
libocr-ydblock.so.0:_ZN4YDTC9YdTwo2OneEt
libocr-ydblock.so.0:_ZN4YDTC9jistosjisEt
libocr-ydblock.so.0:_ZN4YDTC9jistoucs2Et
libocr-ydblock.so.0:_ZN4YDTC9sjistojisEt
libocr-ydblock.so.0:_ZN4YDTC9ucs2tojisEt
libocr-ydblock.so.0:_ZN5YDIMG10IsBottomUpEPc
libocr-ydblock.so.0:_ZN5YDIMG10UpsideDownEPc
libocr-ydblock.so.0:_ZN5YDIMG10WIDTHBYTESEj
libocr-ydblock.so.0:_ZN5YDIMG11DIBBitCountEPc
libocr-ydblock.so.0:_ZN5YDIMG11FindDIBBitsEPc
libocr-ydblock.so.0:_ZN5YDIMG11FindPaletteEPc
libocr-ydblock.so.0:_ZN5YDIMG11PaletteSizeEPc
libocr-ydblock.so.0:_ZN5YDIMG12DIBNumColorsEPc
libocr-ydblock.so.0:_ZN5YDIMG14DIBCompressionEPc
libocr-ydblock.so.0:_ZN5YDIMG7DIBBitsEPc
libocr-ydblock.so.0:_ZN5YDIMG7DIBSizeEPc
libocr-ydblock.so.0:_ZN5YDIMG8DIBWidthEPc
libocr-ydblock.so.0:_ZN5YDIMG8DPItoDPMEt
libocr-ydblock.so.0:_ZN5YDIMG8DPMtoDPIEi
libocr-ydblock.so.0:_ZN5YDIMG9CreateDIBEjjt
libocr-ydblock.so.0:_ZN5YDIMG9DIBHeightEPc
libocr-ydblock.so.0:_ZN8BLRECTOP10CheckData1EP11BLFRAME_EXPS1_S1_j
libocr-ydblock.so.0:_ZN8BLRECTOP10CheckData2EP11BLFRAME_EXPS1_S1_j
libocr-ydblock.so.0:_ZN8BLRECTOP10CheckData3EP11BLFRAME_EXPS1_S1_j
libocr-ydblock.so.0:_ZN8BLRECTOP10CheckData4EP11BLFRAME_EXPS1_S1_j
libocr-ydblock.so.0:_ZN8BLRECTOP10CheckRect1Ejjjj
libocr-ydblock.so.0:_ZN8BLRECTOP10CheckRectHER10TYDImgRectItES2_Rj
libocr-ydblock.so.0:_ZN8BLRECTOP10CheckRectVER10TYDImgRectItES2_Rj
libocr-ydblock.so.0:_ZN8BLRECTOP10ExpandRectER10TYDImgRectItES2_tt
libocr-ydblock.so.0:_ZN8BLRECTOP11CheckLengthERKjS1_S1_
libocr-ydblock.so.0:_ZN8BLRECTOP11CheckPoint2ERKjS1_S1_
libocr-ydblock.so.0:_ZN8BLRECTOP11ExpRegionLRER10TYDImgRectItERKS1_t
libocr-ydblock.so.0:_ZN8BLRECTOP11ExpRegionTBER10TYDImgRectItERKS1_t
libocr-ydblock.so.0:_ZN8BLRECTOP11GreaterThanEttt
libocr-ydblock.so.0:_ZN8BLRECTOP12InsideRangeHERK10TYDImgRectItEtt
libocr-ydblock.so.0:_ZN8BLRECTOP12InsideRangeVERK10TYDImgRectItEtt
libocr-ydblock.so.0:_ZN8BLRECTOP13CheckRect_222Ejjjj
libocr-ydblock.so.0:_ZN8BLRECTOP13RegionCheckLRERK10TYDImgRectItES3_
libocr-ydblock.so.0:_ZN8BLRECTOP13RegionCheckTBERK10TYDImgRectItES3_
libocr-ydblock.so.0:_ZN8BLRECTOP14CheckLeftLowerERK10TYDImgRectItES3_
libocr-ydblock.so.0:_ZN8BLRECTOP14CheckLeftUpperERK10TYDImgRectItES3_
libocr-ydblock.so.0:_ZN8BLRECTOP14CheckTest_0001ERK10TYDImgRectItEtt
libocr-ydblock.so.0:_ZN8BLRECTOP14CheckTest_0002ERK10TYDImgRectItEtt
libocr-ydblock.so.0:_ZN8BLRECTOP15CheckRightLowerERK10TYDImgRectItES3_
libocr-ydblock.so.0:_ZN8BLRECTOP15CheckRightUpperERK10TYDImgRectItES3_
libocr-ydblock.so.0:_ZN8BLRECTOP16CheckRegionCrossE10TYDImgRectItES0_IjE
libocr-ydblock.so.0:_ZN8BLRECTOP18CheckContainExpandER10TYDImgRectItEP11BLFRAME_EXPjj
libocr-ydblock.so.0:_ZN8BLRECTOP18CheckCrossExpandLRER10TYDImgRectItEP7BLFRAMERt
libocr-ydblock.so.0:_ZN8BLRECTOP18CheckCrossExpandTBER10TYDImgRectItEP7BLFRAMERt
libocr-ydblock.so.0:_ZN8BLRECTOP18GreaterThanOrEqualEttt
libocr-ydblock.so.0:_ZN8BLRECTOP18check_no2ExtractedEP11BLFRAME_EXPRj
libocr-ydblock.so.0:_ZN8BLRECTOP20check_kakoiExtractedER10TYDImgRectItES2_Rt
libocr-ydblock.so.0:_ZN8BLRECTOP21check_kakoiExtracted1ER10TYDImgRectItES2_Rt
libocr-ydblock.so.0:_ZN8BLRECTOP21check_kakoiExtracted2ER10TYDImgRectItES2_Rt
libocr-ydblock.so.0:_ZN8BLRECTOP21check_kakoiExtracted3ER10TYDImgRectItES2_Rt
libocr-ydblock.so.0:_ZN8BLRECTOP28DoMergeUnOrientParaExtractedERtS0_R10TYDImgRectItES3_
libocr-ydblock.so.0:_ZN8BLRECTOP29EAD_CalcLineHElementExtractedER10TYDImgRectItES2_Rt
libocr-ydblock.so.0:_ZN8BLRECTOP29EAD_CalcLineVElementExtractedER10TYDImgRectItES2_Rt
libocr-ydblock.so.0:_ZN8BLRECTOP29IsThisValidSameLine2ExtractedER10TYDImgRectItES2_Rj
libocr-ydblock.so.0:_ZN8BLRECTOP29get_normal_frame_cntExtractedER10TYDImgRectItEP7BLFRAME
libocr-ydblock.so.0:_ZN8BLRECTOP30IsThisValidSameLine2Extracted1ER10TYDImgRectItES2_Rj
libocr-ydblock.so.0:_ZN8BLRECTOP30SetRegionAndGetFrame3ExtractedEP10TYDImgRectItERS1_j
libocr-ydblock.so.0:_ZN8BLRECTOP31SetRegionAndGetFrame3Extracted1EP10TYDImgRectItERS1_j
libocr-ydblock.so.0:_ZN8BLRECTOP35Check_check_para_half_cross_or_noneEP11BLFRAME_EXPRK10TYDImgRectIjE
libocr-ydblock.so.0:_ZN8BLRECTOP43do_black_smear_dot_frame_in_regionExtractedER10TYDImgRectIjEP7BLFRAME
libocr-ydblock.so.0:_ZN8BLRECTOP5CrossER10TYDImgRectItES2_t
libocr-ydblock.so.0:_ZN8BLRECTOP9NotCrossHERK10TYDImgRectIjERKS0_ItE
libocr-ydblock.so.0:_ZN8BLRECTOP9NotCrossHERK10TYDImgRectItES3_
libocr-ydblock.so.0:_ZN8BLRECTOP9NotCrossVERK10TYDImgRectIjERKS0_ItE
libocr-ydblock.so.0:_ZN8BLRECTOP9NotCrossVERK10TYDImgRectItES3_
libocr-ydblock.so.0:_ZN8CBL_Page6ExportERSt6vectorI11CBL_PrmDataSaIS1_EEm
libocr-ydblock.so.0:_ZN8CBL_Page6ImportERSt6vectorI11CBL_PrmDataSaIS1_EE
libocr-ydblock.so.0:_ZNK21CBL_FrameExpOperation18GetTheParagraph_IDEPK11BLFRAME_EXPjPj
libocr-ydblock.so.0:_ZNK21CBL_FrameExpOperation22GetAmountOfLinesInParaEPK11BLFRAME_EXPjPj
libocr-ydblock.so.0:__bss_start
libocr-ydblock.so.0:_edata
libocr-ydblock.so.0:_end
libocr-ydblock.so.0:_fini
libocr-ydblock.so.0:_init
libocr-ydblock.so.0:_itoa_s
libocr-ydblock.so.0:_mbbtombc
libocr-ydblock.so.0:_mbcjistojms
libocr-ydblock.so.0:_mbcjmstojis
libocr-ydblock.so.0:_mbsbtype
libocr-ydblock.so.0:_mbscat_s
libocr-ydblock.so.0:_mbschr
libocr-ydblock.so.0:_mbscmp
libocr-ydblock.so.0:_mbscpy_s
libocr-ydblock.so.0:_mbslen
libocr-ydblock.so.0:_mbsncpy_s
libocr-ydblock.so.0:_splitpath_s
libocr-ydblock.so.0:_tcscat_s
libocr-ydblock.so.0:_tcscpy_s
libocr-ydblock.so.0:_tcsrchr
libocr-ydblock.so.0:ascii_1byteto2byte_table
libocr-ydblock.so.0:fopen_s
libocr-ydblock.so.0:g_dwLastError
libocr-ydblock.so.0:g_sjistoucs2_table_01
libocr-ydblock.so.0:g_sjistoucs2_table_02
libocr-ydblock.so.0:g_sjistoucs2_table_03
libocr-ydblock.so.0:g_sjistoucs2_table_04
libocr-ydblock.so.0:g_ucs2tosjis_table_01
libocr-ydblock.so.0:g_ucs2tosjis_table_01_2
libocr-ydblock.so.0:g_ucs2tosjis_table_02
libocr-ydblock.so.0:g_ucs2tosjis_table_03
libocr-ydblock.so.0:g_ucs2tosjis_table_04
libocr-ydblock.so.0:g_ucs2tosjis_table_05
libocr-ydblock.so.0:g_ucs2tosjis_table_06
libocr-ydblock.so.0:g_wCtoS_0x0040_0x007f
libocr-ydblock.so.0:g_wCtoS_0x00c0_0x02af
libocr-ydblock.so.0:g_wCtoS_0x0380_0x058f
libocr-ydblock.so.0:g_wCtoS_0x1e00_0x1fff
libocr-ydblock.so.0:g_wStoC_0x0040_0x007f
libocr-ydblock.so.0:g_wStoC_0x00c0_0x02af
libocr-ydblock.so.0:g_wStoC_0x0380_0x058f
libocr-ydblock.so.0:g_wStoC_0x1e00_0x1fff
libocr-ydblock.so.0:katakana_1byteto2byte_table
libocr-ydblock.so.0:memcpy_s
libocr-ydblock.so.0:sprintf_s
libocr-ydblock.so.0:strcat_s
libocr-ydblock.so.0:strcpy_s
libocr-ydblock.so.0:stricmp
libocr-ydblock.so.0:strncpy_s
libocr-ydcorr.so.0:
libocr-ydcorr.so.0:QueryEdgeEntropyInterface
libocr-ydcorr.so.0:_Z14ImgRestorationPv
libocr-ydcorr.so.0:_Z14merge_closesetPSt6vectorI7IMGRectSaIS0_EEPSt4listIPS0_SaIS5_EE
libocr-ydcorr.so.0:_Z15HRanExtractFastPhiiPiRi
libocr-ydcorr.so.0:_Z8jis2sjist
libocr-ydcorr.so.0:_Z8sjis2jist
libocr-ydcorr.so.0:_Z9Jmbbtombcj
libocr-ydcorr.so.0:_Z9Jmbctombbj
libocr-ydcorr.so.0:_ZN10CYDBWImage10ConnectRanEPSt6vectorI13TYDImgRanPlusItESaIS2_EEt
libocr-ydcorr.so.0:_ZN10CYDBWImage10CountBlackE10TYDImgRectItE
libocr-ydcorr.so.0:_ZN10CYDBWImage10FilletLineEPhRiS1_
libocr-ydcorr.so.0:_ZN10CYDBWImage10FilletRectER10TYDImgRectItE
libocr-ydcorr.so.0:_ZN10CYDBWImage10ProjectionERSt6vectorItSaItEE10TYDImgRectItEiti
libocr-ydcorr.so.0:_ZN10CYDBWImage10RanExtractERSt6vectorI9TYDImgRanItESaIS2_EEtttiit
libocr-ydcorr.so.0:_ZN10CYDBWImage10RanToFrameER12CYDFramePackPSt6vectorI14TYDImgRan2PlusItESaIS4_EES7_ti
libocr-ydcorr.so.0:_ZN10CYDBWImage11FilletRect2ER10TYDImgRectItE
libocr-ydcorr.so.0:_ZN10CYDBWImage11HRanExtractEPSt6vectorI13TYDImgRanPlusItESaIS2_EEttt
libocr-ydcorr.so.0:_ZN10CYDBWImage11HRanExtractEPSt6vectorI14TYDImgRan2PlusItESaIS2_EEttt
libocr-ydcorr.so.0:_ZN10CYDBWImage11HRanExtractERSt6vectorI9TYDImgRanItESaIS2_EEttt
libocr-ydcorr.so.0:_ZN10CYDBWImage11LabelingRanERSt6vectorI14TYDImgRectPlusItESaIS2_EEP10TYDImgRectItEiiiPS_
libocr-ydcorr.so.0:_ZN10CYDBWImage11RanToFrame2ER12CYDFramePackR8CRunListS3_ti
libocr-ydcorr.so.0:_ZN10CYDBWImage11SegmentInitERSt6vectorI10TYDImgRectItESaIS2_EEPS2_iiiPS_
libocr-ydcorr.so.0:_ZN10CYDBWImage11VRanExtractEPSt6vectorI13TYDImgRanPlusItESaIS2_EEttt
libocr-ydcorr.so.0:_ZN10CYDBWImage11VRanExtractEPSt6vectorI14TYDImgRan2PlusItESaIS2_EEttt
libocr-ydcorr.so.0:_ZN10CYDBWImage11VRanExtractERSt6vectorI9TYDImgRanItESaIS2_EEttt
libocr-ydcorr.so.0:_ZN10CYDBWImage12AcquireImageEPhjP10TYDImgRectItE
libocr-ydcorr.so.0:_ZN10CYDBWImage12LocalErosionEP10TYDImgRectItE
libocr-ydcorr.so.0:_ZN10CYDBWImage13DrawFrameRectE10TYDImgRectItE
libocr-ydcorr.so.0:_ZN10CYDBWImage13LocalDilationEP10TYDImgRectItE
libocr-ydcorr.so.0:_ZN10CYDBWImage14EraseFrameRectE10TYDImgRectItE
libocr-ydcorr.so.0:_ZN10CYDBWImage15SegmentLineRectERSt6vectorI10TYDImgRectItESaIS2_EEtiPS2_i
libocr-ydcorr.so.0:_ZN10CYDBWImage16CounterClockwiseEv
libocr-ydcorr.so.0:_ZN10CYDBWImage16HWhiteRanExtractERSt6vectorI9TYDImgRanItESaIS2_EEttt
libocr-ydcorr.so.0:_ZN10CYDBWImage16LabelingLineRectERSt6vectorI14TYDImgRectPlusItESaIS2_EEtiP10TYDImgRectItEi
libocr-ydcorr.so.0:_ZN10CYDBWImage16LocalLabelingRanER12CYDFramePack10TYDImgRectItEiiiiPS_
libocr-ydcorr.so.0:_ZN10CYDBWImage16VWhiteRanExtractERSt6vectorI9TYDImgRanItESaIS2_EEttt
libocr-ydcorr.so.0:_ZN10CYDBWImage19ConvertOutlineImageE10TYDImgRectItE
libocr-ydcorr.so.0:_ZN10CYDBWImage19RanToFrame_4ConnectER12CYDFramePackPSt6vectorI14TYDImgRan2PlusItESaIS4_EES7_ti
libocr-ydcorr.so.0:_ZN10CYDBWImage20ConvertThinningImageEP10TYDImgRectItE
libocr-ydcorr.so.0:_ZN10CYDBWImage20RanToFrame_4Connect2ER12CYDFramePackR8CRunListS3_ti
libocr-ydcorr.so.0:_ZN10CYDBWImage21LocalLabelingLineRectER12CYDFramePackti10TYDImgRectItEii
libocr-ydcorr.so.0:_ZN10CYDBWImage4DrawE10TYDImgRectItE
libocr-ydcorr.so.0:_ZN10CYDBWImage4DrawEtRSt6vectorI9TYDImgRanItESaIS2_EEi
libocr-ydcorr.so.0:_ZN10CYDBWImage4DrawEtt
libocr-ydcorr.so.0:_ZN10CYDBWImage4DrawEttti
libocr-ydcorr.so.0:_ZN10CYDBWImage5EraseE10TYDImgRectItE
libocr-ydcorr.so.0:_ZN10CYDBWImage5EraseEtRSt6vectorI9TYDImgRanItESaIS2_EEi
libocr-ydcorr.so.0:_ZN10CYDBWImage5EraseEtt
libocr-ydcorr.so.0:_ZN10CYDBWImage5EraseEttti
libocr-ydcorr.so.0:_ZN10CYDBWImage6ReDrawEtRSt6vectorI9TYDImgRanItESaIS2_EEiPS2_
libocr-ydcorr.so.0:_ZN10CYDBWImage7ClosingEP10TYDImgRectItEPS_P9TYDImgPosItE
libocr-ydcorr.so.0:_ZN10CYDBWImage7ErosionEP10TYDImgRectItEPS_P9TYDImgPosItE
libocr-ydcorr.so.0:_ZN10CYDBWImage7OpeningEP10TYDImgRectItEPS_P9TYDImgPosItE
libocr-ydcorr.so.0:_ZN10CYDBWImage7ReverseE10TYDImgRectItE
libocr-ydcorr.so.0:_ZN10CYDBWImage7ReverseEtRSt6vectorI9TYDImgRanItESaIS2_EEi
libocr-ydcorr.so.0:_ZN10CYDBWImage7ReverseEtt
libocr-ydcorr.so.0:_ZN10CYDBWImage7ReverseEttti
libocr-ydcorr.so.0:_ZN10CYDBWImage8CopyRectERS_10TYDImgRectItE
libocr-ydcorr.so.0:_ZN10CYDBWImage8DeletePtEPii
libocr-ydcorr.so.0:_ZN10CYDBWImage8DilationEP10TYDImgRectItEPS_P9TYDImgPosItE
libocr-ydcorr.so.0:_ZN10CYDBWImage8MemoryOrEPvPKvtt
libocr-ydcorr.so.0:_ZN10CYDBWImage8TrimRectE10TYDImgRectItE
libocr-ydcorr.so.0:_ZN10CYDBWImage9ClockwiseEv
libocr-ydcorr.so.0:_ZN10CYDBWImage9GradationEt
libocr-ydcorr.so.0:_ZN10CYDBWImage9MemoryAndEPvPKvtt
libocr-ydcorr.so.0:_ZN10CYDBWImage9NumOfBitsEi
libocr-ydcorr.so.0:_ZN11CYDBMPImage14OutputBMPImageEPKc
libocr-ydcorr.so.0:_ZN11OCRDocument3AddEP9OCRRegion
libocr-ydcorr.so.0:_ZN11OCRDocument7releaseEv
libocr-ydcorr.so.0:_ZN11OCRDocumentC1ER7OCRRect
libocr-ydcorr.so.0:_ZN11OCRDocumentC1Ev
libocr-ydcorr.so.0:_ZN11OCRDocumentC2ER7OCRRect
libocr-ydcorr.so.0:_ZN11OCRDocumentC2Ev
libocr-ydcorr.so.0:_ZN11OCRDocumentD1Ev
libocr-ydcorr.so.0:_ZN11OCRDocumentD2Ev
libocr-ydcorr.so.0:_ZN13CYDThreadPool10GetCommandEv
libocr-ydcorr.so.0:_ZN13CYDThreadPool12WorkerThreadEPv
libocr-ydcorr.so.0:_ZN13CYDThreadPool13RingingChimesEi
libocr-ydcorr.so.0:_ZN13CYDThreadPool5StoreEP10CYDCommand
libocr-ydcorr.so.0:_ZN13CYDThreadPool7ExecuteEv
libocr-ydcorr.so.0:_ZN13CYDThreadPoolC1Ei
libocr-ydcorr.so.0:_ZN13CYDThreadPoolC2Ei
libocr-ydcorr.so.0:_ZN13CYDThreadPoolD0Ev
libocr-ydcorr.so.0:_ZN13CYDThreadPoolD1Ev
libocr-ydcorr.so.0:_ZN13CYDThreadPoolD2Ev
libocr-ydcorr.so.0:_ZN14CYDBWImageTool6RanAndER8CRunListS1_S1_
libocr-ydcorr.so.0:_ZN15CCapitalToSmall7ConvertEt
libocr-ydcorr.so.0:_ZN15CSmallToCapital7ConvertEt
libocr-ydcorr.so.0:_ZN17CCapitalToSmallTR7ConvertEt
libocr-ydcorr.so.0:_ZN17CSmallToCapitalTR7ConvertEt
libocr-ydcorr.so.0:_ZN4YDTC10sjistoucs2Et
libocr-ydcorr.so.0:_ZN4YDTC10ucs2tosjisEt
libocr-ydcorr.so.0:_ZN4YDTC7One2TwoEt
libocr-ydcorr.so.0:_ZN4YDTC7Two2OneEti
libocr-ydcorr.so.0:_ZN4YDTC9YdTwo2OneEt
libocr-ydcorr.so.0:_ZN4YDTC9jistosjisEt
libocr-ydcorr.so.0:_ZN4YDTC9jistoucs2Et
libocr-ydcorr.so.0:_ZN4YDTC9sjistojisEt
libocr-ydcorr.so.0:_ZN4YDTC9ucs2tojisEt
libocr-ydcorr.so.0:_ZN5YDIMG10IsBottomUpEPc
libocr-ydcorr.so.0:_ZN5YDIMG10UpsideDownEPc
libocr-ydcorr.so.0:_ZN5YDIMG10WIDTHBYTESEj
libocr-ydcorr.so.0:_ZN5YDIMG11DIBBitCountEPc
libocr-ydcorr.so.0:_ZN5YDIMG11FindDIBBitsEPc
libocr-ydcorr.so.0:_ZN5YDIMG11FindPaletteEPc
libocr-ydcorr.so.0:_ZN5YDIMG11PaletteSizeEPc
libocr-ydcorr.so.0:_ZN5YDIMG12DIBNumColorsEPc
libocr-ydcorr.so.0:_ZN5YDIMG14DIBCompressionEPc
libocr-ydcorr.so.0:_ZN5YDIMG7DIBBitsEPc
libocr-ydcorr.so.0:_ZN5YDIMG7DIBSizeEPc
libocr-ydcorr.so.0:_ZN5YDIMG8DIBWidthEPc
libocr-ydcorr.so.0:_ZN5YDIMG8DPItoDPMEt
libocr-ydcorr.so.0:_ZN5YDIMG8DPMtoDPIEi
libocr-ydcorr.so.0:_ZN5YDIMG9CreateDIBEjjt
libocr-ydcorr.so.0:_ZN5YDIMG9DIBHeightEPc
libocr-ydcorr.so.0:_ZN6OCRBox3AddER7OCRLine
libocr-ydcorr.so.0:_ZN6OCRBoxC1Ejjjj
libocr-ydcorr.so.0:_ZN6OCRBoxC1Ev
libocr-ydcorr.so.0:_ZN6OCRBoxC2Ejjjj
libocr-ydcorr.so.0:_ZN6OCRBoxC2Ev
libocr-ydcorr.so.0:_ZN6OCRBoxD1Ev
libocr-ydcorr.so.0:_ZN6OCRBoxD2Ev
libocr-ydcorr.so.0:_ZN7BKErase13fast_varianceEv
libocr-ydcorr.so.0:_ZN7BKErase2DoEv
libocr-ydcorr.so.0:_ZN7BKErase4initEv
libocr-ydcorr.so.0:_ZN7BKErase7releaseEv
libocr-ydcorr.so.0:_ZN7BKErase8SetImageEPvj
libocr-ydcorr.so.0:_ZN7BKErase8allocateEv
libocr-ydcorr.so.0:_ZN7BKErase8varianceEv
libocr-ydcorr.so.0:_ZN7BKErase9histogramEv
libocr-ydcorr.so.0:_ZN7BKEraseC1Ev
libocr-ydcorr.so.0:_ZN7BKEraseC2Ev
libocr-ydcorr.so.0:_ZN7BKEraseD1Ev
libocr-ydcorr.so.0:_ZN7BKEraseD2Ev
libocr-ydcorr.so.0:_ZN7ImgMask10CreateMaskEP19tagBITMAPINFOHEADERPhj
libocr-ydcorr.so.0:_ZN7ImgMask4initEv
libocr-ydcorr.so.0:_ZN7ImgMask7releaseEv
libocr-ydcorr.so.0:_ZN7ImgMask9EraseRectEjjjj
libocr-ydcorr.so.0:_ZN7ImgMaskC1Ev
libocr-ydcorr.so.0:_ZN7ImgMaskC2Ev
libocr-ydcorr.so.0:_ZN7ImgMaskD1Ev
libocr-ydcorr.so.0:_ZN7ImgMaskD2Ev
libocr-ydcorr.so.0:_ZN7OCRCell3AddER7OCRLine
libocr-ydcorr.so.0:_ZN7OCRCellC1ER7OCRRect
libocr-ydcorr.so.0:_ZN7OCRCellC1EjjjjR7OCRRect
libocr-ydcorr.so.0:_ZN7OCRCellC1Ev
libocr-ydcorr.so.0:_ZN7OCRCellC2ER7OCRRect
libocr-ydcorr.so.0:_ZN7OCRCellC2EjjjjR7OCRRect
libocr-ydcorr.so.0:_ZN7OCRCellC2Ev
libocr-ydcorr.so.0:_ZN7OCRCellD1Ev
libocr-ydcorr.so.0:_ZN7OCRCellD2Ev
libocr-ydcorr.so.0:_ZN7OCRChar4initEv
libocr-ydcorr.so.0:_ZN7OCRCharC1EDsjjR7OCRRect
libocr-ydcorr.so.0:_ZN7OCRCharC1Ev
libocr-ydcorr.so.0:_ZN7OCRCharC2EDsjjR7OCRRect
libocr-ydcorr.so.0:_ZN7OCRCharC2Ev
libocr-ydcorr.so.0:_ZN7OCRCharD1Ev
libocr-ydcorr.so.0:_ZN7OCRCharD2Ev
libocr-ydcorr.so.0:_ZN7OCRLine3AddER7OCRChar
libocr-ydcorr.so.0:_ZN7OCRLineC1Ev
libocr-ydcorr.so.0:_ZN7OCRLineC2Ev
libocr-ydcorr.so.0:_ZN7OCRLineD1Ev
libocr-ydcorr.so.0:_ZN7OCRLineD2Ev
libocr-ydcorr.so.0:_ZN7OCRRectC1ERKS_
libocr-ydcorr.so.0:_ZN7OCRRectC1Ejjjj
libocr-ydcorr.so.0:_ZN7OCRRectC1Ev
libocr-ydcorr.so.0:_ZN7OCRRectC2ERKS_
libocr-ydcorr.so.0:_ZN7OCRRectC2Ejjjj
libocr-ydcorr.so.0:_ZN7OCRRectC2Ev
libocr-ydcorr.so.0:_ZN7OCRRectD1Ev
libocr-ydcorr.so.0:_ZN7OCRRectD2Ev
libocr-ydcorr.so.0:_ZN8OCRImage4initEv
libocr-ydcorr.so.0:_ZN8OCRImage7releaseEv
libocr-ydcorr.so.0:_ZN8OCRImageC1Ev
libocr-ydcorr.so.0:_ZN8OCRImageC2Ev
libocr-ydcorr.so.0:_ZN8OCRImageD1Ev
libocr-ydcorr.so.0:_ZN8OCRImageD2Ev
libocr-ydcorr.so.0:_ZN8OCRTable3AddER7OCRCell
libocr-ydcorr.so.0:_ZN8OCRTable8CalcSizeEv
libocr-ydcorr.so.0:_ZN8OCRTableC1ER7OCRRect
libocr-ydcorr.so.0:_ZN8OCRTableC1EjjR7OCRRect
libocr-ydcorr.so.0:_ZN8OCRTableC1Ev
libocr-ydcorr.so.0:_ZN8OCRTableC2ER7OCRRect
libocr-ydcorr.so.0:_ZN8OCRTableC2EjjR7OCRRect
libocr-ydcorr.so.0:_ZN8OCRTableC2Ev
libocr-ydcorr.so.0:_ZN8OCRTableD1Ev
libocr-ydcorr.so.0:_ZN8OCRTableD2Ev
libocr-ydcorr.so.0:_ZN9OCRReject6AcceptEv
libocr-ydcorr.so.0:_ZN9OCRReject6RejectEv
libocr-ydcorr.so.0:_ZN9OCRRejectC1Ev
libocr-ydcorr.so.0:_ZN9OCRRejectC2Ev
libocr-ydcorr.so.0:_ZN9OCRRejectD1Ev
libocr-ydcorr.so.0:_ZN9OCRRejectD2Ev
libocr-ydcorr.so.0:_ZNK11OCRDocument2AtEj
libocr-ydcorr.so.0:_ZNK11OCRDocument7GetSizeEv
libocr-ydcorr.so.0:_ZNK6OCRBox2AtEj
libocr-ydcorr.so.0:_ZNK6OCRBox7GetSizeEv
libocr-ydcorr.so.0:_ZNK6OCRBox7GetTypeEv
libocr-ydcorr.so.0:_ZNK7BKErase10CheckStateEv
libocr-ydcorr.so.0:_ZNK7BKErase15GetEntropyScoreEjjjj
libocr-ydcorr.so.0:_ZNK7BKErase8GetWidthEv
libocr-ydcorr.so.0:_ZNK7BKErase9GetHeightEv
libocr-ydcorr.so.0:_ZNK7ImgMask11GetSrcWidthEv
libocr-ydcorr.so.0:_ZNK7ImgMask12GetSrcHeightEv
libocr-ydcorr.so.0:_ZNK7ImgMask13GetCYDBWImageEv
libocr-ydcorr.so.0:_ZNK7ImgMask13GetOriginPosXEj
libocr-ydcorr.so.0:_ZNK7ImgMask13GetOriginPosYEj
libocr-ydcorr.so.0:_ZNK7ImgMask7GetZoomEv
libocr-ydcorr.so.0:_ZNK7OCRCell2AtEj
libocr-ydcorr.so.0:_ZNK7OCRCell7GetSizeEv
libocr-ydcorr.so.0:_ZNK7OCRCell9GetIndexXEv
libocr-ydcorr.so.0:_ZNK7OCRCell9GetIndexYEv
libocr-ydcorr.so.0:_ZNK7OCRCell9GetMergeXEv
libocr-ydcorr.so.0:_ZNK7OCRCell9GetMergeYEv
libocr-ydcorr.so.0:_ZNK7OCRChar11GetDistanceEv
libocr-ydcorr.so.0:_ZNK7OCRChar7GetCharEv
libocr-ydcorr.so.0:_ZNK7OCRLine2AtEj
libocr-ydcorr.so.0:_ZNK7OCRLine7GetSizeEv
libocr-ydcorr.so.0:_ZNK7OCRRect7GetPosXEv
libocr-ydcorr.so.0:_ZNK7OCRRect7GetPosYEv
libocr-ydcorr.so.0:_ZNK7OCRRect8GetWidthEv
libocr-ydcorr.so.0:_ZNK7OCRRect9GetHeightEv
libocr-ydcorr.so.0:_ZNK8OCRImage7GetTypeEv
libocr-ydcorr.so.0:_ZNK8OCRTable2AtEj
libocr-ydcorr.so.0:_ZNK8OCRTable7GetSizeEv
libocr-ydcorr.so.0:_ZNK8OCRTable7GetTypeEv
libocr-ydcorr.so.0:_ZNK8OCRTable8GetSizeXEv
libocr-ydcorr.so.0:_ZNK8OCRTable8GetSizeYEv
libocr-ydcorr.so.0:_ZNK9OCRReject10IsRejectedEv
libocr-ydcorr.so.0:__bss_start
libocr-ydcorr.so.0:_edata
libocr-ydcorr.so.0:_end
libocr-ydcorr.so.0:_fini
libocr-ydcorr.so.0:_init
libocr-ydcorr.so.0:g_sjistoucs2_table_01
libocr-ydcorr.so.0:g_sjistoucs2_table_02
libocr-ydcorr.so.0:g_sjistoucs2_table_03
libocr-ydcorr.so.0:g_sjistoucs2_table_04
libocr-ydcorr.so.0:g_ucs2tosjis_table_01
libocr-ydcorr.so.0:g_ucs2tosjis_table_01_2
libocr-ydcorr.so.0:g_ucs2tosjis_table_02
libocr-ydcorr.so.0:g_ucs2tosjis_table_03
libocr-ydcorr.so.0:g_ucs2tosjis_table_04
libocr-ydcorr.so.0:g_ucs2tosjis_table_05
libocr-ydcorr.so.0:g_ucs2tosjis_table_06
libocr-ydcorr.so.0:g_wCtoS_0x0040_0x007f
libocr-ydcorr.so.0:g_wCtoS_0x00c0_0x02af
libocr-ydcorr.so.0:g_wCtoS_0x0380_0x058f
libocr-ydcorr.so.0:g_wCtoS_0x1e00_0x1fff
libocr-ydcorr.so.0:g_wStoC_0x0040_0x007f
libocr-ydcorr.so.0:g_wStoC_0x00c0_0x02af
libocr-ydcorr.so.0:g_wStoC_0x0380_0x058f
libocr-ydcorr.so.0:g_wStoC_0x1e00_0x1fff
libocr-ydline.so.0:
libocr-ydline.so.0:AfxMessageBox
libocr-ydline.so.0:CloseHandle
libocr-ydline.so.0:CopyMemory
libocr-ydline.so.0:CreateFile
libocr-ydline.so.0:CreatePalette
libocr-ydline.so.0:DispatchMessage
libocr-ydline.so.0:EnumObjects
libocr-ydline.so.0:FillMemory
libocr-ydline.so.0:FreeLibrary
libocr-ydline.so.0:GetLastError
libocr-ydline.so.0:GetModuleFileName
libocr-ydline.so.0:GetModuleHandle
libocr-ydline.so.0:GetPrivateProfileString
libocr-ydline.so.0:GetProcAddress
libocr-ydline.so.0:GetSystemInfo
libocr-ydline.so.0:GlobalAlloc
libocr-ydline.so.0:GlobalFlags
libocr-ydline.so.0:GlobalFree
libocr-ydline.so.0:GlobalLock
libocr-ydline.so.0:GlobalReAlloc
libocr-ydline.so.0:GlobalSize
libocr-ydline.so.0:GlobalUnlock
libocr-ydline.so.0:HIBYTE
libocr-ydline.so.0:HIWORD
libocr-ydline.so.0:HeapAlloc
libocr-ydline.so.0:HeapCreate
libocr-ydline.so.0:HeapDestroy
libocr-ydline.so.0:HeapFree
libocr-ydline.so.0:IsBadReadPtr
libocr-ydline.so.0:LOBYTE
libocr-ydline.so.0:LOWORD
libocr-ydline.so.0:LoadLibraryEx
libocr-ydline.so.0:MAKELONG32
libocr-ydline.so.0:MAKEWORD
libocr-ydline.so.0:MessageBox
libocr-ydline.so.0:OutputDebugStringA
libocr-ydline.so.0:OutputDebugStringW
libocr-ydline.so.0:PeekMessage
libocr-ydline.so.0:QueryPerformanceCounter
libocr-ydline.so.0:QueryPerformanceFrequency
libocr-ydline.so.0:ReadFile
libocr-ydline.so.0:SegmentLineMain
libocr-ydline.so.0:SendMessage
libocr-ydline.so.0:SetFilePointer
libocr-ydline.so.0:SetRect
libocr-ydline.so.0:Sleep
libocr-ydline.so.0:TranslateMessage
libocr-ydline.so.0:WaitForMultipleObjects
libocr-ydline.so.0:WaitForSingleObject
libocr-ydline.so.0:WriteFile
libocr-ydline.so.0:ZeroMemory
libocr-ydline.so.0:_Z11CreateEventP20_SECURITY_ATTRIBUTESiiPKc
libocr-ydline.so.0:_Z12utf16_fgetwsPDsiP8_IO_FILE
libocr-ydline.so.0:_Z12utf16_wcschrPKDsDs
libocr-ydline.so.0:_Z12utf16_wcscmpPKDsS0_
libocr-ydline.so.0:_Z12utf16_wcslenPKDs
libocr-ydline.so.0:_Z12utf16_wcslwrPDs
libocr-ydline.so.0:_Z12utf16_wfopenPKDsS0_
libocr-ydline.so.0:_Z13utf16_wremovePKDs
libocr-ydline.so.0:_Z14_beginthreadexP20_SECURITY_ATTRIBUTESjPFPvS1_ES1_jPm
libocr-ydline.so.0:_Z14utf16_wcscpy_sPDsmPKDs
libocr-ydline.so.0:_Z14utf16_wcslwr_sPDsm
libocr-ydline.so.0:_Z14utf16_wcsupr_sPDsm
libocr-ydline.so.0:_Z14utf16_wfopen_sPP8_IO_FILEPKDsS3_
libocr-ydline.so.0:_Z15HRanExtractFastPhiiPiRi
libocr-ydline.so.0:_Z15utf16_wcsncpy_sPDsmPKDsm
libocr-ydline.so.0:_Z16utf16_fwprintf_sP8_IO_FILEPKDsz
libocr-ydline.so.0:_Z17GetRegistrySZ_MacPKcS0_Pcj
libocr-ydline.so.0:_Z18IsDebuggerAvaiablev
libocr-ydline.so.0:_Z19InterlockedExchangePii
libocr-ydline.so.0:_Z19ReplaceYondeToLocalPvRSt6vectorI12CBlockFrameLSaIS1_EERS0_I11CCharFrameLSaIS5_EER10CYDBWImage
libocr-ydline.so.0:_Z20EnterCriticalSectionP16CRITICAL_SECTION
libocr-ydline.so.0:_Z20GetRegistryDWORD_MacPKcS0_j
libocr-ydline.so.0:_Z20GetYndProfileInt_MacPKcS0_j
libocr-ydline.so.0:_Z20LeaveCriticalSectionP16CRITICAL_SECTION
libocr-ydline.so.0:_Z21DeleteCriticalSectionP16CRITICAL_SECTION
libocr-ydline.so.0:_Z23GetYndProfileString_MacPKcS0_Pc
libocr-ydline.so.0:_Z25InitializeCriticalSectionP16CRITICAL_SECTION
libocr-ydline.so.0:_Z33GetFolderStringRelativeBaseModulePv16ModuleFolderType
libocr-ydline.so.0:_Z3RGBhhh
libocr-ydline.so.0:_Z8SetEventPv
libocr-ydline.so.0:_Z8jis2sjist
libocr-ydline.so.0:_Z8sjis2jist
libocr-ydline.so.0:_Z9GetBValuej
libocr-ydline.so.0:_Z9GetGValuej
libocr-ydline.so.0:_Z9GetRValuej
libocr-ydline.so.0:_Z9Jmbbtombcj
libocr-ydline.so.0:_Z9Jmbctombbj
libocr-ydline.so.0:_ZN10CYDBWImage10ConnectRanEPSt6vectorI13TYDImgRanPlusItESaIS2_EEt
libocr-ydline.so.0:_ZN10CYDBWImage10CountBlackE10TYDImgRectItE
libocr-ydline.so.0:_ZN10CYDBWImage10FilletLineEPhRiS1_
libocr-ydline.so.0:_ZN10CYDBWImage10FilletRectER10TYDImgRectItE
libocr-ydline.so.0:_ZN10CYDBWImage10ProjectionERSt6vectorItSaItEE10TYDImgRectItEiti
libocr-ydline.so.0:_ZN10CYDBWImage10RanExtractERSt6vectorI9TYDImgRanItESaIS2_EEtttiit
libocr-ydline.so.0:_ZN10CYDBWImage10RanToFrameER12CYDFramePackPSt6vectorI14TYDImgRan2PlusItESaIS4_EES7_ti
libocr-ydline.so.0:_ZN10CYDBWImage11FilletRect2ER10TYDImgRectItE
libocr-ydline.so.0:_ZN10CYDBWImage11HRanExtractEPSt6vectorI13TYDImgRanPlusItESaIS2_EEttt
libocr-ydline.so.0:_ZN10CYDBWImage11HRanExtractEPSt6vectorI14TYDImgRan2PlusItESaIS2_EEttt
libocr-ydline.so.0:_ZN10CYDBWImage11HRanExtractERSt6vectorI9TYDImgRanItESaIS2_EEttt
libocr-ydline.so.0:_ZN10CYDBWImage11LabelingRanERSt6vectorI14TYDImgRectPlusItESaIS2_EEP10TYDImgRectItEiiiPS_
libocr-ydline.so.0:_ZN10CYDBWImage11RanToFrame2ER12CYDFramePackR8CRunListS3_ti
libocr-ydline.so.0:_ZN10CYDBWImage11SegmentInitERSt6vectorI10TYDImgRectItESaIS2_EEPS2_iiiPS_
libocr-ydline.so.0:_ZN10CYDBWImage11VRanExtractEPSt6vectorI13TYDImgRanPlusItESaIS2_EEttt
libocr-ydline.so.0:_ZN10CYDBWImage11VRanExtractEPSt6vectorI14TYDImgRan2PlusItESaIS2_EEttt
libocr-ydline.so.0:_ZN10CYDBWImage11VRanExtractERSt6vectorI9TYDImgRanItESaIS2_EEttt
libocr-ydline.so.0:_ZN10CYDBWImage12AcquireImageEPhjP10TYDImgRectItE
libocr-ydline.so.0:_ZN10CYDBWImage12LocalErosionEP10TYDImgRectItE
libocr-ydline.so.0:_ZN10CYDBWImage13DrawFrameRectE10TYDImgRectItE
libocr-ydline.so.0:_ZN10CYDBWImage13LocalDilationEP10TYDImgRectItE
libocr-ydline.so.0:_ZN10CYDBWImage14EraseFrameRectE10TYDImgRectItE
libocr-ydline.so.0:_ZN10CYDBWImage15SegmentLineRectERSt6vectorI10TYDImgRectItESaIS2_EEtiPS2_i
libocr-ydline.so.0:_ZN10CYDBWImage16CounterClockwiseEv
libocr-ydline.so.0:_ZN10CYDBWImage16HWhiteRanExtractERSt6vectorI9TYDImgRanItESaIS2_EEttt
libocr-ydline.so.0:_ZN10CYDBWImage16LabelingLineRectERSt6vectorI14TYDImgRectPlusItESaIS2_EEtiP10TYDImgRectItEi
libocr-ydline.so.0:_ZN10CYDBWImage16LocalLabelingRanER12CYDFramePack10TYDImgRectItEiiiiPS_
libocr-ydline.so.0:_ZN10CYDBWImage16VWhiteRanExtractERSt6vectorI9TYDImgRanItESaIS2_EEttt
libocr-ydline.so.0:_ZN10CYDBWImage19ConvertOutlineImageE10TYDImgRectItE
libocr-ydline.so.0:_ZN10CYDBWImage19RanToFrame_4ConnectER12CYDFramePackPSt6vectorI14TYDImgRan2PlusItESaIS4_EES7_ti
libocr-ydline.so.0:_ZN10CYDBWImage20ConvertThinningImageEP10TYDImgRectItE
libocr-ydline.so.0:_ZN10CYDBWImage20RanToFrame_4Connect2ER12CYDFramePackR8CRunListS3_ti
libocr-ydline.so.0:_ZN10CYDBWImage21LocalLabelingLineRectER12CYDFramePackti10TYDImgRectItEii
libocr-ydline.so.0:_ZN10CYDBWImage4DrawE10TYDImgRectItE
libocr-ydline.so.0:_ZN10CYDBWImage4DrawEtRSt6vectorI9TYDImgRanItESaIS2_EEi
libocr-ydline.so.0:_ZN10CYDBWImage4DrawEtt
libocr-ydline.so.0:_ZN10CYDBWImage4DrawEttti
libocr-ydline.so.0:_ZN10CYDBWImage5EraseE10TYDImgRectItE
libocr-ydline.so.0:_ZN10CYDBWImage5EraseEtRSt6vectorI9TYDImgRanItESaIS2_EEi
libocr-ydline.so.0:_ZN10CYDBWImage5EraseEtt
libocr-ydline.so.0:_ZN10CYDBWImage5EraseEttti
libocr-ydline.so.0:_ZN10CYDBWImage6ReDrawEtRSt6vectorI9TYDImgRanItESaIS2_EEiPS2_
libocr-ydline.so.0:_ZN10CYDBWImage7ClosingEP10TYDImgRectItEPS_P9TYDImgPosItE
libocr-ydline.so.0:_ZN10CYDBWImage7ErosionEP10TYDImgRectItEPS_P9TYDImgPosItE
libocr-ydline.so.0:_ZN10CYDBWImage7OpeningEP10TYDImgRectItEPS_P9TYDImgPosItE
libocr-ydline.so.0:_ZN10CYDBWImage7ReverseE10TYDImgRectItE
libocr-ydline.so.0:_ZN10CYDBWImage7ReverseEtRSt6vectorI9TYDImgRanItESaIS2_EEi
libocr-ydline.so.0:_ZN10CYDBWImage7ReverseEtt
libocr-ydline.so.0:_ZN10CYDBWImage7ReverseEttti
libocr-ydline.so.0:_ZN10CYDBWImage8CopyRectERS_10TYDImgRectItE
libocr-ydline.so.0:_ZN10CYDBWImage8DeletePtEPii
libocr-ydline.so.0:_ZN10CYDBWImage8DilationEP10TYDImgRectItEPS_P9TYDImgPosItE
libocr-ydline.so.0:_ZN10CYDBWImage8MemoryOrEPvPKvtt
libocr-ydline.so.0:_ZN10CYDBWImage8TrimRectE10TYDImgRectItE
libocr-ydline.so.0:_ZN10CYDBWImage9ClockwiseEv
libocr-ydline.so.0:_ZN10CYDBWImage9GradationEt
libocr-ydline.so.0:_ZN10CYDBWImage9MemoryAndEPvPKvtt
libocr-ydline.so.0:_ZN10CYDBWImage9NumOfBitsEi
libocr-ydline.so.0:_ZN11CCreateLine11GetMaxFrameER17CFrameListManagertPtt
libocr-ydline.so.0:_ZN11CCreateLine11RestoreRectER17CFrameListManagert
libocr-ydline.so.0:_ZN11CCreateLine11SegmentLineEPvt
libocr-ydline.so.0:_ZN11CCreateLine12GetFrameSideER17CFrameListManagertttPtS2_t
libocr-ydline.so.0:_ZN11CCreateLine12MakeLineGateEP8tagFRAMEttt
libocr-ydline.so.0:_ZN11CCreateLine12SegmentLineTEPvt
libocr-ydline.so.0:_ZN11CCreateLine13ExpandFrame_LER17CFrameListManagerttt
libocr-ydline.so.0:_ZN11CCreateLine13set_line_typeEPhh
libocr-ydline.so.0:_ZN11CCreateLine14ExpandFrame_L2ER17CFrameListManagerttt
libocr-ydline.so.0:_ZN11CCreateLine14InformResult_LER17CFrameListManagerP8tagFRAMEtt
libocr-ydline.so.0:_ZN11CCreateLine14MoveCANCHE_BITER17CFrameListManagertt
libocr-ydline.so.0:_ZN11CCreateLine14MoveREMOVE_BITER17CFrameListManagertt
libocr-ydline.so.0:_ZN11CCreateLine15FreeFrameStatusEP8tagFRAMEt
libocr-ydline.so.0:_ZN11CCreateLine16BeginEnglishModeER17CFrameListManagerttttPtRtt
libocr-ydline.so.0:_ZN11CCreateLine16DeleteREMOVE_BITER17CFrameListManagert
libocr-ydline.so.0:_ZN11CCreateLine16HaveGoodFriend02ER17CFrameListManagert10TYDImgRectItEtttPtS4_
libocr-ydline.so.0:_ZN11CCreateLine16IsThisOtherPartsER17CFrameListManagertPtS2_tt10TYDImgRectItEt
libocr-ydline.so.0:_ZN11CCreateLine16MergeFrameStageAER17CFrameListManagerPtS2_ttt10TYDImgRectItEt
libocr-ydline.so.0:_ZN11CCreateLine16MergeFrameStageBER17CFrameListManagerPtS2_ttt10TYDImgRectItEt
libocr-ydline.so.0:_ZN11CCreateLine17BeginJapaneseModeER17CFrameListManagerttttPtRtt10TYDImgRectItEd
libocr-ydline.so.0:_ZN11CCreateLine17InformResultAdd_LER17CFrameListManagerP8tagFRAMEtt
libocr-ydline.so.0:_ZN11CCreateLine17SetOrientAllCellsEP11tagCELLDATA
libocr-ydline.so.0:_ZN11CCreateLine17SetSearchRegion_LER10TYDImgRectItES1_tS1_
libocr-ydline.so.0:_ZN11CCreateLine18GetAllCellsInTableEP11tagCELLDATAP6CELL_TPttS4_t10TYDImgRectItES4_
libocr-ydline.so.0:_ZN11CCreateLine18GetFrameSidewChildER17CFrameListManagerttPtS2_10TYDImgRectItEt
libocr-ydline.so.0:_ZN11CCreateLine18Get_SameLineNext_LER17CFrameListManagerPtS2_t
libocr-ydline.so.0:_ZN11CCreateLine18MakeLineGate_TableER17CFrameListManagerP8tagFRAMEP11tagCELLDATAtttPtS6_S6_tt
libocr-ydline.so.0:_ZN11CCreateLine18WhatDestanceInThisEdPd
libocr-ydline.so.0:_ZN11CCreateLine19CheckOneLineOneWordER17CFrameListManagerPtS2_S2_ttt10TYDImgRectItEtt
libocr-ydline.so.0:_ZN11CCreateLine19ConnectCrossFrame_LER17CFrameListManagertPtS2_S2_ttt10TYDImgRectItE
libocr-ydline.so.0:_ZN11CCreateLine19WhatManyWordsInThisER17CFrameListManagertPdt
libocr-ydline.so.0:_ZN11CCreateLine21ChangeTurnOfhpCelDataEP11tagCELLDATA
libocr-ydline.so.0:_ZN11CCreateLine21InitFrameListForBlockER17CFrameListManagerP8tagFRAME10TYDImgRectItEt
libocr-ydline.so.0:_ZN11CCreateLine21special_limitted_charER17CFrameListManagertt
libocr-ydline.so.0:_ZN11CCreateLine22CopyFrameInCellToList2ER17CFrameListManagerP8tagFRAMEtttP6CELL_TtP11tagCELLDATA
libocr-ydline.so.0:_ZN11CCreateLine23GetCrossAndCoverFrame_LER17CFrameListManagert10TYDImgRectItEPtS4_t
libocr-ydline.so.0:_ZN11CCreateLine24ChagehpCelDataAndPrmDataEP11tagCELLDATA
libocr-ydline.so.0:_ZN11CCreateLine26DeleteInValidGroupAndFrameER17CFrameListManagerPtS2_S2_tttt10TYDImgRectItEt
libocr-ydline.so.0:_ZN11CCreateLine26EntrywSourceTowChildParentER17CFrameListManagerttt
libocr-ydline.so.0:_ZN11CCreateLine26GetCrossAndCoverFrameAdd_LER17CFrameListManagert10TYDImgRectItEPtS4_t
libocr-ydline.so.0:_ZN11CCreateLine27GetOneWordGroupFromOneFrameER17CFrameListManagertPtS2_S2_S2_tt10TYDImgRectItEttt
libocr-ydline.so.0:_ZN11CCreateLine28GetCrossAndCoverFrameArray_LER17CFrameListManagerPtt10TYDImgRectItES2_S2_t
libocr-ydline.so.0:_ZN11CCreateLine28SetOneWordForwChildParent_IDER17CFrameListManagertttt
libocr-ydline.so.0:_ZN11CCreateLine31GetCrossAndCoverFrameAddChild_LER17CFrameListManagert10TYDImgRectItEPtS4_t
libocr-ydline.so.0:_ZN11CCreateLine31GetCrossAndCoverFrameArrayAdd_LER17CFrameListManagerPtt10TYDImgRectItES2_S2_t
libocr-ydline.so.0:_ZN11CCreateLine8MakeLineER17CFrameListManager10TYDImgRectItEtPtS4_S4_t
libocr-ydline.so.0:_ZN11CCreateLine9GetLengthEP11FRAMELIST_LS1_Ptt
libocr-ydline.so.0:_ZN11CCreateLine9StoreRectER17CFrameListManagert
libocr-ydline.so.0:_ZN11CYDBMPImage14OutputBMPImageEPKc
libocr-ydline.so.0:_ZN13CYDThreadPool10GetCommandEv
libocr-ydline.so.0:_ZN13CYDThreadPool12WorkerThreadEPv
libocr-ydline.so.0:_ZN13CYDThreadPool13RingingChimesEi
libocr-ydline.so.0:_ZN13CYDThreadPool5StoreEP10CYDCommand
libocr-ydline.so.0:_ZN13CYDThreadPool7ExecuteEv
libocr-ydline.so.0:_ZN13CYDThreadPoolC1Ei
libocr-ydline.so.0:_ZN13CYDThreadPoolC2Ei
libocr-ydline.so.0:_ZN13CYDThreadPoolD0Ev
libocr-ydline.so.0:_ZN13CYDThreadPoolD1Ev
libocr-ydline.so.0:_ZN13CYDThreadPoolD2Ev
libocr-ydline.so.0:_ZN14CYDBWImageTool6RanAndER8CRunListS1_S1_
libocr-ydline.so.0:_ZN15CCapitalToSmall7ConvertEt
libocr-ydline.so.0:_ZN15CSmallToCapital7ConvertEt
libocr-ydline.so.0:_ZN17CCapitalToSmallTR7ConvertEt
libocr-ydline.so.0:_ZN17CFrameListManager11DeleteOne_LEt
libocr-ydline.so.0:_ZN17CFrameListManager11Delete_ListEt
libocr-ydline.so.0:_ZN17CFrameListManager12BeChild_ID_LEtt
libocr-ydline.so.0:_ZN17CFrameListManager12ReCalcProp_LEtt
libocr-ydline.so.0:_ZN17CFrameListManager12splice_FrameEtt
libocr-ydline.so.0:_ZN17CFrameListManager14NoBeChild_ID_LEt
libocr-ydline.so.0:_ZN17CFrameListManager16Output_FrameDataEPKc
libocr-ydline.so.0:_ZN17CFrameListManager8Add_ID_LEtt
libocr-ydline.so.0:_ZN17CFrameListManager8Cut_ID_LEt
libocr-ydline.so.0:_ZN17CFrameListManager8GetOne_LEPt
libocr-ydline.so.0:_ZN17CSmallToCapitalTR7ConvertEt
libocr-ydline.so.0:_ZN3GDM11DeleteFrameEP8tagFRAMEt
libocr-ydline.so.0:_ZN3GDM12DeleteDetailEP9tagDETAILt
libocr-ydline.so.0:_ZN3GDM12DeleteResultEP9tagRESULTt
libocr-ydline.so.0:_ZN3GDM8GetFrameEP8tagFRAME
libocr-ydline.so.0:_ZN3GDM9GetDetailEP9tagDETAILi
libocr-ydline.so.0:_ZN3GDM9GetResultEP9tagRESULT
libocr-ydline.so.0:_ZN4YDTC10sjistoucs2Et
libocr-ydline.so.0:_ZN4YDTC10ucs2tosjisEt
libocr-ydline.so.0:_ZN4YDTC7One2TwoEt
libocr-ydline.so.0:_ZN4YDTC7Two2OneEti
libocr-ydline.so.0:_ZN4YDTC9YdTwo2OneEt
libocr-ydline.so.0:_ZN4YDTC9jistosjisEt
libocr-ydline.so.0:_ZN4YDTC9jistoucs2Et
libocr-ydline.so.0:_ZN4YDTC9sjistojisEt
libocr-ydline.so.0:_ZN4YDTC9ucs2tojisEt
libocr-ydline.so.0:_ZN5YDIMG10IsBottomUpEPc
libocr-ydline.so.0:_ZN5YDIMG10UpsideDownEPc
libocr-ydline.so.0:_ZN5YDIMG10WIDTHBYTESEj
libocr-ydline.so.0:_ZN5YDIMG11DIBBitCountEPc
libocr-ydline.so.0:_ZN5YDIMG11FindDIBBitsEPc
libocr-ydline.so.0:_ZN5YDIMG11FindPaletteEPc
libocr-ydline.so.0:_ZN5YDIMG11PaletteSizeEPc
libocr-ydline.so.0:_ZN5YDIMG12DIBNumColorsEPc
libocr-ydline.so.0:_ZN5YDIMG14DIBCompressionEPc
libocr-ydline.so.0:_ZN5YDIMG7DIBBitsEPc
libocr-ydline.so.0:_ZN5YDIMG7DIBSizeEPc
libocr-ydline.so.0:_ZN5YDIMG8DIBWidthEPc
libocr-ydline.so.0:_ZN5YDIMG8DPItoDPMEt
libocr-ydline.so.0:_ZN5YDIMG8DPMtoDPIEi
libocr-ydline.so.0:_ZN5YDIMG9CreateDIBEjjt
libocr-ydline.so.0:_ZN5YDIMG9DIBHeightEPc
libocr-ydline.so.0:__bss_start
libocr-ydline.so.0:_edata
libocr-ydline.so.0:_end
libocr-ydline.so.0:_fini
libocr-ydline.so.0:_init
libocr-ydline.so.0:_itoa_s
libocr-ydline.so.0:_mbbtombc
libocr-ydline.so.0:_mbcjistojms
libocr-ydline.so.0:_mbcjmstojis
libocr-ydline.so.0:_mbsbtype
libocr-ydline.so.0:_mbscat_s
libocr-ydline.so.0:_mbschr
libocr-ydline.so.0:_mbscmp
libocr-ydline.so.0:_mbscpy_s
libocr-ydline.so.0:_mbslen
libocr-ydline.so.0:_mbsncpy_s
libocr-ydline.so.0:_splitpath_s
libocr-ydline.so.0:_tcscat_s
libocr-ydline.so.0:_tcscpy_s
libocr-ydline.so.0:_tcsrchr
libocr-ydline.so.0:ascii_1byteto2byte_table
libocr-ydline.so.0:fopen_s
libocr-ydline.so.0:g_dwLastError
libocr-ydline.so.0:g_sjistoucs2_table_01
libocr-ydline.so.0:g_sjistoucs2_table_02
libocr-ydline.so.0:g_sjistoucs2_table_03
libocr-ydline.so.0:g_sjistoucs2_table_04
libocr-ydline.so.0:g_ucs2tosjis_table_01
libocr-ydline.so.0:g_ucs2tosjis_table_01_2
libocr-ydline.so.0:g_ucs2tosjis_table_02
libocr-ydline.so.0:g_ucs2tosjis_table_03
libocr-ydline.so.0:g_ucs2tosjis_table_04
libocr-ydline.so.0:g_ucs2tosjis_table_05
libocr-ydline.so.0:g_ucs2tosjis_table_06
libocr-ydline.so.0:g_wCtoS_0x0040_0x007f
libocr-ydline.so.0:g_wCtoS_0x00c0_0x02af
libocr-ydline.so.0:g_wCtoS_0x0380_0x058f
libocr-ydline.so.0:g_wCtoS_0x1e00_0x1fff
libocr-ydline.so.0:g_wStoC_0x0040_0x007f
libocr-ydline.so.0:g_wStoC_0x00c0_0x02af
libocr-ydline.so.0:g_wStoC_0x0380_0x058f
libocr-ydline.so.0:g_wStoC_0x1e00_0x1fff
libocr-ydline.so.0:katakana_1byteto2byte_table
libocr-ydline.so.0:memcpy_s
libocr-ydline.so.0:sprintf_s
libocr-ydline.so.0:strcat_s
libocr-ydline.so.0:strcpy_s
libocr-ydline.so.0:stricmp
libocr-ydline.so.0:strncpy_s
libocr-ydocrd.so.0:
libocr-ydocrd.so.0:AfxMessageBox
libocr-ydocrd.so.0:CloseHandle
libocr-ydocrd.so.0:CopyMemory
libocr-ydocrd.so.0:CreateFile
libocr-ydocrd.so.0:CreatePalette
libocr-ydocrd.so.0:DispatchMessage
libocr-ydocrd.so.0:EnumObjects
libocr-ydocrd.so.0:FillMemory
libocr-ydocrd.so.0:FreeLibrary
libocr-ydocrd.so.0:GetLastError
libocr-ydocrd.so.0:GetModuleFileName
libocr-ydocrd.so.0:GetModuleHandle
libocr-ydocrd.so.0:GetPrivateProfileString
libocr-ydocrd.so.0:GetProcAddress
libocr-ydocrd.so.0:GetSystemInfo
libocr-ydocrd.so.0:GlobalAlloc
libocr-ydocrd.so.0:GlobalFlags
libocr-ydocrd.so.0:GlobalFree
libocr-ydocrd.so.0:GlobalLock
libocr-ydocrd.so.0:GlobalReAlloc
libocr-ydocrd.so.0:GlobalSize
libocr-ydocrd.so.0:GlobalUnlock
libocr-ydocrd.so.0:HIBYTE
libocr-ydocrd.so.0:HIWORD
libocr-ydocrd.so.0:HeapAlloc
libocr-ydocrd.so.0:HeapCreate
libocr-ydocrd.so.0:HeapDestroy
libocr-ydocrd.so.0:HeapFree
libocr-ydocrd.so.0:IsBadReadPtr
libocr-ydocrd.so.0:LOBYTE
libocr-ydocrd.so.0:LOWORD
libocr-ydocrd.so.0:LoadLibraryEx
libocr-ydocrd.so.0:MAKELONG32
libocr-ydocrd.so.0:MAKEWORD
libocr-ydocrd.so.0:MessageBox
libocr-ydocrd.so.0:OcrAcquireFeature
libocr-ydocrd.so.0:OcrAcquireFeature2
libocr-ydocrd.so.0:OcrAdjustTargetRegion
libocr-ydocrd.so.0:OcrAdjustTargetRegion2
libocr-ydocrd.so.0:OcrCorrectResult
libocr-ydocrd.so.0:OcrEnd
libocr-ydocrd.so.0:OcrEnd2
libocr-ydocrd.so.0:OcrExecuteChar
libocr-ydocrd.so.0:OcrExecuteChar2
libocr-ydocrd.so.0:OcrExecuteDoc
libocr-ydocrd.so.0:OcrExecuteDoc2
libocr-ydocrd.so.0:OcrExecuteDoc3
libocr-ydocrd.so.0:OcrInit
libocr-ydocrd.so.0:OcrInit2
libocr-ydocrd.so.0:OcrLoadDic
libocr-ydocrd.so.0:OcrLoadDic2
libocr-ydocrd.so.0:OcrMemInit
libocr-ydocrd.so.0:OcrMemInit2
libocr-ydocrd.so.0:OutputDebugStringA
libocr-ydocrd.so.0:OutputDebugStringW
libocr-ydocrd.so.0:PeekMessage
libocr-ydocrd.so.0:QueryPerformanceCounter
libocr-ydocrd.so.0:QueryPerformanceFrequency
libocr-ydocrd.so.0:ReadFile
libocr-ydocrd.so.0:SendMessage
libocr-ydocrd.so.0:SetFilePointer
libocr-ydocrd.so.0:SetRect
libocr-ydocrd.so.0:Sleep
libocr-ydocrd.so.0:TranslateMessage
libocr-ydocrd.so.0:WaitForMultipleObjects
libocr-ydocrd.so.0:WaitForSingleObject
libocr-ydocrd.so.0:WriteFile
libocr-ydocrd.so.0:ZeroMemory
libocr-ydocrd.so.0:_Z11CreateEventP20_SECURITY_ATTRIBUTESiiPKc
libocr-ydocrd.so.0:_Z12utf16_fgetwsPDsiP8_IO_FILE
libocr-ydocrd.so.0:_Z12utf16_wcschrPKDsDs
libocr-ydocrd.so.0:_Z12utf16_wcscmpPKDsS0_
libocr-ydocrd.so.0:_Z12utf16_wcslenPKDs
libocr-ydocrd.so.0:_Z12utf16_wcslwrPDs
libocr-ydocrd.so.0:_Z12utf16_wfopenPKDsS0_
libocr-ydocrd.so.0:_Z13utf16_wremovePKDs
libocr-ydocrd.so.0:_Z14_beginthreadexP20_SECURITY_ATTRIBUTESjPFPvS1_ES1_jPm
libocr-ydocrd.so.0:_Z14utf16_wcscpy_sPDsmPKDs
libocr-ydocrd.so.0:_Z14utf16_wcslwr_sPDsm
libocr-ydocrd.so.0:_Z14utf16_wcsupr_sPDsm
libocr-ydocrd.so.0:_Z14utf16_wfopen_sPP8_IO_FILEPKDsS3_
libocr-ydocrd.so.0:_Z15HRanExtractFastPhiiPiRi
libocr-ydocrd.so.0:_Z15utf16_wcsncpy_sPDsmPKDsm
libocr-ydocrd.so.0:_Z16utf16_fwprintf_sP8_IO_FILEPKDsz
libocr-ydocrd.so.0:_Z17GetRegistrySZ_MacPKcS0_Pcj
libocr-ydocrd.so.0:_Z18IsDebuggerAvaiablev
libocr-ydocrd.so.0:_Z19InterlockedExchangePii
libocr-ydocrd.so.0:_Z20EnterCriticalSectionP16CRITICAL_SECTION
libocr-ydocrd.so.0:_Z20GetRegistryDWORD_MacPKcS0_j
libocr-ydocrd.so.0:_Z20GetYndProfileInt_MacPKcS0_j
libocr-ydocrd.so.0:_Z20LeaveCriticalSectionP16CRITICAL_SECTION
libocr-ydocrd.so.0:_Z21DeleteCriticalSectionP16CRITICAL_SECTION
libocr-ydocrd.so.0:_Z23GetYndProfileString_MacPKcS0_Pc
libocr-ydocrd.so.0:_Z25InitializeCriticalSectionP16CRITICAL_SECTION
libocr-ydocrd.so.0:_Z33GetFolderStringRelativeBaseModulePv16ModuleFolderType
libocr-ydocrd.so.0:_Z3RGBhhh
libocr-ydocrd.so.0:_Z8SetEventPv
libocr-ydocrd.so.0:_Z8jis2sjist
libocr-ydocrd.so.0:_Z8sjis2jist
libocr-ydocrd.so.0:_Z9GetBValuej
libocr-ydocrd.so.0:_Z9GetGValuej
libocr-ydocrd.so.0:_Z9GetRValuej
libocr-ydocrd.so.0:_Z9Jmbbtombcj
libocr-ydocrd.so.0:_Z9Jmbctombbj
libocr-ydocrd.so.0:_ZN10CYDBWImage10ConnectRanEPSt6vectorI13TYDImgRanPlusItESaIS2_EEt
libocr-ydocrd.so.0:_ZN10CYDBWImage10CountBlackE10TYDImgRectItE
libocr-ydocrd.so.0:_ZN10CYDBWImage10FilletLineEPhRiS1_
libocr-ydocrd.so.0:_ZN10CYDBWImage10FilletRectER10TYDImgRectItE
libocr-ydocrd.so.0:_ZN10CYDBWImage10ProjectionERSt6vectorItSaItEE10TYDImgRectItEiti
libocr-ydocrd.so.0:_ZN10CYDBWImage10RanExtractERSt6vectorI9TYDImgRanItESaIS2_EEtttiit
libocr-ydocrd.so.0:_ZN10CYDBWImage10RanToFrameER12CYDFramePackPSt6vectorI14TYDImgRan2PlusItESaIS4_EES7_ti
libocr-ydocrd.so.0:_ZN10CYDBWImage11FilletRect2ER10TYDImgRectItE
libocr-ydocrd.so.0:_ZN10CYDBWImage11HRanExtractEPSt6vectorI13TYDImgRanPlusItESaIS2_EEttt
libocr-ydocrd.so.0:_ZN10CYDBWImage11HRanExtractEPSt6vectorI14TYDImgRan2PlusItESaIS2_EEttt
libocr-ydocrd.so.0:_ZN10CYDBWImage11HRanExtractERSt6vectorI9TYDImgRanItESaIS2_EEttt
libocr-ydocrd.so.0:_ZN10CYDBWImage11LabelingRanERSt6vectorI14TYDImgRectPlusItESaIS2_EEP10TYDImgRectItEiiiPS_
libocr-ydocrd.so.0:_ZN10CYDBWImage11RanToFrame2ER12CYDFramePackR8CRunListS3_ti
libocr-ydocrd.so.0:_ZN10CYDBWImage11SegmentInitERSt6vectorI10TYDImgRectItESaIS2_EEPS2_iiiPS_
libocr-ydocrd.so.0:_ZN10CYDBWImage11VRanExtractEPSt6vectorI13TYDImgRanPlusItESaIS2_EEttt
libocr-ydocrd.so.0:_ZN10CYDBWImage11VRanExtractEPSt6vectorI14TYDImgRan2PlusItESaIS2_EEttt
libocr-ydocrd.so.0:_ZN10CYDBWImage11VRanExtractERSt6vectorI9TYDImgRanItESaIS2_EEttt
libocr-ydocrd.so.0:_ZN10CYDBWImage12AcquireImageEPhjP10TYDImgRectItE
libocr-ydocrd.so.0:_ZN10CYDBWImage12LocalErosionEP10TYDImgRectItE
libocr-ydocrd.so.0:_ZN10CYDBWImage13DrawFrameRectE10TYDImgRectItE
libocr-ydocrd.so.0:_ZN10CYDBWImage13LocalDilationEP10TYDImgRectItE
libocr-ydocrd.so.0:_ZN10CYDBWImage14EraseFrameRectE10TYDImgRectItE
libocr-ydocrd.so.0:_ZN10CYDBWImage15SegmentLineRectERSt6vectorI10TYDImgRectItESaIS2_EEtiPS2_i
libocr-ydocrd.so.0:_ZN10CYDBWImage16CounterClockwiseEv
libocr-ydocrd.so.0:_ZN10CYDBWImage16HWhiteRanExtractERSt6vectorI9TYDImgRanItESaIS2_EEttt
libocr-ydocrd.so.0:_ZN10CYDBWImage16LabelingLineRectERSt6vectorI14TYDImgRectPlusItESaIS2_EEtiP10TYDImgRectItEi
libocr-ydocrd.so.0:_ZN10CYDBWImage16LocalLabelingRanER12CYDFramePack10TYDImgRectItEiiiiPS_
libocr-ydocrd.so.0:_ZN10CYDBWImage16VWhiteRanExtractERSt6vectorI9TYDImgRanItESaIS2_EEttt
libocr-ydocrd.so.0:_ZN10CYDBWImage19ConvertOutlineImageE10TYDImgRectItE
libocr-ydocrd.so.0:_ZN10CYDBWImage19RanToFrame_4ConnectER12CYDFramePackPSt6vectorI14TYDImgRan2PlusItESaIS4_EES7_ti
libocr-ydocrd.so.0:_ZN10CYDBWImage20ConvertThinningImageEP10TYDImgRectItE
libocr-ydocrd.so.0:_ZN10CYDBWImage20RanToFrame_4Connect2ER12CYDFramePackR8CRunListS3_ti
libocr-ydocrd.so.0:_ZN10CYDBWImage21LocalLabelingLineRectER12CYDFramePackti10TYDImgRectItEii
libocr-ydocrd.so.0:_ZN10CYDBWImage4DrawE10TYDImgRectItE
libocr-ydocrd.so.0:_ZN10CYDBWImage4DrawEtRSt6vectorI9TYDImgRanItESaIS2_EEi
libocr-ydocrd.so.0:_ZN10CYDBWImage4DrawEtt
libocr-ydocrd.so.0:_ZN10CYDBWImage4DrawEttti
libocr-ydocrd.so.0:_ZN10CYDBWImage5EraseE10TYDImgRectItE
libocr-ydocrd.so.0:_ZN10CYDBWImage5EraseEtRSt6vectorI9TYDImgRanItESaIS2_EEi
libocr-ydocrd.so.0:_ZN10CYDBWImage5EraseEtt
libocr-ydocrd.so.0:_ZN10CYDBWImage5EraseEttti
libocr-ydocrd.so.0:_ZN10CYDBWImage6ReDrawEtRSt6vectorI9TYDImgRanItESaIS2_EEiPS2_
libocr-ydocrd.so.0:_ZN10CYDBWImage7ClosingEP10TYDImgRectItEPS_P9TYDImgPosItE
libocr-ydocrd.so.0:_ZN10CYDBWImage7ErosionEP10TYDImgRectItEPS_P9TYDImgPosItE
libocr-ydocrd.so.0:_ZN10CYDBWImage7OpeningEP10TYDImgRectItEPS_P9TYDImgPosItE
libocr-ydocrd.so.0:_ZN10CYDBWImage7ReverseE10TYDImgRectItE
libocr-ydocrd.so.0:_ZN10CYDBWImage7ReverseEtRSt6vectorI9TYDImgRanItESaIS2_EEi
libocr-ydocrd.so.0:_ZN10CYDBWImage7ReverseEtt
libocr-ydocrd.so.0:_ZN10CYDBWImage7ReverseEttti
libocr-ydocrd.so.0:_ZN10CYDBWImage8CopyRectERS_10TYDImgRectItE
libocr-ydocrd.so.0:_ZN10CYDBWImage8DeletePtEPii
libocr-ydocrd.so.0:_ZN10CYDBWImage8DilationEP10TYDImgRectItEPS_P9TYDImgPosItE
libocr-ydocrd.so.0:_ZN10CYDBWImage8MemoryOrEPvPKvtt
libocr-ydocrd.so.0:_ZN10CYDBWImage8TrimRectE10TYDImgRectItE
libocr-ydocrd.so.0:_ZN10CYDBWImage9ClockwiseEv
libocr-ydocrd.so.0:_ZN10CYDBWImage9GradationEt
libocr-ydocrd.so.0:_ZN10CYDBWImage9MemoryAndEPvPKvtt
libocr-ydocrd.so.0:_ZN10CYDBWImage9NumOfBitsEi
libocr-ydocrd.so.0:_ZN11COCRControl10GetResultLEP9tagRESULT
libocr-ydocrd.so.0:_ZN11COCRControl10YdetcInitLEPvPt
libocr-ydocrd.so.0:_ZN11COCRControl11OcrLoadDicLEPvPt
