libIex-3_4.so.33:_Z13iex_debugTrapv
libIex-3_4.so.33:_ZN7Iex_3_410DivzeroExcC1EONSt7__cxx1112basic_stringIcSt11char_traitsIcESaIcEEE
libIex-3_4.so.33:_ZN7Iex_3_410DivzeroExcC1EOS0_
libIex-3_4.so.33:_ZN7Iex_3_410DivzeroExcC1EPKc
libIex-3_4.so.33:_ZN7Iex_3_410DivzeroExcC1ERKNSt7__cxx1112basic_stringIcSt11char_traitsIcESaIcEEE
libIex-3_4.so.33:_ZN7Iex_3_410DivzeroExcC1ERKS0_
libIex-3_4.so.33:_ZN7Iex_3_410DivzeroExcC1ERNSt7__cxx1118basic_stringstreamIcSt11char_traitsIcESaIcEEE
libIex-3_4.so.33:_ZN7Iex_3_410DivzeroExcC1Ev
libIex-3_4.so.33:_ZN7Iex_3_410DivzeroExcC2EONSt7__cxx1112basic_stringIcSt11char_traitsIcESaIcEEE
libIex-3_4.so.33:_ZN7Iex_3_410DivzeroExcC2EOS0_
libIex-3_4.so.33:_ZN7Iex_3_410DivzeroExcC2EPKc
libIex-3_4.so.33:_ZN7Iex_3_410DivzeroExcC2ERKNSt7__cxx1112basic_stringIcSt11char_traitsIcESaIcEEE
libIex-3_4.so.33:_ZN7Iex_3_410DivzeroExcC2ERKS0_
libIex-3_4.so.33:_ZN7Iex_3_410DivzeroExcC2ERNSt7__cxx1118basic_stringstreamIcSt11char_traitsIcESaIcEEE
libIex-3_4.so.33:_ZN7Iex_3_410DivzeroExcC2Ev
libIex-3_4.so.33:_ZN7Iex_3_410DivzeroExcD0Ev
libIex-3_4.so.33:_ZN7Iex_3_410DivzeroExcD1Ev
libIex-3_4.so.33:_ZN7Iex_3_410DivzeroExcD2Ev
libIex-3_4.so.33:_ZN7Iex_3_410DivzeroExcaSEOS0_
libIex-3_4.so.33:_ZN7Iex_3_410DivzeroExcaSERS0_
libIex-3_4.so.33:_ZN7Iex_3_410EbadmsgExcC1EONSt7__cxx1112basic_stringIcSt11char_traitsIcESaIcEEE
libIex-3_4.so.33:_ZN7Iex_3_410EbadmsgExcC1EOS0_
libIex-3_4.so.33:_ZN7Iex_3_410EbadmsgExcC1EPKc
libIex-3_4.so.33:_ZN7Iex_3_410EbadmsgExcC1ERKNSt7__cxx1112basic_stringIcSt11char_traitsIcESaIcEEE
libIex-3_4.so.33:_ZN7Iex_3_410EbadmsgExcC1ERKS0_
libIex-3_4.so.33:_ZN7Iex_3_410EbadmsgExcC1ERNSt7__cxx1118basic_stringstreamIcSt11char_traitsIcESaIcEEE
libIex-3_4.so.33:_ZN7Iex_3_410EbadmsgExcC1Ev
libIex-3_4.so.33:_ZN7Iex_3_410EbadmsgExcC2EONSt7__cxx1112basic_stringIcSt11char_traitsIcESaIcEEE
libIex-3_4.so.33:_ZN7Iex_3_410EbadmsgExcC2EOS0_
libIex-3_4.so.33:_ZN7Iex_3_410EbadmsgExcC2EPKc
libIex-3_4.so.33:_ZN7Iex_3_410EbadmsgExcC2ERKNSt7__cxx1112basic_stringIcSt11char_traitsIcESaIcEEE
libIex-3_4.so.33:_ZN7Iex_3_410EbadmsgExcC2ERKS0_
libIex-3_4.so.33:_ZN7Iex_3_410EbadmsgExcC2ERNSt7__cxx1118basic_stringstreamIcSt11char_traitsIcESaIcEEE
libIex-3_4.so.33:_ZN7Iex_3_410EbadmsgExcC2Ev
libIex-3_4.so.33:_ZN7Iex_3_410EbadmsgExcD0Ev
libIex-3_4.so.33:_ZN7Iex_3_410EbadmsgExcD1Ev
libIex-3_4.so.33:_ZN7Iex_3_410EbadmsgExcD2Ev
libIex-3_4.so.33:_ZN7Iex_3_410EbadmsgExcaSEOS0_
libIex-3_4.so.33:_ZN7Iex_3_410EbadmsgExcaSERS0_
libIex-3_4.so.33:_ZN7Iex_3_410EbadrqcExcC1EONSt7__cxx1112basic_stringIcSt11char_traitsIcESaIcEEE
libIex-3_4.so.33:_ZN7Iex_3_410EbadrqcExcC1EOS0_
libIex-3_4.so.33:_ZN7Iex_3_410EbadrqcExcC1EPKc
libIex-3_4.so.33:_ZN7Iex_3_410EbadrqcExcC1ERKNSt7__cxx1112basic_stringIcSt11char_traitsIcESaIcEEE
libIex-3_4.so.33:_ZN7Iex_3_410EbadrqcExcC1ERKS0_
libIex-3_4.so.33:_ZN7Iex_3_410EbadrqcExcC1ERNSt7__cxx1118basic_stringstreamIcSt11char_traitsIcESaIcEEE
libIex-3_4.so.33:_ZN7Iex_3_410EbadrqcExcC1Ev
libIex-3_4.so.33:_ZN7Iex_3_410EbadrqcExcC2EONSt7__cxx1112basic_stringIcSt11char_traitsIcESaIcEEE
libIex-3_4.so.33:_ZN7Iex_3_410EbadrqcExcC2EOS0_
libIex-3_4.so.33:_ZN7Iex_3_410EbadrqcExcC2EPKc
libIex-3_4.so.33:_ZN7Iex_3_410EbadrqcExcC2ERKNSt7__cxx1112basic_stringIcSt11char_traitsIcESaIcEEE
libIex-3_4.so.33:_ZN7Iex_3_410EbadrqcExcC2ERKS0_
libIex-3_4.so.33:_ZN7Iex_3_410EbadrqcExcC2ERNSt7__cxx1118basic_stringstreamIcSt11char_traitsIcESaIcEEE
libIex-3_4.so.33:_ZN7Iex_3_410EbadrqcExcC2Ev
libIex-3_4.so.33:_ZN7Iex_3_410EbadrqcExcD0Ev
libIex-3_4.so.33:_ZN7Iex_3_410EbadrqcExcD1Ev
libIex-3_4.so.33:_ZN7Iex_3_410EbadrqcExcD2Ev
libIex-3_4.so.33:_ZN7Iex_3_410EbadrqcExcaSEOS0_
libIex-3_4.so.33:_ZN7Iex_3_410EbadrqcExcaSERS0_
libIex-3_4.so.33:_ZN7Iex_3_410EbadsltExcC1EONSt7__cxx1112basic_stringIcSt11char_traitsIcESaIcEEE
libIex-3_4.so.33:_ZN7Iex_3_410EbadsltExcC1EOS0_
libIex-3_4.so.33:_ZN7Iex_3_410EbadsltExcC1EPKc
libIex-3_4.so.33:_ZN7Iex_3_410EbadsltExcC1ERKNSt7__cxx1112basic_stringIcSt11char_traitsIcESaIcEEE
libIex-3_4.so.33:_ZN7Iex_3_410EbadsltExcC1ERKS0_
libIex-3_4.so.33:_ZN7Iex_3_410EbadsltExcC1ERNSt7__cxx1118basic_stringstreamIcSt11char_traitsIcESaIcEEE
libIex-3_4.so.33:_ZN7Iex_3_410EbadsltExcC1Ev
libIex-3_4.so.33:_ZN7Iex_3_410EbadsltExcC2EONSt7__cxx1112basic_stringIcSt11char_traitsIcESaIcEEE
libIex-3_4.so.33:_ZN7Iex_3_410EbadsltExcC2EOS0_
libIex-3_4.so.33:_ZN7Iex_3_410EbadsltExcC2EPKc
libIex-3_4.so.33:_ZN7Iex_3_410EbadsltExcC2ERKNSt7__cxx1112basic_stringIcSt11char_traitsIcESaIcEEE
libIex-3_4.so.33:_ZN7Iex_3_410EbadsltExcC2ERKS0_
libIex-3_4.so.33:_ZN7Iex_3_410EbadsltExcC2ERNSt7__cxx1118basic_stringstreamIcSt11char_traitsIcESaIcEEE
libIex-3_4.so.33:_ZN7Iex_3_410EbadsltExcC2Ev
libIex-3_4.so.33:_ZN7Iex_3_410EbadsltExcD0Ev
libIex-3_4.so.33:_ZN7Iex_3_410EbadsltExcD1Ev
libIex-3_4.so.33:_ZN7Iex_3_410EbadsltExcD2Ev
libIex-3_4.so.33:_ZN7Iex_3_410EbadsltExcaSEOS0_
libIex-3_4.so.33:_ZN7Iex_3_410EbadsltExcaSERS0_
libIex-3_4.so.33:_ZN7Iex_3_410EdeadlkExcC1EONSt7__cxx1112basic_stringIcSt11char_traitsIcESaIcEEE
libIex-3_4.so.33:_ZN7Iex_3_410EdeadlkExcC1EOS0_
libIex-3_4.so.33:_ZN7Iex_3_410EdeadlkExcC1EPKc
libIex-3_4.so.33:_ZN7Iex_3_410EdeadlkExcC1ERKNSt7__cxx1112basic_stringIcSt11char_traitsIcESaIcEEE
libIex-3_4.so.33:_ZN7Iex_3_410EdeadlkExcC1ERKS0_
libIex-3_4.so.33:_ZN7Iex_3_410EdeadlkExcC1ERNSt7__cxx1118basic_stringstreamIcSt11char_traitsIcESaIcEEE
libIex-3_4.so.33:_ZN7Iex_3_410EdeadlkExcC1Ev
libIex-3_4.so.33:_ZN7Iex_3_410EdeadlkExcC2EONSt7__cxx1112basic_stringIcSt11char_traitsIcESaIcEEE
libIex-3_4.so.33:_ZN7Iex_3_410EdeadlkExcC2EOS0_
libIex-3_4.so.33:_ZN7Iex_3_410EdeadlkExcC2EPKc
libIex-3_4.so.33:_ZN7Iex_3_410EdeadlkExcC2ERKNSt7__cxx1112basic_stringIcSt11char_traitsIcESaIcEEE
libIex-3_4.so.33:_ZN7Iex_3_410EdeadlkExcC2ERKS0_
libIex-3_4.so.33:_ZN7Iex_3_410EdeadlkExcC2ERNSt7__cxx1118basic_stringstreamIcSt11char_traitsIcESaIcEEE
libIex-3_4.so.33:_ZN7Iex_3_410EdeadlkExcC2Ev
libIex-3_4.so.33:_ZN7Iex_3_410EdeadlkExcD0Ev
libIex-3_4.so.33:_ZN7Iex_3_410EdeadlkExcD1Ev
libIex-3_4.so.33:_ZN7Iex_3_410EdeadlkExcD2Ev
libIex-3_4.so.33:_ZN7Iex_3_410EdeadlkExcaSEOS0_
libIex-3_4.so.33:_ZN7Iex_3_410EdeadlkExcaSERS0_
libIex-3_4.so.33:_ZN7Iex_3_410EisconnExcC1EONSt7__cxx1112basic_stringIcSt11char_traitsIcESaIcEEE
libIex-3_4.so.33:_ZN7Iex_3_410EisconnExcC1EOS0_
libIex-3_4.so.33:_ZN7Iex_3_410EisconnExcC1EPKc
libIex-3_4.so.33:_ZN7Iex_3_410EisconnExcC1ERKNSt7__cxx1112basic_stringIcSt11char_traitsIcESaIcEEE
libIex-3_4.so.33:_ZN7Iex_3_410EisconnExcC1ERKS0_
libIex-3_4.so.33:_ZN7Iex_3_410EisconnExcC1ERNSt7__cxx1118basic_stringstreamIcSt11char_traitsIcESaIcEEE
libIex-3_4.so.33:_ZN7Iex_3_410EisconnExcC1Ev
libIex-3_4.so.33:_ZN7Iex_3_410EisconnExcC2EONSt7__cxx1112basic_stringIcSt11char_traitsIcESaIcEEE
libIex-3_4.so.33:_ZN7Iex_3_410EisconnExcC2EOS0_
libIex-3_4.so.33:_ZN7Iex_3_410EisconnExcC2EPKc
libIex-3_4.so.33:_ZN7Iex_3_410EisconnExcC2ERKNSt7__cxx1112basic_stringIcSt11char_traitsIcESaIcEEE
libIex-3_4.so.33:_ZN7Iex_3_410EisconnExcC2ERKS0_
libIex-3_4.so.33:_ZN7Iex_3_410EisconnExcC2ERNSt7__cxx1118basic_stringstreamIcSt11char_traitsIcESaIcEEE
libIex-3_4.so.33:_ZN7Iex_3_410EisconnExcC2Ev
libIex-3_4.so.33:_ZN7Iex_3_410EisconnExcD0Ev
libIex-3_4.so.33:_ZN7Iex_3_410EisconnExcD1Ev
libIex-3_4.so.33:_ZN7Iex_3_410EisconnExcD2Ev
libIex-3_4.so.33:_ZN7Iex_3_410EisconnExcaSEOS0_
libIex-3_4.so.33:_ZN7Iex_3_410EisconnExcaSERS0_
libIex-3_4.so.33:_ZN7Iex_3_410EjoinedExcC1EONSt7__cxx1112basic_stringIcSt11char_traitsIcESaIcEEE
libIex-3_4.so.33:_ZN7Iex_3_410EjoinedExcC1EOS0_
libIex-3_4.so.33:_ZN7Iex_3_410EjoinedExcC1EPKc
libIex-3_4.so.33:_ZN7Iex_3_410EjoinedExcC1ERKNSt7__cxx1112basic_stringIcSt11char_traitsIcESaIcEEE
libIex-3_4.so.33:_ZN7Iex_3_410EjoinedExcC1ERKS0_
libIex-3_4.so.33:_ZN7Iex_3_410EjoinedExcC1ERNSt7__cxx1118basic_stringstreamIcSt11char_traitsIcESaIcEEE
libIex-3_4.so.33:_ZN7Iex_3_410EjoinedExcC1Ev
libIex-3_4.so.33:_ZN7Iex_3_410EjoinedExcC2EONSt7__cxx1112basic_stringIcSt11char_traitsIcESaIcEEE
libIex-3_4.so.33:_ZN7Iex_3_410EjoinedExcC2EOS0_
libIex-3_4.so.33:_ZN7Iex_3_410EjoinedExcC2EPKc
libIex-3_4.so.33:_ZN7Iex_3_410EjoinedExcC2ERKNSt7__cxx1112basic_stringIcSt11char_traitsIcESaIcEEE
libIex-3_4.so.33:_ZN7Iex_3_410EjoinedExcC2ERKS0_
libIex-3_4.so.33:_ZN7Iex_3_410EjoinedExcC2ERNSt7__cxx1118basic_stringstreamIcSt11char_traitsIcESaIcEEE
libIex-3_4.so.33:_ZN7Iex_3_410EjoinedExcC2Ev
libIex-3_4.so.33:_ZN7Iex_3_410EjoinedExcD0Ev
libIex-3_4.so.33:_ZN7Iex_3_410EjoinedExcD1Ev
libIex-3_4.so.33:_ZN7Iex_3_410EjoinedExcD2Ev
libIex-3_4.so.33:_ZN7Iex_3_410EjoinedExcaSEOS0_
libIex-3_4.so.33:_ZN7Iex_3_410EjoinedExcaSERS0_
libIex-3_4.so.33:_ZN7Iex_3_410ElibaccExcC1EONSt7__cxx1112basic_stringIcSt11char_traitsIcESaIcEEE
libIex-3_4.so.33:_ZN7Iex_3_410ElibaccExcC1EOS0_
libIex-3_4.so.33:_ZN7Iex_3_410ElibaccExcC1EPKc
libIex-3_4.so.33:_ZN7Iex_3_410ElibaccExcC1ERKNSt7__cxx1112basic_stringIcSt11char_traitsIcESaIcEEE
libIex-3_4.so.33:_ZN7Iex_3_410ElibaccExcC1ERKS0_
libIex-3_4.so.33:_ZN7Iex_3_410ElibaccExcC1ERNSt7__cxx1118basic_stringstreamIcSt11char_traitsIcESaIcEEE
libIex-3_4.so.33:_ZN7Iex_3_410ElibaccExcC1Ev
libIex-3_4.so.33:_ZN7Iex_3_410ElibaccExcC2EONSt7__cxx1112basic_stringIcSt11char_traitsIcESaIcEEE
libIex-3_4.so.33:_ZN7Iex_3_410ElibaccExcC2EOS0_
libIex-3_4.so.33:_ZN7Iex_3_410ElibaccExcC2EPKc
libIex-3_4.so.33:_ZN7Iex_3_410ElibaccExcC2ERKNSt7__cxx1112basic_stringIcSt11char_traitsIcESaIcEEE
libIex-3_4.so.33:_ZN7Iex_3_410ElibaccExcC2ERKS0_
libIex-3_4.so.33:_ZN7Iex_3_410ElibaccExcC2ERNSt7__cxx1118basic_stringstreamIcSt11char_traitsIcESaIcEEE
libIex-3_4.so.33:_ZN7Iex_3_410ElibaccExcC2Ev
libIex-3_4.so.33:_ZN7Iex_3_410ElibaccExcD0Ev
libIex-3_4.so.33:_ZN7Iex_3_410ElibaccExcD1Ev
libIex-3_4.so.33:_ZN7Iex_3_410ElibaccExcD2Ev
libIex-3_4.so.33:_ZN7Iex_3_410ElibaccExcaSEOS0_
libIex-3_4.so.33:_ZN7Iex_3_410ElibaccExcaSERS0_
libIex-3_4.so.33:_ZN7Iex_3_410ElibbadExcC1EONSt7__cxx1112basic_stringIcSt11char_traitsIcESaIcEEE
libIex-3_4.so.33:_ZN7Iex_3_410ElibbadExcC1EOS0_
libIex-3_4.so.33:_ZN7Iex_3_410ElibbadExcC1EPKc
libIex-3_4.so.33:_ZN7Iex_3_410ElibbadExcC1ERKNSt7__cxx1112basic_stringIcSt11char_traitsIcESaIcEEE
libIex-3_4.so.33:_ZN7Iex_3_410ElibbadExcC1ERKS0_
libIex-3_4.so.33:_ZN7Iex_3_410ElibbadExcC1ERNSt7__cxx1118basic_stringstreamIcSt11char_traitsIcESaIcEEE
libIex-3_4.so.33:_ZN7Iex_3_410ElibbadExcC1Ev
libIex-3_4.so.33:_ZN7Iex_3_410ElibbadExcC2EONSt7__cxx1112basic_stringIcSt11char_traitsIcESaIcEEE
libIex-3_4.so.33:_ZN7Iex_3_410ElibbadExcC2EOS0_
libIex-3_4.so.33:_ZN7Iex_3_410ElibbadExcC2EPKc
libIex-3_4.so.33:_ZN7Iex_3_410ElibbadExcC2ERKNSt7__cxx1112basic_stringIcSt11char_traitsIcESaIcEEE
libIex-3_4.so.33:_ZN7Iex_3_410ElibbadExcC2ERKS0_
libIex-3_4.so.33:_ZN7Iex_3_410ElibbadExcC2ERNSt7__cxx1118basic_stringstreamIcSt11char_traitsIcESaIcEEE
libIex-3_4.so.33:_ZN7Iex_3_410ElibbadExcC2Ev
libIex-3_4.so.33:_ZN7Iex_3_410ElibbadExcD0Ev
libIex-3_4.so.33:_ZN7Iex_3_410ElibbadExcD1Ev
libIex-3_4.so.33:_ZN7Iex_3_410ElibbadExcD2Ev
libIex-3_4.so.33:_ZN7Iex_3_410ElibbadExcaSEOS0_
libIex-3_4.so.33:_ZN7Iex_3_410ElibbadExcaSERS0_
libIex-3_4.so.33:_ZN7Iex_3_410ElibmaxExcC1EONSt7__cxx1112basic_stringIcSt11char_traitsIcESaIcEEE
libIex-3_4.so.33:_ZN7Iex_3_410ElibmaxExcC1EOS0_
libIex-3_4.so.33:_ZN7Iex_3_410ElibmaxExcC1EPKc
libIex-3_4.so.33:_ZN7Iex_3_410ElibmaxExcC1ERKNSt7__cxx1112basic_stringIcSt11char_traitsIcESaIcEEE
libIex-3_4.so.33:_ZN7Iex_3_410ElibmaxExcC1ERKS0_
libIex-3_4.so.33:_ZN7Iex_3_410ElibmaxExcC1ERNSt7__cxx1118basic_stringstreamIcSt11char_traitsIcESaIcEEE
libIex-3_4.so.33:_ZN7Iex_3_410ElibmaxExcC1Ev
libIex-3_4.so.33:_ZN7Iex_3_410ElibmaxExcC2EONSt7__cxx1112basic_stringIcSt11char_traitsIcESaIcEEE
libIex-3_4.so.33:_ZN7Iex_3_410ElibmaxExcC2EOS0_
libIex-3_4.so.33:_ZN7Iex_3_410ElibmaxExcC2EPKc
libIex-3_4.so.33:_ZN7Iex_3_410ElibmaxExcC2ERKNSt7__cxx1112basic_stringIcSt11char_traitsIcESaIcEEE
libIex-3_4.so.33:_ZN7Iex_3_410ElibmaxExcC2ERKS0_
libIex-3_4.so.33:_ZN7Iex_3_410ElibmaxExcC2ERNSt7__cxx1118basic_stringstreamIcSt11char_traitsIcESaIcEEE
libIex-3_4.so.33:_ZN7Iex_3_410ElibmaxExcC2Ev
libIex-3_4.so.33:_ZN7Iex_3_410ElibmaxExcD0Ev
libIex-3_4.so.33:_ZN7Iex_3_410ElibmaxExcD1Ev
libIex-3_4.so.33:_ZN7Iex_3_410ElibmaxExcD2Ev
libIex-3_4.so.33:_ZN7Iex_3_410ElibmaxExcaSEOS0_
libIex-3_4.so.33:_ZN7Iex_3_410ElibmaxExcaSERS0_
libIex-3_4.so.33:_ZN7Iex_3_410ElibscnExcC1EONSt7__cxx1112basic_stringIcSt11char_traitsIcESaIcEEE
libIex-3_4.so.33:_ZN7Iex_3_410ElibscnExcC1EOS0_
libIex-3_4.so.33:_ZN7Iex_3_410ElibscnExcC1EPKc
libIex-3_4.so.33:_ZN7Iex_3_410ElibscnExcC1ERKNSt7__cxx1112basic_stringIcSt11char_traitsIcESaIcEEE
libIex-3_4.so.33:_ZN7Iex_3_410ElibscnExcC1ERKS0_
libIex-3_4.so.33:_ZN7Iex_3_410ElibscnExcC1ERNSt7__cxx1118basic_stringstreamIcSt11char_traitsIcESaIcEEE
libIex-3_4.so.33:_ZN7Iex_3_410ElibscnExcC1Ev
libIex-3_4.so.33:_ZN7Iex_3_410ElibscnExcC2EONSt7__cxx1112basic_stringIcSt11char_traitsIcESaIcEEE
libIex-3_4.so.33:_ZN7Iex_3_410ElibscnExcC2EOS0_
libIex-3_4.so.33:_ZN7Iex_3_410ElibscnExcC2EPKc
libIex-3_4.so.33:_ZN7Iex_3_410ElibscnExcC2ERKNSt7__cxx1112basic_stringIcSt11char_traitsIcESaIcEEE
libIex-3_4.so.33:_ZN7Iex_3_410ElibscnExcC2ERKS0_
libIex-3_4.so.33:_ZN7Iex_3_410ElibscnExcC2ERNSt7__cxx1118basic_stringstreamIcSt11char_traitsIcESaIcEEE
libIex-3_4.so.33:_ZN7Iex_3_410ElibscnExcC2Ev
libIex-3_4.so.33:_ZN7Iex_3_410ElibscnExcD0Ev
libIex-3_4.so.33:_ZN7Iex_3_410ElibscnExcD1Ev
libIex-3_4.so.33:_ZN7Iex_3_410ElibscnExcD2Ev
libIex-3_4.so.33:_ZN7Iex_3_410ElibscnExcaSEOS0_
libIex-3_4.so.33:_ZN7Iex_3_410ElibscnExcaSERS0_
libIex-3_4.so.33:_ZN7Iex_3_410EnavailExcC1EONSt7__cxx1112basic_stringIcSt11char_traitsIcESaIcEEE
libIex-3_4.so.33:_ZN7Iex_3_410EnavailExcC1EOS0_
libIex-3_4.so.33:_ZN7Iex_3_410EnavailExcC1EPKc
libIex-3_4.so.33:_ZN7Iex_3_410EnavailExcC1ERKNSt7__cxx1112basic_stringIcSt11char_traitsIcESaIcEEE
libIex-3_4.so.33:_ZN7Iex_3_410EnavailExcC1ERKS0_
libIex-3_4.so.33:_ZN7Iex_3_410EnavailExcC1ERNSt7__cxx1118basic_stringstreamIcSt11char_traitsIcESaIcEEE
libIex-3_4.so.33:_ZN7Iex_3_410EnavailExcC1Ev
libIex-3_4.so.33:_ZN7Iex_3_410EnavailExcC2EONSt7__cxx1112basic_stringIcSt11char_traitsIcESaIcEEE
libIex-3_4.so.33:_ZN7Iex_3_410EnavailExcC2EOS0_
libIex-3_4.so.33:_ZN7Iex_3_410EnavailExcC2EPKc
libIex-3_4.so.33:_ZN7Iex_3_410EnavailExcC2ERKNSt7__cxx1112basic_stringIcSt11char_traitsIcESaIcEEE
libIex-3_4.so.33:_ZN7Iex_3_410EnavailExcC2ERKS0_
libIex-3_4.so.33:_ZN7Iex_3_410EnavailExcC2ERNSt7__cxx1118basic_stringstreamIcSt11char_traitsIcESaIcEEE
libIex-3_4.so.33:_ZN7Iex_3_410EnavailExcC2Ev
libIex-3_4.so.33:_ZN7Iex_3_410EnavailExcD0Ev
libIex-3_4.so.33:_ZN7Iex_3_410EnavailExcD1Ev
libIex-3_4.so.33:_ZN7Iex_3_410EnavailExcD2Ev
libIex-3_4.so.33:_ZN7Iex_3_410EnavailExcaSEOS0_
libIex-3_4.so.33:_ZN7Iex_3_410EnavailExcaSERS0_
libIex-3_4.so.33:_ZN7Iex_3_410EnoattrExcC1EONSt7__cxx1112basic_stringIcSt11char_traitsIcESaIcEEE
libIex-3_4.so.33:_ZN7Iex_3_410EnoattrExcC1EOS0_
libIex-3_4.so.33:_ZN7Iex_3_410EnoattrExcC1EPKc
libIex-3_4.so.33:_ZN7Iex_3_410EnoattrExcC1ERKNSt7__cxx1112basic_stringIcSt11char_traitsIcESaIcEEE
libIex-3_4.so.33:_ZN7Iex_3_410EnoattrExcC1ERKS0_
libIex-3_4.so.33:_ZN7Iex_3_410EnoattrExcC1ERNSt7__cxx1118basic_stringstreamIcSt11char_traitsIcESaIcEEE
libIex-3_4.so.33:_ZN7Iex_3_410EnoattrExcC1Ev
libIex-3_4.so.33:_ZN7Iex_3_410EnoattrExcC2EONSt7__cxx1112basic_stringIcSt11char_traitsIcESaIcEEE
libIex-3_4.so.33:_ZN7Iex_3_410EnoattrExcC2EOS0_
libIex-3_4.so.33:_ZN7Iex_3_410EnoattrExcC2EPKc
libIex-3_4.so.33:_ZN7Iex_3_410EnoattrExcC2ERKNSt7__cxx1112basic_stringIcSt11char_traitsIcESaIcEEE
libIex-3_4.so.33:_ZN7Iex_3_410EnoattrExcC2ERKS0_
libIex-3_4.so.33:_ZN7Iex_3_410EnoattrExcC2ERNSt7__cxx1118basic_stringstreamIcSt11char_traitsIcESaIcEEE
libIex-3_4.so.33:_ZN7Iex_3_410EnoattrExcC2Ev
libIex-3_4.so.33:_ZN7Iex_3_410EnoattrExcD0Ev
libIex-3_4.so.33:_ZN7Iex_3_410EnoattrExcD1Ev
libIex-3_4.so.33:_ZN7Iex_3_410EnoattrExcD2Ev
libIex-3_4.so.33:_ZN7Iex_3_410EnoattrExcaSEOS0_
libIex-3_4.so.33:_ZN7Iex_3_410EnoattrExcaSERS0_
libIex-3_4.so.33:_ZN7Iex_3_410EnobufsExcC1EONSt7__cxx1112basic_stringIcSt11char_traitsIcESaIcEEE
libIex-3_4.so.33:_ZN7Iex_3_410EnobufsExcC1EOS0_
libIex-3_4.so.33:_ZN7Iex_3_410EnobufsExcC1EPKc
libIex-3_4.so.33:_ZN7Iex_3_410EnobufsExcC1ERKNSt7__cxx1112basic_stringIcSt11char_traitsIcESaIcEEE
libIex-3_4.so.33:_ZN7Iex_3_410EnobufsExcC1ERKS0_
libIex-3_4.so.33:_ZN7Iex_3_410EnobufsExcC1ERNSt7__cxx1118basic_stringstreamIcSt11char_traitsIcESaIcEEE
libIex-3_4.so.33:_ZN7Iex_3_410EnobufsExcC1Ev
libIex-3_4.so.33:_ZN7Iex_3_410EnobufsExcC2EONSt7__cxx1112basic_stringIcSt11char_traitsIcESaIcEEE
libIex-3_4.so.33:_ZN7Iex_3_410EnobufsExcC2EOS0_
libIex-3_4.so.33:_ZN7Iex_3_410EnobufsExcC2EPKc
libIex-3_4.so.33:_ZN7Iex_3_410EnobufsExcC2ERKNSt7__cxx1112basic_stringIcSt11char_traitsIcESaIcEEE
libIex-3_4.so.33:_ZN7Iex_3_410EnobufsExcC2ERKS0_
libIex-3_4.so.33:_ZN7Iex_3_410EnobufsExcC2ERNSt7__cxx1118basic_stringstreamIcSt11char_traitsIcESaIcEEE
libIex-3_4.so.33:_ZN7Iex_3_410EnobufsExcC2Ev
libIex-3_4.so.33:_ZN7Iex_3_410EnobufsExcD0Ev
libIex-3_4.so.33:_ZN7Iex_3_410EnobufsExcD1Ev
libIex-3_4.so.33:_ZN7Iex_3_410EnobufsExcD2Ev
libIex-3_4.so.33:_ZN7Iex_3_410EnobufsExcaSEOS0_
libIex-3_4.so.33:_ZN7Iex_3_410EnobufsExcaSERS0_
libIex-3_4.so.33:_ZN7Iex_3_410EnodataExcC1EONSt7__cxx1112basic_stringIcSt11char_traitsIcESaIcEEE
libIex-3_4.so.33:_ZN7Iex_3_410EnodataExcC1EOS0_
libIex-3_4.so.33:_ZN7Iex_3_410EnodataExcC1EPKc
libIex-3_4.so.33:_ZN7Iex_3_410EnodataExcC1ERKNSt7__cxx1112basic_stringIcSt11char_traitsIcESaIcEEE
libIex-3_4.so.33:_ZN7Iex_3_410EnodataExcC1ERKS0_
libIex-3_4.so.33:_ZN7Iex_3_410EnodataExcC1ERNSt7__cxx1118basic_stringstreamIcSt11char_traitsIcESaIcEEE
libIex-3_4.so.33:_ZN7Iex_3_410EnodataExcC1Ev
libIex-3_4.so.33:_ZN7Iex_3_410EnodataExcC2EONSt7__cxx1112basic_stringIcSt11char_traitsIcESaIcEEE
libIex-3_4.so.33:_ZN7Iex_3_410EnodataExcC2EOS0_
libIex-3_4.so.33:_ZN7Iex_3_410EnodataExcC2EPKc
libIex-3_4.so.33:_ZN7Iex_3_410EnodataExcC2ERKNSt7__cxx1112basic_stringIcSt11char_traitsIcESaIcEEE
libIex-3_4.so.33:_ZN7Iex_3_410EnodataExcC2ERKS0_
libIex-3_4.so.33:_ZN7Iex_3_410EnodataExcC2ERNSt7__cxx1118basic_stringstreamIcSt11char_traitsIcESaIcEEE
libIex-3_4.so.33:_ZN7Iex_3_410EnodataExcC2Ev
libIex-3_4.so.33:_ZN7Iex_3_410EnodataExcD0Ev
libIex-3_4.so.33:_ZN7Iex_3_410EnodataExcD1Ev
libIex-3_4.so.33:_ZN7Iex_3_410EnodataExcD2Ev
libIex-3_4.so.33:_ZN7Iex_3_410EnodataExcaSEOS0_
libIex-3_4.so.33:_ZN7Iex_3_410EnodataExcaSERS0_
libIex-3_4.so.33:_ZN7Iex_3_410EnoexecExcC1EONSt7__cxx1112basic_stringIcSt11char_traitsIcESaIcEEE
libIex-3_4.so.33:_ZN7Iex_3_410EnoexecExcC1EOS0_
libIex-3_4.so.33:_ZN7Iex_3_410EnoexecExcC1EPKc
libIex-3_4.so.33:_ZN7Iex_3_410EnoexecExcC1ERKNSt7__cxx1112basic_stringIcSt11char_traitsIcESaIcEEE
libIex-3_4.so.33:_ZN7Iex_3_410EnoexecExcC1ERKS0_
libIex-3_4.so.33:_ZN7Iex_3_410EnoexecExcC1ERNSt7__cxx1118basic_stringstreamIcSt11char_traitsIcESaIcEEE
libIex-3_4.so.33:_ZN7Iex_3_410EnoexecExcC1Ev
libIex-3_4.so.33:_ZN7Iex_3_410EnoexecExcC2EONSt7__cxx1112basic_stringIcSt11char_traitsIcESaIcEEE
libIex-3_4.so.33:_ZN7Iex_3_410EnoexecExcC2EOS0_
libIex-3_4.so.33:_ZN7Iex_3_410EnoexecExcC2EPKc
libIex-3_4.so.33:_ZN7Iex_3_410EnoexecExcC2ERKNSt7__cxx1112basic_stringIcSt11char_traitsIcESaIcEEE
libIex-3_4.so.33:_ZN7Iex_3_410EnoexecExcC2ERKS0_
libIex-3_4.so.33:_ZN7Iex_3_410EnoexecExcC2ERNSt7__cxx1118basic_stringstreamIcSt11char_traitsIcESaIcEEE
libIex-3_4.so.33:_ZN7Iex_3_410EnoexecExcC2Ev
libIex-3_4.so.33:_ZN7Iex_3_410EnoexecExcD0Ev
libIex-3_4.so.33:_ZN7Iex_3_410EnoexecExcD1Ev
libIex-3_4.so.33:_ZN7Iex_3_410EnoexecExcD2Ev
libIex-3_4.so.33:_ZN7Iex_3_410EnoexecExcaSEOS0_
libIex-3_4.so.33:_ZN7Iex_3_410EnoexecExcaSERS0_
libIex-3_4.so.33:_ZN7Iex_3_410EnolinkExcC1EONSt7__cxx1112basic_stringIcSt11char_traitsIcESaIcEEE
libIex-3_4.so.33:_ZN7Iex_3_410EnolinkExcC1EOS0_
libIex-3_4.so.33:_ZN7Iex_3_410EnolinkExcC1EPKc
libIex-3_4.so.33:_ZN7Iex_3_410EnolinkExcC1ERKNSt7__cxx1112basic_stringIcSt11char_traitsIcESaIcEEE
libIex-3_4.so.33:_ZN7Iex_3_410EnolinkExcC1ERKS0_
libIex-3_4.so.33:_ZN7Iex_3_410EnolinkExcC1ERNSt7__cxx1118basic_stringstreamIcSt11char_traitsIcESaIcEEE
libIex-3_4.so.33:_ZN7Iex_3_410EnolinkExcC1Ev
libIex-3_4.so.33:_ZN7Iex_3_410EnolinkExcC2EONSt7__cxx1112basic_stringIcSt11char_traitsIcESaIcEEE
libIex-3_4.so.33:_ZN7Iex_3_410EnolinkExcC2EOS0_
libIex-3_4.so.33:_ZN7Iex_3_410EnolinkExcC2EPKc
libIex-3_4.so.33:_ZN7Iex_3_410EnolinkExcC2ERKNSt7__cxx1112basic_stringIcSt11char_traitsIcESaIcEEE
libIex-3_4.so.33:_ZN7Iex_3_410EnolinkExcC2ERKS0_
libIex-3_4.so.33:_ZN7Iex_3_410EnolinkExcC2ERNSt7__cxx1118basic_stringstreamIcSt11char_traitsIcESaIcEEE
libIex-3_4.so.33:_ZN7Iex_3_410EnolinkExcC2Ev
libIex-3_4.so.33:_ZN7Iex_3_410EnolinkExcD0Ev
libIex-3_4.so.33:_ZN7Iex_3_410EnolinkExcD1Ev
libIex-3_4.so.33:_ZN7Iex_3_410EnolinkExcD2Ev
libIex-3_4.so.33:_ZN7Iex_3_410EnolinkExcaSEOS0_
libIex-3_4.so.33:_ZN7Iex_3_410EnolinkExcaSERS0_
libIex-3_4.so.33:_ZN7Iex_3_410EnoprocExcC1EONSt7__cxx1112basic_stringIcSt11char_traitsIcESaIcEEE
libIex-3_4.so.33:_ZN7Iex_3_410EnoprocExcC1EOS0_
libIex-3_4.so.33:_ZN7Iex_3_410EnoprocExcC1EPKc
libIex-3_4.so.33:_ZN7Iex_3_410EnoprocExcC1ERKNSt7__cxx1112basic_stringIcSt11char_traitsIcESaIcEEE
libIex-3_4.so.33:_ZN7Iex_3_410EnoprocExcC1ERKS0_
libIex-3_4.so.33:_ZN7Iex_3_410EnoprocExcC1ERNSt7__cxx1118basic_stringstreamIcSt11char_traitsIcESaIcEEE
libIex-3_4.so.33:_ZN7Iex_3_410EnoprocExcC1Ev
libIex-3_4.so.33:_ZN7Iex_3_410EnoprocExcC2EONSt7__cxx1112basic_stringIcSt11char_traitsIcESaIcEEE
libIex-3_4.so.33:_ZN7Iex_3_410EnoprocExcC2EOS0_
libIex-3_4.so.33:_ZN7Iex_3_410EnoprocExcC2EPKc
libIex-3_4.so.33:_ZN7Iex_3_410EnoprocExcC2ERKNSt7__cxx1112basic_stringIcSt11char_traitsIcESaIcEEE
libIex-3_4.so.33:_ZN7Iex_3_410EnoprocExcC2ERKS0_
libIex-3_4.so.33:_ZN7Iex_3_410EnoprocExcC2ERNSt7__cxx1118basic_stringstreamIcSt11char_traitsIcESaIcEEE
libIex-3_4.so.33:_ZN7Iex_3_410EnoprocExcC2Ev
libIex-3_4.so.33:_ZN7Iex_3_410EnoprocExcD0Ev
libIex-3_4.so.33:_ZN7Iex_3_410EnoprocExcD1Ev
libIex-3_4.so.33:_ZN7Iex_3_410EnoprocExcD2Ev
libIex-3_4.so.33:_ZN7Iex_3_410EnoprocExcaSEOS0_
libIex-3_4.so.33:_ZN7Iex_3_410EnoprocExcaSERS0_
libIex-3_4.so.33:_ZN7Iex_3_410EnotblkExcC1EONSt7__cxx1112basic_stringIcSt11char_traitsIcESaIcEEE
libIex-3_4.so.33:_ZN7Iex_3_410EnotblkExcC1EOS0_
libIex-3_4.so.33:_ZN7Iex_3_410EnotblkExcC1EPKc
libIex-3_4.so.33:_ZN7Iex_3_410EnotblkExcC1ERKNSt7__cxx1112basic_stringIcSt11char_traitsIcESaIcEEE
libIex-3_4.so.33:_ZN7Iex_3_410EnotblkExcC1ERKS0_
libIex-3_4.so.33:_ZN7Iex_3_410EnotblkExcC1ERNSt7__cxx1118basic_stringstreamIcSt11char_traitsIcESaIcEEE
libIex-3_4.so.33:_ZN7Iex_3_410EnotblkExcC1Ev
libIex-3_4.so.33:_ZN7Iex_3_410EnotblkExcC2EONSt7__cxx1112basic_stringIcSt11char_traitsIcESaIcEEE
libIex-3_4.so.33:_ZN7Iex_3_410EnotblkExcC2EOS0_
libIex-3_4.so.33:_ZN7Iex_3_410EnotblkExcC2EPKc
libIex-3_4.so.33:_ZN7Iex_3_410EnotblkExcC2ERKNSt7__cxx1112basic_stringIcSt11char_traitsIcESaIcEEE
libIex-3_4.so.33:_ZN7Iex_3_410EnotblkExcC2ERKS0_
libIex-3_4.so.33:_ZN7Iex_3_410EnotblkExcC2ERNSt7__cxx1118basic_stringstreamIcSt11char_traitsIcESaIcEEE
libIex-3_4.so.33:_ZN7Iex_3_410EnotblkExcC2Ev
libIex-3_4.so.33:_ZN7Iex_3_410EnotblkExcD0Ev
libIex-3_4.so.33:_ZN7Iex_3_410EnotblkExcD1Ev
libIex-3_4.so.33:_ZN7Iex_3_410EnotblkExcD2Ev
libIex-3_4.so.33:_ZN7Iex_3_410EnotblkExcaSEOS0_
libIex-3_4.so.33:_ZN7Iex_3_410EnotblkExcaSERS0_
libIex-3_4.so.33:_ZN7Iex_3_410EnotdirExcC1EONSt7__cxx1112basic_stringIcSt11char_traitsIcESaIcEEE
libIex-3_4.so.33:_ZN7Iex_3_410EnotdirExcC1EOS0_
libIex-3_4.so.33:_ZN7Iex_3_410EnotdirExcC1EPKc
libIex-3_4.so.33:_ZN7Iex_3_410EnotdirExcC1ERKNSt7__cxx1112basic_stringIcSt11char_traitsIcESaIcEEE
libIex-3_4.so.33:_ZN7Iex_3_410EnotdirExcC1ERKS0_
libIex-3_4.so.33:_ZN7Iex_3_410EnotdirExcC1ERNSt7__cxx1118basic_stringstreamIcSt11char_traitsIcESaIcEEE
libIex-3_4.so.33:_ZN7Iex_3_410EnotdirExcC1Ev
libIex-3_4.so.33:_ZN7Iex_3_410EnotdirExcC2EONSt7__cxx1112basic_stringIcSt11char_traitsIcESaIcEEE
libIex-3_4.so.33:_ZN7Iex_3_410EnotdirExcC2EOS0_
libIex-3_4.so.33:_ZN7Iex_3_410EnotdirExcC2EPKc
libIex-3_4.so.33:_ZN7Iex_3_410EnotdirExcC2ERKNSt7__cxx1112basic_stringIcSt11char_traitsIcESaIcEEE
libIex-3_4.so.33:_ZN7Iex_3_410EnotdirExcC2ERKS0_
libIex-3_4.so.33:_ZN7Iex_3_410EnotdirExcC2ERNSt7__cxx1118basic_stringstreamIcSt11char_traitsIcESaIcEEE
libIex-3_4.so.33:_ZN7Iex_3_410EnotdirExcC2Ev
libIex-3_4.so.33:_ZN7Iex_3_410EnotdirExcD0Ev
libIex-3_4.so.33:_ZN7Iex_3_410EnotdirExcD1Ev
libIex-3_4.so.33:_ZN7Iex_3_410EnotdirExcD2Ev
libIex-3_4.so.33:_ZN7Iex_3_410EnotdirExcaSEOS0_
libIex-3_4.so.33:_ZN7Iex_3_410EnotdirExcaSERS0_
libIex-3_4.so.33:_ZN7Iex_3_410EnotnamExcC1EONSt7__cxx1112basic_stringIcSt11char_traitsIcESaIcEEE
libIex-3_4.so.33:_ZN7Iex_3_410EnotnamExcC1EOS0_
libIex-3_4.so.33:_ZN7Iex_3_410EnotnamExcC1EPKc
libIex-3_4.so.33:_ZN7Iex_3_410EnotnamExcC1ERKNSt7__cxx1112basic_stringIcSt11char_traitsIcESaIcEEE
libIex-3_4.so.33:_ZN7Iex_3_410EnotnamExcC1ERKS0_
libIex-3_4.so.33:_ZN7Iex_3_410EnotnamExcC1ERNSt7__cxx1118basic_stringstreamIcSt11char_traitsIcESaIcEEE
libIex-3_4.so.33:_ZN7Iex_3_410EnotnamExcC1Ev
libIex-3_4.so.33:_ZN7Iex_3_410EnotnamExcC2EONSt7__cxx1112basic_stringIcSt11char_traitsIcESaIcEEE
libIex-3_4.so.33:_ZN7Iex_3_410EnotnamExcC2EOS0_
libIex-3_4.so.33:_ZN7Iex_3_410EnotnamExcC2EPKc
libIex-3_4.so.33:_ZN7Iex_3_410EnotnamExcC2ERKNSt7__cxx1112basic_stringIcSt11char_traitsIcESaIcEEE
libIex-3_4.so.33:_ZN7Iex_3_410EnotnamExcC2ERKS0_
libIex-3_4.so.33:_ZN7Iex_3_410EnotnamExcC2ERNSt7__cxx1118basic_stringstreamIcSt11char_traitsIcESaIcEEE
libIex-3_4.so.33:_ZN7Iex_3_410EnotnamExcC2Ev
libIex-3_4.so.33:_ZN7Iex_3_410EnotnamExcD0Ev
libIex-3_4.so.33:_ZN7Iex_3_410EnotnamExcD1Ev
libIex-3_4.so.33:_ZN7Iex_3_410EnotnamExcD2Ev
libIex-3_4.so.33:_ZN7Iex_3_410EnotnamExcaSEOS0_
libIex-3_4.so.33:_ZN7Iex_3_410EnotnamExcaSERS0_
libIex-3_4.so.33:_ZN7Iex_3_410EnotsupExcC1EONSt7__cxx1112basic_stringIcSt11char_traitsIcESaIcEEE
libIex-3_4.so.33:_ZN7Iex_3_410EnotsupExcC1EOS0_
libIex-3_4.so.33:_ZN7Iex_3_410EnotsupExcC1EPKc
libIex-3_4.so.33:_ZN7Iex_3_410EnotsupExcC1ERKNSt7__cxx1112basic_stringIcSt11char_traitsIcESaIcEEE
libIex-3_4.so.33:_ZN7Iex_3_410EnotsupExcC1ERKS0_
libIex-3_4.so.33:_ZN7Iex_3_410EnotsupExcC1ERNSt7__cxx1118basic_stringstreamIcSt11char_traitsIcESaIcEEE
libIex-3_4.so.33:_ZN7Iex_3_410EnotsupExcC1Ev
libIex-3_4.so.33:_ZN7Iex_3_410EnotsupExcC2EONSt7__cxx1112basic_stringIcSt11char_traitsIcESaIcEEE
libIex-3_4.so.33:_ZN7Iex_3_410EnotsupExcC2EOS0_
libIex-3_4.so.33:_ZN7Iex_3_410EnotsupExcC2EPKc
libIex-3_4.so.33:_ZN7Iex_3_410EnotsupExcC2ERKNSt7__cxx1112basic_stringIcSt11char_traitsIcESaIcEEE
libIex-3_4.so.33:_ZN7Iex_3_410EnotsupExcC2ERKS0_
libIex-3_4.so.33:_ZN7Iex_3_410EnotsupExcC2ERNSt7__cxx1118basic_stringstreamIcSt11char_traitsIcESaIcEEE
libIex-3_4.so.33:_ZN7Iex_3_410EnotsupExcC2Ev
libIex-3_4.so.33:_ZN7Iex_3_410EnotsupExcD0Ev
libIex-3_4.so.33:_ZN7Iex_3_410EnotsupExcD1Ev
libIex-3_4.so.33:_ZN7Iex_3_410EnotsupExcD2Ev
libIex-3_4.so.33:_ZN7Iex_3_410EnotsupExcaSEOS0_
libIex-3_4.so.33:_ZN7Iex_3_410EnotsupExcaSERS0_
libIex-3_4.so.33:_ZN7Iex_3_410EremchgExcC1EONSt7__cxx1112basic_stringIcSt11char_traitsIcESaIcEEE
libIex-3_4.so.33:_ZN7Iex_3_410EremchgExcC1EOS0_
libIex-3_4.so.33:_ZN7Iex_3_410EremchgExcC1EPKc
libIex-3_4.so.33:_ZN7Iex_3_410EremchgExcC1ERKNSt7__cxx1112basic_stringIcSt11char_traitsIcESaIcEEE
libIex-3_4.so.33:_ZN7Iex_3_410EremchgExcC1ERKS0_
libIex-3_4.so.33:_ZN7Iex_3_410EremchgExcC1ERNSt7__cxx1118basic_stringstreamIcSt11char_traitsIcESaIcEEE
libIex-3_4.so.33:_ZN7Iex_3_410EremchgExcC1Ev
libIex-3_4.so.33:_ZN7Iex_3_410EremchgExcC2EONSt7__cxx1112basic_stringIcSt11char_traitsIcESaIcEEE
libIex-3_4.so.33:_ZN7Iex_3_410EremchgExcC2EOS0_
libIex-3_4.so.33:_ZN7Iex_3_410EremchgExcC2EPKc
libIex-3_4.so.33:_ZN7Iex_3_410EremchgExcC2ERKNSt7__cxx1112basic_stringIcSt11char_traitsIcESaIcEEE
libIex-3_4.so.33:_ZN7Iex_3_410EremchgExcC2ERKS0_
libIex-3_4.so.33:_ZN7Iex_3_410EremchgExcC2ERNSt7__cxx1118basic_stringstreamIcSt11char_traitsIcESaIcEEE
libIex-3_4.so.33:_ZN7Iex_3_410EremchgExcC2Ev
libIex-3_4.so.33:_ZN7Iex_3_410EremchgExcD0Ev
libIex-3_4.so.33:_ZN7Iex_3_410EremchgExcD1Ev
libIex-3_4.so.33:_ZN7Iex_3_410EremchgExcD2Ev
libIex-3_4.so.33:_ZN7Iex_3_410EremchgExcaSEOS0_
libIex-3_4.so.33:_ZN7Iex_3_410EremchgExcaSERS0_
libIex-3_4.so.33:_ZN7Iex_3_410EremdevExcC1EONSt7__cxx1112basic_stringIcSt11char_traitsIcESaIcEEE
libIex-3_4.so.33:_ZN7Iex_3_410EremdevExcC1EOS0_
libIex-3_4.so.33:_ZN7Iex_3_410EremdevExcC1EPKc
libIex-3_4.so.33:_ZN7Iex_3_410EremdevExcC1ERKNSt7__cxx1112basic_stringIcSt11char_traitsIcESaIcEEE
libIex-3_4.so.33:_ZN7Iex_3_410EremdevExcC1ERKS0_
libIex-3_4.so.33:_ZN7Iex_3_410EremdevExcC1ERNSt7__cxx1118basic_stringstreamIcSt11char_traitsIcESaIcEEE
libIex-3_4.so.33:_ZN7Iex_3_410EremdevExcC1Ev
libIex-3_4.so.33:_ZN7Iex_3_410EremdevExcC2EONSt7__cxx1112basic_stringIcSt11char_traitsIcESaIcEEE
libIex-3_4.so.33:_ZN7Iex_3_410EremdevExcC2EOS0_
libIex-3_4.so.33:_ZN7Iex_3_410EremdevExcC2EPKc
libIex-3_4.so.33:_ZN7Iex_3_410EremdevExcC2ERKNSt7__cxx1112basic_stringIcSt11char_traitsIcESaIcEEE
libIex-3_4.so.33:_ZN7Iex_3_410EremdevExcC2ERKS0_
libIex-3_4.so.33:_ZN7Iex_3_410EremdevExcC2ERNSt7__cxx1118basic_stringstreamIcSt11char_traitsIcESaIcEEE
libIex-3_4.so.33:_ZN7Iex_3_410EremdevExcC2Ev
libIex-3_4.so.33:_ZN7Iex_3_410EremdevExcD0Ev
libIex-3_4.so.33:_ZN7Iex_3_410EremdevExcD1Ev
libIex-3_4.so.33:_ZN7Iex_3_410EremdevExcD2Ev
libIex-3_4.so.33:_ZN7Iex_3_410EremdevExcaSEOS0_
libIex-3_4.so.33:_ZN7Iex_3_410EremdevExcaSERS0_
libIex-3_4.so.33:_ZN7Iex_3_410EremoteExcC1EONSt7__cxx1112basic_stringIcSt11char_traitsIcESaIcEEE
libIex-3_4.so.33:_ZN7Iex_3_410EremoteExcC1EOS0_
libIex-3_4.so.33:_ZN7Iex_3_410EremoteExcC1EPKc
libIex-3_4.so.33:_ZN7Iex_3_410EremoteExcC1ERKNSt7__cxx1112basic_stringIcSt11char_traitsIcESaIcEEE
libIex-3_4.so.33:_ZN7Iex_3_410EremoteExcC1ERKS0_
libIex-3_4.so.33:_ZN7Iex_3_410EremoteExcC1ERNSt7__cxx1118basic_stringstreamIcSt11char_traitsIcESaIcEEE
libIex-3_4.so.33:_ZN7Iex_3_410EremoteExcC1Ev
libIex-3_4.so.33:_ZN7Iex_3_410EremoteExcC2EONSt7__cxx1112basic_stringIcSt11char_traitsIcESaIcEEE
libIex-3_4.so.33:_ZN7Iex_3_410EremoteExcC2EOS0_
libIex-3_4.so.33:_ZN7Iex_3_410EremoteExcC2EPKc
libIex-3_4.so.33:_ZN7Iex_3_410EremoteExcC2ERKNSt7__cxx1112basic_stringIcSt11char_traitsIcESaIcEEE
libIex-3_4.so.33:_ZN7Iex_3_410EremoteExcC2ERKS0_
libIex-3_4.so.33:_ZN7Iex_3_410EremoteExcC2ERNSt7__cxx1118basic_stringstreamIcSt11char_traitsIcESaIcEEE
libIex-3_4.so.33:_ZN7Iex_3_410EremoteExcC2Ev
libIex-3_4.so.33:_ZN7Iex_3_410EremoteExcD0Ev
libIex-3_4.so.33:_ZN7Iex_3_410EremoteExcD1Ev
libIex-3_4.so.33:_ZN7Iex_3_410EremoteExcD2Ev
libIex-3_4.so.33:_ZN7Iex_3_410EremoteExcaSEOS0_
libIex-3_4.so.33:_ZN7Iex_3_410EremoteExcaSERS0_
libIex-3_4.so.33:_ZN7Iex_3_410EtxtbsyExcC1EONSt7__cxx1112basic_stringIcSt11char_traitsIcESaIcEEE
libIex-3_4.so.33:_ZN7Iex_3_410EtxtbsyExcC1EOS0_
libIex-3_4.so.33:_ZN7Iex_3_410EtxtbsyExcC1EPKc
libIex-3_4.so.33:_ZN7Iex_3_410EtxtbsyExcC1ERKNSt7__cxx1112basic_stringIcSt11char_traitsIcESaIcEEE
libIex-3_4.so.33:_ZN7Iex_3_410EtxtbsyExcC1ERKS0_
libIex-3_4.so.33:_ZN7Iex_3_410EtxtbsyExcC1ERNSt7__cxx1118basic_stringstreamIcSt11char_traitsIcESaIcEEE
libIex-3_4.so.33:_ZN7Iex_3_410EtxtbsyExcC1Ev
libIex-3_4.so.33:_ZN7Iex_3_410EtxtbsyExcC2EONSt7__cxx1112basic_stringIcSt11char_traitsIcESaIcEEE
libIex-3_4.so.33:_ZN7Iex_3_410EtxtbsyExcC2EOS0_
libIex-3_4.so.33:_ZN7Iex_3_410EtxtbsyExcC2EPKc
libIex-3_4.so.33:_ZN7Iex_3_410EtxtbsyExcC2ERKNSt7__cxx1112basic_stringIcSt11char_traitsIcESaIcEEE
libIex-3_4.so.33:_ZN7Iex_3_410EtxtbsyExcC2ERKS0_
libIex-3_4.so.33:_ZN7Iex_3_410EtxtbsyExcC2ERNSt7__cxx1118basic_stringstreamIcSt11char_traitsIcESaIcEEE
libIex-3_4.so.33:_ZN7Iex_3_410EtxtbsyExcC2Ev
libIex-3_4.so.33:_ZN7Iex_3_410EtxtbsyExcD0Ev
libIex-3_4.so.33:_ZN7Iex_3_410EtxtbsyExcD1Ev
libIex-3_4.so.33:_ZN7Iex_3_410EtxtbsyExcD2Ev
libIex-3_4.so.33:_ZN7Iex_3_410EtxtbsyExcaSEOS0_
libIex-3_4.so.33:_ZN7Iex_3_410EtxtbsyExcaSERS0_
libIex-3_4.so.33:_ZN7Iex_3_410EucleanExcC1EONSt7__cxx1112basic_stringIcSt11char_traitsIcESaIcEEE
libIex-3_4.so.33:_ZN7Iex_3_410EucleanExcC1EOS0_
libIex-3_4.so.33:_ZN7Iex_3_410EucleanExcC1EPKc
libIex-3_4.so.33:_ZN7Iex_3_410EucleanExcC1ERKNSt7__cxx1112basic_stringIcSt11char_traitsIcESaIcEEE
libIex-3_4.so.33:_ZN7Iex_3_410EucleanExcC1ERKS0_
libIex-3_4.so.33:_ZN7Iex_3_410EucleanExcC1ERNSt7__cxx1118basic_stringstreamIcSt11char_traitsIcESaIcEEE
libIex-3_4.so.33:_ZN7Iex_3_410EucleanExcC1Ev
libIex-3_4.so.33:_ZN7Iex_3_410EucleanExcC2EONSt7__cxx1112basic_stringIcSt11char_traitsIcESaIcEEE
libIex-3_4.so.33:_ZN7Iex_3_410EucleanExcC2EOS0_
libIex-3_4.so.33:_ZN7Iex_3_410EucleanExcC2EPKc
libIex-3_4.so.33:_ZN7Iex_3_410EucleanExcC2ERKNSt7__cxx1112basic_stringIcSt11char_traitsIcESaIcEEE
libIex-3_4.so.33:_ZN7Iex_3_410EucleanExcC2ERKS0_
libIex-3_4.so.33:_ZN7Iex_3_410EucleanExcC2ERNSt7__cxx1118basic_stringstreamIcSt11char_traitsIcESaIcEEE
libIex-3_4.so.33:_ZN7Iex_3_410EucleanExcC2Ev
libIex-3_4.so.33:_ZN7Iex_3_410EucleanExcD0Ev
libIex-3_4.so.33:_ZN7Iex_3_410EucleanExcD1Ev
libIex-3_4.so.33:_ZN7Iex_3_410EucleanExcD2Ev
libIex-3_4.so.33:_ZN7Iex_3_410EucleanExcaSEOS0_
libIex-3_4.so.33:_ZN7Iex_3_410EucleanExcaSERS0_
libIex-3_4.so.33:_ZN7Iex_3_410EunatchExcC1EONSt7__cxx1112basic_stringIcSt11char_traitsIcESaIcEEE
libIex-3_4.so.33:_ZN7Iex_3_410EunatchExcC1EOS0_
libIex-3_4.so.33:_ZN7Iex_3_410EunatchExcC1EPKc
libIex-3_4.so.33:_ZN7Iex_3_410EunatchExcC1ERKNSt7__cxx1112basic_stringIcSt11char_traitsIcESaIcEEE
libIex-3_4.so.33:_ZN7Iex_3_410EunatchExcC1ERKS0_
libIex-3_4.so.33:_ZN7Iex_3_410EunatchExcC1ERNSt7__cxx1118basic_stringstreamIcSt11char_traitsIcESaIcEEE
libIex-3_4.so.33:_ZN7Iex_3_410EunatchExcC1Ev
libIex-3_4.so.33:_ZN7Iex_3_410EunatchExcC2EONSt7__cxx1112basic_stringIcSt11char_traitsIcESaIcEEE
libIex-3_4.so.33:_ZN7Iex_3_410EunatchExcC2EOS0_
libIex-3_4.so.33:_ZN7Iex_3_410EunatchExcC2EPKc
libIex-3_4.so.33:_ZN7Iex_3_410EunatchExcC2ERKNSt7__cxx1112basic_stringIcSt11char_traitsIcESaIcEEE
libIex-3_4.so.33:_ZN7Iex_3_410EunatchExcC2ERKS0_
libIex-3_4.so.33:_ZN7Iex_3_410EunatchExcC2ERNSt7__cxx1118basic_stringstreamIcSt11char_traitsIcESaIcEEE
libIex-3_4.so.33:_ZN7Iex_3_410EunatchExcC2Ev
libIex-3_4.so.33:_ZN7Iex_3_410EunatchExcD0Ev
libIex-3_4.so.33:_ZN7Iex_3_410EunatchExcD1Ev
libIex-3_4.so.33:_ZN7Iex_3_410EunatchExcD2Ev
libIex-3_4.so.33:_ZN7Iex_3_410EunatchExcaSEOS0_
libIex-3_4.so.33:_ZN7Iex_3_410EunatchExcaSERS0_
libIex-3_4.so.33:_ZN7Iex_3_410InexactExcC1EONSt7__cxx1112basic_stringIcSt11char_traitsIcESaIcEEE
libIex-3_4.so.33:_ZN7Iex_3_410InexactExcC1EOS0_
libIex-3_4.so.33:_ZN7Iex_3_410InexactExcC1EPKc
libIex-3_4.so.33:_ZN7Iex_3_410InexactExcC1ERKNSt7__cxx1112basic_stringIcSt11char_traitsIcESaIcEEE
libIex-3_4.so.33:_ZN7Iex_3_410InexactExcC1ERKS0_
libIex-3_4.so.33:_ZN7Iex_3_410InexactExcC1ERNSt7__cxx1118basic_stringstreamIcSt11char_traitsIcESaIcEEE
libIex-3_4.so.33:_ZN7Iex_3_410InexactExcC1Ev
libIex-3_4.so.33:_ZN7Iex_3_410InexactExcC2EONSt7__cxx1112basic_stringIcSt11char_traitsIcESaIcEEE
libIex-3_4.so.33:_ZN7Iex_3_410InexactExcC2EOS0_
libIex-3_4.so.33:_ZN7Iex_3_410InexactExcC2EPKc
libIex-3_4.so.33:_ZN7Iex_3_410InexactExcC2ERKNSt7__cxx1112basic_stringIcSt11char_traitsIcESaIcEEE
libIex-3_4.so.33:_ZN7Iex_3_410InexactExcC2ERKS0_
libIex-3_4.so.33:_ZN7Iex_3_410InexactExcC2ERNSt7__cxx1118basic_stringstreamIcSt11char_traitsIcESaIcEEE
libIex-3_4.so.33:_ZN7Iex_3_410InexactExcC2Ev
libIex-3_4.so.33:_ZN7Iex_3_410InexactExcD0Ev
libIex-3_4.so.33:_ZN7Iex_3_410InexactExcD1Ev
libIex-3_4.so.33:_ZN7Iex_3_410InexactExcD2Ev
libIex-3_4.so.33:_ZN7Iex_3_410InexactExcaSEOS0_
libIex-3_4.so.33:_ZN7Iex_3_410InexactExcaSERS0_
libIex-3_4.so.33:_ZN7Iex_3_411EalreadyExcC1EONSt7__cxx1112basic_stringIcSt11char_traitsIcESaIcEEE
libIex-3_4.so.33:_ZN7Iex_3_411EalreadyExcC1EOS0_
libIex-3_4.so.33:_ZN7Iex_3_411EalreadyExcC1EPKc
libIex-3_4.so.33:_ZN7Iex_3_411EalreadyExcC1ERKNSt7__cxx1112basic_stringIcSt11char_traitsIcESaIcEEE
libIex-3_4.so.33:_ZN7Iex_3_411EalreadyExcC1ERKS0_
libIex-3_4.so.33:_ZN7Iex_3_411EalreadyExcC1ERNSt7__cxx1118basic_stringstreamIcSt11char_traitsIcESaIcEEE
libIex-3_4.so.33:_ZN7Iex_3_411EalreadyExcC1Ev
libIex-3_4.so.33:_ZN7Iex_3_411EalreadyExcC2EONSt7__cxx1112basic_stringIcSt11char_traitsIcESaIcEEE
libIex-3_4.so.33:_ZN7Iex_3_411EalreadyExcC2EOS0_
libIex-3_4.so.33:_ZN7Iex_3_411EalreadyExcC2EPKc
libIex-3_4.so.33:_ZN7Iex_3_411EalreadyExcC2ERKNSt7__cxx1112basic_stringIcSt11char_traitsIcESaIcEEE
libIex-3_4.so.33:_ZN7Iex_3_411EalreadyExcC2ERKS0_
libIex-3_4.so.33:_ZN7Iex_3_411EalreadyExcC2ERNSt7__cxx1118basic_stringstreamIcSt11char_traitsIcESaIcEEE
libIex-3_4.so.33:_ZN7Iex_3_411EalreadyExcC2Ev
libIex-3_4.so.33:_ZN7Iex_3_411EalreadyExcD0Ev
libIex-3_4.so.33:_ZN7Iex_3_411EalreadyExcD1Ev
libIex-3_4.so.33:_ZN7Iex_3_411EalreadyExcD2Ev
libIex-3_4.so.33:_ZN7Iex_3_411EalreadyExcaSEOS0_
libIex-3_4.so.33:_ZN7Iex_3_411EalreadyExcaSERS0_
libIex-3_4.so.33:_ZN7Iex_3_411EbufsizeExcC1EONSt7__cxx1112basic_stringIcSt11char_traitsIcESaIcEEE
libIex-3_4.so.33:_ZN7Iex_3_411EbufsizeExcC1EOS0_
libIex-3_4.so.33:_ZN7Iex_3_411EbufsizeExcC1EPKc
libIex-3_4.so.33:_ZN7Iex_3_411EbufsizeExcC1ERKNSt7__cxx1112basic_stringIcSt11char_traitsIcESaIcEEE
libIex-3_4.so.33:_ZN7Iex_3_411EbufsizeExcC1ERKS0_
libIex-3_4.so.33:_ZN7Iex_3_411EbufsizeExcC1ERNSt7__cxx1118basic_stringstreamIcSt11char_traitsIcESaIcEEE
libIex-3_4.so.33:_ZN7Iex_3_411EbufsizeExcC1Ev
libIex-3_4.so.33:_ZN7Iex_3_411EbufsizeExcC2EONSt7__cxx1112basic_stringIcSt11char_traitsIcESaIcEEE
libIex-3_4.so.33:_ZN7Iex_3_411EbufsizeExcC2EOS0_
libIex-3_4.so.33:_ZN7Iex_3_411EbufsizeExcC2EPKc
libIex-3_4.so.33:_ZN7Iex_3_411EbufsizeExcC2ERKNSt7__cxx1112basic_stringIcSt11char_traitsIcESaIcEEE
libIex-3_4.so.33:_ZN7Iex_3_411EbufsizeExcC2ERKS0_
libIex-3_4.so.33:_ZN7Iex_3_411EbufsizeExcC2ERNSt7__cxx1118basic_stringstreamIcSt11char_traitsIcESaIcEEE
libIex-3_4.so.33:_ZN7Iex_3_411EbufsizeExcC2Ev
libIex-3_4.so.33:_ZN7Iex_3_411EbufsizeExcD0Ev
libIex-3_4.so.33:_ZN7Iex_3_411EbufsizeExcD1Ev
libIex-3_4.so.33:_ZN7Iex_3_411EbufsizeExcD2Ev
libIex-3_4.so.33:_ZN7Iex_3_411EbufsizeExcaSEOS0_
libIex-3_4.so.33:_ZN7Iex_3_411EbufsizeExcaSERS0_
libIex-3_4.so.33:_ZN7Iex_3_411EioresidExcC1EONSt7__cxx1112basic_stringIcSt11char_traitsIcESaIcEEE
libIex-3_4.so.33:_ZN7Iex_3_411EioresidExcC1EOS0_
libIex-3_4.so.33:_ZN7Iex_3_411EioresidExcC1EPKc
libIex-3_4.so.33:_ZN7Iex_3_411EioresidExcC1ERKNSt7__cxx1112basic_stringIcSt11char_traitsIcESaIcEEE
libIex-3_4.so.33:_ZN7Iex_3_411EioresidExcC1ERKS0_
libIex-3_4.so.33:_ZN7Iex_3_411EioresidExcC1ERNSt7__cxx1118basic_stringstreamIcSt11char_traitsIcESaIcEEE
libIex-3_4.so.33:_ZN7Iex_3_411EioresidExcC1Ev
libIex-3_4.so.33:_ZN7Iex_3_411EioresidExcC2EONSt7__cxx1112basic_stringIcSt11char_traitsIcESaIcEEE
libIex-3_4.so.33:_ZN7Iex_3_411EioresidExcC2EOS0_
libIex-3_4.so.33:_ZN7Iex_3_411EioresidExcC2EPKc
libIex-3_4.so.33:_ZN7Iex_3_411EioresidExcC2ERKNSt7__cxx1112basic_stringIcSt11char_traitsIcESaIcEEE
libIex-3_4.so.33:_ZN7Iex_3_411EioresidExcC2ERKS0_
libIex-3_4.so.33:_ZN7Iex_3_411EioresidExcC2ERNSt7__cxx1118basic_stringstreamIcSt11char_traitsIcESaIcEEE
libIex-3_4.so.33:_ZN7Iex_3_411EioresidExcC2Ev
libIex-3_4.so.33:_ZN7Iex_3_411EioresidExcD0Ev
libIex-3_4.so.33:_ZN7Iex_3_411EioresidExcD1Ev
libIex-3_4.so.33:_ZN7Iex_3_411EioresidExcD2Ev
libIex-3_4.so.33:_ZN7Iex_3_411EioresidExcaSEOS0_
libIex-3_4.so.33:_ZN7Iex_3_411EioresidExcaSERS0_
libIex-3_4.so.33:_ZN7Iex_3_411El2nsyncExcC1EONSt7__cxx1112basic_stringIcSt11char_traitsIcESaIcEEE
libIex-3_4.so.33:_ZN7Iex_3_411El2nsyncExcC1EOS0_
libIex-3_4.so.33:_ZN7Iex_3_411El2nsyncExcC1EPKc
libIex-3_4.so.33:_ZN7Iex_3_411El2nsyncExcC1ERKNSt7__cxx1112basic_stringIcSt11char_traitsIcESaIcEEE
libIex-3_4.so.33:_ZN7Iex_3_411El2nsyncExcC1ERKS0_
libIex-3_4.so.33:_ZN7Iex_3_411El2nsyncExcC1ERNSt7__cxx1118basic_stringstreamIcSt11char_traitsIcESaIcEEE
libIex-3_4.so.33:_ZN7Iex_3_411El2nsyncExcC1Ev
libIex-3_4.so.33:_ZN7Iex_3_411El2nsyncExcC2EONSt7__cxx1112basic_stringIcSt11char_traitsIcESaIcEEE
libIex-3_4.so.33:_ZN7Iex_3_411El2nsyncExcC2EOS0_
libIex-3_4.so.33:_ZN7Iex_3_411El2nsyncExcC2EPKc
libIex-3_4.so.33:_ZN7Iex_3_411El2nsyncExcC2ERKNSt7__cxx1112basic_stringIcSt11char_traitsIcESaIcEEE
libIex-3_4.so.33:_ZN7Iex_3_411El2nsyncExcC2ERKS0_
libIex-3_4.so.33:_ZN7Iex_3_411El2nsyncExcC2ERNSt7__cxx1118basic_stringstreamIcSt11char_traitsIcESaIcEEE
libIex-3_4.so.33:_ZN7Iex_3_411El2nsyncExcC2Ev
libIex-3_4.so.33:_ZN7Iex_3_411El2nsyncExcD0Ev
libIex-3_4.so.33:_ZN7Iex_3_411El2nsyncExcD1Ev
libIex-3_4.so.33:_ZN7Iex_3_411El2nsyncExcD2Ev
libIex-3_4.so.33:_ZN7Iex_3_411El2nsyncExcaSEOS0_
libIex-3_4.so.33:_ZN7Iex_3_411El2nsyncExcaSERS0_
libIex-3_4.so.33:_ZN7Iex_3_411ElibexecExcC1EONSt7__cxx1112basic_stringIcSt11char_traitsIcESaIcEEE
libIex-3_4.so.33:_ZN7Iex_3_411ElibexecExcC1EOS0_
libIex-3_4.so.33:_ZN7Iex_3_411ElibexecExcC1EPKc
libIex-3_4.so.33:_ZN7Iex_3_411ElibexecExcC1ERKNSt7__cxx1112basic_stringIcSt11char_traitsIcESaIcEEE
libIex-3_4.so.33:_ZN7Iex_3_411ElibexecExcC1ERKS0_
libIex-3_4.so.33:_ZN7Iex_3_411ElibexecExcC1ERNSt7__cxx1118basic_stringstreamIcSt11char_traitsIcESaIcEEE
libIex-3_4.so.33:_ZN7Iex_3_411ElibexecExcC1Ev
libIex-3_4.so.33:_ZN7Iex_3_411ElibexecExcC2EONSt7__cxx1112basic_stringIcSt11char_traitsIcESaIcEEE
libIex-3_4.so.33:_ZN7Iex_3_411ElibexecExcC2EOS0_
libIex-3_4.so.33:_ZN7Iex_3_411ElibexecExcC2EPKc
libIex-3_4.so.33:_ZN7Iex_3_411ElibexecExcC2ERKNSt7__cxx1112basic_stringIcSt11char_traitsIcESaIcEEE
libIex-3_4.so.33:_ZN7Iex_3_411ElibexecExcC2ERKS0_
libIex-3_4.so.33:_ZN7Iex_3_411ElibexecExcC2ERNSt7__cxx1118basic_stringstreamIcSt11char_traitsIcESaIcEEE
libIex-3_4.so.33:_ZN7Iex_3_411ElibexecExcC2Ev
libIex-3_4.so.33:_ZN7Iex_3_411ElibexecExcD0Ev
libIex-3_4.so.33:_ZN7Iex_3_411ElibexecExcD1Ev
libIex-3_4.so.33:_ZN7Iex_3_411ElibexecExcD2Ev
libIex-3_4.so.33:_ZN7Iex_3_411ElibexecExcaSEOS0_
libIex-3_4.so.33:_ZN7Iex_3_411ElibexecExcaSERS0_
libIex-3_4.so.33:_ZN7Iex_3_411EmsgsizeExcC1EONSt7__cxx1112basic_stringIcSt11char_traitsIcESaIcEEE
libIex-3_4.so.33:_ZN7Iex_3_411EmsgsizeExcC1EOS0_
libIex-3_4.so.33:_ZN7Iex_3_411EmsgsizeExcC1EPKc
libIex-3_4.so.33:_ZN7Iex_3_411EmsgsizeExcC1ERKNSt7__cxx1112basic_stringIcSt11char_traitsIcESaIcEEE
libIex-3_4.so.33:_ZN7Iex_3_411EmsgsizeExcC1ERKS0_
libIex-3_4.so.33:_ZN7Iex_3_411EmsgsizeExcC1ERNSt7__cxx1118basic_stringstreamIcSt11char_traitsIcESaIcEEE
libIex-3_4.so.33:_ZN7Iex_3_411EmsgsizeExcC1Ev
libIex-3_4.so.33:_ZN7Iex_3_411EmsgsizeExcC2EONSt7__cxx1112basic_stringIcSt11char_traitsIcESaIcEEE
libIex-3_4.so.33:_ZN7Iex_3_411EmsgsizeExcC2EOS0_
libIex-3_4.so.33:_ZN7Iex_3_411EmsgsizeExcC2EPKc
libIex-3_4.so.33:_ZN7Iex_3_411EmsgsizeExcC2ERKNSt7__cxx1112basic_stringIcSt11char_traitsIcESaIcEEE
libIex-3_4.so.33:_ZN7Iex_3_411EmsgsizeExcC2ERKS0_
libIex-3_4.so.33:_ZN7Iex_3_411EmsgsizeExcC2ERNSt7__cxx1118basic_stringstreamIcSt11char_traitsIcESaIcEEE
libIex-3_4.so.33:_ZN7Iex_3_411EmsgsizeExcC2Ev
libIex-3_4.so.33:_ZN7Iex_3_411EmsgsizeExcD0Ev
libIex-3_4.so.33:_ZN7Iex_3_411EmsgsizeExcD1Ev
libIex-3_4.so.33:_ZN7Iex_3_411EmsgsizeExcD2Ev
libIex-3_4.so.33:_ZN7Iex_3_411EmsgsizeExcaSEOS0_
libIex-3_4.so.33:_ZN7Iex_3_411EmsgsizeExcaSERS0_
libIex-3_4.so.33:_ZN7Iex_3_411EmustrunExcC1EONSt7__cxx1112basic_stringIcSt11char_traitsIcESaIcEEE
libIex-3_4.so.33:_ZN7Iex_3_411EmustrunExcC1EOS0_
libIex-3_4.so.33:_ZN7Iex_3_411EmustrunExcC1EPKc
libIex-3_4.so.33:_ZN7Iex_3_411EmustrunExcC1ERKNSt7__cxx1112basic_stringIcSt11char_traitsIcESaIcEEE
libIex-3_4.so.33:_ZN7Iex_3_411EmustrunExcC1ERKS0_
libIex-3_4.so.33:_ZN7Iex_3_411EmustrunExcC1ERNSt7__cxx1118basic_stringstreamIcSt11char_traitsIcESaIcEEE
libIex-3_4.so.33:_ZN7Iex_3_411EmustrunExcC1Ev
libIex-3_4.so.33:_ZN7Iex_3_411EmustrunExcC2EONSt7__cxx1112basic_stringIcSt11char_traitsIcESaIcEEE
libIex-3_4.so.33:_ZN7Iex_3_411EmustrunExcC2EOS0_
libIex-3_4.so.33:_ZN7Iex_3_411EmustrunExcC2EPKc
libIex-3_4.so.33:_ZN7Iex_3_411EmustrunExcC2ERKNSt7__cxx1112basic_stringIcSt11char_traitsIcESaIcEEE
libIex-3_4.so.33:_ZN7Iex_3_411EmustrunExcC2ERKS0_
libIex-3_4.so.33:_ZN7Iex_3_411EmustrunExcC2ERNSt7__cxx1118basic_stringstreamIcSt11char_traitsIcESaIcEEE
libIex-3_4.so.33:_ZN7Iex_3_411EmustrunExcC2Ev
libIex-3_4.so.33:_ZN7Iex_3_411EmustrunExcD0Ev
libIex-3_4.so.33:_ZN7Iex_3_411EmustrunExcD1Ev
libIex-3_4.so.33:_ZN7Iex_3_411EmustrunExcD2Ev
libIex-3_4.so.33:_ZN7Iex_3_411EmustrunExcaSEOS0_
libIex-3_4.so.33:_ZN7Iex_3_411EmustrunExcaSERS0_
libIex-3_4.so.33:_ZN7Iex_3_411EnetdownExcC1EONSt7__cxx1112basic_stringIcSt11char_traitsIcESaIcEEE
libIex-3_4.so.33:_ZN7Iex_3_411EnetdownExcC1EOS0_
libIex-3_4.so.33:_ZN7Iex_3_411EnetdownExcC1EPKc
libIex-3_4.so.33:_ZN7Iex_3_411EnetdownExcC1ERKNSt7__cxx1112basic_stringIcSt11char_traitsIcESaIcEEE
libIex-3_4.so.33:_ZN7Iex_3_411EnetdownExcC1ERKS0_
libIex-3_4.so.33:_ZN7Iex_3_411EnetdownExcC1ERNSt7__cxx1118basic_stringstreamIcSt11char_traitsIcESaIcEEE
libIex-3_4.so.33:_ZN7Iex_3_411EnetdownExcC1Ev
libIex-3_4.so.33:_ZN7Iex_3_411EnetdownExcC2EONSt7__cxx1112basic_stringIcSt11char_traitsIcESaIcEEE
libIex-3_4.so.33:_ZN7Iex_3_411EnetdownExcC2EOS0_
libIex-3_4.so.33:_ZN7Iex_3_411EnetdownExcC2EPKc
libIex-3_4.so.33:_ZN7Iex_3_411EnetdownExcC2ERKNSt7__cxx1112basic_stringIcSt11char_traitsIcESaIcEEE
libIex-3_4.so.33:_ZN7Iex_3_411EnetdownExcC2ERKS0_
libIex-3_4.so.33:_ZN7Iex_3_411EnetdownExcC2ERNSt7__cxx1118basic_stringstreamIcSt11char_traitsIcESaIcEEE
libIex-3_4.so.33:_ZN7Iex_3_411EnetdownExcC2Ev
libIex-3_4.so.33:_ZN7Iex_3_411EnetdownExcD0Ev
libIex-3_4.so.33:_ZN7Iex_3_411EnetdownExcD1Ev
libIex-3_4.so.33:_ZN7Iex_3_411EnetdownExcD2Ev
libIex-3_4.so.33:_ZN7Iex_3_411EnetdownExcaSEOS0_
libIex-3_4.so.33:_ZN7Iex_3_411EnetdownExcaSERS0_
libIex-3_4.so.33:_ZN7Iex_3_411EnoexistExcC1EONSt7__cxx1112basic_stringIcSt11char_traitsIcESaIcEEE
libIex-3_4.so.33:_ZN7Iex_3_411EnoexistExcC1EOS0_
libIex-3_4.so.33:_ZN7Iex_3_411EnoexistExcC1EPKc
libIex-3_4.so.33:_ZN7Iex_3_411EnoexistExcC1ERKNSt7__cxx1112basic_stringIcSt11char_traitsIcESaIcEEE
libIex-3_4.so.33:_ZN7Iex_3_411EnoexistExcC1ERKS0_
libIex-3_4.so.33:_ZN7Iex_3_411EnoexistExcC1ERNSt7__cxx1118basic_stringstreamIcSt11char_traitsIcESaIcEEE
libIex-3_4.so.33:_ZN7Iex_3_411EnoexistExcC1Ev
libIex-3_4.so.33:_ZN7Iex_3_411EnoexistExcC2EONSt7__cxx1112basic_stringIcSt11char_traitsIcESaIcEEE
libIex-3_4.so.33:_ZN7Iex_3_411EnoexistExcC2EOS0_
libIex-3_4.so.33:_ZN7Iex_3_411EnoexistExcC2EPKc
libIex-3_4.so.33:_ZN7Iex_3_411EnoexistExcC2ERKNSt7__cxx1112basic_stringIcSt11char_traitsIcESaIcEEE
libIex-3_4.so.33:_ZN7Iex_3_411EnoexistExcC2ERKS0_
libIex-3_4.so.33:_ZN7Iex_3_411EnoexistExcC2ERNSt7__cxx1118basic_stringstreamIcSt11char_traitsIcESaIcEEE
libIex-3_4.so.33:_ZN7Iex_3_411EnoexistExcC2Ev
libIex-3_4.so.33:_ZN7Iex_3_411EnoexistExcD0Ev
libIex-3_4.so.33:_ZN7Iex_3_411EnoexistExcD1Ev
libIex-3_4.so.33:_ZN7Iex_3_411EnoexistExcD2Ev
libIex-3_4.so.33:_ZN7Iex_3_411EnoexistExcaSEOS0_
libIex-3_4.so.33:_ZN7Iex_3_411EnoexistExcaSERS0_
libIex-3_4.so.33:_ZN7Iex_3_411EnologinExcC1EONSt7__cxx1112basic_stringIcSt11char_traitsIcESaIcEEE
libIex-3_4.so.33:_ZN7Iex_3_411EnologinExcC1EOS0_
libIex-3_4.so.33:_ZN7Iex_3_411EnologinExcC1EPKc
libIex-3_4.so.33:_ZN7Iex_3_411EnologinExcC1ERKNSt7__cxx1112basic_stringIcSt11char_traitsIcESaIcEEE
libIex-3_4.so.33:_ZN7Iex_3_411EnologinExcC1ERKS0_
libIex-3_4.so.33:_ZN7Iex_3_411EnologinExcC1ERNSt7__cxx1118basic_stringstreamIcSt11char_traitsIcESaIcEEE
libIex-3_4.so.33:_ZN7Iex_3_411EnologinExcC1Ev
libIex-3_4.so.33:_ZN7Iex_3_411EnologinExcC2EONSt7__cxx1112basic_stringIcSt11char_traitsIcESaIcEEE
libIex-3_4.so.33:_ZN7Iex_3_411EnologinExcC2EOS0_
libIex-3_4.so.33:_ZN7Iex_3_411EnologinExcC2EPKc
libIex-3_4.so.33:_ZN7Iex_3_411EnologinExcC2ERKNSt7__cxx1112basic_stringIcSt11char_traitsIcESaIcEEE
libIex-3_4.so.33:_ZN7Iex_3_411EnologinExcC2ERKS0_
libIex-3_4.so.33:_ZN7Iex_3_411EnologinExcC2ERNSt7__cxx1118basic_stringstreamIcSt11char_traitsIcESaIcEEE
libIex-3_4.so.33:_ZN7Iex_3_411EnologinExcC2Ev
libIex-3_4.so.33:_ZN7Iex_3_411EnologinExcD0Ev
libIex-3_4.so.33:_ZN7Iex_3_411EnologinExcD1Ev
libIex-3_4.so.33:_ZN7Iex_3_411EnologinExcD2Ev
libIex-3_4.so.33:_ZN7Iex_3_411EnologinExcaSEOS0_
libIex-3_4.so.33:_ZN7Iex_3_411EnologinExcaSERS0_
libIex-3_4.so.33:_ZN7Iex_3_411EnotconnExcC1EONSt7__cxx1112basic_stringIcSt11char_traitsIcESaIcEEE
libIex-3_4.so.33:_ZN7Iex_3_411EnotconnExcC1EOS0_
libIex-3_4.so.33:_ZN7Iex_3_411EnotconnExcC1EPKc
libIex-3_4.so.33:_ZN7Iex_3_411EnotconnExcC1ERKNSt7__cxx1112basic_stringIcSt11char_traitsIcESaIcEEE
libIex-3_4.so.33:_ZN7Iex_3_411EnotconnExcC1ERKS0_
libIex-3_4.so.33:_ZN7Iex_3_411EnotconnExcC1ERNSt7__cxx1118basic_stringstreamIcSt11char_traitsIcESaIcEEE
libIex-3_4.so.33:_ZN7Iex_3_411EnotconnExcC1Ev
libIex-3_4.so.33:_ZN7Iex_3_411EnotconnExcC2EONSt7__cxx1112basic_stringIcSt11char_traitsIcESaIcEEE
libIex-3_4.so.33:_ZN7Iex_3_411EnotconnExcC2EOS0_
libIex-3_4.so.33:_ZN7Iex_3_411EnotconnExcC2EPKc
libIex-3_4.so.33:_ZN7Iex_3_411EnotconnExcC2ERKNSt7__cxx1112basic_stringIcSt11char_traitsIcESaIcEEE
libIex-3_4.so.33:_ZN7Iex_3_411EnotconnExcC2ERKS0_
libIex-3_4.so.33:_ZN7Iex_3_411EnotconnExcC2ERNSt7__cxx1118basic_stringstreamIcSt11char_traitsIcESaIcEEE
libIex-3_4.so.33:_ZN7Iex_3_411EnotconnExcC2Ev
libIex-3_4.so.33:_ZN7Iex_3_411EnotconnExcD0Ev
libIex-3_4.so.33:_ZN7Iex_3_411EnotconnExcD1Ev
libIex-3_4.so.33:_ZN7Iex_3_411EnotconnExcD2Ev
libIex-3_4.so.33:_ZN7Iex_3_411EnotconnExcaSEOS0_
libIex-3_4.so.33:_ZN7Iex_3_411EnotconnExcaSERS0_
libIex-3_4.so.33:_ZN7Iex_3_411EnotsockExcC1EONSt7__cxx1112basic_stringIcSt11char_traitsIcESaIcEEE
libIex-3_4.so.33:_ZN7Iex_3_411EnotsockExcC1EOS0_
libIex-3_4.so.33:_ZN7Iex_3_411EnotsockExcC1EPKc
libIex-3_4.so.33:_ZN7Iex_3_411EnotsockExcC1ERKNSt7__cxx1112basic_stringIcSt11char_traitsIcESaIcEEE
libIex-3_4.so.33:_ZN7Iex_3_411EnotsockExcC1ERKS0_
libIex-3_4.so.33:_ZN7Iex_3_411EnotsockExcC1ERNSt7__cxx1118basic_stringstreamIcSt11char_traitsIcESaIcEEE
libIex-3_4.so.33:_ZN7Iex_3_411EnotsockExcC1Ev
libIex-3_4.so.33:_ZN7Iex_3_411EnotsockExcC2EONSt7__cxx1112basic_stringIcSt11char_traitsIcESaIcEEE
libIex-3_4.so.33:_ZN7Iex_3_411EnotsockExcC2EOS0_
libIex-3_4.so.33:_ZN7Iex_3_411EnotsockExcC2EPKc
libIex-3_4.so.33:_ZN7Iex_3_411EnotsockExcC2ERKNSt7__cxx1112basic_stringIcSt11char_traitsIcESaIcEEE
libIex-3_4.so.33:_ZN7Iex_3_411EnotsockExcC2ERKS0_
libIex-3_4.so.33:_ZN7Iex_3_411EnotsockExcC2ERNSt7__cxx1118basic_stringstreamIcSt11char_traitsIcESaIcEEE
libIex-3_4.so.33:_ZN7Iex_3_411EnotsockExcC2Ev
libIex-3_4.so.33:_ZN7Iex_3_411EnotsockExcD0Ev
libIex-3_4.so.33:_ZN7Iex_3_411EnotsockExcD1Ev
libIex-3_4.so.33:_ZN7Iex_3_411EnotsockExcD2Ev
libIex-3_4.so.33:_ZN7Iex_3_411EnotsockExcaSEOS0_
libIex-3_4.so.33:_ZN7Iex_3_411EnotsockExcaSERS0_
libIex-3_4.so.33:_ZN7Iex_3_411EnotuniqExcC1EONSt7__cxx1112basic_stringIcSt11char_traitsIcESaIcEEE
libIex-3_4.so.33:_ZN7Iex_3_411EnotuniqExcC1EOS0_
libIex-3_4.so.33:_ZN7Iex_3_411EnotuniqExcC1EPKc
libIex-3_4.so.33:_ZN7Iex_3_411EnotuniqExcC1ERKNSt7__cxx1112basic_stringIcSt11char_traitsIcESaIcEEE
libIex-3_4.so.33:_ZN7Iex_3_411EnotuniqExcC1ERKS0_
libIex-3_4.so.33:_ZN7Iex_3_411EnotuniqExcC1ERNSt7__cxx1118basic_stringstreamIcSt11char_traitsIcESaIcEEE
libIex-3_4.so.33:_ZN7Iex_3_411EnotuniqExcC1Ev
libIex-3_4.so.33:_ZN7Iex_3_411EnotuniqExcC2EONSt7__cxx1112basic_stringIcSt11char_traitsIcESaIcEEE
libIex-3_4.so.33:_ZN7Iex_3_411EnotuniqExcC2EOS0_
libIex-3_4.so.33:_ZN7Iex_3_411EnotuniqExcC2EPKc
libIex-3_4.so.33:_ZN7Iex_3_411EnotuniqExcC2ERKNSt7__cxx1112basic_stringIcSt11char_traitsIcESaIcEEE
libIex-3_4.so.33:_ZN7Iex_3_411EnotuniqExcC2ERKS0_
libIex-3_4.so.33:_ZN7Iex_3_411EnotuniqExcC2ERNSt7__cxx1118basic_stringstreamIcSt11char_traitsIcESaIcEEE
libIex-3_4.so.33:_ZN7Iex_3_411EnotuniqExcC2Ev
libIex-3_4.so.33:_ZN7Iex_3_411EnotuniqExcD0Ev
libIex-3_4.so.33:_ZN7Iex_3_411EnotuniqExcD1Ev
libIex-3_4.so.33:_ZN7Iex_3_411EnotuniqExcD2Ev
libIex-3_4.so.33:_ZN7Iex_3_411EnotuniqExcaSEOS0_
libIex-3_4.so.33:_ZN7Iex_3_411EnotuniqExcaSERS0_
libIex-3_4.so.33:_ZN7Iex_3_411EproclimExcC1EONSt7__cxx1112basic_stringIcSt11char_traitsIcESaIcEEE
libIex-3_4.so.33:_ZN7Iex_3_411EproclimExcC1EOS0_
libIex-3_4.so.33:_ZN7Iex_3_411EproclimExcC1EPKc
libIex-3_4.so.33:_ZN7Iex_3_411EproclimExcC1ERKNSt7__cxx1112basic_stringIcSt11char_traitsIcESaIcEEE
libIex-3_4.so.33:_ZN7Iex_3_411EproclimExcC1ERKS0_
libIex-3_4.so.33:_ZN7Iex_3_411EproclimExcC1ERNSt7__cxx1118basic_stringstreamIcSt11char_traitsIcESaIcEEE
libIex-3_4.so.33:_ZN7Iex_3_411EproclimExcC1Ev
libIex-3_4.so.33:_ZN7Iex_3_411EproclimExcC2EONSt7__cxx1112basic_stringIcSt11char_traitsIcESaIcEEE
libIex-3_4.so.33:_ZN7Iex_3_411EproclimExcC2EOS0_
libIex-3_4.so.33:_ZN7Iex_3_411EproclimExcC2EPKc
libIex-3_4.so.33:_ZN7Iex_3_411EproclimExcC2ERKNSt7__cxx1112basic_stringIcSt11char_traitsIcESaIcEEE
libIex-3_4.so.33:_ZN7Iex_3_411EproclimExcC2ERKS0_
libIex-3_4.so.33:_ZN7Iex_3_411EproclimExcC2ERNSt7__cxx1118basic_stringstreamIcSt11char_traitsIcESaIcEEE
libIex-3_4.so.33:_ZN7Iex_3_411EproclimExcC2Ev
libIex-3_4.so.33:_ZN7Iex_3_411EproclimExcD0Ev
libIex-3_4.so.33:_ZN7Iex_3_411EproclimExcD1Ev
libIex-3_4.so.33:_ZN7Iex_3_411EproclimExcD2Ev
libIex-3_4.so.33:_ZN7Iex_3_411EproclimExcaSEOS0_
libIex-3_4.so.33:_ZN7Iex_3_411EproclimExcaSERS0_
libIex-3_4.so.33:_ZN7Iex_3_411ErestartExcC1EONSt7__cxx1112basic_stringIcSt11char_traitsIcESaIcEEE
libIex-3_4.so.33:_ZN7Iex_3_411ErestartExcC1EOS0_
libIex-3_4.so.33:_ZN7Iex_3_411ErestartExcC1EPKc
libIex-3_4.so.33:_ZN7Iex_3_411ErestartExcC1ERKNSt7__cxx1112basic_stringIcSt11char_traitsIcESaIcEEE
libIex-3_4.so.33:_ZN7Iex_3_411ErestartExcC1ERKS0_
libIex-3_4.so.33:_ZN7Iex_3_411ErestartExcC1ERNSt7__cxx1118basic_stringstreamIcSt11char_traitsIcESaIcEEE
libIex-3_4.so.33:_ZN7Iex_3_411ErestartExcC1Ev
libIex-3_4.so.33:_ZN7Iex_3_411ErestartExcC2EONSt7__cxx1112basic_stringIcSt11char_traitsIcESaIcEEE
libIex-3_4.so.33:_ZN7Iex_3_411ErestartExcC2EOS0_
libIex-3_4.so.33:_ZN7Iex_3_411ErestartExcC2EPKc
libIex-3_4.so.33:_ZN7Iex_3_411ErestartExcC2ERKNSt7__cxx1112basic_stringIcSt11char_traitsIcESaIcEEE
libIex-3_4.so.33:_ZN7Iex_3_411ErestartExcC2ERKS0_
libIex-3_4.so.33:_ZN7Iex_3_411ErestartExcC2ERNSt7__cxx1118basic_stringstreamIcSt11char_traitsIcESaIcEEE
libIex-3_4.so.33:_ZN7Iex_3_411ErestartExcC2Ev
libIex-3_4.so.33:_ZN7Iex_3_411ErestartExcD0Ev
libIex-3_4.so.33:_ZN7Iex_3_411ErestartExcD1Ev
libIex-3_4.so.33:_ZN7Iex_3_411ErestartExcD2Ev
libIex-3_4.so.33:_ZN7Iex_3_411ErestartExcaSEOS0_
libIex-3_4.so.33:_ZN7Iex_3_411ErestartExcaSERS0_
libIex-3_4.so.33:_ZN7Iex_3_411EstrpipeExcC1EONSt7__cxx1112basic_stringIcSt11char_traitsIcESaIcEEE
libIex-3_4.so.33:_ZN7Iex_3_411EstrpipeExcC1EOS0_
libIex-3_4.so.33:_ZN7Iex_3_411EstrpipeExcC1EPKc
libIex-3_4.so.33:_ZN7Iex_3_411EstrpipeExcC1ERKNSt7__cxx1112basic_stringIcSt11char_traitsIcESaIcEEE
libIex-3_4.so.33:_ZN7Iex_3_411EstrpipeExcC1ERKS0_
libIex-3_4.so.33:_ZN7Iex_3_411EstrpipeExcC1ERNSt7__cxx1118basic_stringstreamIcSt11char_traitsIcESaIcEEE
libIex-3_4.so.33:_ZN7Iex_3_411EstrpipeExcC1Ev
libIex-3_4.so.33:_ZN7Iex_3_411EstrpipeExcC2EONSt7__cxx1112basic_stringIcSt11char_traitsIcESaIcEEE
libIex-3_4.so.33:_ZN7Iex_3_411EstrpipeExcC2EOS0_
libIex-3_4.so.33:_ZN7Iex_3_411EstrpipeExcC2EPKc
libIex-3_4.so.33:_ZN7Iex_3_411EstrpipeExcC2ERKNSt7__cxx1112basic_stringIcSt11char_traitsIcESaIcEEE
libIex-3_4.so.33:_ZN7Iex_3_411EstrpipeExcC2ERKS0_
libIex-3_4.so.33:_ZN7Iex_3_411EstrpipeExcC2ERNSt7__cxx1118basic_stringstreamIcSt11char_traitsIcESaIcEEE
libIex-3_4.so.33:_ZN7Iex_3_411EstrpipeExcC2Ev
libIex-3_4.so.33:_ZN7Iex_3_411EstrpipeExcD0Ev
libIex-3_4.so.33:_ZN7Iex_3_411EstrpipeExcD1Ev
libIex-3_4.so.33:_ZN7Iex_3_411EstrpipeExcD2Ev
libIex-3_4.so.33:_ZN7Iex_3_411EstrpipeExcaSEOS0_
libIex-3_4.so.33:_ZN7Iex_3_411EstrpipeExcaSERS0_
libIex-3_4.so.33:_ZN7Iex_3_411OverflowExcC1EONSt7__cxx1112basic_stringIcSt11char_traitsIcESaIcEEE
libIex-3_4.so.33:_ZN7Iex_3_411OverflowExcC1EOS0_
libIex-3_4.so.33:_ZN7Iex_3_411OverflowExcC1EPKc
libIex-3_4.so.33:_ZN7Iex_3_411OverflowExcC1ERKNSt7__cxx1112basic_stringIcSt11char_traitsIcESaIcEEE
libIex-3_4.so.33:_ZN7Iex_3_411OverflowExcC1ERKS0_
libIex-3_4.so.33:_ZN7Iex_3_411OverflowExcC1ERNSt7__cxx1118basic_stringstreamIcSt11char_traitsIcESaIcEEE
libIex-3_4.so.33:_ZN7Iex_3_411OverflowExcC1Ev
libIex-3_4.so.33:_ZN7Iex_3_411OverflowExcC2EONSt7__cxx1112basic_stringIcSt11char_traitsIcESaIcEEE
libIex-3_4.so.33:_ZN7Iex_3_411OverflowExcC2EOS0_
libIex-3_4.so.33:_ZN7Iex_3_411OverflowExcC2EPKc
libIex-3_4.so.33:_ZN7Iex_3_411OverflowExcC2ERKNSt7__cxx1112basic_stringIcSt11char_traitsIcESaIcEEE
libIex-3_4.so.33:_ZN7Iex_3_411OverflowExcC2ERKS0_
libIex-3_4.so.33:_ZN7Iex_3_411OverflowExcC2ERNSt7__cxx1118basic_stringstreamIcSt11char_traitsIcESaIcEEE
libIex-3_4.so.33:_ZN7Iex_3_411OverflowExcC2Ev
libIex-3_4.so.33:_ZN7Iex_3_411OverflowExcD0Ev
libIex-3_4.so.33:_ZN7Iex_3_411OverflowExcD1Ev
libIex-3_4.so.33:_ZN7Iex_3_411OverflowExcD2Ev
libIex-3_4.so.33:_ZN7Iex_3_411OverflowExcaSEOS0_
libIex-3_4.so.33:_ZN7Iex_3_411OverflowExcaSERS0_
libIex-3_4.so.33:_ZN7Iex_3_411stackTracerB5cxx11Ev
libIex-3_4.so.33:_ZN7Iex_3_412EcanceledExcC1EONSt7__cxx1112basic_stringIcSt11char_traitsIcESaIcEEE
libIex-3_4.so.33:_ZN7Iex_3_412EcanceledExcC1EOS0_
libIex-3_4.so.33:_ZN7Iex_3_412EcanceledExcC1EPKc
libIex-3_4.so.33:_ZN7Iex_3_412EcanceledExcC1ERKNSt7__cxx1112basic_stringIcSt11char_traitsIcESaIcEEE
libIex-3_4.so.33:_ZN7Iex_3_412EcanceledExcC1ERKS0_
libIex-3_4.so.33:_ZN7Iex_3_412EcanceledExcC1ERNSt7__cxx1118basic_stringstreamIcSt11char_traitsIcESaIcEEE
libIex-3_4.so.33:_ZN7Iex_3_412EcanceledExcC1Ev
libIex-3_4.so.33:_ZN7Iex_3_412EcanceledExcC2EONSt7__cxx1112basic_stringIcSt11char_traitsIcESaIcEEE
libIex-3_4.so.33:_ZN7Iex_3_412EcanceledExcC2EOS0_
libIex-3_4.so.33:_ZN7Iex_3_412EcanceledExcC2EPKc
libIex-3_4.so.33:_ZN7Iex_3_412EcanceledExcC2ERKNSt7__cxx1112basic_stringIcSt11char_traitsIcESaIcEEE
libIex-3_4.so.33:_ZN7Iex_3_412EcanceledExcC2ERKS0_
libIex-3_4.so.33:_ZN7Iex_3_412EcanceledExcC2ERNSt7__cxx1118basic_stringstreamIcSt11char_traitsIcESaIcEEE
libIex-3_4.so.33:_ZN7Iex_3_412EcanceledExcC2Ev
libIex-3_4.so.33:_ZN7Iex_3_412EcanceledExcD0Ev
libIex-3_4.so.33:_ZN7Iex_3_412EcanceledExcD1Ev
libIex-3_4.so.33:_ZN7Iex_3_412EcanceledExcD2Ev
libIex-3_4.so.33:_ZN7Iex_3_412EcanceledExcaSEOS0_
libIex-3_4.so.33:_ZN7Iex_3_412EcanceledExcaSERS0_
libIex-3_4.so.33:_ZN7Iex_3_412EclockcpuExcC1EONSt7__cxx1112basic_stringIcSt11char_traitsIcESaIcEEE
libIex-3_4.so.33:_ZN7Iex_3_412EclockcpuExcC1EOS0_
libIex-3_4.so.33:_ZN7Iex_3_412EclockcpuExcC1EPKc
libIex-3_4.so.33:_ZN7Iex_3_412EclockcpuExcC1ERKNSt7__cxx1112basic_stringIcSt11char_traitsIcESaIcEEE
libIex-3_4.so.33:_ZN7Iex_3_412EclockcpuExcC1ERKS0_
libIex-3_4.so.33:_ZN7Iex_3_412EclockcpuExcC1ERNSt7__cxx1118basic_stringstreamIcSt11char_traitsIcESaIcEEE
libIex-3_4.so.33:_ZN7Iex_3_412EclockcpuExcC1Ev
libIex-3_4.so.33:_ZN7Iex_3_412EclockcpuExcC2EONSt7__cxx1112basic_stringIcSt11char_traitsIcESaIcEEE
libIex-3_4.so.33:_ZN7Iex_3_412EclockcpuExcC2EOS0_
libIex-3_4.so.33:_ZN7Iex_3_412EclockcpuExcC2EPKc
libIex-3_4.so.33:_ZN7Iex_3_412EclockcpuExcC2ERKNSt7__cxx1112basic_stringIcSt11char_traitsIcESaIcEEE
libIex-3_4.so.33:_ZN7Iex_3_412EclockcpuExcC2ERKS0_
libIex-3_4.so.33:_ZN7Iex_3_412EclockcpuExcC2ERNSt7__cxx1118basic_stringstreamIcSt11char_traitsIcESaIcEEE
libIex-3_4.so.33:_ZN7Iex_3_412EclockcpuExcC2Ev
libIex-3_4.so.33:_ZN7Iex_3_412EclockcpuExcD0Ev
libIex-3_4.so.33:_ZN7Iex_3_412EclockcpuExcD1Ev
libIex-3_4.so.33:_ZN7Iex_3_412EclockcpuExcD2Ev
libIex-3_4.so.33:_ZN7Iex_3_412EclockcpuExcaSEOS0_
libIex-3_4.so.33:_ZN7Iex_3_412EclockcpuExcaSERS0_
libIex-3_4.so.33:_ZN7Iex_3_412EdeadlockExcC1EONSt7__cxx1112basic_stringIcSt11char_traitsIcESaIcEEE
libIex-3_4.so.33:_ZN7Iex_3_412EdeadlockExcC1EOS0_
libIex-3_4.so.33:_ZN7Iex_3_412EdeadlockExcC1EPKc
libIex-3_4.so.33:_ZN7Iex_3_412EdeadlockExcC1ERKNSt7__cxx1112basic_stringIcSt11char_traitsIcESaIcEEE
libIex-3_4.so.33:_ZN7Iex_3_412EdeadlockExcC1ERKS0_
libIex-3_4.so.33:_ZN7Iex_3_412EdeadlockExcC1ERNSt7__cxx1118basic_stringstreamIcSt11char_traitsIcESaIcEEE
libIex-3_4.so.33:_ZN7Iex_3_412EdeadlockExcC1Ev
libIex-3_4.so.33:_ZN7Iex_3_412EdeadlockExcC2EONSt7__cxx1112basic_stringIcSt11char_traitsIcESaIcEEE
libIex-3_4.so.33:_ZN7Iex_3_412EdeadlockExcC2EOS0_
libIex-3_4.so.33:_ZN7Iex_3_412EdeadlockExcC2EPKc
libIex-3_4.so.33:_ZN7Iex_3_412EdeadlockExcC2ERKNSt7__cxx1112basic_stringIcSt11char_traitsIcESaIcEEE
libIex-3_4.so.33:_ZN7Iex_3_412EdeadlockExcC2ERKS0_
libIex-3_4.so.33:_ZN7Iex_3_412EdeadlockExcC2ERNSt7__cxx1118basic_stringstreamIcSt11char_traitsIcESaIcEEE
libIex-3_4.so.33:_ZN7Iex_3_412EdeadlockExcC2Ev
libIex-3_4.so.33:_ZN7Iex_3_412EdeadlockExcD0Ev
libIex-3_4.so.33:_ZN7Iex_3_412EdeadlockExcD1Ev
libIex-3_4.so.33:_ZN7Iex_3_412EdeadlockExcD2Ev
libIex-3_4.so.33:_ZN7Iex_3_412EdeadlockExcaSEOS0_
libIex-3_4.so.33:_ZN7Iex_3_412EdeadlockExcaSERS0_
libIex-3_4.so.33:_ZN7Iex_3_412EdisjointExcC1EONSt7__cxx1112basic_stringIcSt11char_traitsIcESaIcEEE
libIex-3_4.so.33:_ZN7Iex_3_412EdisjointExcC1EOS0_
libIex-3_4.so.33:_ZN7Iex_3_412EdisjointExcC1EPKc
libIex-3_4.so.33:_ZN7Iex_3_412EdisjointExcC1ERKNSt7__cxx1112basic_stringIcSt11char_traitsIcESaIcEEE
libIex-3_4.so.33:_ZN7Iex_3_412EdisjointExcC1ERKS0_
libIex-3_4.so.33:_ZN7Iex_3_412EdisjointExcC1ERNSt7__cxx1118basic_stringstreamIcSt11char_traitsIcESaIcEEE
libIex-3_4.so.33:_ZN7Iex_3_412EdisjointExcC1Ev
libIex-3_4.so.33:_ZN7Iex_3_412EdisjointExcC2EONSt7__cxx1112basic_stringIcSt11char_traitsIcESaIcEEE
libIex-3_4.so.33:_ZN7Iex_3_412EdisjointExcC2EOS0_
libIex-3_4.so.33:_ZN7Iex_3_412EdisjointExcC2EPKc
libIex-3_4.so.33:_ZN7Iex_3_412EdisjointExcC2ERKNSt7__cxx1112basic_stringIcSt11char_traitsIcESaIcEEE
libIex-3_4.so.33:_ZN7Iex_3_412EdisjointExcC2ERKS0_
libIex-3_4.so.33:_ZN7Iex_3_412EdisjointExcC2ERNSt7__cxx1118basic_stringstreamIcSt11char_traitsIcESaIcEEE
libIex-3_4.so.33:_ZN7Iex_3_412EdisjointExcC2Ev
libIex-3_4.so.33:_ZN7Iex_3_412EdisjointExcD0Ev
libIex-3_4.so.33:_ZN7Iex_3_412EdisjointExcD1Ev
libIex-3_4.so.33:_ZN7Iex_3_412EdisjointExcD2Ev
libIex-3_4.so.33:_ZN7Iex_3_412EdisjointExcaSEOS0_
libIex-3_4.so.33:_ZN7Iex_3_412EdisjointExcaSERS0_
libIex-3_4.so.33:_ZN7Iex_3_412EenqueuedExcC1EONSt7__cxx1112basic_stringIcSt11char_traitsIcESaIcEEE
libIex-3_4.so.33:_ZN7Iex_3_412EenqueuedExcC1EOS0_
libIex-3_4.so.33:_ZN7Iex_3_412EenqueuedExcC1EPKc
libIex-3_4.so.33:_ZN7Iex_3_412EenqueuedExcC1ERKNSt7__cxx1112basic_stringIcSt11char_traitsIcESaIcEEE
libIex-3_4.so.33:_ZN7Iex_3_412EenqueuedExcC1ERKS0_
libIex-3_4.so.33:_ZN7Iex_3_412EenqueuedExcC1ERNSt7__cxx1118basic_stringstreamIcSt11char_traitsIcESaIcEEE
libIex-3_4.so.33:_ZN7Iex_3_412EenqueuedExcC1Ev
libIex-3_4.so.33:_ZN7Iex_3_412EenqueuedExcC2EONSt7__cxx1112basic_stringIcSt11char_traitsIcESaIcEEE
libIex-3_4.so.33:_ZN7Iex_3_412EenqueuedExcC2EOS0_
libIex-3_4.so.33:_ZN7Iex_3_412EenqueuedExcC2EPKc
libIex-3_4.so.33:_ZN7Iex_3_412EenqueuedExcC2ERKNSt7__cxx1112basic_stringIcSt11char_traitsIcESaIcEEE
libIex-3_4.so.33:_ZN7Iex_3_412EenqueuedExcC2ERKS0_
libIex-3_4.so.33:_ZN7Iex_3_412EenqueuedExcC2ERNSt7__cxx1118basic_stringstreamIcSt11char_traitsIcESaIcEEE
libIex-3_4.so.33:_ZN7Iex_3_412EenqueuedExcC2Ev
libIex-3_4.so.33:_ZN7Iex_3_412EenqueuedExcD0Ev
libIex-3_4.so.33:_ZN7Iex_3_412EenqueuedExcD1Ev
libIex-3_4.so.33:_ZN7Iex_3_412EenqueuedExcD2Ev
libIex-3_4.so.33:_ZN7Iex_3_412EenqueuedExcaSEOS0_
libIex-3_4.so.33:_ZN7Iex_3_412EenqueuedExcaSERS0_
libIex-3_4.so.33:_ZN7Iex_3_412EhostdownExcC1EONSt7__cxx1112basic_stringIcSt11char_traitsIcESaIcEEE
libIex-3_4.so.33:_ZN7Iex_3_412EhostdownExcC1EOS0_
libIex-3_4.so.33:_ZN7Iex_3_412EhostdownExcC1EPKc
libIex-3_4.so.33:_ZN7Iex_3_412EhostdownExcC1ERKNSt7__cxx1112basic_stringIcSt11char_traitsIcESaIcEEE
libIex-3_4.so.33:_ZN7Iex_3_412EhostdownExcC1ERKS0_
libIex-3_4.so.33:_ZN7Iex_3_412EhostdownExcC1ERNSt7__cxx1118basic_stringstreamIcSt11char_traitsIcESaIcEEE
libIex-3_4.so.33:_ZN7Iex_3_412EhostdownExcC1Ev
libIex-3_4.so.33:_ZN7Iex_3_412EhostdownExcC2EONSt7__cxx1112basic_stringIcSt11char_traitsIcESaIcEEE
libIex-3_4.so.33:_ZN7Iex_3_412EhostdownExcC2EOS0_
libIex-3_4.so.33:_ZN7Iex_3_412EhostdownExcC2EPKc
libIex-3_4.so.33:_ZN7Iex_3_412EhostdownExcC2ERKNSt7__cxx1112basic_stringIcSt11char_traitsIcESaIcEEE
libIex-3_4.so.33:_ZN7Iex_3_412EhostdownExcC2ERKS0_
libIex-3_4.so.33:_ZN7Iex_3_412EhostdownExcC2ERNSt7__cxx1118basic_stringstreamIcSt11char_traitsIcESaIcEEE
libIex-3_4.so.33:_ZN7Iex_3_412EhostdownExcC2Ev
libIex-3_4.so.33:_ZN7Iex_3_412EhostdownExcD0Ev
libIex-3_4.so.33:_ZN7Iex_3_412EhostdownExcD1Ev
libIex-3_4.so.33:_ZN7Iex_3_412EhostdownExcD2Ev
libIex-3_4.so.33:_ZN7Iex_3_412EhostdownExcaSEOS0_
libIex-3_4.so.33:_ZN7Iex_3_412EhostdownExcaSERS0_
libIex-3_4.so.33:_ZN7Iex_3_412EloginlimExcC1EONSt7__cxx1112basic_stringIcSt11char_traitsIcESaIcEEE
libIex-3_4.so.33:_ZN7Iex_3_412EloginlimExcC1EOS0_
libIex-3_4.so.33:_ZN7Iex_3_412EloginlimExcC1EPKc
libIex-3_4.so.33:_ZN7Iex_3_412EloginlimExcC1ERKNSt7__cxx1112basic_stringIcSt11char_traitsIcESaIcEEE
libIex-3_4.so.33:_ZN7Iex_3_412EloginlimExcC1ERKS0_
libIex-3_4.so.33:_ZN7Iex_3_412EloginlimExcC1ERNSt7__cxx1118basic_stringstreamIcSt11char_traitsIcESaIcEEE
libIex-3_4.so.33:_ZN7Iex_3_412EloginlimExcC1Ev
libIex-3_4.so.33:_ZN7Iex_3_412EloginlimExcC2EONSt7__cxx1112basic_stringIcSt11char_traitsIcESaIcEEE
libIex-3_4.so.33:_ZN7Iex_3_412EloginlimExcC2EOS0_
libIex-3_4.so.33:_ZN7Iex_3_412EloginlimExcC2EPKc
libIex-3_4.so.33:_ZN7Iex_3_412EloginlimExcC2ERKNSt7__cxx1112basic_stringIcSt11char_traitsIcESaIcEEE
libIex-3_4.so.33:_ZN7Iex_3_412EloginlimExcC2ERKS0_
libIex-3_4.so.33:_ZN7Iex_3_412EloginlimExcC2ERNSt7__cxx1118basic_stringstreamIcSt11char_traitsIcESaIcEEE
libIex-3_4.so.33:_ZN7Iex_3_412EloginlimExcC2Ev
libIex-3_4.so.33:_ZN7Iex_3_412EloginlimExcD0Ev
libIex-3_4.so.33:_ZN7Iex_3_412EloginlimExcD1Ev
libIex-3_4.so.33:_ZN7Iex_3_412EloginlimExcD2Ev
libIex-3_4.so.33:_ZN7Iex_3_412EloginlimExcaSEOS0_
libIex-3_4.so.33:_ZN7Iex_3_412EloginlimExcaSERS0_
libIex-3_4.so.33:_ZN7Iex_3_412EmultihopExcC1EONSt7__cxx1112basic_stringIcSt11char_traitsIcESaIcEEE
libIex-3_4.so.33:_ZN7Iex_3_412EmultihopExcC1EOS0_
libIex-3_4.so.33:_ZN7Iex_3_412EmultihopExcC1EPKc
libIex-3_4.so.33:_ZN7Iex_3_412EmultihopExcC1ERKNSt7__cxx1112basic_stringIcSt11char_traitsIcESaIcEEE
libIex-3_4.so.33:_ZN7Iex_3_412EmultihopExcC1ERKS0_
libIex-3_4.so.33:_ZN7Iex_3_412EmultihopExcC1ERNSt7__cxx1118basic_stringstreamIcSt11char_traitsIcESaIcEEE
libIex-3_4.so.33:_ZN7Iex_3_412EmultihopExcC1Ev
libIex-3_4.so.33:_ZN7Iex_3_412EmultihopExcC2EONSt7__cxx1112basic_stringIcSt11char_traitsIcESaIcEEE
libIex-3_4.so.33:_ZN7Iex_3_412EmultihopExcC2EOS0_
libIex-3_4.so.33:_ZN7Iex_3_412EmultihopExcC2EPKc
libIex-3_4.so.33:_ZN7Iex_3_412EmultihopExcC2ERKNSt7__cxx1112basic_stringIcSt11char_traitsIcESaIcEEE
libIex-3_4.so.33:_ZN7Iex_3_412EmultihopExcC2ERKS0_
libIex-3_4.so.33:_ZN7Iex_3_412EmultihopExcC2ERNSt7__cxx1118basic_stringstreamIcSt11char_traitsIcESaIcEEE
libIex-3_4.so.33:_ZN7Iex_3_412EmultihopExcC2Ev
libIex-3_4.so.33:_ZN7Iex_3_412EmultihopExcD0Ev
libIex-3_4.so.33:_ZN7Iex_3_412EmultihopExcD1Ev
libIex-3_4.so.33:_ZN7Iex_3_412EmultihopExcD2Ev
libIex-3_4.so.33:_ZN7Iex_3_412EmultihopExcaSEOS0_
libIex-3_4.so.33:_ZN7Iex_3_412EmultihopExcaSERS0_
libIex-3_4.so.33:_ZN7Iex_3_412EnetresetExcC1EONSt7__cxx1112basic_stringIcSt11char_traitsIcESaIcEEE
libIex-3_4.so.33:_ZN7Iex_3_412EnetresetExcC1EOS0_
libIex-3_4.so.33:_ZN7Iex_3_412EnetresetExcC1EPKc
libIex-3_4.so.33:_ZN7Iex_3_412EnetresetExcC1ERKNSt7__cxx1112basic_stringIcSt11char_traitsIcESaIcEEE
libIex-3_4.so.33:_ZN7Iex_3_412EnetresetExcC1ERKS0_
libIex-3_4.so.33:_ZN7Iex_3_412EnetresetExcC1ERNSt7__cxx1118basic_stringstreamIcSt11char_traitsIcESaIcEEE
libIex-3_4.so.33:_ZN7Iex_3_412EnetresetExcC1Ev
libIex-3_4.so.33:_ZN7Iex_3_412EnetresetExcC2EONSt7__cxx1112basic_stringIcSt11char_traitsIcESaIcEEE
libIex-3_4.so.33:_ZN7Iex_3_412EnetresetExcC2EOS0_
libIex-3_4.so.33:_ZN7Iex_3_412EnetresetExcC2EPKc
libIex-3_4.so.33:_ZN7Iex_3_412EnetresetExcC2ERKNSt7__cxx1112basic_stringIcSt11char_traitsIcESaIcEEE
libIex-3_4.so.33:_ZN7Iex_3_412EnetresetExcC2ERKS0_
libIex-3_4.so.33:_ZN7Iex_3_412EnetresetExcC2ERNSt7__cxx1118basic_stringstreamIcSt11char_traitsIcESaIcEEE
libIex-3_4.so.33:_ZN7Iex_3_412EnetresetExcC2Ev
libIex-3_4.so.33:_ZN7Iex_3_412EnetresetExcD0Ev
libIex-3_4.so.33:_ZN7Iex_3_412EnetresetExcD1Ev
libIex-3_4.so.33:_ZN7Iex_3_412EnetresetExcD2Ev
libIex-3_4.so.33:_ZN7Iex_3_412EnetresetExcaSEOS0_
libIex-3_4.so.33:_ZN7Iex_3_412EnetresetExcaSERS0_
libIex-3_4.so.33:_ZN7Iex_3_412EnoattachExcC1EONSt7__cxx1112basic_stringIcSt11char_traitsIcESaIcEEE
libIex-3_4.so.33:_ZN7Iex_3_412EnoattachExcC1EOS0_
libIex-3_4.so.33:_ZN7Iex_3_412EnoattachExcC1EPKc
libIex-3_4.so.33:_ZN7Iex_3_412EnoattachExcC1ERKNSt7__cxx1112basic_stringIcSt11char_traitsIcESaIcEEE
libIex-3_4.so.33:_ZN7Iex_3_412EnoattachExcC1ERKS0_
libIex-3_4.so.33:_ZN7Iex_3_412EnoattachExcC1ERNSt7__cxx1118basic_stringstreamIcSt11char_traitsIcESaIcEEE
libIex-3_4.so.33:_ZN7Iex_3_412EnoattachExcC1Ev
libIex-3_4.so.33:_ZN7Iex_3_412EnoattachExcC2EONSt7__cxx1112basic_stringIcSt11char_traitsIcESaIcEEE
libIex-3_4.so.33:_ZN7Iex_3_412EnoattachExcC2EOS0_
libIex-3_4.so.33:_ZN7Iex_3_412EnoattachExcC2EPKc
libIex-3_4.so.33:_ZN7Iex_3_412EnoattachExcC2ERKNSt7__cxx1112basic_stringIcSt11char_traitsIcESaIcEEE
libIex-3_4.so.33:_ZN7Iex_3_412EnoattachExcC2ERKS0_
libIex-3_4.so.33:_ZN7Iex_3_412EnoattachExcC2ERNSt7__cxx1118basic_stringstreamIcSt11char_traitsIcESaIcEEE
libIex-3_4.so.33:_ZN7Iex_3_412EnoattachExcC2Ev
libIex-3_4.so.33:_ZN7Iex_3_412EnoattachExcD0Ev
libIex-3_4.so.33:_ZN7Iex_3_412EnoattachExcD1Ev
libIex-3_4.so.33:_ZN7Iex_3_412EnoattachExcD2Ev
libIex-3_4.so.33:_ZN7Iex_3_412EnoattachExcaSEOS0_
libIex-3_4.so.33:_ZN7Iex_3_412EnoattachExcaSERS0_
libIex-3_4.so.33:_ZN7Iex_3_412EnotemptyExcC1EONSt7__cxx1112basic_stringIcSt11char_traitsIcESaIcEEE
libIex-3_4.so.33:_ZN7Iex_3_412EnotemptyExcC1EOS0_
libIex-3_4.so.33:_ZN7Iex_3_412EnotemptyExcC1EPKc
libIex-3_4.so.33:_ZN7Iex_3_412EnotemptyExcC1ERKNSt7__cxx1112basic_stringIcSt11char_traitsIcESaIcEEE
libIex-3_4.so.33:_ZN7Iex_3_412EnotemptyExcC1ERKS0_
libIex-3_4.so.33:_ZN7Iex_3_412EnotemptyExcC1ERNSt7__cxx1118basic_stringstreamIcSt11char_traitsIcESaIcEEE
libIex-3_4.so.33:_ZN7Iex_3_412EnotemptyExcC1Ev
libIex-3_4.so.33:_ZN7Iex_3_412EnotemptyExcC2EONSt7__cxx1112basic_stringIcSt11char_traitsIcESaIcEEE
libIex-3_4.so.33:_ZN7Iex_3_412EnotemptyExcC2EOS0_
libIex-3_4.so.33:_ZN7Iex_3_412EnotemptyExcC2EPKc
libIex-3_4.so.33:_ZN7Iex_3_412EnotemptyExcC2ERKNSt7__cxx1112basic_stringIcSt11char_traitsIcESaIcEEE
libIex-3_4.so.33:_ZN7Iex_3_412EnotemptyExcC2ERKS0_
libIex-3_4.so.33:_ZN7Iex_3_412EnotemptyExcC2ERNSt7__cxx1118basic_stringstreamIcSt11char_traitsIcESaIcEEE
libIex-3_4.so.33:_ZN7Iex_3_412EnotemptyExcC2Ev
libIex-3_4.so.33:_ZN7Iex_3_412EnotemptyExcD0Ev
libIex-3_4.so.33:_ZN7Iex_3_412EnotemptyExcD1Ev
libIex-3_4.so.33:_ZN7Iex_3_412EnotemptyExcD2Ev
libIex-3_4.so.33:_ZN7Iex_3_412EnotemptyExcaSEOS0_
libIex-3_4.so.33:_ZN7Iex_3_412EnotemptyExcaSERS0_
libIex-3_4.so.33:_ZN7Iex_3_412EoverflowExcC1EONSt7__cxx1112basic_stringIcSt11char_traitsIcESaIcEEE
libIex-3_4.so.33:_ZN7Iex_3_412EoverflowExcC1EOS0_
libIex-3_4.so.33:_ZN7Iex_3_412EoverflowExcC1EPKc
libIex-3_4.so.33:_ZN7Iex_3_412EoverflowExcC1ERKNSt7__cxx1112basic_stringIcSt11char_traitsIcESaIcEEE
libIex-3_4.so.33:_ZN7Iex_3_412EoverflowExcC1ERKS0_
libIex-3_4.so.33:_ZN7Iex_3_412EoverflowExcC1ERNSt7__cxx1118basic_stringstreamIcSt11char_traitsIcESaIcEEE
libIex-3_4.so.33:_ZN7Iex_3_412EoverflowExcC1Ev
libIex-3_4.so.33:_ZN7Iex_3_412EoverflowExcC2EONSt7__cxx1112basic_stringIcSt11char_traitsIcESaIcEEE
libIex-3_4.so.33:_ZN7Iex_3_412EoverflowExcC2EOS0_
libIex-3_4.so.33:_ZN7Iex_3_412EoverflowExcC2EPKc
libIex-3_4.so.33:_ZN7Iex_3_412EoverflowExcC2ERKNSt7__cxx1112basic_stringIcSt11char_traitsIcESaIcEEE
libIex-3_4.so.33:_ZN7Iex_3_412EoverflowExcC2ERKS0_
libIex-3_4.so.33:_ZN7Iex_3_412EoverflowExcC2ERNSt7__cxx1118basic_stringstreamIcSt11char_traitsIcESaIcEEE
libIex-3_4.so.33:_ZN7Iex_3_412EoverflowExcC2Ev
libIex-3_4.so.33:_ZN7Iex_3_412EoverflowExcD0Ev
libIex-3_4.so.33:_ZN7Iex_3_412EoverflowExcD1Ev
libIex-3_4.so.33:_ZN7Iex_3_412EoverflowExcD2Ev
libIex-3_4.so.33:_ZN7Iex_3_412EoverflowExcaSEOS0_
libIex-3_4.so.33:_ZN7Iex_3_412EoverflowExcaSERS0_
libIex-3_4.so.33:_ZN7Iex_3_412EremoteioExcC1EONSt7__cxx1112basic_stringIcSt11char_traitsIcESaIcEEE
libIex-3_4.so.33:_ZN7Iex_3_412EremoteioExcC1EOS0_
libIex-3_4.so.33:_ZN7Iex_3_412EremoteioExcC1EPKc
libIex-3_4.so.33:_ZN7Iex_3_412EremoteioExcC1ERKNSt7__cxx1112basic_stringIcSt11char_traitsIcESaIcEEE
libIex-3_4.so.33:_ZN7Iex_3_412EremoteioExcC1ERKS0_
libIex-3_4.so.33:_ZN7Iex_3_412EremoteioExcC1ERNSt7__cxx1118basic_stringstreamIcSt11char_traitsIcESaIcEEE
libIex-3_4.so.33:_ZN7Iex_3_412EremoteioExcC1Ev
libIex-3_4.so.33:_ZN7Iex_3_412EremoteioExcC2EONSt7__cxx1112basic_stringIcSt11char_traitsIcESaIcEEE
libIex-3_4.so.33:_ZN7Iex_3_412EremoteioExcC2EOS0_
libIex-3_4.so.33:_ZN7Iex_3_412EremoteioExcC2EPKc
libIex-3_4.so.33:_ZN7Iex_3_412EremoteioExcC2ERKNSt7__cxx1112basic_stringIcSt11char_traitsIcESaIcEEE
libIex-3_4.so.33:_ZN7Iex_3_412EremoteioExcC2ERKS0_
libIex-3_4.so.33:_ZN7Iex_3_412EremoteioExcC2ERNSt7__cxx1118basic_stringstreamIcSt11char_traitsIcESaIcEEE
libIex-3_4.so.33:_ZN7Iex_3_412EremoteioExcC2Ev
libIex-3_4.so.33:_ZN7Iex_3_412EremoteioExcD0Ev
libIex-3_4.so.33:_ZN7Iex_3_412EremoteioExcD1Ev
libIex-3_4.so.33:_ZN7Iex_3_412EremoteioExcD2Ev
libIex-3_4.so.33:_ZN7Iex_3_412EremoteioExcaSEOS0_
libIex-3_4.so.33:_ZN7Iex_3_412EremoteioExcaSERS0_
libIex-3_4.so.33:_ZN7Iex_3_412EshutdownExcC1EONSt7__cxx1112basic_stringIcSt11char_traitsIcESaIcEEE
libIex-3_4.so.33:_ZN7Iex_3_412EshutdownExcC1EOS0_
libIex-3_4.so.33:_ZN7Iex_3_412EshutdownExcC1EPKc
libIex-3_4.so.33:_ZN7Iex_3_412EshutdownExcC1ERKNSt7__cxx1112basic_stringIcSt11char_traitsIcESaIcEEE
libIex-3_4.so.33:_ZN7Iex_3_412EshutdownExcC1ERKS0_
libIex-3_4.so.33:_ZN7Iex_3_412EshutdownExcC1ERNSt7__cxx1118basic_stringstreamIcSt11char_traitsIcESaIcEEE
libIex-3_4.so.33:_ZN7Iex_3_412EshutdownExcC1Ev
libIex-3_4.so.33:_ZN7Iex_3_412EshutdownExcC2EONSt7__cxx1112basic_stringIcSt11char_traitsIcESaIcEEE
libIex-3_4.so.33:_ZN7Iex_3_412EshutdownExcC2EOS0_
libIex-3_4.so.33:_ZN7Iex_3_412EshutdownExcC2EPKc
libIex-3_4.so.33:_ZN7Iex_3_412EshutdownExcC2ERKNSt7__cxx1112basic_stringIcSt11char_traitsIcESaIcEEE
libIex-3_4.so.33:_ZN7Iex_3_412EshutdownExcC2ERKS0_
libIex-3_4.so.33:_ZN7Iex_3_412EshutdownExcC2ERNSt7__cxx1118basic_stringstreamIcSt11char_traitsIcESaIcEEE
libIex-3_4.so.33:_ZN7Iex_3_412EshutdownExcC2Ev
libIex-3_4.so.33:_ZN7Iex_3_412EshutdownExcD0Ev
libIex-3_4.so.33:_ZN7Iex_3_412EshutdownExcD1Ev
libIex-3_4.so.33:_ZN7Iex_3_412EshutdownExcD2Ev
libIex-3_4.so.33:_ZN7Iex_3_412EshutdownExcaSEOS0_
libIex-3_4.so.33:_ZN7Iex_3_412EshutdownExcaSERS0_
libIex-3_4.so.33:_ZN7Iex_3_412EtimedoutExcC1EONSt7__cxx1112basic_stringIcSt11char_traitsIcESaIcEEE
libIex-3_4.so.33:_ZN7Iex_3_412EtimedoutExcC1EOS0_
libIex-3_4.so.33:_ZN7Iex_3_412EtimedoutExcC1EPKc
libIex-3_4.so.33:_ZN7Iex_3_412EtimedoutExcC1ERKNSt7__cxx1112basic_stringIcSt11char_traitsIcESaIcEEE
libIex-3_4.so.33:_ZN7Iex_3_412EtimedoutExcC1ERKS0_
libIex-3_4.so.33:_ZN7Iex_3_412EtimedoutExcC1ERNSt7__cxx1118basic_stringstreamIcSt11char_traitsIcESaIcEEE
libIex-3_4.so.33:_ZN7Iex_3_412EtimedoutExcC1Ev
libIex-3_4.so.33:_ZN7Iex_3_412EtimedoutExcC2EONSt7__cxx1112basic_stringIcSt11char_traitsIcESaIcEEE
libIex-3_4.so.33:_ZN7Iex_3_412EtimedoutExcC2EOS0_
libIex-3_4.so.33:_ZN7Iex_3_412EtimedoutExcC2EPKc
libIex-3_4.so.33:_ZN7Iex_3_412EtimedoutExcC2ERKNSt7__cxx1112basic_stringIcSt11char_traitsIcESaIcEEE
libIex-3_4.so.33:_ZN7Iex_3_412EtimedoutExcC2ERKS0_
libIex-3_4.so.33:_ZN7Iex_3_412EtimedoutExcC2ERNSt7__cxx1118basic_stringstreamIcSt11char_traitsIcESaIcEEE
libIex-3_4.so.33:_ZN7Iex_3_412EtimedoutExcC2Ev
libIex-3_4.so.33:_ZN7Iex_3_412EtimedoutExcD0Ev
libIex-3_4.so.33:_ZN7Iex_3_412EtimedoutExcD1Ev
libIex-3_4.so.33:_ZN7Iex_3_412EtimedoutExcD2Ev
libIex-3_4.so.33:_ZN7Iex_3_412EtimedoutExcaSEOS0_
libIex-3_4.so.33:_ZN7Iex_3_412EtimedoutExcaSERS0_
libIex-3_4.so.33:_ZN7Iex_3_412UnderflowExcC1EONSt7__cxx1112basic_stringIcSt11char_traitsIcESaIcEEE
libIex-3_4.so.33:_ZN7Iex_3_412UnderflowExcC1EOS0_
libIex-3_4.so.33:_ZN7Iex_3_412UnderflowExcC1EPKc
libIex-3_4.so.33:_ZN7Iex_3_412UnderflowExcC1ERKNSt7__cxx1112basic_stringIcSt11char_traitsIcESaIcEEE
libIex-3_4.so.33:_ZN7Iex_3_412UnderflowExcC1ERKS0_
libIex-3_4.so.33:_ZN7Iex_3_412UnderflowExcC1ERNSt7__cxx1118basic_stringstreamIcSt11char_traitsIcESaIcEEE
libIex-3_4.so.33:_ZN7Iex_3_412UnderflowExcC1Ev
libIex-3_4.so.33:_ZN7Iex_3_412UnderflowExcC2EONSt7__cxx1112basic_stringIcSt11char_traitsIcESaIcEEE
libIex-3_4.so.33:_ZN7Iex_3_412UnderflowExcC2EOS0_
libIex-3_4.so.33:_ZN7Iex_3_412UnderflowExcC2EPKc
libIex-3_4.so.33:_ZN7Iex_3_412UnderflowExcC2ERKNSt7__cxx1112basic_stringIcSt11char_traitsIcESaIcEEE
libIex-3_4.so.33:_ZN7Iex_3_412UnderflowExcC2ERKS0_
libIex-3_4.so.33:_ZN7Iex_3_412UnderflowExcC2ERNSt7__cxx1118basic_stringstreamIcSt11char_traitsIcESaIcEEE
libIex-3_4.so.33:_ZN7Iex_3_412UnderflowExcC2Ev
libIex-3_4.so.33:_ZN7Iex_3_412UnderflowExcD0Ev
libIex-3_4.so.33:_ZN7Iex_3_412UnderflowExcD1Ev
libIex-3_4.so.33:_ZN7Iex_3_412UnderflowExcD2Ev
libIex-3_4.so.33:_ZN7Iex_3_412UnderflowExcaSEOS0_
libIex-3_4.so.33:_ZN7Iex_3_412UnderflowExcaSERS0_
libIex-3_4.so.33:_ZN7Iex_3_412getMathExcOnEv
libIex-3_4.so.33:_ZN7Iex_3_413EaddrinuseExcC1EONSt7__cxx1112basic_stringIcSt11char_traitsIcESaIcEEE
libIex-3_4.so.33:_ZN7Iex_3_413EaddrinuseExcC1EOS0_
libIex-3_4.so.33:_ZN7Iex_3_413EaddrinuseExcC1EPKc
libIex-3_4.so.33:_ZN7Iex_3_413EaddrinuseExcC1ERKNSt7__cxx1112basic_stringIcSt11char_traitsIcESaIcEEE
libIex-3_4.so.33:_ZN7Iex_3_413EaddrinuseExcC1ERKS0_
libIex-3_4.so.33:_ZN7Iex_3_413EaddrinuseExcC1ERNSt7__cxx1118basic_stringstreamIcSt11char_traitsIcESaIcEEE
libIex-3_4.so.33:_ZN7Iex_3_413EaddrinuseExcC1Ev
libIex-3_4.so.33:_ZN7Iex_3_413EaddrinuseExcC2EONSt7__cxx1112basic_stringIcSt11char_traitsIcESaIcEEE
libIex-3_4.so.33:_ZN7Iex_3_413EaddrinuseExcC2EOS0_
libIex-3_4.so.33:_ZN7Iex_3_413EaddrinuseExcC2EPKc
libIex-3_4.so.33:_ZN7Iex_3_413EaddrinuseExcC2ERKNSt7__cxx1112basic_stringIcSt11char_traitsIcESaIcEEE
libIex-3_4.so.33:_ZN7Iex_3_413EaddrinuseExcC2ERKS0_
libIex-3_4.so.33:_ZN7Iex_3_413EaddrinuseExcC2ERNSt7__cxx1118basic_stringstreamIcSt11char_traitsIcESaIcEEE
libIex-3_4.so.33:_ZN7Iex_3_413EaddrinuseExcC2Ev
libIex-3_4.so.33:_ZN7Iex_3_413EaddrinuseExcD0Ev
libIex-3_4.so.33:_ZN7Iex_3_413EaddrinuseExcD1Ev
libIex-3_4.so.33:_ZN7Iex_3_413EaddrinuseExcD2Ev
libIex-3_4.so.33:_ZN7Iex_3_413EaddrinuseExcaSEOS0_
libIex-3_4.so.33:_ZN7Iex_3_413EaddrinuseExcaSERS0_
libIex-3_4.so.33:_ZN7Iex_3_413EconnresetExcC1EONSt7__cxx1112basic_stringIcSt11char_traitsIcESaIcEEE
libIex-3_4.so.33:_ZN7Iex_3_413EconnresetExcC1EOS0_
libIex-3_4.so.33:_ZN7Iex_3_413EconnresetExcC1EPKc
libIex-3_4.so.33:_ZN7Iex_3_413EconnresetExcC1ERKNSt7__cxx1112basic_stringIcSt11char_traitsIcESaIcEEE
libIex-3_4.so.33:_ZN7Iex_3_413EconnresetExcC1ERKS0_
libIex-3_4.so.33:_ZN7Iex_3_413EconnresetExcC1ERNSt7__cxx1118basic_stringstreamIcSt11char_traitsIcESaIcEEE
libIex-3_4.so.33:_ZN7Iex_3_413EconnresetExcC1Ev
libIex-3_4.so.33:_ZN7Iex_3_413EconnresetExcC2EONSt7__cxx1112basic_stringIcSt11char_traitsIcESaIcEEE
libIex-3_4.so.33:_ZN7Iex_3_413EconnresetExcC2EOS0_
libIex-3_4.so.33:_ZN7Iex_3_413EconnresetExcC2EPKc
libIex-3_4.so.33:_ZN7Iex_3_413EconnresetExcC2ERKNSt7__cxx1112basic_stringIcSt11char_traitsIcESaIcEEE
libIex-3_4.so.33:_ZN7Iex_3_413EconnresetExcC2ERKS0_
libIex-3_4.so.33:_ZN7Iex_3_413EconnresetExcC2ERNSt7__cxx1118basic_stringstreamIcSt11char_traitsIcESaIcEEE
libIex-3_4.so.33:_ZN7Iex_3_413EconnresetExcC2Ev
libIex-3_4.so.33:_ZN7Iex_3_413EconnresetExcD0Ev
libIex-3_4.so.33:_ZN7Iex_3_413EconnresetExcD1Ev
libIex-3_4.so.33:_ZN7Iex_3_413EconnresetExcD2Ev
libIex-3_4.so.33:_ZN7Iex_3_413EconnresetExcaSEOS0_
libIex-3_4.so.33:_ZN7Iex_3_413EconnresetExcaSERS0_
libIex-3_4.so.33:_ZN7Iex_3_413EdestroyedExcC1EONSt7__cxx1112basic_stringIcSt11char_traitsIcESaIcEEE
libIex-3_4.so.33:_ZN7Iex_3_413EdestroyedExcC1EOS0_
libIex-3_4.so.33:_ZN7Iex_3_413EdestroyedExcC1EPKc
libIex-3_4.so.33:_ZN7Iex_3_413EdestroyedExcC1ERKNSt7__cxx1112basic_stringIcSt11char_traitsIcESaIcEEE
libIex-3_4.so.33:_ZN7Iex_3_413EdestroyedExcC1ERKS0_
libIex-3_4.so.33:_ZN7Iex_3_413EdestroyedExcC1ERNSt7__cxx1118basic_stringstreamIcSt11char_traitsIcESaIcEEE
libIex-3_4.so.33:_ZN7Iex_3_413EdestroyedExcC1Ev
libIex-3_4.so.33:_ZN7Iex_3_413EdestroyedExcC2EONSt7__cxx1112basic_stringIcSt11char_traitsIcESaIcEEE
libIex-3_4.so.33:_ZN7Iex_3_413EdestroyedExcC2EOS0_
libIex-3_4.so.33:_ZN7Iex_3_413EdestroyedExcC2EPKc
libIex-3_4.so.33:_ZN7Iex_3_413EdestroyedExcC2ERKNSt7__cxx1112basic_stringIcSt11char_traitsIcESaIcEEE
libIex-3_4.so.33:_ZN7Iex_3_413EdestroyedExcC2ERKS0_
libIex-3_4.so.33:_ZN7Iex_3_413EdestroyedExcC2ERNSt7__cxx1118basic_stringstreamIcSt11char_traitsIcESaIcEEE
libIex-3_4.so.33:_ZN7Iex_3_413EdestroyedExcC2Ev
libIex-3_4.so.33:_ZN7Iex_3_413EdestroyedExcD0Ev
libIex-3_4.so.33:_ZN7Iex_3_413EdestroyedExcD1Ev
libIex-3_4.so.33:_ZN7Iex_3_413EdestroyedExcD2Ev
libIex-3_4.so.33:_ZN7Iex_3_413EdestroyedExcaSEOS0_
libIex-3_4.so.33:_ZN7Iex_3_413EdestroyedExcaSERS0_
libIex-3_4.so.33:_ZN7Iex_3_413EgrouploopExcC1EONSt7__cxx1112basic_stringIcSt11char_traitsIcESaIcEEE
libIex-3_4.so.33:_ZN7Iex_3_413EgrouploopExcC1EOS0_
libIex-3_4.so.33:_ZN7Iex_3_413EgrouploopExcC1EPKc
libIex-3_4.so.33:_ZN7Iex_3_413EgrouploopExcC1ERKNSt7__cxx1112basic_stringIcSt11char_traitsIcESaIcEEE
libIex-3_4.so.33:_ZN7Iex_3_413EgrouploopExcC1ERKS0_
libIex-3_4.so.33:_ZN7Iex_3_413EgrouploopExcC1ERNSt7__cxx1118basic_stringstreamIcSt11char_traitsIcESaIcEEE
libIex-3_4.so.33:_ZN7Iex_3_413EgrouploopExcC1Ev
libIex-3_4.so.33:_ZN7Iex_3_413EgrouploopExcC2EONSt7__cxx1112basic_stringIcSt11char_traitsIcESaIcEEE
libIex-3_4.so.33:_ZN7Iex_3_413EgrouploopExcC2EOS0_
libIex-3_4.so.33:_ZN7Iex_3_413EgrouploopExcC2EPKc
libIex-3_4.so.33:_ZN7Iex_3_413EgrouploopExcC2ERKNSt7__cxx1112basic_stringIcSt11char_traitsIcESaIcEEE
libIex-3_4.so.33:_ZN7Iex_3_413EgrouploopExcC2ERKS0_
libIex-3_4.so.33:_ZN7Iex_3_413EgrouploopExcC2ERNSt7__cxx1118basic_stringstreamIcSt11char_traitsIcESaIcEEE
libIex-3_4.so.33:_ZN7Iex_3_413EgrouploopExcC2Ev
libIex-3_4.so.33:_ZN7Iex_3_413EgrouploopExcD0Ev
libIex-3_4.so.33:_ZN7Iex_3_413EgrouploopExcD1Ev
libIex-3_4.so.33:_ZN7Iex_3_413EgrouploopExcD2Ev
libIex-3_4.so.33:_ZN7Iex_3_413EgrouploopExcaSEOS0_
libIex-3_4.so.33:_ZN7Iex_3_413EgrouploopExcaSERS0_
libIex-3_4.so.33:_ZN7Iex_3_413EinvalmodeExcC1EONSt7__cxx1112basic_stringIcSt11char_traitsIcESaIcEEE
libIex-3_4.so.33:_ZN7Iex_3_413EinvalmodeExcC1EOS0_
libIex-3_4.so.33:_ZN7Iex_3_413EinvalmodeExcC1EPKc
libIex-3_4.so.33:_ZN7Iex_3_413EinvalmodeExcC1ERKNSt7__cxx1112basic_stringIcSt11char_traitsIcESaIcEEE
libIex-3_4.so.33:_ZN7Iex_3_413EinvalmodeExcC1ERKS0_
libIex-3_4.so.33:_ZN7Iex_3_413EinvalmodeExcC1ERNSt7__cxx1118basic_stringstreamIcSt11char_traitsIcESaIcEEE
libIex-3_4.so.33:_ZN7Iex_3_413EinvalmodeExcC1Ev
libIex-3_4.so.33:_ZN7Iex_3_413EinvalmodeExcC2EONSt7__cxx1112basic_stringIcSt11char_traitsIcESaIcEEE
libIex-3_4.so.33:_ZN7Iex_3_413EinvalmodeExcC2EOS0_
libIex-3_4.so.33:_ZN7Iex_3_413EinvalmodeExcC2EPKc
libIex-3_4.so.33:_ZN7Iex_3_413EinvalmodeExcC2ERKNSt7__cxx1112basic_stringIcSt11char_traitsIcESaIcEEE
libIex-3_4.so.33:_ZN7Iex_3_413EinvalmodeExcC2ERKS0_
libIex-3_4.so.33:_ZN7Iex_3_413EinvalmodeExcC2ERNSt7__cxx1118basic_stringstreamIcSt11char_traitsIcESaIcEEE
libIex-3_4.so.33:_ZN7Iex_3_413EinvalmodeExcC2Ev
libIex-3_4.so.33:_ZN7Iex_3_413EinvalmodeExcD0Ev
libIex-3_4.so.33:_ZN7Iex_3_413EinvalmodeExcD1Ev
libIex-3_4.so.33:_ZN7Iex_3_413EinvalmodeExcD2Ev
libIex-3_4.so.33:_ZN7Iex_3_413EinvalmodeExcaSEOS0_
libIex-3_4.so.33:_ZN7Iex_3_413EinvalmodeExcaSERS0_
libIex-3_4.so.33:_ZN7Iex_3_413EinvaltimeExcC1EONSt7__cxx1112basic_stringIcSt11char_traitsIcESaIcEEE
libIex-3_4.so.33:_ZN7Iex_3_413EinvaltimeExcC1EOS0_
libIex-3_4.so.33:_ZN7Iex_3_413EinvaltimeExcC1EPKc
libIex-3_4.so.33:_ZN7Iex_3_413EinvaltimeExcC1ERKNSt7__cxx1112basic_stringIcSt11char_traitsIcESaIcEEE
libIex-3_4.so.33:_ZN7Iex_3_413EinvaltimeExcC1ERKS0_
libIex-3_4.so.33:_ZN7Iex_3_413EinvaltimeExcC1ERNSt7__cxx1118basic_stringstreamIcSt11char_traitsIcESaIcEEE
libIex-3_4.so.33:_ZN7Iex_3_413EinvaltimeExcC1Ev
libIex-3_4.so.33:_ZN7Iex_3_413EinvaltimeExcC2EONSt7__cxx1112basic_stringIcSt11char_traitsIcESaIcEEE
libIex-3_4.so.33:_ZN7Iex_3_413EinvaltimeExcC2EOS0_
libIex-3_4.so.33:_ZN7Iex_3_413EinvaltimeExcC2EPKc
libIex-3_4.so.33:_ZN7Iex_3_413EinvaltimeExcC2ERKNSt7__cxx1112basic_stringIcSt11char_traitsIcESaIcEEE
libIex-3_4.so.33:_ZN7Iex_3_413EinvaltimeExcC2ERKS0_
libIex-3_4.so.33:_ZN7Iex_3_413EinvaltimeExcC2ERNSt7__cxx1118basic_stringstreamIcSt11char_traitsIcESaIcEEE
libIex-3_4.so.33:_ZN7Iex_3_413EinvaltimeExcC2Ev
libIex-3_4.so.33:_ZN7Iex_3_413EinvaltimeExcD0Ev
libIex-3_4.so.33:_ZN7Iex_3_413EinvaltimeExcD1Ev
libIex-3_4.so.33:_ZN7Iex_3_413EinvaltimeExcD2Ev
libIex-3_4.so.33:_ZN7Iex_3_413EinvaltimeExcaSEOS0_
libIex-3_4.so.33:_ZN7Iex_3_413EinvaltimeExcaSERS0_
libIex-3_4.so.33:_ZN7Iex_3_413EnfsremoteExcC1EONSt7__cxx1112basic_stringIcSt11char_traitsIcESaIcEEE
libIex-3_4.so.33:_ZN7Iex_3_413EnfsremoteExcC1EOS0_
libIex-3_4.so.33:_ZN7Iex_3_413EnfsremoteExcC1EPKc
libIex-3_4.so.33:_ZN7Iex_3_413EnfsremoteExcC1ERKNSt7__cxx1112basic_stringIcSt11char_traitsIcESaIcEEE
libIex-3_4.so.33:_ZN7Iex_3_413EnfsremoteExcC1ERKS0_
libIex-3_4.so.33:_ZN7Iex_3_413EnfsremoteExcC1ERNSt7__cxx1118basic_stringstreamIcSt11char_traitsIcESaIcEEE
libIex-3_4.so.33:_ZN7Iex_3_413EnfsremoteExcC1Ev
libIex-3_4.so.33:_ZN7Iex_3_413EnfsremoteExcC2EONSt7__cxx1112basic_stringIcSt11char_traitsIcESaIcEEE
libIex-3_4.so.33:_ZN7Iex_3_413EnfsremoteExcC2EOS0_
libIex-3_4.so.33:_ZN7Iex_3_413EnfsremoteExcC2EPKc
libIex-3_4.so.33:_ZN7Iex_3_413EnfsremoteExcC2ERKNSt7__cxx1112basic_stringIcSt11char_traitsIcESaIcEEE
libIex-3_4.so.33:_ZN7Iex_3_413EnfsremoteExcC2ERKS0_
libIex-3_4.so.33:_ZN7Iex_3_413EnfsremoteExcC2ERNSt7__cxx1118basic_stringstreamIcSt11char_traitsIcESaIcEEE
libIex-3_4.so.33:_ZN7Iex_3_413EnfsremoteExcC2Ev
libIex-3_4.so.33:_ZN7Iex_3_413EnfsremoteExcD0Ev
libIex-3_4.so.33:_ZN7Iex_3_413EnfsremoteExcD1Ev
libIex-3_4.so.33:_ZN7Iex_3_413EnfsremoteExcD2Ev
libIex-3_4.so.33:_ZN7Iex_3_413EnfsremoteExcaSEOS0_
libIex-3_4.so.33:_ZN7Iex_3_413EnfsremoteExcaSERS0_
libIex-3_4.so.33:_ZN7Iex_3_413EnolimfileExcC1EONSt7__cxx1112basic_stringIcSt11char_traitsIcESaIcEEE
libIex-3_4.so.33:_ZN7Iex_3_413EnolimfileExcC1EOS0_
libIex-3_4.so.33:_ZN7Iex_3_413EnolimfileExcC1EPKc
libIex-3_4.so.33:_ZN7Iex_3_413EnolimfileExcC1ERKNSt7__cxx1112basic_stringIcSt11char_traitsIcESaIcEEE
libIex-3_4.so.33:_ZN7Iex_3_413EnolimfileExcC1ERKS0_
libIex-3_4.so.33:_ZN7Iex_3_413EnolimfileExcC1ERNSt7__cxx1118basic_stringstreamIcSt11char_traitsIcESaIcEEE
libIex-3_4.so.33:_ZN7Iex_3_413EnolimfileExcC1Ev
libIex-3_4.so.33:_ZN7Iex_3_413EnolimfileExcC2EONSt7__cxx1112basic_stringIcSt11char_traitsIcESaIcEEE
libIex-3_4.so.33:_ZN7Iex_3_413EnolimfileExcC2EOS0_
libIex-3_4.so.33:_ZN7Iex_3_413EnolimfileExcC2EPKc
libIex-3_4.so.33:_ZN7Iex_3_413EnolimfileExcC2ERKNSt7__cxx1112basic_stringIcSt11char_traitsIcESaIcEEE
libIex-3_4.so.33:_ZN7Iex_3_413EnolimfileExcC2ERKS0_
libIex-3_4.so.33:_ZN7Iex_3_413EnolimfileExcC2ERNSt7__cxx1118basic_stringstreamIcSt11char_traitsIcESaIcEEE
libIex-3_4.so.33:_ZN7Iex_3_413EnolimfileExcC2Ev
libIex-3_4.so.33:_ZN7Iex_3_413EnolimfileExcD0Ev
libIex-3_4.so.33:_ZN7Iex_3_413EnolimfileExcD1Ev
libIex-3_4.so.33:_ZN7Iex_3_413EnolimfileExcD2Ev
libIex-3_4.so.33:_ZN7Iex_3_413EnolimfileExcaSEOS0_
libIex-3_4.so.33:_ZN7Iex_3_413EnolimfileExcaSERS0_
libIex-3_4.so.33:_ZN7Iex_3_413EnotjoinedExcC1EONSt7__cxx1112basic_stringIcSt11char_traitsIcESaIcEEE
libIex-3_4.so.33:_ZN7Iex_3_413EnotjoinedExcC1EOS0_
libIex-3_4.so.33:_ZN7Iex_3_413EnotjoinedExcC1EPKc
libIex-3_4.so.33:_ZN7Iex_3_413EnotjoinedExcC1ERKNSt7__cxx1112basic_stringIcSt11char_traitsIcESaIcEEE
libIex-3_4.so.33:_ZN7Iex_3_413EnotjoinedExcC1ERKS0_
libIex-3_4.so.33:_ZN7Iex_3_413EnotjoinedExcC1ERNSt7__cxx1118basic_stringstreamIcSt11char_traitsIcESaIcEEE
libIex-3_4.so.33:_ZN7Iex_3_413EnotjoinedExcC1Ev
libIex-3_4.so.33:_ZN7Iex_3_413EnotjoinedExcC2EONSt7__cxx1112basic_stringIcSt11char_traitsIcESaIcEEE
libIex-3_4.so.33:_ZN7Iex_3_413EnotjoinedExcC2EOS0_
libIex-3_4.so.33:_ZN7Iex_3_413EnotjoinedExcC2EPKc
libIex-3_4.so.33:_ZN7Iex_3_413EnotjoinedExcC2ERKNSt7__cxx1112basic_stringIcSt11char_traitsIcESaIcEEE
libIex-3_4.so.33:_ZN7Iex_3_413EnotjoinedExcC2ERKS0_
libIex-3_4.so.33:_ZN7Iex_3_413EnotjoinedExcC2ERNSt7__cxx1118basic_stringstreamIcSt11char_traitsIcESaIcEEE
libIex-3_4.so.33:_ZN7Iex_3_413EnotjoinedExcC2Ev
libIex-3_4.so.33:_ZN7Iex_3_413EnotjoinedExcD0Ev
libIex-3_4.so.33:_ZN7Iex_3_413EnotjoinedExcD1Ev
libIex-3_4.so.33:_ZN7Iex_3_413EnotjoinedExcD2Ev
libIex-3_4.so.33:_ZN7Iex_3_413EnotjoinedExcaSEOS0_
libIex-3_4.so.33:_ZN7Iex_3_413EnotjoinedExcaSERS0_
libIex-3_4.so.33:_ZN7Iex_3_413EopnotsuppExcC1EONSt7__cxx1112basic_stringIcSt11char_traitsIcESaIcEEE
libIex-3_4.so.33:_ZN7Iex_3_413EopnotsuppExcC1EOS0_
libIex-3_4.so.33:_ZN7Iex_3_413EopnotsuppExcC1EPKc
libIex-3_4.so.33:_ZN7Iex_3_413EopnotsuppExcC1ERKNSt7__cxx1112basic_stringIcSt11char_traitsIcESaIcEEE
libIex-3_4.so.33:_ZN7Iex_3_413EopnotsuppExcC1ERKS0_
libIex-3_4.so.33:_ZN7Iex_3_413EopnotsuppExcC1ERNSt7__cxx1118basic_stringstreamIcSt11char_traitsIcESaIcEEE
libIex-3_4.so.33:_ZN7Iex_3_413EopnotsuppExcC1Ev
libIex-3_4.so.33:_ZN7Iex_3_413EopnotsuppExcC2EONSt7__cxx1112basic_stringIcSt11char_traitsIcESaIcEEE
libIex-3_4.so.33:_ZN7Iex_3_413EopnotsuppExcC2EOS0_
libIex-3_4.so.33:_ZN7Iex_3_413EopnotsuppExcC2EPKc
libIex-3_4.so.33:_ZN7Iex_3_413EopnotsuppExcC2ERKNSt7__cxx1112basic_stringIcSt11char_traitsIcESaIcEEE
libIex-3_4.so.33:_ZN7Iex_3_413EopnotsuppExcC2ERKS0_
libIex-3_4.so.33:_ZN7Iex_3_413EopnotsuppExcC2ERNSt7__cxx1118basic_stringstreamIcSt11char_traitsIcESaIcEEE
libIex-3_4.so.33:_ZN7Iex_3_413EopnotsuppExcC2Ev
libIex-3_4.so.33:_ZN7Iex_3_413EopnotsuppExcD0Ev
libIex-3_4.so.33:_ZN7Iex_3_413EopnotsuppExcD1Ev
libIex-3_4.so.33:_ZN7Iex_3_413EopnotsuppExcD2Ev
libIex-3_4.so.33:_ZN7Iex_3_413EopnotsuppExcaSEOS0_
libIex-3_4.so.33:_ZN7Iex_3_413EopnotsuppExcaSERS0_
libIex-3_4.so.33:_ZN7Iex_3_413EprototypeExcC1EONSt7__cxx1112basic_stringIcSt11char_traitsIcESaIcEEE
libIex-3_4.so.33:_ZN7Iex_3_413EprototypeExcC1EOS0_
libIex-3_4.so.33:_ZN7Iex_3_413EprototypeExcC1EPKc
libIex-3_4.so.33:_ZN7Iex_3_413EprototypeExcC1ERKNSt7__cxx1112basic_stringIcSt11char_traitsIcESaIcEEE
libIex-3_4.so.33:_ZN7Iex_3_413EprototypeExcC1ERKS0_
libIex-3_4.so.33:_ZN7Iex_3_413EprototypeExcC1ERNSt7__cxx1118basic_stringstreamIcSt11char_traitsIcESaIcEEE
libIex-3_4.so.33:_ZN7Iex_3_413EprototypeExcC1Ev
libIex-3_4.so.33:_ZN7Iex_3_413EprototypeExcC2EONSt7__cxx1112basic_stringIcSt11char_traitsIcESaIcEEE
libIex-3_4.so.33:_ZN7Iex_3_413EprototypeExcC2EOS0_
libIex-3_4.so.33:_ZN7Iex_3_413EprototypeExcC2EPKc
libIex-3_4.so.33:_ZN7Iex_3_413EprototypeExcC2ERKNSt7__cxx1112basic_stringIcSt11char_traitsIcESaIcEEE
libIex-3_4.so.33:_ZN7Iex_3_413EprototypeExcC2ERKS0_
libIex-3_4.so.33:_ZN7Iex_3_413EprototypeExcC2ERNSt7__cxx1118basic_stringstreamIcSt11char_traitsIcESaIcEEE
libIex-3_4.so.33:_ZN7Iex_3_413EprototypeExcC2Ev
libIex-3_4.so.33:_ZN7Iex_3_413EprototypeExcD0Ev
libIex-3_4.so.33:_ZN7Iex_3_413EprototypeExcD1Ev
libIex-3_4.so.33:_ZN7Iex_3_413EprototypeExcD2Ev
libIex-3_4.so.33:_ZN7Iex_3_413EprototypeExcaSEOS0_
libIex-3_4.so.33:_ZN7Iex_3_413EprototypeExcaSERS0_
libIex-3_4.so.33:_ZN7Iex_3_413throwErrnoExcERKNSt7__cxx1112basic_stringIcSt11char_traitsIcESaIcEEE
libIex-3_4.so.33:_ZN7Iex_3_413throwErrnoExcERKNSt7__cxx1112basic_stringIcSt11char_traitsIcESaIcEEEi
libIex-3_4.so.33:_ZN7Iex_3_413throwErrnoExcEv
libIex-3_4.so.33:_ZN7Iex_3_414EcantextentExcC1EONSt7__cxx1112basic_stringIcSt11char_traitsIcESaIcEEE
libIex-3_4.so.33:_ZN7Iex_3_414EcantextentExcC1EOS0_
libIex-3_4.so.33:_ZN7Iex_3_414EcantextentExcC1EPKc
libIex-3_4.so.33:_ZN7Iex_3_414EcantextentExcC1ERKNSt7__cxx1112basic_stringIcSt11char_traitsIcESaIcEEE
libIex-3_4.so.33:_ZN7Iex_3_414EcantextentExcC1ERKS0_
libIex-3_4.so.33:_ZN7Iex_3_414EcantextentExcC1ERNSt7__cxx1118basic_stringstreamIcSt11char_traitsIcESaIcEEE
libIex-3_4.so.33:_ZN7Iex_3_414EcantextentExcC1Ev
libIex-3_4.so.33:_ZN7Iex_3_414EcantextentExcC2EONSt7__cxx1112basic_stringIcSt11char_traitsIcESaIcEEE
libIex-3_4.so.33:_ZN7Iex_3_414EcantextentExcC2EOS0_
libIex-3_4.so.33:_ZN7Iex_3_414EcantextentExcC2EPKc
libIex-3_4.so.33:_ZN7Iex_3_414EcantextentExcC2ERKNSt7__cxx1112basic_stringIcSt11char_traitsIcESaIcEEE
libIex-3_4.so.33:_ZN7Iex_3_414EcantextentExcC2ERKS0_
libIex-3_4.so.33:_ZN7Iex_3_414EcantextentExcC2ERNSt7__cxx1118basic_stringstreamIcSt11char_traitsIcESaIcEEE
libIex-3_4.so.33:_ZN7Iex_3_414EcantextentExcC2Ev
libIex-3_4.so.33:_ZN7Iex_3_414EcantextentExcD0Ev
libIex-3_4.so.33:_ZN7Iex_3_414EcantextentExcD1Ev
libIex-3_4.so.33:_ZN7Iex_3_414EcantextentExcD2Ev
libIex-3_4.so.33:_ZN7Iex_3_414EcantextentExcaSEOS0_
libIex-3_4.so.33:_ZN7Iex_3_414EcantextentExcaSERS0_
libIex-3_4.so.33:_ZN7Iex_3_414EcontrollerExcC1EONSt7__cxx1112basic_stringIcSt11char_traitsIcESaIcEEE
libIex-3_4.so.33:_ZN7Iex_3_414EcontrollerExcC1EOS0_
libIex-3_4.so.33:_ZN7Iex_3_414EcontrollerExcC1EPKc
libIex-3_4.so.33:_ZN7Iex_3_414EcontrollerExcC1ERKNSt7__cxx1112basic_stringIcSt11char_traitsIcESaIcEEE
libIex-3_4.so.33:_ZN7Iex_3_414EcontrollerExcC1ERKS0_
libIex-3_4.so.33:_ZN7Iex_3_414EcontrollerExcC1ERNSt7__cxx1118basic_stringstreamIcSt11char_traitsIcESaIcEEE
libIex-3_4.so.33:_ZN7Iex_3_414EcontrollerExcC1Ev
libIex-3_4.so.33:_ZN7Iex_3_414EcontrollerExcC2EONSt7__cxx1112basic_stringIcSt11char_traitsIcESaIcEEE
libIex-3_4.so.33:_ZN7Iex_3_414EcontrollerExcC2EOS0_
libIex-3_4.so.33:_ZN7Iex_3_414EcontrollerExcC2EPKc
libIex-3_4.so.33:_ZN7Iex_3_414EcontrollerExcC2ERKNSt7__cxx1112basic_stringIcSt11char_traitsIcESaIcEEE
libIex-3_4.so.33:_ZN7Iex_3_414EcontrollerExcC2ERKS0_
libIex-3_4.so.33:_ZN7Iex_3_414EcontrollerExcC2ERNSt7__cxx1118basic_stringstreamIcSt11char_traitsIcESaIcEEE
libIex-3_4.so.33:_ZN7Iex_3_414EcontrollerExcC2Ev
libIex-3_4.so.33:_ZN7Iex_3_414EcontrollerExcD0Ev
libIex-3_4.so.33:_ZN7Iex_3_414EcontrollerExcD1Ev
libIex-3_4.so.33:_ZN7Iex_3_414EcontrollerExcD2Ev
libIex-3_4.so.33:_ZN7Iex_3_414EcontrollerExcaSEOS0_
libIex-3_4.so.33:_ZN7Iex_3_414EcontrollerExcaSERS0_
libIex-3_4.so.33:_ZN7Iex_3_414EendofminorExcC1EONSt7__cxx1112basic_stringIcSt11char_traitsIcESaIcEEE
libIex-3_4.so.33:_ZN7Iex_3_414EendofminorExcC1EOS0_
libIex-3_4.so.33:_ZN7Iex_3_414EendofminorExcC1EPKc
libIex-3_4.so.33:_ZN7Iex_3_414EendofminorExcC1ERKNSt7__cxx1112basic_stringIcSt11char_traitsIcESaIcEEE
libIex-3_4.so.33:_ZN7Iex_3_414EendofminorExcC1ERKS0_
libIex-3_4.so.33:_ZN7Iex_3_414EendofminorExcC1ERNSt7__cxx1118basic_stringstreamIcSt11char_traitsIcESaIcEEE
libIex-3_4.so.33:_ZN7Iex_3_414EendofminorExcC1Ev
libIex-3_4.so.33:_ZN7Iex_3_414EendofminorExcC2EONSt7__cxx1112basic_stringIcSt11char_traitsIcESaIcEEE
libIex-3_4.so.33:_ZN7Iex_3_414EendofminorExcC2EOS0_
libIex-3_4.so.33:_ZN7Iex_3_414EendofminorExcC2EPKc
libIex-3_4.so.33:_ZN7Iex_3_414EendofminorExcC2ERKNSt7__cxx1112basic_stringIcSt11char_traitsIcESaIcEEE
libIex-3_4.so.33:_ZN7Iex_3_414EendofminorExcC2ERKS0_
libIex-3_4.so.33:_ZN7Iex_3_414EendofminorExcC2ERNSt7__cxx1118basic_stringstreamIcSt11char_traitsIcESaIcEEE
libIex-3_4.so.33:_ZN7Iex_3_414EendofminorExcC2Ev
libIex-3_4.so.33:_ZN7Iex_3_414EendofminorExcD0Ev
libIex-3_4.so.33:_ZN7Iex_3_414EendofminorExcD1Ev
libIex-3_4.so.33:_ZN7Iex_3_414EendofminorExcD2Ev
libIex-3_4.so.33:_ZN7Iex_3_414EendofminorExcaSEOS0_
libIex-3_4.so.33:_ZN7Iex_3_414EendofminorExcaSERS0_
libIex-3_4.so.33:_ZN7Iex_3_414EinprogressExcC1EONSt7__cxx1112basic_stringIcSt11char_traitsIcESaIcEEE
libIex-3_4.so.33:_ZN7Iex_3_414EinprogressExcC1EOS0_
libIex-3_4.so.33:_ZN7Iex_3_414EinprogressExcC1EPKc
libIex-3_4.so.33:_ZN7Iex_3_414EinprogressExcC1ERKNSt7__cxx1112basic_stringIcSt11char_traitsIcESaIcEEE
libIex-3_4.so.33:_ZN7Iex_3_414EinprogressExcC1ERKS0_
libIex-3_4.so.33:_ZN7Iex_3_414EinprogressExcC1ERNSt7__cxx1118basic_stringstreamIcSt11char_traitsIcESaIcEEE
libIex-3_4.so.33:_ZN7Iex_3_414EinprogressExcC1Ev
libIex-3_4.so.33:_ZN7Iex_3_414EinprogressExcC2EONSt7__cxx1112basic_stringIcSt11char_traitsIcESaIcEEE
libIex-3_4.so.33:_ZN7Iex_3_414EinprogressExcC2EOS0_
libIex-3_4.so.33:_ZN7Iex_3_414EinprogressExcC2EPKc
libIex-3_4.so.33:_ZN7Iex_3_414EinprogressExcC2ERKNSt7__cxx1112basic_stringIcSt11char_traitsIcESaIcEEE
libIex-3_4.so.33:_ZN7Iex_3_414EinprogressExcC2ERKS0_
libIex-3_4.so.33:_ZN7Iex_3_414EinprogressExcC2ERNSt7__cxx1118basic_stringstreamIcSt11char_traitsIcESaIcEEE
libIex-3_4.so.33:_ZN7Iex_3_414EinprogressExcC2Ev
libIex-3_4.so.33:_ZN7Iex_3_414EinprogressExcD0Ev
libIex-3_4.so.33:_ZN7Iex_3_414EinprogressExcD1Ev
libIex-3_4.so.33:_ZN7Iex_3_414EinprogressExcD2Ev
libIex-3_4.so.33:_ZN7Iex_3_414EinprogressExcaSEOS0_
libIex-3_4.so.33:_ZN7Iex_3_414EinprogressExcaSERS0_
libIex-3_4.so.33:_ZN7Iex_3_414EinvalstateExcC1EONSt7__cxx1112basic_stringIcSt11char_traitsIcESaIcEEE
libIex-3_4.so.33:_ZN7Iex_3_414EinvalstateExcC1EOS0_
libIex-3_4.so.33:_ZN7Iex_3_414EinvalstateExcC1EPKc
libIex-3_4.so.33:_ZN7Iex_3_414EinvalstateExcC1ERKNSt7__cxx1112basic_stringIcSt11char_traitsIcESaIcEEE
libIex-3_4.so.33:_ZN7Iex_3_414EinvalstateExcC1ERKS0_
libIex-3_4.so.33:_ZN7Iex_3_414EinvalstateExcC1ERNSt7__cxx1118basic_stringstreamIcSt11char_traitsIcESaIcEEE
libIex-3_4.so.33:_ZN7Iex_3_414EinvalstateExcC1Ev
libIex-3_4.so.33:_ZN7Iex_3_414EinvalstateExcC2EONSt7__cxx1112basic_stringIcSt11char_traitsIcESaIcEEE
libIex-3_4.so.33:_ZN7Iex_3_414EinvalstateExcC2EOS0_
libIex-3_4.so.33:_ZN7Iex_3_414EinvalstateExcC2EPKc
libIex-3_4.so.33:_ZN7Iex_3_414EinvalstateExcC2ERKNSt7__cxx1112basic_stringIcSt11char_traitsIcESaIcEEE
libIex-3_4.so.33:_ZN7Iex_3_414EinvalstateExcC2ERKS0_
libIex-3_4.so.33:_ZN7Iex_3_414EinvalstateExcC2ERNSt7__cxx1118basic_stringstreamIcSt11char_traitsIcESaIcEEE
libIex-3_4.so.33:_ZN7Iex_3_414EinvalstateExcC2Ev
libIex-3_4.so.33:_ZN7Iex_3_414EinvalstateExcD0Ev
libIex-3_4.so.33:_ZN7Iex_3_414EinvalstateExcD1Ev
libIex-3_4.so.33:_ZN7Iex_3_414EinvalstateExcD2Ev
libIex-3_4.so.33:_ZN7Iex_3_414EinvalstateExcaSEOS0_
libIex-3_4.so.33:_ZN7Iex_3_414EinvalstateExcaSERS0_
libIex-3_4.so.33:_ZN7Iex_3_414EnetunreachExcC1EONSt7__cxx1112basic_stringIcSt11char_traitsIcESaIcEEE
libIex-3_4.so.33:_ZN7Iex_3_414EnetunreachExcC1EOS0_
libIex-3_4.so.33:_ZN7Iex_3_414EnetunreachExcC1EPKc
libIex-3_4.so.33:_ZN7Iex_3_414EnetunreachExcC1ERKNSt7__cxx1112basic_stringIcSt11char_traitsIcESaIcEEE
libIex-3_4.so.33:_ZN7Iex_3_414EnetunreachExcC1ERKS0_
libIex-3_4.so.33:_ZN7Iex_3_414EnetunreachExcC1ERNSt7__cxx1118basic_stringstreamIcSt11char_traitsIcESaIcEEE
libIex-3_4.so.33:_ZN7Iex_3_414EnetunreachExcC1Ev
libIex-3_4.so.33:_ZN7Iex_3_414EnetunreachExcC2EONSt7__cxx1112basic_stringIcSt11char_traitsIcESaIcEEE
libIex-3_4.so.33:_ZN7Iex_3_414EnetunreachExcC2EOS0_
libIex-3_4.so.33:_ZN7Iex_3_414EnetunreachExcC2EPKc
libIex-3_4.so.33:_ZN7Iex_3_414EnetunreachExcC2ERKNSt7__cxx1112basic_stringIcSt11char_traitsIcESaIcEEE
libIex-3_4.so.33:_ZN7Iex_3_414EnetunreachExcC2ERKS0_
libIex-3_4.so.33:_ZN7Iex_3_414EnetunreachExcC2ERNSt7__cxx1118basic_stringstreamIcSt11char_traitsIcESaIcEEE
libIex-3_4.so.33:_ZN7Iex_3_414EnetunreachExcC2Ev
libIex-3_4.so.33:_ZN7Iex_3_414EnetunreachExcD0Ev
libIex-3_4.so.33:_ZN7Iex_3_414EnetunreachExcD1Ev
libIex-3_4.so.33:_ZN7Iex_3_414EnetunreachExcD2Ev
libIex-3_4.so.33:_ZN7Iex_3_414EnetunreachExcaSEOS0_
libIex-3_4.so.33:_ZN7Iex_3_414EnetunreachExcaSERS0_
libIex-3_4.so.33:_ZN7Iex_3_414EnoprotooptExcC1EONSt7__cxx1112basic_stringIcSt11char_traitsIcESaIcEEE
libIex-3_4.so.33:_ZN7Iex_3_414EnoprotooptExcC1EOS0_
libIex-3_4.so.33:_ZN7Iex_3_414EnoprotooptExcC1EPKc
libIex-3_4.so.33:_ZN7Iex_3_414EnoprotooptExcC1ERKNSt7__cxx1112basic_stringIcSt11char_traitsIcESaIcEEE
libIex-3_4.so.33:_ZN7Iex_3_414EnoprotooptExcC1ERKS0_
libIex-3_4.so.33:_ZN7Iex_3_414EnoprotooptExcC1ERNSt7__cxx1118basic_stringstreamIcSt11char_traitsIcESaIcEEE
libIex-3_4.so.33:_ZN7Iex_3_414EnoprotooptExcC1Ev
libIex-3_4.so.33:_ZN7Iex_3_414EnoprotooptExcC2EONSt7__cxx1112basic_stringIcSt11char_traitsIcESaIcEEE
libIex-3_4.so.33:_ZN7Iex_3_414EnoprotooptExcC2EOS0_
libIex-3_4.so.33:_ZN7Iex_3_414EnoprotooptExcC2EPKc
libIex-3_4.so.33:_ZN7Iex_3_414EnoprotooptExcC2ERKNSt7__cxx1112basic_stringIcSt11char_traitsIcESaIcEEE
libIex-3_4.so.33:_ZN7Iex_3_414EnoprotooptExcC2ERKS0_
libIex-3_4.so.33:_ZN7Iex_3_414EnoprotooptExcC2ERNSt7__cxx1118basic_stringstreamIcSt11char_traitsIcESaIcEEE
libIex-3_4.so.33:_ZN7Iex_3_414EnoprotooptExcC2Ev
libIex-3_4.so.33:_ZN7Iex_3_414EnoprotooptExcD0Ev
libIex-3_4.so.33:_ZN7Iex_3_414EnoprotooptExcD1Ev
libIex-3_4.so.33:_ZN7Iex_3_414EnoprotooptExcD2Ev
libIex-3_4.so.33:_ZN7Iex_3_414EnoprotooptExcaSEOS0_
libIex-3_4.so.33:_ZN7Iex_3_414EnoprotooptExcaSERS0_
libIex-3_4.so.33:_ZN7Iex_3_414EnotstoppedExcC1EONSt7__cxx1112basic_stringIcSt11char_traitsIcESaIcEEE
libIex-3_4.so.33:_ZN7Iex_3_414EnotstoppedExcC1EOS0_
libIex-3_4.so.33:_ZN7Iex_3_414EnotstoppedExcC1EPKc
libIex-3_4.so.33:_ZN7Iex_3_414EnotstoppedExcC1ERKNSt7__cxx1112basic_stringIcSt11char_traitsIcESaIcEEE
libIex-3_4.so.33:_ZN7Iex_3_414EnotstoppedExcC1ERKS0_
libIex-3_4.so.33:_ZN7Iex_3_414EnotstoppedExcC1ERNSt7__cxx1118basic_stringstreamIcSt11char_traitsIcESaIcEEE
libIex-3_4.so.33:_ZN7Iex_3_414EnotstoppedExcC1Ev
libIex-3_4.so.33:_ZN7Iex_3_414EnotstoppedExcC2EONSt7__cxx1112basic_stringIcSt11char_traitsIcESaIcEEE
libIex-3_4.so.33:_ZN7Iex_3_414EnotstoppedExcC2EOS0_
libIex-3_4.so.33:_ZN7Iex_3_414EnotstoppedExcC2EPKc
libIex-3_4.so.33:_ZN7Iex_3_414EnotstoppedExcC2ERKNSt7__cxx1112basic_stringIcSt11char_traitsIcESaIcEEE
libIex-3_4.so.33:_ZN7Iex_3_414EnotstoppedExcC2ERKS0_
libIex-3_4.so.33:_ZN7Iex_3_414EnotstoppedExcC2ERNSt7__cxx1118basic_stringstreamIcSt11char_traitsIcESaIcEEE
libIex-3_4.so.33:_ZN7Iex_3_414EnotstoppedExcC2Ev
libIex-3_4.so.33:_ZN7Iex_3_414EnotstoppedExcD0Ev
libIex-3_4.so.33:_ZN7Iex_3_414EnotstoppedExcD1Ev
libIex-3_4.so.33:_ZN7Iex_3_414EnotstoppedExcD2Ev
libIex-3_4.so.33:_ZN7Iex_3_414EnotstoppedExcaSEOS0_
libIex-3_4.so.33:_ZN7Iex_3_414EnotstoppedExcaSERS0_
libIex-3_4.so.33:_ZN7Iex_3_414InvalidFpOpExcC1EONSt7__cxx1112basic_stringIcSt11char_traitsIcESaIcEEE
libIex-3_4.so.33:_ZN7Iex_3_414InvalidFpOpExcC1EOS0_
libIex-3_4.so.33:_ZN7Iex_3_414InvalidFpOpExcC1EPKc
libIex-3_4.so.33:_ZN7Iex_3_414InvalidFpOpExcC1ERKNSt7__cxx1112basic_stringIcSt11char_traitsIcESaIcEEE
libIex-3_4.so.33:_ZN7Iex_3_414InvalidFpOpExcC1ERKS0_
libIex-3_4.so.33:_ZN7Iex_3_414InvalidFpOpExcC1ERNSt7__cxx1118basic_stringstreamIcSt11char_traitsIcESaIcEEE
libIex-3_4.so.33:_ZN7Iex_3_414InvalidFpOpExcC1Ev
libIex-3_4.so.33:_ZN7Iex_3_414InvalidFpOpExcC2EONSt7__cxx1112basic_stringIcSt11char_traitsIcESaIcEEE
libIex-3_4.so.33:_ZN7Iex_3_414InvalidFpOpExcC2EOS0_
libIex-3_4.so.33:_ZN7Iex_3_414InvalidFpOpExcC2EPKc
libIex-3_4.so.33:_ZN7Iex_3_414InvalidFpOpExcC2ERKNSt7__cxx1112basic_stringIcSt11char_traitsIcESaIcEEE
libIex-3_4.so.33:_ZN7Iex_3_414InvalidFpOpExcC2ERKS0_
libIex-3_4.so.33:_ZN7Iex_3_414InvalidFpOpExcC2ERNSt7__cxx1118basic_stringstreamIcSt11char_traitsIcESaIcEEE
libIex-3_4.so.33:_ZN7Iex_3_414InvalidFpOpExcC2Ev
libIex-3_4.so.33:_ZN7Iex_3_414InvalidFpOpExcD0Ev
libIex-3_4.so.33:_ZN7Iex_3_414InvalidFpOpExcD1Ev
libIex-3_4.so.33:_ZN7Iex_3_414InvalidFpOpExcD2Ev
libIex-3_4.so.33:_ZN7Iex_3_414InvalidFpOpExcaSEOS0_
libIex-3_4.so.33:_ZN7Iex_3_414InvalidFpOpExcaSERS0_
libIex-3_4.so.33:_ZN7Iex_3_414setStackTracerEPFNSt7__cxx1112basic_stringIcSt11char_traitsIcESaIcEEEvE
libIex-3_4.so.33:_ZN7Iex_3_415EafnosupportExcC1EONSt7__cxx1112basic_stringIcSt11char_traitsIcESaIcEEE
libIex-3_4.so.33:_ZN7Iex_3_415EafnosupportExcC1EOS0_
libIex-3_4.so.33:_ZN7Iex_3_415EafnosupportExcC1EPKc
libIex-3_4.so.33:_ZN7Iex_3_415EafnosupportExcC1ERKNSt7__cxx1112basic_stringIcSt11char_traitsIcESaIcEEE
libIex-3_4.so.33:_ZN7Iex_3_415EafnosupportExcC1ERKS0_
libIex-3_4.so.33:_ZN7Iex_3_415EafnosupportExcC1ERNSt7__cxx1118basic_stringstreamIcSt11char_traitsIcESaIcEEE
libIex-3_4.so.33:_ZN7Iex_3_415EafnosupportExcC1Ev
libIex-3_4.so.33:_ZN7Iex_3_415EafnosupportExcC2EONSt7__cxx1112basic_stringIcSt11char_traitsIcESaIcEEE
libIex-3_4.so.33:_ZN7Iex_3_415EafnosupportExcC2EOS0_
libIex-3_4.so.33:_ZN7Iex_3_415EafnosupportExcC2EPKc
libIex-3_4.so.33:_ZN7Iex_3_415EafnosupportExcC2ERKNSt7__cxx1112basic_stringIcSt11char_traitsIcESaIcEEE
libIex-3_4.so.33:_ZN7Iex_3_415EafnosupportExcC2ERKS0_
libIex-3_4.so.33:_ZN7Iex_3_415EafnosupportExcC2ERNSt7__cxx1118basic_stringstreamIcSt11char_traitsIcESaIcEEE
libIex-3_4.so.33:_ZN7Iex_3_415EafnosupportExcC2Ev
libIex-3_4.so.33:_ZN7Iex_3_415EafnosupportExcD0Ev
libIex-3_4.so.33:_ZN7Iex_3_415EafnosupportExcD1Ev
libIex-3_4.so.33:_ZN7Iex_3_415EafnosupportExcD2Ev
libIex-3_4.so.33:_ZN7Iex_3_415EafnosupportExcaSEOS0_
libIex-3_4.so.33:_ZN7Iex_3_415EafnosupportExcaSERS0_
libIex-3_4.so.33:_ZN7Iex_3_415EconnabortedExcC1EONSt7__cxx1112basic_stringIcSt11char_traitsIcESaIcEEE
libIex-3_4.so.33:_ZN7Iex_3_415EconnabortedExcC1EOS0_
libIex-3_4.so.33:_ZN7Iex_3_415EconnabortedExcC1EPKc
libIex-3_4.so.33:_ZN7Iex_3_415EconnabortedExcC1ERKNSt7__cxx1112basic_stringIcSt11char_traitsIcESaIcEEE
libIex-3_4.so.33:_ZN7Iex_3_415EconnabortedExcC1ERKS0_
libIex-3_4.so.33:_ZN7Iex_3_415EconnabortedExcC1ERNSt7__cxx1118basic_stringstreamIcSt11char_traitsIcESaIcEEE
libIex-3_4.so.33:_ZN7Iex_3_415EconnabortedExcC1Ev
libIex-3_4.so.33:_ZN7Iex_3_415EconnabortedExcC2EONSt7__cxx1112basic_stringIcSt11char_traitsIcESaIcEEE
libIex-3_4.so.33:_ZN7Iex_3_415EconnabortedExcC2EOS0_
libIex-3_4.so.33:_ZN7Iex_3_415EconnabortedExcC2EPKc
libIex-3_4.so.33:_ZN7Iex_3_415EconnabortedExcC2ERKNSt7__cxx1112basic_stringIcSt11char_traitsIcESaIcEEE
libIex-3_4.so.33:_ZN7Iex_3_415EconnabortedExcC2ERKS0_
libIex-3_4.so.33:_ZN7Iex_3_415EconnabortedExcC2ERNSt7__cxx1118basic_stringstreamIcSt11char_traitsIcESaIcEEE
libIex-3_4.so.33:_ZN7Iex_3_415EconnabortedExcC2Ev
libIex-3_4.so.33:_ZN7Iex_3_415EconnabortedExcD0Ev
libIex-3_4.so.33:_ZN7Iex_3_415EconnabortedExcD1Ev
libIex-3_4.so.33:_ZN7Iex_3_415EconnabortedExcD2Ev
libIex-3_4.so.33:_ZN7Iex_3_415EconnabortedExcaSEOS0_
libIex-3_4.so.33:_ZN7Iex_3_415EconnabortedExcaSERS0_
libIex-3_4.so.33:_ZN7Iex_3_415EconnrefusedExcC1EONSt7__cxx1112basic_stringIcSt11char_traitsIcESaIcEEE
libIex-3_4.so.33:_ZN7Iex_3_415EconnrefusedExcC1EOS0_
libIex-3_4.so.33:_ZN7Iex_3_415EconnrefusedExcC1EPKc
libIex-3_4.so.33:_ZN7Iex_3_415EconnrefusedExcC1ERKNSt7__cxx1112basic_stringIcSt11char_traitsIcESaIcEEE
libIex-3_4.so.33:_ZN7Iex_3_415EconnrefusedExcC1ERKS0_
libIex-3_4.so.33:_ZN7Iex_3_415EconnrefusedExcC1ERNSt7__cxx1118basic_stringstreamIcSt11char_traitsIcESaIcEEE
libIex-3_4.so.33:_ZN7Iex_3_415EconnrefusedExcC1Ev
libIex-3_4.so.33:_ZN7Iex_3_415EconnrefusedExcC2EONSt7__cxx1112basic_stringIcSt11char_traitsIcESaIcEEE
libIex-3_4.so.33:_ZN7Iex_3_415EconnrefusedExcC2EOS0_
libIex-3_4.so.33:_ZN7Iex_3_415EconnrefusedExcC2EPKc
libIex-3_4.so.33:_ZN7Iex_3_415EconnrefusedExcC2ERKNSt7__cxx1112basic_stringIcSt11char_traitsIcESaIcEEE
libIex-3_4.so.33:_ZN7Iex_3_415EconnrefusedExcC2ERKS0_
libIex-3_4.so.33:_ZN7Iex_3_415EconnrefusedExcC2ERNSt7__cxx1118basic_stringstreamIcSt11char_traitsIcESaIcEEE
libIex-3_4.so.33:_ZN7Iex_3_415EconnrefusedExcC2Ev
libIex-3_4.so.33:_ZN7Iex_3_415EconnrefusedExcD0Ev
libIex-3_4.so.33:_ZN7Iex_3_415EconnrefusedExcD1Ev
libIex-3_4.so.33:_ZN7Iex_3_415EconnrefusedExcD2Ev
libIex-3_4.so.33:_ZN7Iex_3_415EconnrefusedExcaSEOS0_
libIex-3_4.so.33:_ZN7Iex_3_415EconnrefusedExcaSERS0_
libIex-3_4.so.33:_ZN7Iex_3_415EdestaddrreqExcC1EONSt7__cxx1112basic_stringIcSt11char_traitsIcESaIcEEE
libIex-3_4.so.33:_ZN7Iex_3_415EdestaddrreqExcC1EOS0_
libIex-3_4.so.33:_ZN7Iex_3_415EdestaddrreqExcC1EPKc
libIex-3_4.so.33:_ZN7Iex_3_415EdestaddrreqExcC1ERKNSt7__cxx1112basic_stringIcSt11char_traitsIcESaIcEEE
libIex-3_4.so.33:_ZN7Iex_3_415EdestaddrreqExcC1ERKS0_
libIex-3_4.so.33:_ZN7Iex_3_415EdestaddrreqExcC1ERNSt7__cxx1118basic_stringstreamIcSt11char_traitsIcESaIcEEE
libIex-3_4.so.33:_ZN7Iex_3_415EdestaddrreqExcC1Ev
libIex-3_4.so.33:_ZN7Iex_3_415EdestaddrreqExcC2EONSt7__cxx1112basic_stringIcSt11char_traitsIcESaIcEEE
libIex-3_4.so.33:_ZN7Iex_3_415EdestaddrreqExcC2EOS0_
libIex-3_4.so.33:_ZN7Iex_3_415EdestaddrreqExcC2EPKc
libIex-3_4.so.33:_ZN7Iex_3_415EdestaddrreqExcC2ERKNSt7__cxx1112basic_stringIcSt11char_traitsIcESaIcEEE
libIex-3_4.so.33:_ZN7Iex_3_415EdestaddrreqExcC2ERKS0_
libIex-3_4.so.33:_ZN7Iex_3_415EdestaddrreqExcC2ERNSt7__cxx1118basic_stringstreamIcSt11char_traitsIcESaIcEEE
libIex-3_4.so.33:_ZN7Iex_3_415EdestaddrreqExcC2Ev
libIex-3_4.so.33:_ZN7Iex_3_415EdestaddrreqExcD0Ev
libIex-3_4.so.33:_ZN7Iex_3_415EdestaddrreqExcD1Ev
libIex-3_4.so.33:_ZN7Iex_3_415EdestaddrreqExcD2Ev
libIex-3_4.so.33:_ZN7Iex_3_415EdestaddrreqExcaSEOS0_
libIex-3_4.so.33:_ZN7Iex_3_415EdestaddrreqExcaSERS0_
libIex-3_4.so.33:_ZN7Iex_3_415EhostunreachExcC1EONSt7__cxx1112basic_stringIcSt11char_traitsIcESaIcEEE
libIex-3_4.so.33:_ZN7Iex_3_415EhostunreachExcC1EOS0_
libIex-3_4.so.33:_ZN7Iex_3_415EhostunreachExcC1EPKc
libIex-3_4.so.33:_ZN7Iex_3_415EhostunreachExcC1ERKNSt7__cxx1112basic_stringIcSt11char_traitsIcESaIcEEE
libIex-3_4.so.33:_ZN7Iex_3_415EhostunreachExcC1ERKS0_
libIex-3_4.so.33:_ZN7Iex_3_415EhostunreachExcC1ERNSt7__cxx1118basic_stringstreamIcSt11char_traitsIcESaIcEEE
libIex-3_4.so.33:_ZN7Iex_3_415EhostunreachExcC1Ev
libIex-3_4.so.33:_ZN7Iex_3_415EhostunreachExcC2EONSt7__cxx1112basic_stringIcSt11char_traitsIcESaIcEEE
libIex-3_4.so.33:_ZN7Iex_3_415EhostunreachExcC2EOS0_
libIex-3_4.so.33:_ZN7Iex_3_415EhostunreachExcC2EPKc
libIex-3_4.so.33:_ZN7Iex_3_415EhostunreachExcC2ERKNSt7__cxx1112basic_stringIcSt11char_traitsIcESaIcEEE
libIex-3_4.so.33:_ZN7Iex_3_415EhostunreachExcC2ERKS0_
libIex-3_4.so.33:_ZN7Iex_3_415EhostunreachExcC2ERNSt7__cxx1118basic_stringstreamIcSt11char_traitsIcESaIcEEE
libIex-3_4.so.33:_ZN7Iex_3_415EhostunreachExcC2Ev
libIex-3_4.so.33:_ZN7Iex_3_415EhostunreachExcD0Ev
libIex-3_4.so.33:_ZN7Iex_3_415EhostunreachExcD1Ev
libIex-3_4.so.33:_ZN7Iex_3_415EhostunreachExcD2Ev
libIex-3_4.so.33:_ZN7Iex_3_415EhostunreachExcaSEOS0_
libIex-3_4.so.33:_ZN7Iex_3_415EhostunreachExcaSERS0_
libIex-3_4.so.33:_ZN7Iex_3_415EnametoolongExcC1EONSt7__cxx1112basic_stringIcSt11char_traitsIcESaIcEEE
libIex-3_4.so.33:_ZN7Iex_3_415EnametoolongExcC1EOS0_
libIex-3_4.so.33:_ZN7Iex_3_415EnametoolongExcC1EPKc
libIex-3_4.so.33:_ZN7Iex_3_415EnametoolongExcC1ERKNSt7__cxx1112basic_stringIcSt11char_traitsIcESaIcEEE
libIex-3_4.so.33:_ZN7Iex_3_415EnametoolongExcC1ERKS0_
libIex-3_4.so.33:_ZN7Iex_3_415EnametoolongExcC1ERNSt7__cxx1118basic_stringstreamIcSt11char_traitsIcESaIcEEE
libIex-3_4.so.33:_ZN7Iex_3_415EnametoolongExcC1Ev
libIex-3_4.so.33:_ZN7Iex_3_415EnametoolongExcC2EONSt7__cxx1112basic_stringIcSt11char_traitsIcESaIcEEE
libIex-3_4.so.33:_ZN7Iex_3_415EnametoolongExcC2EOS0_
libIex-3_4.so.33:_ZN7Iex_3_415EnametoolongExcC2EPKc
libIex-3_4.so.33:_ZN7Iex_3_415EnametoolongExcC2ERKNSt7__cxx1112basic_stringIcSt11char_traitsIcESaIcEEE
libIex-3_4.so.33:_ZN7Iex_3_415EnametoolongExcC2ERKS0_
libIex-3_4.so.33:_ZN7Iex_3_415EnametoolongExcC2ERNSt7__cxx1118basic_stringstreamIcSt11char_traitsIcESaIcEEE
libIex-3_4.so.33:_ZN7Iex_3_415EnametoolongExcC2Ev
libIex-3_4.so.33:_ZN7Iex_3_415EnametoolongExcD0Ev
libIex-3_4.so.33:_ZN7Iex_3_415EnametoolongExcD1Ev
libIex-3_4.so.33:_ZN7Iex_3_415EnametoolongExcD2Ev
libIex-3_4.so.33:_ZN7Iex_3_415EnametoolongExcaSEOS0_
libIex-3_4.so.33:_ZN7Iex_3_415EnametoolongExcaSERS0_
libIex-3_4.so.33:_ZN7Iex_3_415EnointrgroupExcC1EONSt7__cxx1112basic_stringIcSt11char_traitsIcESaIcEEE
libIex-3_4.so.33:_ZN7Iex_3_415EnointrgroupExcC1EOS0_
libIex-3_4.so.33:_ZN7Iex_3_415EnointrgroupExcC1EPKc
libIex-3_4.so.33:_ZN7Iex_3_415EnointrgroupExcC1ERKNSt7__cxx1112basic_stringIcSt11char_traitsIcESaIcEEE
libIex-3_4.so.33:_ZN7Iex_3_415EnointrgroupExcC1ERKS0_
libIex-3_4.so.33:_ZN7Iex_3_415EnointrgroupExcC1ERNSt7__cxx1118basic_stringstreamIcSt11char_traitsIcESaIcEEE
libIex-3_4.so.33:_ZN7Iex_3_415EnointrgroupExcC1Ev
libIex-3_4.so.33:_ZN7Iex_3_415EnointrgroupExcC2EONSt7__cxx1112basic_stringIcSt11char_traitsIcESaIcEEE
libIex-3_4.so.33:_ZN7Iex_3_415EnointrgroupExcC2EOS0_
libIex-3_4.so.33:_ZN7Iex_3_415EnointrgroupExcC2EPKc
libIex-3_4.so.33:_ZN7Iex_3_415EnointrgroupExcC2ERKNSt7__cxx1112basic_stringIcSt11char_traitsIcESaIcEEE
libIex-3_4.so.33:_ZN7Iex_3_415EnointrgroupExcC2ERKS0_
libIex-3_4.so.33:_ZN7Iex_3_415EnointrgroupExcC2ERNSt7__cxx1118basic_stringstreamIcSt11char_traitsIcESaIcEEE
libIex-3_4.so.33:_ZN7Iex_3_415EnointrgroupExcC2Ev
libIex-3_4.so.33:_ZN7Iex_3_415EnointrgroupExcD0Ev
libIex-3_4.so.33:_ZN7Iex_3_415EnointrgroupExcD1Ev
libIex-3_4.so.33:_ZN7Iex_3_415EnointrgroupExcD2Ev
libIex-3_4.so.33:_ZN7Iex_3_415EnointrgroupExcaSEOS0_
libIex-3_4.so.33:_ZN7Iex_3_415EnointrgroupExcaSERS0_
libIex-3_4.so.33:_ZN7Iex_3_415EnotenqueuedExcC1EONSt7__cxx1112basic_stringIcSt11char_traitsIcESaIcEEE
libIex-3_4.so.33:_ZN7Iex_3_415EnotenqueuedExcC1EOS0_
libIex-3_4.so.33:_ZN7Iex_3_415EnotenqueuedExcC1EPKc
libIex-3_4.so.33:_ZN7Iex_3_415EnotenqueuedExcC1ERKNSt7__cxx1112basic_stringIcSt11char_traitsIcESaIcEEE
libIex-3_4.so.33:_ZN7Iex_3_415EnotenqueuedExcC1ERKS0_
libIex-3_4.so.33:_ZN7Iex_3_415EnotenqueuedExcC1ERNSt7__cxx1118basic_stringstreamIcSt11char_traitsIcESaIcEEE
libIex-3_4.so.33:_ZN7Iex_3_415EnotenqueuedExcC1Ev
libIex-3_4.so.33:_ZN7Iex_3_415EnotenqueuedExcC2EONSt7__cxx1112basic_stringIcSt11char_traitsIcESaIcEEE
libIex-3_4.so.33:_ZN7Iex_3_415EnotenqueuedExcC2EOS0_
libIex-3_4.so.33:_ZN7Iex_3_415EnotenqueuedExcC2EPKc
libIex-3_4.so.33:_ZN7Iex_3_415EnotenqueuedExcC2ERKNSt7__cxx1112basic_stringIcSt11char_traitsIcESaIcEEE
libIex-3_4.so.33:_ZN7Iex_3_415EnotenqueuedExcC2ERKS0_
libIex-3_4.so.33:_ZN7Iex_3_415EnotenqueuedExcC2ERNSt7__cxx1118basic_stringstreamIcSt11char_traitsIcESaIcEEE
libIex-3_4.so.33:_ZN7Iex_3_415EnotenqueuedExcC2Ev
libIex-3_4.so.33:_ZN7Iex_3_415EnotenqueuedExcD0Ev
libIex-3_4.so.33:_ZN7Iex_3_415EnotenqueuedExcD1Ev
libIex-3_4.so.33:_ZN7Iex_3_415EnotenqueuedExcD2Ev
libIex-3_4.so.33:_ZN7Iex_3_415EnotenqueuedExcaSEOS0_
libIex-3_4.so.33:_ZN7Iex_3_415EnotenqueuedExcaSERS0_
libIex-3_4.so.33:_ZN7Iex_3_415EpfnosupportExcC1EONSt7__cxx1112basic_stringIcSt11char_traitsIcESaIcEEE
libIex-3_4.so.33:_ZN7Iex_3_415EpfnosupportExcC1EOS0_
libIex-3_4.so.33:_ZN7Iex_3_415EpfnosupportExcC1EPKc
libIex-3_4.so.33:_ZN7Iex_3_415EpfnosupportExcC1ERKNSt7__cxx1112basic_stringIcSt11char_traitsIcESaIcEEE
libIex-3_4.so.33:_ZN7Iex_3_415EpfnosupportExcC1ERKS0_
libIex-3_4.so.33:_ZN7Iex_3_415EpfnosupportExcC1ERNSt7__cxx1118basic_stringstreamIcSt11char_traitsIcESaIcEEE
libIex-3_4.so.33:_ZN7Iex_3_415EpfnosupportExcC1Ev
libIex-3_4.so.33:_ZN7Iex_3_415EpfnosupportExcC2EONSt7__cxx1112basic_stringIcSt11char_traitsIcESaIcEEE
libIex-3_4.so.33:_ZN7Iex_3_415EpfnosupportExcC2EOS0_
libIex-3_4.so.33:_ZN7Iex_3_415EpfnosupportExcC2EPKc
libIex-3_4.so.33:_ZN7Iex_3_415EpfnosupportExcC2ERKNSt7__cxx1112basic_stringIcSt11char_traitsIcESaIcEEE
libIex-3_4.so.33:_ZN7Iex_3_415EpfnosupportExcC2ERKS0_
libIex-3_4.so.33:_ZN7Iex_3_415EpfnosupportExcC2ERNSt7__cxx1118basic_stringstreamIcSt11char_traitsIcESaIcEEE
libIex-3_4.so.33:_ZN7Iex_3_415EpfnosupportExcC2Ev
libIex-3_4.so.33:_ZN7Iex_3_415EpfnosupportExcD0Ev
libIex-3_4.so.33:_ZN7Iex_3_415EpfnosupportExcD1Ev
libIex-3_4.so.33:_ZN7Iex_3_415EpfnosupportExcD2Ev
libIex-3_4.so.33:_ZN7Iex_3_415EpfnosupportExcaSEOS0_
libIex-3_4.so.33:_ZN7Iex_3_415EpfnosupportExcaSERS0_
libIex-3_4.so.33:_ZN7Iex_3_415EtoomanyrefsExcC1EONSt7__cxx1112basic_stringIcSt11char_traitsIcESaIcEEE
libIex-3_4.so.33:_ZN7Iex_3_415EtoomanyrefsExcC1EOS0_
libIex-3_4.so.33:_ZN7Iex_3_415EtoomanyrefsExcC1EPKc
libIex-3_4.so.33:_ZN7Iex_3_415EtoomanyrefsExcC1ERKNSt7__cxx1112basic_stringIcSt11char_traitsIcESaIcEEE
libIex-3_4.so.33:_ZN7Iex_3_415EtoomanyrefsExcC1ERKS0_
libIex-3_4.so.33:_ZN7Iex_3_415EtoomanyrefsExcC1ERNSt7__cxx1118basic_stringstreamIcSt11char_traitsIcESaIcEEE
libIex-3_4.so.33:_ZN7Iex_3_415EtoomanyrefsExcC1Ev
libIex-3_4.so.33:_ZN7Iex_3_415EtoomanyrefsExcC2EONSt7__cxx1112basic_stringIcSt11char_traitsIcESaIcEEE
libIex-3_4.so.33:_ZN7Iex_3_415EtoomanyrefsExcC2EOS0_
libIex-3_4.so.33:_ZN7Iex_3_415EtoomanyrefsExcC2EPKc
libIex-3_4.so.33:_ZN7Iex_3_415EtoomanyrefsExcC2ERKNSt7__cxx1112basic_stringIcSt11char_traitsIcESaIcEEE
libIex-3_4.so.33:_ZN7Iex_3_415EtoomanyrefsExcC2ERKS0_
libIex-3_4.so.33:_ZN7Iex_3_415EtoomanyrefsExcC2ERNSt7__cxx1118basic_stringstreamIcSt11char_traitsIcESaIcEEE
libIex-3_4.so.33:_ZN7Iex_3_415EtoomanyrefsExcC2Ev
libIex-3_4.so.33:_ZN7Iex_3_415EtoomanyrefsExcD0Ev
libIex-3_4.so.33:_ZN7Iex_3_415EtoomanyrefsExcD1Ev
libIex-3_4.so.33:_ZN7Iex_3_415EtoomanyrefsExcD2Ev
libIex-3_4.so.33:_ZN7Iex_3_415EtoomanyrefsExcaSEOS0_
libIex-3_4.so.33:_ZN7Iex_3_415EtoomanyrefsExcaSERS0_
libIex-3_4.so.33:_ZN7Iex_3_416EaddrnotavailExcC1EONSt7__cxx1112basic_stringIcSt11char_traitsIcESaIcEEE
libIex-3_4.so.33:_ZN7Iex_3_416EaddrnotavailExcC1EOS0_
libIex-3_4.so.33:_ZN7Iex_3_416EaddrnotavailExcC1EPKc
libIex-3_4.so.33:_ZN7Iex_3_416EaddrnotavailExcC1ERKNSt7__cxx1112basic_stringIcSt11char_traitsIcESaIcEEE
libIex-3_4.so.33:_ZN7Iex_3_416EaddrnotavailExcC1ERKS0_
libIex-3_4.so.33:_ZN7Iex_3_416EaddrnotavailExcC1ERNSt7__cxx1118basic_stringstreamIcSt11char_traitsIcESaIcEEE
libIex-3_4.so.33:_ZN7Iex_3_416EaddrnotavailExcC1Ev
libIex-3_4.so.33:_ZN7Iex_3_416EaddrnotavailExcC2EONSt7__cxx1112basic_stringIcSt11char_traitsIcESaIcEEE
libIex-3_4.so.33:_ZN7Iex_3_416EaddrnotavailExcC2EOS0_
libIex-3_4.so.33:_ZN7Iex_3_416EaddrnotavailExcC2EPKc
libIex-3_4.so.33:_ZN7Iex_3_416EaddrnotavailExcC2ERKNSt7__cxx1112basic_stringIcSt11char_traitsIcESaIcEEE
libIex-3_4.so.33:_ZN7Iex_3_416EaddrnotavailExcC2ERKS0_
libIex-3_4.so.33:_ZN7Iex_3_416EaddrnotavailExcC2ERNSt7__cxx1118basic_stringstreamIcSt11char_traitsIcESaIcEEE
libIex-3_4.so.33:_ZN7Iex_3_416EaddrnotavailExcC2Ev
libIex-3_4.so.33:_ZN7Iex_3_416EaddrnotavailExcD0Ev
libIex-3_4.so.33:_ZN7Iex_3_416EaddrnotavailExcD1Ev
libIex-3_4.so.33:_ZN7Iex_3_416EaddrnotavailExcD2Ev
libIex-3_4.so.33:_ZN7Iex_3_416EaddrnotavailExcaSEOS0_
libIex-3_4.so.33:_ZN7Iex_3_416EaddrnotavailExcaSERS0_
libIex-3_4.so.33:_ZN7Iex_3_416EdircorruptedExcC1EONSt7__cxx1112basic_stringIcSt11char_traitsIcESaIcEEE
libIex-3_4.so.33:_ZN7Iex_3_416EdircorruptedExcC1EOS0_
libIex-3_4.so.33:_ZN7Iex_3_416EdircorruptedExcC1EPKc
libIex-3_4.so.33:_ZN7Iex_3_416EdircorruptedExcC1ERKNSt7__cxx1112basic_stringIcSt11char_traitsIcESaIcEEE
libIex-3_4.so.33:_ZN7Iex_3_416EdircorruptedExcC1ERKS0_
libIex-3_4.so.33:_ZN7Iex_3_416EdircorruptedExcC1ERNSt7__cxx1118basic_stringstreamIcSt11char_traitsIcESaIcEEE
libIex-3_4.so.33:_ZN7Iex_3_416EdircorruptedExcC1Ev
libIex-3_4.so.33:_ZN7Iex_3_416EdircorruptedExcC2EONSt7__cxx1112basic_stringIcSt11char_traitsIcESaIcEEE
libIex-3_4.so.33:_ZN7Iex_3_416EdircorruptedExcC2EOS0_
libIex-3_4.so.33:_ZN7Iex_3_416EdircorruptedExcC2EPKc
libIex-3_4.so.33:_ZN7Iex_3_416EdircorruptedExcC2ERKNSt7__cxx1112basic_stringIcSt11char_traitsIcESaIcEEE
libIex-3_4.so.33:_ZN7Iex_3_416EdircorruptedExcC2ERKS0_
libIex-3_4.so.33:_ZN7Iex_3_416EdircorruptedExcC2ERNSt7__cxx1118basic_stringstreamIcSt11char_traitsIcESaIcEEE
libIex-3_4.so.33:_ZN7Iex_3_416EdircorruptedExcC2Ev
libIex-3_4.so.33:_ZN7Iex_3_416EdircorruptedExcD0Ev
libIex-3_4.so.33:_ZN7Iex_3_416EdircorruptedExcD1Ev
libIex-3_4.so.33:_ZN7Iex_3_416EdircorruptedExcD2Ev
libIex-3_4.so.33:_ZN7Iex_3_416EdircorruptedExcaSEOS0_
libIex-3_4.so.33:_ZN7Iex_3_416EdircorruptedExcaSERS0_
libIex-3_4.so.33:_ZN7Iex_3_417EnotcontrollerExcC1EONSt7__cxx1112basic_stringIcSt11char_traitsIcESaIcEEE
libIex-3_4.so.33:_ZN7Iex_3_417EnotcontrollerExcC1EOS0_
libIex-3_4.so.33:_ZN7Iex_3_417EnotcontrollerExcC1EPKc
libIex-3_4.so.33:_ZN7Iex_3_417EnotcontrollerExcC1ERKNSt7__cxx1112basic_stringIcSt11char_traitsIcESaIcEEE
libIex-3_4.so.33:_ZN7Iex_3_417EnotcontrollerExcC1ERKS0_
libIex-3_4.so.33:_ZN7Iex_3_417EnotcontrollerExcC1ERNSt7__cxx1118basic_stringstreamIcSt11char_traitsIcESaIcEEE
libIex-3_4.so.33:_ZN7Iex_3_417EnotcontrollerExcC1Ev
libIex-3_4.so.33:_ZN7Iex_3_417EnotcontrollerExcC2EONSt7__cxx1112basic_stringIcSt11char_traitsIcESaIcEEE
libIex-3_4.so.33:_ZN7Iex_3_417EnotcontrollerExcC2EOS0_
libIex-3_4.so.33:_ZN7Iex_3_417EnotcontrollerExcC2EPKc
libIex-3_4.so.33:_ZN7Iex_3_417EnotcontrollerExcC2ERKNSt7__cxx1112basic_stringIcSt11char_traitsIcESaIcEEE
libIex-3_4.so.33:_ZN7Iex_3_417EnotcontrollerExcC2ERKS0_
libIex-3_4.so.33:_ZN7Iex_3_417EnotcontrollerExcC2ERNSt7__cxx1118basic_stringstreamIcSt11char_traitsIcESaIcEEE
libIex-3_4.so.33:_ZN7Iex_3_417EnotcontrollerExcC2Ev
libIex-3_4.so.33:_ZN7Iex_3_417EnotcontrollerExcD0Ev
libIex-3_4.so.33:_ZN7Iex_3_417EnotcontrollerExcD1Ev
libIex-3_4.so.33:_ZN7Iex_3_417EnotcontrollerExcD2Ev
libIex-3_4.so.33:_ZN7Iex_3_417EnotcontrollerExcaSEOS0_
libIex-3_4.so.33:_ZN7Iex_3_417EnotcontrollerExcaSERS0_
libIex-3_4.so.33:_ZN7Iex_3_418EprotonosupportExcC1EONSt7__cxx1112basic_stringIcSt11char_traitsIcESaIcEEE
libIex-3_4.so.33:_ZN7Iex_3_418EprotonosupportExcC1EOS0_
libIex-3_4.so.33:_ZN7Iex_3_418EprotonosupportExcC1EPKc
libIex-3_4.so.33:_ZN7Iex_3_418EprotonosupportExcC1ERKNSt7__cxx1112basic_stringIcSt11char_traitsIcESaIcEEE
libIex-3_4.so.33:_ZN7Iex_3_418EprotonosupportExcC1ERKS0_
libIex-3_4.so.33:_ZN7Iex_3_418EprotonosupportExcC1ERNSt7__cxx1118basic_stringstreamIcSt11char_traitsIcESaIcEEE
libIex-3_4.so.33:_ZN7Iex_3_418EprotonosupportExcC1Ev
libIex-3_4.so.33:_ZN7Iex_3_418EprotonosupportExcC2EONSt7__cxx1112basic_stringIcSt11char_traitsIcESaIcEEE
libIex-3_4.so.33:_ZN7Iex_3_418EprotonosupportExcC2EOS0_
libIex-3_4.so.33:_ZN7Iex_3_418EprotonosupportExcC2EPKc
libIex-3_4.so.33:_ZN7Iex_3_418EprotonosupportExcC2ERKNSt7__cxx1112basic_stringIcSt11char_traitsIcESaIcEEE
libIex-3_4.so.33:_ZN7Iex_3_418EprotonosupportExcC2ERKS0_
libIex-3_4.so.33:_ZN7Iex_3_418EprotonosupportExcC2ERNSt7__cxx1118basic_stringstreamIcSt11char_traitsIcESaIcEEE
libIex-3_4.so.33:_ZN7Iex_3_418EprotonosupportExcC2Ev
libIex-3_4.so.33:_ZN7Iex_3_418EprotonosupportExcD0Ev
libIex-3_4.so.33:_ZN7Iex_3_418EprotonosupportExcD1Ev
libIex-3_4.so.33:_ZN7Iex_3_418EprotonosupportExcD2Ev
libIex-3_4.so.33:_ZN7Iex_3_418EprotonosupportExcaSEOS0_
libIex-3_4.so.33:_ZN7Iex_3_418EprotonosupportExcaSERS0_
libIex-3_4.so.33:_ZN7Iex_3_418EsocktnosupportExcC1EONSt7__cxx1112basic_stringIcSt11char_traitsIcESaIcEEE
libIex-3_4.so.33:_ZN7Iex_3_418EsocktnosupportExcC1EOS0_
libIex-3_4.so.33:_ZN7Iex_3_418EsocktnosupportExcC1EPKc
libIex-3_4.so.33:_ZN7Iex_3_418EsocktnosupportExcC1ERKNSt7__cxx1112basic_stringIcSt11char_traitsIcESaIcEEE
libIex-3_4.so.33:_ZN7Iex_3_418EsocktnosupportExcC1ERKS0_
libIex-3_4.so.33:_ZN7Iex_3_418EsocktnosupportExcC1ERNSt7__cxx1118basic_stringstreamIcSt11char_traitsIcESaIcEEE
libIex-3_4.so.33:_ZN7Iex_3_418EsocktnosupportExcC1Ev
libIex-3_4.so.33:_ZN7Iex_3_418EsocktnosupportExcC2EONSt7__cxx1112basic_stringIcSt11char_traitsIcESaIcEEE
libIex-3_4.so.33:_ZN7Iex_3_418EsocktnosupportExcC2EOS0_
libIex-3_4.so.33:_ZN7Iex_3_418EsocktnosupportExcC2EPKc
libIex-3_4.so.33:_ZN7Iex_3_418EsocktnosupportExcC2ERKNSt7__cxx1112basic_stringIcSt11char_traitsIcESaIcEEE
libIex-3_4.so.33:_ZN7Iex_3_418EsocktnosupportExcC2ERKS0_
libIex-3_4.so.33:_ZN7Iex_3_418EsocktnosupportExcC2ERNSt7__cxx1118basic_stringstreamIcSt11char_traitsIcESaIcEEE
libIex-3_4.so.33:_ZN7Iex_3_418EsocktnosupportExcC2Ev
libIex-3_4.so.33:_ZN7Iex_3_418EsocktnosupportExcD0Ev
libIex-3_4.so.33:_ZN7Iex_3_418EsocktnosupportExcD1Ev
libIex-3_4.so.33:_ZN7Iex_3_418EsocktnosupportExcD2Ev
libIex-3_4.so.33:_ZN7Iex_3_418EsocktnosupportExcaSEOS0_
libIex-3_4.so.33:_ZN7Iex_3_418EsocktnosupportExcaSERS0_
libIex-3_4.so.33:_ZN7Iex_3_45IoExcC1EONSt7__cxx1112basic_stringIcSt11char_traitsIcESaIcEEE
libIex-3_4.so.33:_ZN7Iex_3_45IoExcC1EOS0_
libIex-3_4.so.33:_ZN7Iex_3_45IoExcC1EPKc
libIex-3_4.so.33:_ZN7Iex_3_45IoExcC1ERKNSt7__cxx1112basic_stringIcSt11char_traitsIcESaIcEEE
libIex-3_4.so.33:_ZN7Iex_3_45IoExcC1ERKS0_
libIex-3_4.so.33:_ZN7Iex_3_45IoExcC1ERNSt7__cxx1118basic_stringstreamIcSt11char_traitsIcESaIcEEE
libIex-3_4.so.33:_ZN7Iex_3_45IoExcC1Ev
libIex-3_4.so.33:_ZN7Iex_3_45IoExcC2EONSt7__cxx1112basic_stringIcSt11char_traitsIcESaIcEEE
libIex-3_4.so.33:_ZN7Iex_3_45IoExcC2EOS0_
libIex-3_4.so.33:_ZN7Iex_3_45IoExcC2EPKc
libIex-3_4.so.33:_ZN7Iex_3_45IoExcC2ERKNSt7__cxx1112basic_stringIcSt11char_traitsIcESaIcEEE
libIex-3_4.so.33:_ZN7Iex_3_45IoExcC2ERKS0_
libIex-3_4.so.33:_ZN7Iex_3_45IoExcC2ERNSt7__cxx1118basic_stringstreamIcSt11char_traitsIcESaIcEEE
libIex-3_4.so.33:_ZN7Iex_3_45IoExcC2Ev
libIex-3_4.so.33:_ZN7Iex_3_45IoExcD0Ev
libIex-3_4.so.33:_ZN7Iex_3_45IoExcD1Ev
libIex-3_4.so.33:_ZN7Iex_3_45IoExcD2Ev
libIex-3_4.so.33:_ZN7Iex_3_45IoExcaSEOS0_
libIex-3_4.so.33:_ZN7Iex_3_45IoExcaSERS0_
libIex-3_4.so.33:_ZN7Iex_3_46ArgExcC1EONSt7__cxx1112basic_stringIcSt11char_traitsIcESaIcEEE
libIex-3_4.so.33:_ZN7Iex_3_46ArgExcC1EOS0_
libIex-3_4.so.33:_ZN7Iex_3_46ArgExcC1EPKc
libIex-3_4.so.33:_ZN7Iex_3_46ArgExcC1ERKNSt7__cxx1112basic_stringIcSt11char_traitsIcESaIcEEE
libIex-3_4.so.33:_ZN7Iex_3_46ArgExcC1ERKS0_
libIex-3_4.so.33:_ZN7Iex_3_46ArgExcC1ERNSt7__cxx1118basic_stringstreamIcSt11char_traitsIcESaIcEEE
libIex-3_4.so.33:_ZN7Iex_3_46ArgExcC1Ev
libIex-3_4.so.33:_ZN7Iex_3_46ArgExcC2EONSt7__cxx1112basic_stringIcSt11char_traitsIcESaIcEEE
libIex-3_4.so.33:_ZN7Iex_3_46ArgExcC2EOS0_
libIex-3_4.so.33:_ZN7Iex_3_46ArgExcC2EPKc
libIex-3_4.so.33:_ZN7Iex_3_46ArgExcC2ERKNSt7__cxx1112basic_stringIcSt11char_traitsIcESaIcEEE
libIex-3_4.so.33:_ZN7Iex_3_46ArgExcC2ERKS0_
libIex-3_4.so.33:_ZN7Iex_3_46ArgExcC2ERNSt7__cxx1118basic_stringstreamIcSt11char_traitsIcESaIcEEE
libIex-3_4.so.33:_ZN7Iex_3_46ArgExcC2Ev
libIex-3_4.so.33:_ZN7Iex_3_46ArgExcD0Ev
libIex-3_4.so.33:_ZN7Iex_3_46ArgExcD1Ev
libIex-3_4.so.33:_ZN7Iex_3_46ArgExcD2Ev
libIex-3_4.so.33:_ZN7Iex_3_46ArgExcaSEOS0_
libIex-3_4.so.33:_ZN7Iex_3_46ArgExcaSERS0_
libIex-3_4.so.33:_ZN7Iex_3_46EioExcC1EONSt7__cxx1112basic_stringIcSt11char_traitsIcESaIcEEE
libIex-3_4.so.33:_ZN7Iex_3_46EioExcC1EOS0_
libIex-3_4.so.33:_ZN7Iex_3_46EioExcC1EPKc
libIex-3_4.so.33:_ZN7Iex_3_46EioExcC1ERKNSt7__cxx1112basic_stringIcSt11char_traitsIcESaIcEEE
libIex-3_4.so.33:_ZN7Iex_3_46EioExcC1ERKS0_
libIex-3_4.so.33:_ZN7Iex_3_46EioExcC1ERNSt7__cxx1118basic_stringstreamIcSt11char_traitsIcESaIcEEE
libIex-3_4.so.33:_ZN7Iex_3_46EioExcC1Ev
libIex-3_4.so.33:_ZN7Iex_3_46EioExcC2EONSt7__cxx1112basic_stringIcSt11char_traitsIcESaIcEEE
libIex-3_4.so.33:_ZN7Iex_3_46EioExcC2EOS0_
libIex-3_4.so.33:_ZN7Iex_3_46EioExcC2EPKc
libIex-3_4.so.33:_ZN7Iex_3_46EioExcC2ERKNSt7__cxx1112basic_stringIcSt11char_traitsIcESaIcEEE
libIex-3_4.so.33:_ZN7Iex_3_46EioExcC2ERKS0_
libIex-3_4.so.33:_ZN7Iex_3_46EioExcC2ERNSt7__cxx1118basic_stringstreamIcSt11char_traitsIcESaIcEEE
libIex-3_4.so.33:_ZN7Iex_3_46EioExcC2Ev
libIex-3_4.so.33:_ZN7Iex_3_46EioExcD0Ev
libIex-3_4.so.33:_ZN7Iex_3_46EioExcD1Ev
libIex-3_4.so.33:_ZN7Iex_3_46EioExcD2Ev
libIex-3_4.so.33:_ZN7Iex_3_46EioExcaSEOS0_
libIex-3_4.so.33:_ZN7Iex_3_46EioExcaSERS0_
libIex-3_4.so.33:_ZN7Iex_3_47BaseExc6appendEPKc
libIex-3_4.so.33:_ZN7Iex_3_47BaseExc6appendERNSt7__cxx1118basic_stringstreamIcSt11char_traitsIcESaIcEEE
libIex-3_4.so.33:_ZN7Iex_3_47BaseExc6assignEPKc
libIex-3_4.so.33:_ZN7Iex_3_47BaseExc6assignERNSt7__cxx1118basic_stringstreamIcSt11char_traitsIcESaIcEEE
libIex-3_4.so.33:_ZN7Iex_3_47BaseExcC1EONSt7__cxx1112basic_stringIcSt11char_traitsIcESaIcEEE
libIex-3_4.so.33:_ZN7Iex_3_47BaseExcC1EPKc
libIex-3_4.so.33:_ZN7Iex_3_47BaseExcC1ERKNSt7__cxx1112basic_stringIcSt11char_traitsIcESaIcEEE
libIex-3_4.so.33:_ZN7Iex_3_47BaseExcC1ERKS0_
libIex-3_4.so.33:_ZN7Iex_3_47BaseExcC1ERNSt7__cxx1118basic_stringstreamIcSt11char_traitsIcESaIcEEE
libIex-3_4.so.33:_ZN7Iex_3_47BaseExcC2EONSt7__cxx1112basic_stringIcSt11char_traitsIcESaIcEEE
libIex-3_4.so.33:_ZN7Iex_3_47BaseExcC2EPKc
libIex-3_4.so.33:_ZN7Iex_3_47BaseExcC2ERKNSt7__cxx1112basic_stringIcSt11char_traitsIcESaIcEEE
libIex-3_4.so.33:_ZN7Iex_3_47BaseExcC2ERKS0_
libIex-3_4.so.33:_ZN7Iex_3_47BaseExcC2ERNSt7__cxx1118basic_stringstreamIcSt11char_traitsIcESaIcEEE
libIex-3_4.so.33:_ZN7Iex_3_47BaseExcD0Ev
libIex-3_4.so.33:_ZN7Iex_3_47BaseExcD1Ev
libIex-3_4.so.33:_ZN7Iex_3_47BaseExcD2Ev
libIex-3_4.so.33:_ZN7Iex_3_47BaseExcaSEOS0_
libIex-3_4.so.33:_ZN7Iex_3_47BaseExcaSEPKc
libIex-3_4.so.33:_ZN7Iex_3_47BaseExcaSERKS0_
libIex-3_4.so.33:_ZN7Iex_3_47BaseExcaSERNSt7__cxx1118basic_stringstreamIcSt11char_traitsIcESaIcEEE
libIex-3_4.so.33:_ZN7Iex_3_47BaseExcpLEPKc
libIex-3_4.so.33:_ZN7Iex_3_47BaseExcpLERNSt7__cxx1118basic_stringstreamIcSt11char_traitsIcESaIcEEE
libIex-3_4.so.33:_ZN7Iex_3_47EadvExcC1EONSt7__cxx1112basic_stringIcSt11char_traitsIcESaIcEEE
libIex-3_4.so.33:_ZN7Iex_3_47EadvExcC1EOS0_
libIex-3_4.so.33:_ZN7Iex_3_47EadvExcC1EPKc
libIex-3_4.so.33:_ZN7Iex_3_47EadvExcC1ERKNSt7__cxx1112basic_stringIcSt11char_traitsIcESaIcEEE
libIex-3_4.so.33:_ZN7Iex_3_47EadvExcC1ERKS0_
libIex-3_4.so.33:_ZN7Iex_3_47EadvExcC1ERNSt7__cxx1118basic_stringstreamIcSt11char_traitsIcESaIcEEE
libIex-3_4.so.33:_ZN7Iex_3_47EadvExcC1Ev
libIex-3_4.so.33:_ZN7Iex_3_47EadvExcC2EONSt7__cxx1112basic_stringIcSt11char_traitsIcESaIcEEE
libIex-3_4.so.33:_ZN7Iex_3_47EadvExcC2EOS0_
libIex-3_4.so.33:_ZN7Iex_3_47EadvExcC2EPKc
libIex-3_4.so.33:_ZN7Iex_3_47EadvExcC2ERKNSt7__cxx1112basic_stringIcSt11char_traitsIcESaIcEEE
libIex-3_4.so.33:_ZN7Iex_3_47EadvExcC2ERKS0_
libIex-3_4.so.33:_ZN7Iex_3_47EadvExcC2ERNSt7__cxx1118basic_stringstreamIcSt11char_traitsIcESaIcEEE
libIex-3_4.so.33:_ZN7Iex_3_47EadvExcC2Ev
libIex-3_4.so.33:_ZN7Iex_3_47EadvExcD0Ev
libIex-3_4.so.33:_ZN7Iex_3_47EadvExcD1Ev
libIex-3_4.so.33:_ZN7Iex_3_47EadvExcD2Ev
libIex-3_4.so.33:_ZN7Iex_3_47EadvExcaSEOS0_
libIex-3_4.so.33:_ZN7Iex_3_47EadvExcaSERS0_
libIex-3_4.so.33:_ZN7Iex_3_47EdomExcC1EONSt7__cxx1112basic_stringIcSt11char_traitsIcESaIcEEE
libIex-3_4.so.33:_ZN7Iex_3_47EdomExcC1EOS0_
libIex-3_4.so.33:_ZN7Iex_3_47EdomExcC1EPKc
libIex-3_4.so.33:_ZN7Iex_3_47EdomExcC1ERKNSt7__cxx1112basic_stringIcSt11char_traitsIcESaIcEEE
libIex-3_4.so.33:_ZN7Iex_3_47EdomExcC1ERKS0_
libIex-3_4.so.33:_ZN7Iex_3_47EdomExcC1ERNSt7__cxx1118basic_stringstreamIcSt11char_traitsIcESaIcEEE
libIex-3_4.so.33:_ZN7Iex_3_47EdomExcC1Ev
libIex-3_4.so.33:_ZN7Iex_3_47EdomExcC2EONSt7__cxx1112basic_stringIcSt11char_traitsIcESaIcEEE
libIex-3_4.so.33:_ZN7Iex_3_47EdomExcC2EOS0_
libIex-3_4.so.33:_ZN7Iex_3_47EdomExcC2EPKc
libIex-3_4.so.33:_ZN7Iex_3_47EdomExcC2ERKNSt7__cxx1112basic_stringIcSt11char_traitsIcESaIcEEE
libIex-3_4.so.33:_ZN7Iex_3_47EdomExcC2ERKS0_
libIex-3_4.so.33:_ZN7Iex_3_47EdomExcC2ERNSt7__cxx1118basic_stringstreamIcSt11char_traitsIcESaIcEEE
libIex-3_4.so.33:_ZN7Iex_3_47EdomExcC2Ev
libIex-3_4.so.33:_ZN7Iex_3_47EdomExcD0Ev
libIex-3_4.so.33:_ZN7Iex_3_47EdomExcD1Ev
libIex-3_4.so.33:_ZN7Iex_3_47EdomExcD2Ev
libIex-3_4.so.33:_ZN7Iex_3_47EdomExcaSEOS0_
libIex-3_4.so.33:_ZN7Iex_3_47EdomExcaSERS0_
libIex-3_4.so.33:_ZN7Iex_3_47MathExcC1EONSt7__cxx1112basic_stringIcSt11char_traitsIcESaIcEEE
libIex-3_4.so.33:_ZN7Iex_3_47MathExcC1EOS0_
libIex-3_4.so.33:_ZN7Iex_3_47MathExcC1EPKc
libIex-3_4.so.33:_ZN7Iex_3_47MathExcC1ERKNSt7__cxx1112basic_stringIcSt11char_traitsIcESaIcEEE
libIex-3_4.so.33:_ZN7Iex_3_47MathExcC1ERKS0_
libIex-3_4.so.33:_ZN7Iex_3_47MathExcC1ERNSt7__cxx1118basic_stringstreamIcSt11char_traitsIcESaIcEEE
libIex-3_4.so.33:_ZN7Iex_3_47MathExcC1Ev
libIex-3_4.so.33:_ZN7Iex_3_47MathExcC2EONSt7__cxx1112basic_stringIcSt11char_traitsIcESaIcEEE
libIex-3_4.so.33:_ZN7Iex_3_47MathExcC2EOS0_
libIex-3_4.so.33:_ZN7Iex_3_47MathExcC2EPKc
libIex-3_4.so.33:_ZN7Iex_3_47MathExcC2ERKNSt7__cxx1112basic_stringIcSt11char_traitsIcESaIcEEE
libIex-3_4.so.33:_ZN7Iex_3_47MathExcC2ERKS0_
libIex-3_4.so.33:_ZN7Iex_3_47MathExcC2ERNSt7__cxx1118basic_stringstreamIcSt11char_traitsIcESaIcEEE
libIex-3_4.so.33:_ZN7Iex_3_47MathExcC2Ev
libIex-3_4.so.33:_ZN7Iex_3_47MathExcD0Ev
libIex-3_4.so.33:_ZN7Iex_3_47MathExcD1Ev
libIex-3_4.so.33:_ZN7Iex_3_47MathExcD2Ev
libIex-3_4.so.33:_ZN7Iex_3_47MathExcaSEOS0_
libIex-3_4.so.33:_ZN7Iex_3_47MathExcaSERS0_
libIex-3_4.so.33:_ZN7Iex_3_47NullExcC1EONSt7__cxx1112basic_stringIcSt11char_traitsIcESaIcEEE
libIex-3_4.so.33:_ZN7Iex_3_47NullExcC1EOS0_
libIex-3_4.so.33:_ZN7Iex_3_47NullExcC1EPKc
libIex-3_4.so.33:_ZN7Iex_3_47NullExcC1ERKNSt7__cxx1112basic_stringIcSt11char_traitsIcESaIcEEE
libIex-3_4.so.33:_ZN7Iex_3_47NullExcC1ERKS0_
libIex-3_4.so.33:_ZN7Iex_3_47NullExcC1ERNSt7__cxx1118basic_stringstreamIcSt11char_traitsIcESaIcEEE
libIex-3_4.so.33:_ZN7Iex_3_47NullExcC1Ev
libIex-3_4.so.33:_ZN7Iex_3_47NullExcC2EONSt7__cxx1112basic_stringIcSt11char_traitsIcESaIcEEE
libIex-3_4.so.33:_ZN7Iex_3_47NullExcC2EOS0_
libIex-3_4.so.33:_ZN7Iex_3_47NullExcC2EPKc
libIex-3_4.so.33:_ZN7Iex_3_47NullExcC2ERKNSt7__cxx1112basic_stringIcSt11char_traitsIcESaIcEEE
libIex-3_4.so.33:_ZN7Iex_3_47NullExcC2ERKS0_
libIex-3_4.so.33:_ZN7Iex_3_47NullExcC2ERNSt7__cxx1118basic_stringstreamIcSt11char_traitsIcESaIcEEE
libIex-3_4.so.33:_ZN7Iex_3_47NullExcC2Ev
libIex-3_4.so.33:_ZN7Iex_3_47NullExcD0Ev
libIex-3_4.so.33:_ZN7Iex_3_47NullExcD1Ev
libIex-3_4.so.33:_ZN7Iex_3_47NullExcD2Ev
libIex-3_4.so.33:_ZN7Iex_3_47NullExcaSEOS0_
libIex-3_4.so.33:_ZN7Iex_3_47NullExcaSERS0_
libIex-3_4.so.33:_ZN7Iex_3_47TypeExcC1EONSt7__cxx1112basic_stringIcSt11char_traitsIcESaIcEEE
libIex-3_4.so.33:_ZN7Iex_3_47TypeExcC1EOS0_
libIex-3_4.so.33:_ZN7Iex_3_47TypeExcC1EPKc
libIex-3_4.so.33:_ZN7Iex_3_47TypeExcC1ERKNSt7__cxx1112basic_stringIcSt11char_traitsIcESaIcEEE
libIex-3_4.so.33:_ZN7Iex_3_47TypeExcC1ERKS0_
libIex-3_4.so.33:_ZN7Iex_3_47TypeExcC1ERNSt7__cxx1118basic_stringstreamIcSt11char_traitsIcESaIcEEE
libIex-3_4.so.33:_ZN7Iex_3_47TypeExcC1Ev
libIex-3_4.so.33:_ZN7Iex_3_47TypeExcC2EONSt7__cxx1112basic_stringIcSt11char_traitsIcESaIcEEE
libIex-3_4.so.33:_ZN7Iex_3_47TypeExcC2EOS0_
libIex-3_4.so.33:_ZN7Iex_3_47TypeExcC2EPKc
libIex-3_4.so.33:_ZN7Iex_3_47TypeExcC2ERKNSt7__cxx1112basic_stringIcSt11char_traitsIcESaIcEEE
libIex-3_4.so.33:_ZN7Iex_3_47TypeExcC2ERKS0_
libIex-3_4.so.33:_ZN7Iex_3_47TypeExcC2ERNSt7__cxx1118basic_stringstreamIcSt11char_traitsIcESaIcEEE
libIex-3_4.so.33:_ZN7Iex_3_47TypeExcC2Ev
libIex-3_4.so.33:_ZN7Iex_3_47TypeExcD0Ev
libIex-3_4.so.33:_ZN7Iex_3_47TypeExcD1Ev
libIex-3_4.so.33:_ZN7Iex_3_47TypeExcD2Ev
libIex-3_4.so.33:_ZN7Iex_3_47TypeExcaSEOS0_
libIex-3_4.so.33:_ZN7Iex_3_47TypeExcaSERS0_
libIex-3_4.so.33:_ZN7Iex_3_48E2bigExcC1EONSt7__cxx1112basic_stringIcSt11char_traitsIcESaIcEEE
libIex-3_4.so.33:_ZN7Iex_3_48E2bigExcC1EOS0_
libIex-3_4.so.33:_ZN7Iex_3_48E2bigExcC1EPKc
libIex-3_4.so.33:_ZN7Iex_3_48E2bigExcC1ERKNSt7__cxx1112basic_stringIcSt11char_traitsIcESaIcEEE
libIex-3_4.so.33:_ZN7Iex_3_48E2bigExcC1ERKS0_
libIex-3_4.so.33:_ZN7Iex_3_48E2bigExcC1ERNSt7__cxx1118basic_stringstreamIcSt11char_traitsIcESaIcEEE
libIex-3_4.so.33:_ZN7Iex_3_48E2bigExcC1Ev
libIex-3_4.so.33:_ZN7Iex_3_48E2bigExcC2EONSt7__cxx1112basic_stringIcSt11char_traitsIcESaIcEEE
libIex-3_4.so.33:_ZN7Iex_3_48E2bigExcC2EOS0_
libIex-3_4.so.33:_ZN7Iex_3_48E2bigExcC2EPKc
libIex-3_4.so.33:_ZN7Iex_3_48E2bigExcC2ERKNSt7__cxx1112basic_stringIcSt11char_traitsIcESaIcEEE
libIex-3_4.so.33:_ZN7Iex_3_48E2bigExcC2ERKS0_
libIex-3_4.so.33:_ZN7Iex_3_48E2bigExcC2ERNSt7__cxx1118basic_stringstreamIcSt11char_traitsIcESaIcEEE
libIex-3_4.so.33:_ZN7Iex_3_48E2bigExcC2Ev
libIex-3_4.so.33:_ZN7Iex_3_48E2bigExcD0Ev
libIex-3_4.so.33:_ZN7Iex_3_48E2bigExcD1Ev
libIex-3_4.so.33:_ZN7Iex_3_48E2bigExcD2Ev
libIex-3_4.so.33:_ZN7Iex_3_48E2bigExcaSEOS0_
libIex-3_4.so.33:_ZN7Iex_3_48E2bigExcaSERS0_
libIex-3_4.so.33:_ZN7Iex_3_48EbadeExcC1EONSt7__cxx1112basic_stringIcSt11char_traitsIcESaIcEEE
libIex-3_4.so.33:_ZN7Iex_3_48EbadeExcC1EOS0_
libIex-3_4.so.33:_ZN7Iex_3_48EbadeExcC1EPKc
libIex-3_4.so.33:_ZN7Iex_3_48EbadeExcC1ERKNSt7__cxx1112basic_stringIcSt11char_traitsIcESaIcEEE
libIex-3_4.so.33:_ZN7Iex_3_48EbadeExcC1ERKS0_
libIex-3_4.so.33:_ZN7Iex_3_48EbadeExcC1ERNSt7__cxx1118basic_stringstreamIcSt11char_traitsIcESaIcEEE
libIex-3_4.so.33:_ZN7Iex_3_48EbadeExcC1Ev
libIex-3_4.so.33:_ZN7Iex_3_48EbadeExcC2EONSt7__cxx1112basic_stringIcSt11char_traitsIcESaIcEEE
libIex-3_4.so.33:_ZN7Iex_3_48EbadeExcC2EOS0_
libIex-3_4.so.33:_ZN7Iex_3_48EbadeExcC2EPKc
libIex-3_4.so.33:_ZN7Iex_3_48EbadeExcC2ERKNSt7__cxx1112basic_stringIcSt11char_traitsIcESaIcEEE
libIex-3_4.so.33:_ZN7Iex_3_48EbadeExcC2ERKS0_
libIex-3_4.so.33:_ZN7Iex_3_48EbadeExcC2ERNSt7__cxx1118basic_stringstreamIcSt11char_traitsIcESaIcEEE
libIex-3_4.so.33:_ZN7Iex_3_48EbadeExcC2Ev
libIex-3_4.so.33:_ZN7Iex_3_48EbadeExcD0Ev
libIex-3_4.so.33:_ZN7Iex_3_48EbadeExcD1Ev
libIex-3_4.so.33:_ZN7Iex_3_48EbadeExcD2Ev
libIex-3_4.so.33:_ZN7Iex_3_48EbadeExcaSEOS0_
libIex-3_4.so.33:_ZN7Iex_3_48EbadeExcaSERS0_
libIex-3_4.so.33:_ZN7Iex_3_48EbadfExcC1EONSt7__cxx1112basic_stringIcSt11char_traitsIcESaIcEEE
libIex-3_4.so.33:_ZN7Iex_3_48EbadfExcC1EOS0_
libIex-3_4.so.33:_ZN7Iex_3_48EbadfExcC1EPKc
libIex-3_4.so.33:_ZN7Iex_3_48EbadfExcC1ERKNSt7__cxx1112basic_stringIcSt11char_traitsIcESaIcEEE
libIex-3_4.so.33:_ZN7Iex_3_48EbadfExcC1ERKS0_
libIex-3_4.so.33:_ZN7Iex_3_48EbadfExcC1ERNSt7__cxx1118basic_stringstreamIcSt11char_traitsIcESaIcEEE
libIex-3_4.so.33:_ZN7Iex_3_48EbadfExcC1Ev
libIex-3_4.so.33:_ZN7Iex_3_48EbadfExcC2EONSt7__cxx1112basic_stringIcSt11char_traitsIcESaIcEEE
libIex-3_4.so.33:_ZN7Iex_3_48EbadfExcC2EOS0_
libIex-3_4.so.33:_ZN7Iex_3_48EbadfExcC2EPKc
libIex-3_4.so.33:_ZN7Iex_3_48EbadfExcC2ERKNSt7__cxx1112basic_stringIcSt11char_traitsIcESaIcEEE
libIex-3_4.so.33:_ZN7Iex_3_48EbadfExcC2ERKS0_
libIex-3_4.so.33:_ZN7Iex_3_48EbadfExcC2ERNSt7__cxx1118basic_stringstreamIcSt11char_traitsIcESaIcEEE
libIex-3_4.so.33:_ZN7Iex_3_48EbadfExcC2Ev
libIex-3_4.so.33:_ZN7Iex_3_48EbadfExcD0Ev
libIex-3_4.so.33:_ZN7Iex_3_48EbadfExcD1Ev
libIex-3_4.so.33:_ZN7Iex_3_48EbadfExcD2Ev
libIex-3_4.so.33:_ZN7Iex_3_48EbadfExcaSEOS0_
libIex-3_4.so.33:_ZN7Iex_3_48EbadfExcaSERS0_
libIex-3_4.so.33:_ZN7Iex_3_48EbadrExcC1EONSt7__cxx1112basic_stringIcSt11char_traitsIcESaIcEEE
libIex-3_4.so.33:_ZN7Iex_3_48EbadrExcC1EOS0_
libIex-3_4.so.33:_ZN7Iex_3_48EbadrExcC1EPKc
libIex-3_4.so.33:_ZN7Iex_3_48EbadrExcC1ERKNSt7__cxx1112basic_stringIcSt11char_traitsIcESaIcEEE
libIex-3_4.so.33:_ZN7Iex_3_48EbadrExcC1ERKS0_
libIex-3_4.so.33:_ZN7Iex_3_48EbadrExcC1ERNSt7__cxx1118basic_stringstreamIcSt11char_traitsIcESaIcEEE
libIex-3_4.so.33:_ZN7Iex_3_48EbadrExcC1Ev
libIex-3_4.so.33:_ZN7Iex_3_48EbadrExcC2EONSt7__cxx1112basic_stringIcSt11char_traitsIcESaIcEEE
libIex-3_4.so.33:_ZN7Iex_3_48EbadrExcC2EOS0_
libIex-3_4.so.33:_ZN7Iex_3_48EbadrExcC2EPKc
libIex-3_4.so.33:_ZN7Iex_3_48EbadrExcC2ERKNSt7__cxx1112basic_stringIcSt11char_traitsIcESaIcEEE
libIex-3_4.so.33:_ZN7Iex_3_48EbadrExcC2ERKS0_
libIex-3_4.so.33:_ZN7Iex_3_48EbadrExcC2ERNSt7__cxx1118basic_stringstreamIcSt11char_traitsIcESaIcEEE
libIex-3_4.so.33:_ZN7Iex_3_48EbadrExcC2Ev
libIex-3_4.so.33:_ZN7Iex_3_48EbadrExcD0Ev
libIex-3_4.so.33:_ZN7Iex_3_48EbadrExcD1Ev
libIex-3_4.so.33:_ZN7Iex_3_48EbadrExcD2Ev
libIex-3_4.so.33:_ZN7Iex_3_48EbadrExcaSEOS0_
libIex-3_4.so.33:_ZN7Iex_3_48EbadrExcaSERS0_
libIex-3_4.so.33:_ZN7Iex_3_48EbusyExcC1EONSt7__cxx1112basic_stringIcSt11char_traitsIcESaIcEEE
libIex-3_4.so.33:_ZN7Iex_3_48EbusyExcC1EOS0_
libIex-3_4.so.33:_ZN7Iex_3_48EbusyExcC1EPKc
libIex-3_4.so.33:_ZN7Iex_3_48EbusyExcC1ERKNSt7__cxx1112basic_stringIcSt11char_traitsIcESaIcEEE
libIex-3_4.so.33:_ZN7Iex_3_48EbusyExcC1ERKS0_
libIex-3_4.so.33:_ZN7Iex_3_48EbusyExcC1ERNSt7__cxx1118basic_stringstreamIcSt11char_traitsIcESaIcEEE
libIex-3_4.so.33:_ZN7Iex_3_48EbusyExcC1Ev
libIex-3_4.so.33:_ZN7Iex_3_48EbusyExcC2EONSt7__cxx1112basic_stringIcSt11char_traitsIcESaIcEEE
libIex-3_4.so.33:_ZN7Iex_3_48EbusyExcC2EOS0_
libIex-3_4.so.33:_ZN7Iex_3_48EbusyExcC2EPKc
libIex-3_4.so.33:_ZN7Iex_3_48EbusyExcC2ERKNSt7__cxx1112basic_stringIcSt11char_traitsIcESaIcEEE
libIex-3_4.so.33:_ZN7Iex_3_48EbusyExcC2ERKS0_
libIex-3_4.so.33:_ZN7Iex_3_48EbusyExcC2ERNSt7__cxx1118basic_stringstreamIcSt11char_traitsIcESaIcEEE
libIex-3_4.so.33:_ZN7Iex_3_48EbusyExcC2Ev
libIex-3_4.so.33:_ZN7Iex_3_48EbusyExcD0Ev
libIex-3_4.so.33:_ZN7Iex_3_48EbusyExcD1Ev
libIex-3_4.so.33:_ZN7Iex_3_48EbusyExcD2Ev
libIex-3_4.so.33:_ZN7Iex_3_48EbusyExcaSEOS0_
libIex-3_4.so.33:_ZN7Iex_3_48EbusyExcaSERS0_
libIex-3_4.so.33:_ZN7Iex_3_48EcommExcC1EONSt7__cxx1112basic_stringIcSt11char_traitsIcESaIcEEE
libIex-3_4.so.33:_ZN7Iex_3_48EcommExcC1EOS0_
libIex-3_4.so.33:_ZN7Iex_3_48EcommExcC1EPKc
libIex-3_4.so.33:_ZN7Iex_3_48EcommExcC1ERKNSt7__cxx1112basic_stringIcSt11char_traitsIcESaIcEEE
libIex-3_4.so.33:_ZN7Iex_3_48EcommExcC1ERKS0_
libIex-3_4.so.33:_ZN7Iex_3_48EcommExcC1ERNSt7__cxx1118basic_stringstreamIcSt11char_traitsIcESaIcEEE
libIex-3_4.so.33:_ZN7Iex_3_48EcommExcC1Ev
libIex-3_4.so.33:_ZN7Iex_3_48EcommExcC2EONSt7__cxx1112basic_stringIcSt11char_traitsIcESaIcEEE
libIex-3_4.so.33:_ZN7Iex_3_48EcommExcC2EOS0_
libIex-3_4.so.33:_ZN7Iex_3_48EcommExcC2EPKc
libIex-3_4.so.33:_ZN7Iex_3_48EcommExcC2ERKNSt7__cxx1112basic_stringIcSt11char_traitsIcESaIcEEE
libIex-3_4.so.33:_ZN7Iex_3_48EcommExcC2ERKS0_
libIex-3_4.so.33:_ZN7Iex_3_48EcommExcC2ERNSt7__cxx1118basic_stringstreamIcSt11char_traitsIcESaIcEEE
libIex-3_4.so.33:_ZN7Iex_3_48EcommExcC2Ev
libIex-3_4.so.33:_ZN7Iex_3_48EcommExcD0Ev
libIex-3_4.so.33:_ZN7Iex_3_48EcommExcD1Ev
libIex-3_4.so.33:_ZN7Iex_3_48EcommExcD2Ev
libIex-3_4.so.33:_ZN7Iex_3_48EcommExcaSEOS0_
libIex-3_4.so.33:_ZN7Iex_3_48EcommExcaSERS0_
libIex-3_4.so.33:_ZN7Iex_3_48EfbigExcC1EONSt7__cxx1112basic_stringIcSt11char_traitsIcESaIcEEE
libIex-3_4.so.33:_ZN7Iex_3_48EfbigExcC1EOS0_
libIex-3_4.so.33:_ZN7Iex_3_48EfbigExcC1EPKc
libIex-3_4.so.33:_ZN7Iex_3_48EfbigExcC1ERKNSt7__cxx1112basic_stringIcSt11char_traitsIcESaIcEEE
libIex-3_4.so.33:_ZN7Iex_3_48EfbigExcC1ERKS0_
libIex-3_4.so.33:_ZN7Iex_3_48EfbigExcC1ERNSt7__cxx1118basic_stringstreamIcSt11char_traitsIcESaIcEEE
libIex-3_4.so.33:_ZN7Iex_3_48EfbigExcC1Ev
libIex-3_4.so.33:_ZN7Iex_3_48EfbigExcC2EONSt7__cxx1112basic_stringIcSt11char_traitsIcESaIcEEE
libIex-3_4.so.33:_ZN7Iex_3_48EfbigExcC2EOS0_
libIex-3_4.so.33:_ZN7Iex_3_48EfbigExcC2EPKc
libIex-3_4.so.33:_ZN7Iex_3_48EfbigExcC2ERKNSt7__cxx1112basic_stringIcSt11char_traitsIcESaIcEEE
libIex-3_4.so.33:_ZN7Iex_3_48EfbigExcC2ERKS0_
libIex-3_4.so.33:_ZN7Iex_3_48EfbigExcC2ERNSt7__cxx1118basic_stringstreamIcSt11char_traitsIcESaIcEEE
libIex-3_4.so.33:_ZN7Iex_3_48EfbigExcC2Ev
libIex-3_4.so.33:_ZN7Iex_3_48EfbigExcD0Ev
libIex-3_4.so.33:_ZN7Iex_3_48EfbigExcD1Ev
libIex-3_4.so.33:_ZN7Iex_3_48EfbigExcD2Ev
libIex-3_4.so.33:_ZN7Iex_3_48EfbigExcaSEOS0_
libIex-3_4.so.33:_ZN7Iex_3_48EfbigExcaSERS0_
libIex-3_4.so.33:_ZN7Iex_3_48EidrmExcC1EONSt7__cxx1112basic_stringIcSt11char_traitsIcESaIcEEE
libIex-3_4.so.33:_ZN7Iex_3_48EidrmExcC1EOS0_
libIex-3_4.so.33:_ZN7Iex_3_48EidrmExcC1EPKc
libIex-3_4.so.33:_ZN7Iex_3_48EidrmExcC1ERKNSt7__cxx1112basic_stringIcSt11char_traitsIcESaIcEEE
libIex-3_4.so.33:_ZN7Iex_3_48EidrmExcC1ERKS0_
libIex-3_4.so.33:_ZN7Iex_3_48EidrmExcC1ERNSt7__cxx1118basic_stringstreamIcSt11char_traitsIcESaIcEEE
libIex-3_4.so.33:_ZN7Iex_3_48EidrmExcC1Ev
libIex-3_4.so.33:_ZN7Iex_3_48EidrmExcC2EONSt7__cxx1112basic_stringIcSt11char_traitsIcESaIcEEE
libIex-3_4.so.33:_ZN7Iex_3_48EidrmExcC2EOS0_
libIex-3_4.so.33:_ZN7Iex_3_48EidrmExcC2EPKc
libIex-3_4.so.33:_ZN7Iex_3_48EidrmExcC2ERKNSt7__cxx1112basic_stringIcSt11char_traitsIcESaIcEEE
libIex-3_4.so.33:_ZN7Iex_3_48EidrmExcC2ERKS0_
libIex-3_4.so.33:_ZN7Iex_3_48EidrmExcC2ERNSt7__cxx1118basic_stringstreamIcSt11char_traitsIcESaIcEEE
libIex-3_4.so.33:_ZN7Iex_3_48EidrmExcC2Ev
libIex-3_4.so.33:_ZN7Iex_3_48EidrmExcD0Ev
libIex-3_4.so.33:_ZN7Iex_3_48EidrmExcD1Ev
libIex-3_4.so.33:_ZN7Iex_3_48EidrmExcD2Ev
libIex-3_4.so.33:_ZN7Iex_3_48EidrmExcaSEOS0_
libIex-3_4.so.33:_ZN7Iex_3_48EidrmExcaSERS0_
libIex-3_4.so.33:_ZN7Iex_3_48EinitExcC1EONSt7__cxx1112basic_stringIcSt11char_traitsIcESaIcEEE
libIex-3_4.so.33:_ZN7Iex_3_48EinitExcC1EOS0_
libIex-3_4.so.33:_ZN7Iex_3_48EinitExcC1EPKc
libIex-3_4.so.33:_ZN7Iex_3_48EinitExcC1ERKNSt7__cxx1112basic_stringIcSt11char_traitsIcESaIcEEE
libIex-3_4.so.33:_ZN7Iex_3_48EinitExcC1ERKS0_
libIex-3_4.so.33:_ZN7Iex_3_48EinitExcC1ERNSt7__cxx1118basic_stringstreamIcSt11char_traitsIcESaIcEEE
libIex-3_4.so.33:_ZN7Iex_3_48EinitExcC1Ev
libIex-3_4.so.33:_ZN7Iex_3_48EinitExcC2EONSt7__cxx1112basic_stringIcSt11char_traitsIcESaIcEEE
libIex-3_4.so.33:_ZN7Iex_3_48EinitExcC2EOS0_
libIex-3_4.so.33:_ZN7Iex_3_48EinitExcC2EPKc
libIex-3_4.so.33:_ZN7Iex_3_48EinitExcC2ERKNSt7__cxx1112basic_stringIcSt11char_traitsIcESaIcEEE
libIex-3_4.so.33:_ZN7Iex_3_48EinitExcC2ERKS0_
libIex-3_4.so.33:_ZN7Iex_3_48EinitExcC2ERNSt7__cxx1118basic_stringstreamIcSt11char_traitsIcESaIcEEE
libIex-3_4.so.33:_ZN7Iex_3_48EinitExcC2Ev
libIex-3_4.so.33:_ZN7Iex_3_48EinitExcD0Ev
libIex-3_4.so.33:_ZN7Iex_3_48EinitExcD1Ev
libIex-3_4.so.33:_ZN7Iex_3_48EinitExcD2Ev
libIex-3_4.so.33:_ZN7Iex_3_48EinitExcaSEOS0_
libIex-3_4.so.33:_ZN7Iex_3_48EinitExcaSERS0_
libIex-3_4.so.33:_ZN7Iex_3_48EintrExcC1EONSt7__cxx1112basic_stringIcSt11char_traitsIcESaIcEEE
libIex-3_4.so.33:_ZN7Iex_3_48EintrExcC1EOS0_
libIex-3_4.so.33:_ZN7Iex_3_48EintrExcC1EPKc
libIex-3_4.so.33:_ZN7Iex_3_48EintrExcC1ERKNSt7__cxx1112basic_stringIcSt11char_traitsIcESaIcEEE
libIex-3_4.so.33:_ZN7Iex_3_48EintrExcC1ERKS0_
libIex-3_4.so.33:_ZN7Iex_3_48EintrExcC1ERNSt7__cxx1118basic_stringstreamIcSt11char_traitsIcESaIcEEE
libIex-3_4.so.33:_ZN7Iex_3_48EintrExcC1Ev
libIex-3_4.so.33:_ZN7Iex_3_48EintrExcC2EONSt7__cxx1112basic_stringIcSt11char_traitsIcESaIcEEE
libIex-3_4.so.33:_ZN7Iex_3_48EintrExcC2EOS0_
libIex-3_4.so.33:_ZN7Iex_3_48EintrExcC2EPKc
libIex-3_4.so.33:_ZN7Iex_3_48EintrExcC2ERKNSt7__cxx1112basic_stringIcSt11char_traitsIcESaIcEEE
libIex-3_4.so.33:_ZN7Iex_3_48EintrExcC2ERKS0_
libIex-3_4.so.33:_ZN7Iex_3_48EintrExcC2ERNSt7__cxx1118basic_stringstreamIcSt11char_traitsIcESaIcEEE
libIex-3_4.so.33:_ZN7Iex_3_48EintrExcC2Ev
libIex-3_4.so.33:_ZN7Iex_3_48EintrExcD0Ev
libIex-3_4.so.33:_ZN7Iex_3_48EintrExcD1Ev
libIex-3_4.so.33:_ZN7Iex_3_48EintrExcD2Ev
libIex-3_4.so.33:_ZN7Iex_3_48EintrExcaSEOS0_
libIex-3_4.so.33:_ZN7Iex_3_48EintrExcaSERS0_
libIex-3_4.so.33:_ZN7Iex_3_48EloopExcC1EONSt7__cxx1112basic_stringIcSt11char_traitsIcESaIcEEE
libIex-3_4.so.33:_ZN7Iex_3_48EloopExcC1EOS0_
libIex-3_4.so.33:_ZN7Iex_3_48EloopExcC1EPKc
libIex-3_4.so.33:_ZN7Iex_3_48EloopExcC1ERKNSt7__cxx1112basic_stringIcSt11char_traitsIcESaIcEEE
libIex-3_4.so.33:_ZN7Iex_3_48EloopExcC1ERKS0_
libIex-3_4.so.33:_ZN7Iex_3_48EloopExcC1ERNSt7__cxx1118basic_stringstreamIcSt11char_traitsIcESaIcEEE
libIex-3_4.so.33:_ZN7Iex_3_48EloopExcC1Ev
libIex-3_4.so.33:_ZN7Iex_3_48EloopExcC2EONSt7__cxx1112basic_stringIcSt11char_traitsIcESaIcEEE
libIex-3_4.so.33:_ZN7Iex_3_48EloopExcC2EOS0_
libIex-3_4.so.33:_ZN7Iex_3_48EloopExcC2EPKc
libIex-3_4.so.33:_ZN7Iex_3_48EloopExcC2ERKNSt7__cxx1112basic_stringIcSt11char_traitsIcESaIcEEE
libIex-3_4.so.33:_ZN7Iex_3_48EloopExcC2ERKS0_
libIex-3_4.so.33:_ZN7Iex_3_48EloopExcC2ERNSt7__cxx1118basic_stringstreamIcSt11char_traitsIcESaIcEEE
libIex-3_4.so.33:_ZN7Iex_3_48EloopExcC2Ev
libIex-3_4.so.33:_ZN7Iex_3_48EloopExcD0Ev
libIex-3_4.so.33:_ZN7Iex_3_48EloopExcD1Ev
libIex-3_4.so.33:_ZN7Iex_3_48EloopExcD2Ev
libIex-3_4.so.33:_ZN7Iex_3_48EloopExcaSEOS0_
libIex-3_4.so.33:_ZN7Iex_3_48EloopExcaSERS0_
libIex-3_4.so.33:_ZN7Iex_3_48EnosrExcC1EONSt7__cxx1112basic_stringIcSt11char_traitsIcESaIcEEE
libIex-3_4.so.33:_ZN7Iex_3_48EnosrExcC1EOS0_
libIex-3_4.so.33:_ZN7Iex_3_48EnosrExcC1EPKc
libIex-3_4.so.33:_ZN7Iex_3_48EnosrExcC1ERKNSt7__cxx1112basic_stringIcSt11char_traitsIcESaIcEEE
libIex-3_4.so.33:_ZN7Iex_3_48EnosrExcC1ERKS0_
libIex-3_4.so.33:_ZN7Iex_3_48EnosrExcC1ERNSt7__cxx1118basic_stringstreamIcSt11char_traitsIcESaIcEEE
libIex-3_4.so.33:_ZN7Iex_3_48EnosrExcC1Ev
libIex-3_4.so.33:_ZN7Iex_3_48EnosrExcC2EONSt7__cxx1112basic_stringIcSt11char_traitsIcESaIcEEE
libIex-3_4.so.33:_ZN7Iex_3_48EnosrExcC2EOS0_
libIex-3_4.so.33:_ZN7Iex_3_48EnosrExcC2EPKc
libIex-3_4.so.33:_ZN7Iex_3_48EnosrExcC2ERKNSt7__cxx1112basic_stringIcSt11char_traitsIcESaIcEEE
libIex-3_4.so.33:_ZN7Iex_3_48EnosrExcC2ERKS0_
libIex-3_4.so.33:_ZN7Iex_3_48EnosrExcC2ERNSt7__cxx1118basic_stringstreamIcSt11char_traitsIcESaIcEEE
libIex-3_4.so.33:_ZN7Iex_3_48EnosrExcC2Ev
libIex-3_4.so.33:_ZN7Iex_3_48EnosrExcD0Ev
libIex-3_4.so.33:_ZN7Iex_3_48EnosrExcD1Ev
libIex-3_4.so.33:_ZN7Iex_3_48EnosrExcD2Ev
libIex-3_4.so.33:_ZN7Iex_3_48EnosrExcaSEOS0_
libIex-3_4.so.33:_ZN7Iex_3_48EnosrExcaSERS0_
libIex-3_4.so.33:_ZN7Iex_3_48EnxioExcC1EONSt7__cxx1112basic_stringIcSt11char_traitsIcESaIcEEE
libIex-3_4.so.33:_ZN7Iex_3_48EnxioExcC1EOS0_
libIex-3_4.so.33:_ZN7Iex_3_48EnxioExcC1EPKc
libIex-3_4.so.33:_ZN7Iex_3_48EnxioExcC1ERKNSt7__cxx1112basic_stringIcSt11char_traitsIcESaIcEEE
libIex-3_4.so.33:_ZN7Iex_3_48EnxioExcC1ERKS0_
libIex-3_4.so.33:_ZN7Iex_3_48EnxioExcC1ERNSt7__cxx1118basic_stringstreamIcSt11char_traitsIcESaIcEEE
libIex-3_4.so.33:_ZN7Iex_3_48EnxioExcC1Ev
libIex-3_4.so.33:_ZN7Iex_3_48EnxioExcC2EONSt7__cxx1112basic_stringIcSt11char_traitsIcESaIcEEE
libIex-3_4.so.33:_ZN7Iex_3_48EnxioExcC2EOS0_
libIex-3_4.so.33:_ZN7Iex_3_48EnxioExcC2EPKc
libIex-3_4.so.33:_ZN7Iex_3_48EnxioExcC2ERKNSt7__cxx1112basic_stringIcSt11char_traitsIcESaIcEEE
libIex-3_4.so.33:_ZN7Iex_3_48EnxioExcC2ERKS0_
libIex-3_4.so.33:_ZN7Iex_3_48EnxioExcC2ERNSt7__cxx1118basic_stringstreamIcSt11char_traitsIcESaIcEEE
libIex-3_4.so.33:_ZN7Iex_3_48EnxioExcC2Ev
libIex-3_4.so.33:_ZN7Iex_3_48EnxioExcD0Ev
libIex-3_4.so.33:_ZN7Iex_3_48EnxioExcD1Ev
libIex-3_4.so.33:_ZN7Iex_3_48EnxioExcD2Ev
libIex-3_4.so.33:_ZN7Iex_3_48EnxioExcaSEOS0_
libIex-3_4.so.33:_ZN7Iex_3_48EnxioExcaSERS0_
libIex-3_4.so.33:_ZN7Iex_3_48EpermExcC1EONSt7__cxx1112basic_stringIcSt11char_traitsIcESaIcEEE
libIex-3_4.so.33:_ZN7Iex_3_48EpermExcC1EOS0_
libIex-3_4.so.33:_ZN7Iex_3_48EpermExcC1EPKc
libIex-3_4.so.33:_ZN7Iex_3_48EpermExcC1ERKNSt7__cxx1112basic_stringIcSt11char_traitsIcESaIcEEE
libIex-3_4.so.33:_ZN7Iex_3_48EpermExcC1ERKS0_
libIex-3_4.so.33:_ZN7Iex_3_48EpermExcC1ERNSt7__cxx1118basic_stringstreamIcSt11char_traitsIcESaIcEEE
libIex-3_4.so.33:_ZN7Iex_3_48EpermExcC1Ev
libIex-3_4.so.33:_ZN7Iex_3_48EpermExcC2EONSt7__cxx1112basic_stringIcSt11char_traitsIcESaIcEEE
libIex-3_4.so.33:_ZN7Iex_3_48EpermExcC2EOS0_
libIex-3_4.so.33:_ZN7Iex_3_48EpermExcC2EPKc
libIex-3_4.so.33:_ZN7Iex_3_48EpermExcC2ERKNSt7__cxx1112basic_stringIcSt11char_traitsIcESaIcEEE
libIex-3_4.so.33:_ZN7Iex_3_48EpermExcC2ERKS0_
libIex-3_4.so.33:_ZN7Iex_3_48EpermExcC2ERNSt7__cxx1118basic_stringstreamIcSt11char_traitsIcESaIcEEE
libIex-3_4.so.33:_ZN7Iex_3_48EpermExcC2Ev
libIex-3_4.so.33:_ZN7Iex_3_48EpermExcD0Ev
libIex-3_4.so.33:_ZN7Iex_3_48EpermExcD1Ev
libIex-3_4.so.33:_ZN7Iex_3_48EpermExcD2Ev
libIex-3_4.so.33:_ZN7Iex_3_48EpermExcaSEOS0_
libIex-3_4.so.33:_ZN7Iex_3_48EpermExcaSERS0_
libIex-3_4.so.33:_ZN7Iex_3_48EpipeExcC1EONSt7__cxx1112basic_stringIcSt11char_traitsIcESaIcEEE
libIex-3_4.so.33:_ZN7Iex_3_48EpipeExcC1EOS0_
libIex-3_4.so.33:_ZN7Iex_3_48EpipeExcC1EPKc
libIex-3_4.so.33:_ZN7Iex_3_48EpipeExcC1ERKNSt7__cxx1112basic_stringIcSt11char_traitsIcESaIcEEE
libIex-3_4.so.33:_ZN7Iex_3_48EpipeExcC1ERKS0_
libIex-3_4.so.33:_ZN7Iex_3_48EpipeExcC1ERNSt7__cxx1118basic_stringstreamIcSt11char_traitsIcESaIcEEE
libIex-3_4.so.33:_ZN7Iex_3_48EpipeExcC1Ev
libIex-3_4.so.33:_ZN7Iex_3_48EpipeExcC2EONSt7__cxx1112basic_stringIcSt11char_traitsIcESaIcEEE
libIex-3_4.so.33:_ZN7Iex_3_48EpipeExcC2EOS0_
libIex-3_4.so.33:_ZN7Iex_3_48EpipeExcC2EPKc
libIex-3_4.so.33:_ZN7Iex_3_48EpipeExcC2ERKNSt7__cxx1112basic_stringIcSt11char_traitsIcESaIcEEE
libIex-3_4.so.33:_ZN7Iex_3_48EpipeExcC2ERKS0_
libIex-3_4.so.33:_ZN7Iex_3_48EpipeExcC2ERNSt7__cxx1118basic_stringstreamIcSt11char_traitsIcESaIcEEE
libIex-3_4.so.33:_ZN7Iex_3_48EpipeExcC2Ev
libIex-3_4.so.33:_ZN7Iex_3_48EpipeExcD0Ev
libIex-3_4.so.33:_ZN7Iex_3_48EpipeExcD1Ev
libIex-3_4.so.33:_ZN7Iex_3_48EpipeExcD2Ev
libIex-3_4.so.33:_ZN7Iex_3_48EpipeExcaSEOS0_
libIex-3_4.so.33:_ZN7Iex_3_48EpipeExcaSERS0_
libIex-3_4.so.33:_ZN7Iex_3_48ErofsExcC1EONSt7__cxx1112basic_stringIcSt11char_traitsIcESaIcEEE
libIex-3_4.so.33:_ZN7Iex_3_48ErofsExcC1EOS0_
libIex-3_4.so.33:_ZN7Iex_3_48ErofsExcC1EPKc
libIex-3_4.so.33:_ZN7Iex_3_48ErofsExcC1ERKNSt7__cxx1112basic_stringIcSt11char_traitsIcESaIcEEE
libIex-3_4.so.33:_ZN7Iex_3_48ErofsExcC1ERKS0_
libIex-3_4.so.33:_ZN7Iex_3_48ErofsExcC1ERNSt7__cxx1118basic_stringstreamIcSt11char_traitsIcESaIcEEE
libIex-3_4.so.33:_ZN7Iex_3_48ErofsExcC1Ev
libIex-3_4.so.33:_ZN7Iex_3_48ErofsExcC2EONSt7__cxx1112basic_stringIcSt11char_traitsIcESaIcEEE
libIex-3_4.so.33:_ZN7Iex_3_48ErofsExcC2EOS0_
libIex-3_4.so.33:_ZN7Iex_3_48ErofsExcC2EPKc
libIex-3_4.so.33:_ZN7Iex_3_48ErofsExcC2ERKNSt7__cxx1112basic_stringIcSt11char_traitsIcESaIcEEE
libIex-3_4.so.33:_ZN7Iex_3_48ErofsExcC2ERKS0_
libIex-3_4.so.33:_ZN7Iex_3_48ErofsExcC2ERNSt7__cxx1118basic_stringstreamIcSt11char_traitsIcESaIcEEE
libIex-3_4.so.33:_ZN7Iex_3_48ErofsExcC2Ev
libIex-3_4.so.33:_ZN7Iex_3_48ErofsExcD0Ev
libIex-3_4.so.33:_ZN7Iex_3_48ErofsExcD1Ev
libIex-3_4.so.33:_ZN7Iex_3_48ErofsExcD2Ev
libIex-3_4.so.33:_ZN7Iex_3_48ErofsExcaSEOS0_
libIex-3_4.so.33:_ZN7Iex_3_48ErofsExcaSERS0_
libIex-3_4.so.33:_ZN7Iex_3_48ErrnoExcC1EONSt7__cxx1112basic_stringIcSt11char_traitsIcESaIcEEE
libIex-3_4.so.33:_ZN7Iex_3_48ErrnoExcC1EOS0_
libIex-3_4.so.33:_ZN7Iex_3_48ErrnoExcC1EPKc
libIex-3_4.so.33:_ZN7Iex_3_48ErrnoExcC1ERKNSt7__cxx1112basic_stringIcSt11char_traitsIcESaIcEEE
libIex-3_4.so.33:_ZN7Iex_3_48ErrnoExcC1ERKS0_
libIex-3_4.so.33:_ZN7Iex_3_48ErrnoExcC1ERNSt7__cxx1118basic_stringstreamIcSt11char_traitsIcESaIcEEE
libIex-3_4.so.33:_ZN7Iex_3_48ErrnoExcC1Ev
libIex-3_4.so.33:_ZN7Iex_3_48ErrnoExcC2EONSt7__cxx1112basic_stringIcSt11char_traitsIcESaIcEEE
libIex-3_4.so.33:_ZN7Iex_3_48ErrnoExcC2EOS0_
libIex-3_4.so.33:_ZN7Iex_3_48ErrnoExcC2EPKc
libIex-3_4.so.33:_ZN7Iex_3_48ErrnoExcC2ERKNSt7__cxx1112basic_stringIcSt11char_traitsIcESaIcEEE
libIex-3_4.so.33:_ZN7Iex_3_48ErrnoExcC2ERKS0_
libIex-3_4.so.33:_ZN7Iex_3_48ErrnoExcC2ERNSt7__cxx1118basic_stringstreamIcSt11char_traitsIcESaIcEEE
libIex-3_4.so.33:_ZN7Iex_3_48ErrnoExcC2Ev
libIex-3_4.so.33:_ZN7Iex_3_48ErrnoExcD0Ev
libIex-3_4.so.33:_ZN7Iex_3_48ErrnoExcD1Ev
libIex-3_4.so.33:_ZN7Iex_3_48ErrnoExcD2Ev
libIex-3_4.so.33:_ZN7Iex_3_48ErrnoExcaSEOS0_
libIex-3_4.so.33:_ZN7Iex_3_48ErrnoExcaSERS0_
libIex-3_4.so.33:_ZN7Iex_3_48EsrchExcC1EONSt7__cxx1112basic_stringIcSt11char_traitsIcESaIcEEE
libIex-3_4.so.33:_ZN7Iex_3_48EsrchExcC1EOS0_
libIex-3_4.so.33:_ZN7Iex_3_48EsrchExcC1EPKc
libIex-3_4.so.33:_ZN7Iex_3_48EsrchExcC1ERKNSt7__cxx1112basic_stringIcSt11char_traitsIcESaIcEEE
libIex-3_4.so.33:_ZN7Iex_3_48EsrchExcC1ERKS0_
libIex-3_4.so.33:_ZN7Iex_3_48EsrchExcC1ERNSt7__cxx1118basic_stringstreamIcSt11char_traitsIcESaIcEEE
libIex-3_4.so.33:_ZN7Iex_3_48EsrchExcC1Ev
libIex-3_4.so.33:_ZN7Iex_3_48EsrchExcC2EONSt7__cxx1112basic_stringIcSt11char_traitsIcESaIcEEE
libIex-3_4.so.33:_ZN7Iex_3_48EsrchExcC2EOS0_
libIex-3_4.so.33:_ZN7Iex_3_48EsrchExcC2EPKc
libIex-3_4.so.33:_ZN7Iex_3_48EsrchExcC2ERKNSt7__cxx1112basic_stringIcSt11char_traitsIcESaIcEEE
libIex-3_4.so.33:_ZN7Iex_3_48EsrchExcC2ERKS0_
libIex-3_4.so.33:_ZN7Iex_3_48EsrchExcC2ERNSt7__cxx1118basic_stringstreamIcSt11char_traitsIcESaIcEEE
libIex-3_4.so.33:_ZN7Iex_3_48EsrchExcC2Ev
libIex-3_4.so.33:_ZN7Iex_3_48EsrchExcD0Ev
libIex-3_4.so.33:_ZN7Iex_3_48EsrchExcD1Ev
libIex-3_4.so.33:_ZN7Iex_3_48EsrchExcD2Ev
libIex-3_4.so.33:_ZN7Iex_3_48EsrchExcaSEOS0_
libIex-3_4.so.33:_ZN7Iex_3_48EsrchExcaSERS0_
libIex-3_4.so.33:_ZN7Iex_3_48EtimeExcC1EONSt7__cxx1112basic_stringIcSt11char_traitsIcESaIcEEE
libIex-3_4.so.33:_ZN7Iex_3_48EtimeExcC1EOS0_
libIex-3_4.so.33:_ZN7Iex_3_48EtimeExcC1EPKc
libIex-3_4.so.33:_ZN7Iex_3_48EtimeExcC1ERKNSt7__cxx1112basic_stringIcSt11char_traitsIcESaIcEEE
libIex-3_4.so.33:_ZN7Iex_3_48EtimeExcC1ERKS0_
libIex-3_4.so.33:_ZN7Iex_3_48EtimeExcC1ERNSt7__cxx1118basic_stringstreamIcSt11char_traitsIcESaIcEEE
libIex-3_4.so.33:_ZN7Iex_3_48EtimeExcC1Ev
libIex-3_4.so.33:_ZN7Iex_3_48EtimeExcC2EONSt7__cxx1112basic_stringIcSt11char_traitsIcESaIcEEE
libIex-3_4.so.33:_ZN7Iex_3_48EtimeExcC2EOS0_
libIex-3_4.so.33:_ZN7Iex_3_48EtimeExcC2EPKc
libIex-3_4.so.33:_ZN7Iex_3_48EtimeExcC2ERKNSt7__cxx1112basic_stringIcSt11char_traitsIcESaIcEEE
libIex-3_4.so.33:_ZN7Iex_3_48EtimeExcC2ERKS0_
libIex-3_4.so.33:_ZN7Iex_3_48EtimeExcC2ERNSt7__cxx1118basic_stringstreamIcSt11char_traitsIcESaIcEEE
libIex-3_4.so.33:_ZN7Iex_3_48EtimeExcC2Ev
libIex-3_4.so.33:_ZN7Iex_3_48EtimeExcD0Ev
libIex-3_4.so.33:_ZN7Iex_3_48EtimeExcD1Ev
libIex-3_4.so.33:_ZN7Iex_3_48EtimeExcD2Ev
libIex-3_4.so.33:_ZN7Iex_3_48EtimeExcaSEOS0_
libIex-3_4.so.33:_ZN7Iex_3_48EtimeExcaSERS0_
libIex-3_4.so.33:_ZN7Iex_3_48ExdevExcC1EONSt7__cxx1112basic_stringIcSt11char_traitsIcESaIcEEE
libIex-3_4.so.33:_ZN7Iex_3_48ExdevExcC1EOS0_
libIex-3_4.so.33:_ZN7Iex_3_48ExdevExcC1EPKc
libIex-3_4.so.33:_ZN7Iex_3_48ExdevExcC1ERKNSt7__cxx1112basic_stringIcSt11char_traitsIcESaIcEEE
libIex-3_4.so.33:_ZN7Iex_3_48ExdevExcC1ERKS0_
libIex-3_4.so.33:_ZN7Iex_3_48ExdevExcC1ERNSt7__cxx1118basic_stringstreamIcSt11char_traitsIcESaIcEEE
libIex-3_4.so.33:_ZN7Iex_3_48ExdevExcC1Ev
libIex-3_4.so.33:_ZN7Iex_3_48ExdevExcC2EONSt7__cxx1112basic_stringIcSt11char_traitsIcESaIcEEE
libIex-3_4.so.33:_ZN7Iex_3_48ExdevExcC2EOS0_
libIex-3_4.so.33:_ZN7Iex_3_48ExdevExcC2EPKc
libIex-3_4.so.33:_ZN7Iex_3_48ExdevExcC2ERKNSt7__cxx1112basic_stringIcSt11char_traitsIcESaIcEEE
libIex-3_4.so.33:_ZN7Iex_3_48ExdevExcC2ERKS0_
libIex-3_4.so.33:_ZN7Iex_3_48ExdevExcC2ERNSt7__cxx1118basic_stringstreamIcSt11char_traitsIcESaIcEEE
libIex-3_4.so.33:_ZN7Iex_3_48ExdevExcC2Ev
libIex-3_4.so.33:_ZN7Iex_3_48ExdevExcD0Ev
libIex-3_4.so.33:_ZN7Iex_3_48ExdevExcD1Ev
libIex-3_4.so.33:_ZN7Iex_3_48ExdevExcD2Ev
libIex-3_4.so.33:_ZN7Iex_3_48ExdevExcaSEOS0_
libIex-3_4.so.33:_ZN7Iex_3_48ExdevExcaSERS0_
libIex-3_4.so.33:_ZN7Iex_3_48InputExcC1EONSt7__cxx1112basic_stringIcSt11char_traitsIcESaIcEEE
libIex-3_4.so.33:_ZN7Iex_3_48InputExcC1EOS0_
libIex-3_4.so.33:_ZN7Iex_3_48InputExcC1EPKc
libIex-3_4.so.33:_ZN7Iex_3_48InputExcC1ERKNSt7__cxx1112basic_stringIcSt11char_traitsIcESaIcEEE
libIex-3_4.so.33:_ZN7Iex_3_48InputExcC1ERKS0_
libIex-3_4.so.33:_ZN7Iex_3_48InputExcC1ERNSt7__cxx1118basic_stringstreamIcSt11char_traitsIcESaIcEEE
libIex-3_4.so.33:_ZN7Iex_3_48InputExcC1Ev
libIex-3_4.so.33:_ZN7Iex_3_48InputExcC2EONSt7__cxx1112basic_stringIcSt11char_traitsIcESaIcEEE
libIex-3_4.so.33:_ZN7Iex_3_48InputExcC2EOS0_
libIex-3_4.so.33:_ZN7Iex_3_48InputExcC2EPKc
libIex-3_4.so.33:_ZN7Iex_3_48InputExcC2ERKNSt7__cxx1112basic_stringIcSt11char_traitsIcESaIcEEE
libIex-3_4.so.33:_ZN7Iex_3_48InputExcC2ERKS0_
libIex-3_4.so.33:_ZN7Iex_3_48InputExcC2ERNSt7__cxx1118basic_stringstreamIcSt11char_traitsIcESaIcEEE
libIex-3_4.so.33:_ZN7Iex_3_48InputExcC2Ev
libIex-3_4.so.33:_ZN7Iex_3_48InputExcD0Ev
libIex-3_4.so.33:_ZN7Iex_3_48InputExcD1Ev
libIex-3_4.so.33:_ZN7Iex_3_48InputExcD2Ev
libIex-3_4.so.33:_ZN7Iex_3_48InputExcaSEOS0_
libIex-3_4.so.33:_ZN7Iex_3_48InputExcaSERS0_
libIex-3_4.so.33:_ZN7Iex_3_48LogicExcC1EONSt7__cxx1112basic_stringIcSt11char_traitsIcESaIcEEE
libIex-3_4.so.33:_ZN7Iex_3_48LogicExcC1EOS0_
libIex-3_4.so.33:_ZN7Iex_3_48LogicExcC1EPKc
libIex-3_4.so.33:_ZN7Iex_3_48LogicExcC1ERKNSt7__cxx1112basic_stringIcSt11char_traitsIcESaIcEEE
libIex-3_4.so.33:_ZN7Iex_3_48LogicExcC1ERKS0_
libIex-3_4.so.33:_ZN7Iex_3_48LogicExcC1ERNSt7__cxx1118basic_stringstreamIcSt11char_traitsIcESaIcEEE
libIex-3_4.so.33:_ZN7Iex_3_48LogicExcC1Ev
libIex-3_4.so.33:_ZN7Iex_3_48LogicExcC2EONSt7__cxx1112basic_stringIcSt11char_traitsIcESaIcEEE
libIex-3_4.so.33:_ZN7Iex_3_48LogicExcC2EOS0_
libIex-3_4.so.33:_ZN7Iex_3_48LogicExcC2EPKc
libIex-3_4.so.33:_ZN7Iex_3_48LogicExcC2ERKNSt7__cxx1112basic_stringIcSt11char_traitsIcESaIcEEE
libIex-3_4.so.33:_ZN7Iex_3_48LogicExcC2ERKS0_
libIex-3_4.so.33:_ZN7Iex_3_48LogicExcC2ERNSt7__cxx1118basic_stringstreamIcSt11char_traitsIcESaIcEEE
libIex-3_4.so.33:_ZN7Iex_3_48LogicExcC2Ev
libIex-3_4.so.33:_ZN7Iex_3_48LogicExcD0Ev
libIex-3_4.so.33:_ZN7Iex_3_48LogicExcD1Ev
libIex-3_4.so.33:_ZN7Iex_3_48LogicExcD2Ev
libIex-3_4.so.33:_ZN7Iex_3_48LogicExcaSEOS0_
libIex-3_4.so.33:_ZN7Iex_3_48LogicExcaSERS0_
libIex-3_4.so.33:_ZN7Iex_3_49EaccesExcC1EONSt7__cxx1112basic_stringIcSt11char_traitsIcESaIcEEE
libIex-3_4.so.33:_ZN7Iex_3_49EaccesExcC1EOS0_
libIex-3_4.so.33:_ZN7Iex_3_49EaccesExcC1EPKc
libIex-3_4.so.33:_ZN7Iex_3_49EaccesExcC1ERKNSt7__cxx1112basic_stringIcSt11char_traitsIcESaIcEEE
libIex-3_4.so.33:_ZN7Iex_3_49EaccesExcC1ERKS0_
libIex-3_4.so.33:_ZN7Iex_3_49EaccesExcC1ERNSt7__cxx1118basic_stringstreamIcSt11char_traitsIcESaIcEEE
libIex-3_4.so.33:_ZN7Iex_3_49EaccesExcC1Ev
libIex-3_4.so.33:_ZN7Iex_3_49EaccesExcC2EONSt7__cxx1112basic_stringIcSt11char_traitsIcESaIcEEE
libIex-3_4.so.33:_ZN7Iex_3_49EaccesExcC2EOS0_
libIex-3_4.so.33:_ZN7Iex_3_49EaccesExcC2EPKc
libIex-3_4.so.33:_ZN7Iex_3_49EaccesExcC2ERKNSt7__cxx1112basic_stringIcSt11char_traitsIcESaIcEEE
libIex-3_4.so.33:_ZN7Iex_3_49EaccesExcC2ERKS0_
libIex-3_4.so.33:_ZN7Iex_3_49EaccesExcC2ERNSt7__cxx1118basic_stringstreamIcSt11char_traitsIcESaIcEEE
libIex-3_4.so.33:_ZN7Iex_3_49EaccesExcC2Ev
libIex-3_4.so.33:_ZN7Iex_3_49EaccesExcD0Ev
libIex-3_4.so.33:_ZN7Iex_3_49EaccesExcD1Ev
libIex-3_4.so.33:_ZN7Iex_3_49EaccesExcD2Ev
libIex-3_4.so.33:_ZN7Iex_3_49EaccesExcaSEOS0_
libIex-3_4.so.33:_ZN7Iex_3_49EaccesExcaSERS0_
libIex-3_4.so.33:_ZN7Iex_3_49EagainExcC1EONSt7__cxx1112basic_stringIcSt11char_traitsIcESaIcEEE
libIex-3_4.so.33:_ZN7Iex_3_49EagainExcC1EOS0_
libIex-3_4.so.33:_ZN7Iex_3_49EagainExcC1EPKc
libIex-3_4.so.33:_ZN7Iex_3_49EagainExcC1ERKNSt7__cxx1112basic_stringIcSt11char_traitsIcESaIcEEE
libIex-3_4.so.33:_ZN7Iex_3_49EagainExcC1ERKS0_
libIex-3_4.so.33:_ZN7Iex_3_49EagainExcC1ERNSt7__cxx1118basic_stringstreamIcSt11char_traitsIcESaIcEEE
libIex-3_4.so.33:_ZN7Iex_3_49EagainExcC1Ev
libIex-3_4.so.33:_ZN7Iex_3_49EagainExcC2EONSt7__cxx1112basic_stringIcSt11char_traitsIcESaIcEEE
libIex-3_4.so.33:_ZN7Iex_3_49EagainExcC2EOS0_
libIex-3_4.so.33:_ZN7Iex_3_49EagainExcC2EPKc
libIex-3_4.so.33:_ZN7Iex_3_49EagainExcC2ERKNSt7__cxx1112basic_stringIcSt11char_traitsIcESaIcEEE
libIex-3_4.so.33:_ZN7Iex_3_49EagainExcC2ERKS0_
libIex-3_4.so.33:_ZN7Iex_3_49EagainExcC2ERNSt7__cxx1118basic_stringstreamIcSt11char_traitsIcESaIcEEE
libIex-3_4.so.33:_ZN7Iex_3_49EagainExcC2Ev
libIex-3_4.so.33:_ZN7Iex_3_49EagainExcD0Ev
libIex-3_4.so.33:_ZN7Iex_3_49EagainExcD1Ev
libIex-3_4.so.33:_ZN7Iex_3_49EagainExcD2Ev
libIex-3_4.so.33:_ZN7Iex_3_49EagainExcaSEOS0_
libIex-3_4.so.33:_ZN7Iex_3_49EagainExcaSERS0_
libIex-3_4.so.33:_ZN7Iex_3_49EbadfdExcC1EONSt7__cxx1112basic_stringIcSt11char_traitsIcESaIcEEE
libIex-3_4.so.33:_ZN7Iex_3_49EbadfdExcC1EOS0_
libIex-3_4.so.33:_ZN7Iex_3_49EbadfdExcC1EPKc
libIex-3_4.so.33:_ZN7Iex_3_49EbadfdExcC1ERKNSt7__cxx1112basic_stringIcSt11char_traitsIcESaIcEEE
libIex-3_4.so.33:_ZN7Iex_3_49EbadfdExcC1ERKS0_
libIex-3_4.so.33:_ZN7Iex_3_49EbadfdExcC1ERNSt7__cxx1118basic_stringstreamIcSt11char_traitsIcESaIcEEE
libIex-3_4.so.33:_ZN7Iex_3_49EbadfdExcC1Ev
libIex-3_4.so.33:_ZN7Iex_3_49EbadfdExcC2EONSt7__cxx1112basic_stringIcSt11char_traitsIcESaIcEEE
libIex-3_4.so.33:_ZN7Iex_3_49EbadfdExcC2EOS0_
libIex-3_4.so.33:_ZN7Iex_3_49EbadfdExcC2EPKc
libIex-3_4.so.33:_ZN7Iex_3_49EbadfdExcC2ERKNSt7__cxx1112basic_stringIcSt11char_traitsIcESaIcEEE
libIex-3_4.so.33:_ZN7Iex_3_49EbadfdExcC2ERKS0_
libIex-3_4.so.33:_ZN7Iex_3_49EbadfdExcC2ERNSt7__cxx1118basic_stringstreamIcSt11char_traitsIcESaIcEEE
libIex-3_4.so.33:_ZN7Iex_3_49EbadfdExcC2Ev
libIex-3_4.so.33:_ZN7Iex_3_49EbadfdExcD0Ev
libIex-3_4.so.33:_ZN7Iex_3_49EbadfdExcD1Ev
libIex-3_4.so.33:_ZN7Iex_3_49EbadfdExcD2Ev
libIex-3_4.so.33:_ZN7Iex_3_49EbadfdExcaSEOS0_
libIex-3_4.so.33:_ZN7Iex_3_49EbadfdExcaSERS0_
libIex-3_4.so.33:_ZN7Iex_3_49EbfontExcC1EONSt7__cxx1112basic_stringIcSt11char_traitsIcESaIcEEE
libIex-3_4.so.33:_ZN7Iex_3_49EbfontExcC1EOS0_
libIex-3_4.so.33:_ZN7Iex_3_49EbfontExcC1EPKc
libIex-3_4.so.33:_ZN7Iex_3_49EbfontExcC1ERKNSt7__cxx1112basic_stringIcSt11char_traitsIcESaIcEEE
libIex-3_4.so.33:_ZN7Iex_3_49EbfontExcC1ERKS0_
libIex-3_4.so.33:_ZN7Iex_3_49EbfontExcC1ERNSt7__cxx1118basic_stringstreamIcSt11char_traitsIcESaIcEEE
libIex-3_4.so.33:_ZN7Iex_3_49EbfontExcC1Ev
libIex-3_4.so.33:_ZN7Iex_3_49EbfontExcC2EONSt7__cxx1112basic_stringIcSt11char_traitsIcESaIcEEE
libIex-3_4.so.33:_ZN7Iex_3_49EbfontExcC2EOS0_
libIex-3_4.so.33:_ZN7Iex_3_49EbfontExcC2EPKc
libIex-3_4.so.33:_ZN7Iex_3_49EbfontExcC2ERKNSt7__cxx1112basic_stringIcSt11char_traitsIcESaIcEEE
libIex-3_4.so.33:_ZN7Iex_3_49EbfontExcC2ERKS0_
libIex-3_4.so.33:_ZN7Iex_3_49EbfontExcC2ERNSt7__cxx1118basic_stringstreamIcSt11char_traitsIcESaIcEEE
libIex-3_4.so.33:_ZN7Iex_3_49EbfontExcC2Ev
libIex-3_4.so.33:_ZN7Iex_3_49EbfontExcD0Ev
libIex-3_4.so.33:_ZN7Iex_3_49EbfontExcD1Ev
libIex-3_4.so.33:_ZN7Iex_3_49EbfontExcD2Ev
libIex-3_4.so.33:_ZN7Iex_3_49EbfontExcaSEOS0_
libIex-3_4.so.33:_ZN7Iex_3_49EbfontExcaSERS0_
libIex-3_4.so.33:_ZN7Iex_3_49EchildExcC1EONSt7__cxx1112basic_stringIcSt11char_traitsIcESaIcEEE
libIex-3_4.so.33:_ZN7Iex_3_49EchildExcC1EOS0_
libIex-3_4.so.33:_ZN7Iex_3_49EchildExcC1EPKc
libIex-3_4.so.33:_ZN7Iex_3_49EchildExcC1ERKNSt7__cxx1112basic_stringIcSt11char_traitsIcESaIcEEE
libIex-3_4.so.33:_ZN7Iex_3_49EchildExcC1ERKS0_
libIex-3_4.so.33:_ZN7Iex_3_49EchildExcC1ERNSt7__cxx1118basic_stringstreamIcSt11char_traitsIcESaIcEEE
libIex-3_4.so.33:_ZN7Iex_3_49EchildExcC1Ev
libIex-3_4.so.33:_ZN7Iex_3_49EchildExcC2EONSt7__cxx1112basic_stringIcSt11char_traitsIcESaIcEEE
libIex-3_4.so.33:_ZN7Iex_3_49EchildExcC2EOS0_
libIex-3_4.so.33:_ZN7Iex_3_49EchildExcC2EPKc
libIex-3_4.so.33:_ZN7Iex_3_49EchildExcC2ERKNSt7__cxx1112basic_stringIcSt11char_traitsIcESaIcEEE
libIex-3_4.so.33:_ZN7Iex_3_49EchildExcC2ERKS0_
libIex-3_4.so.33:_ZN7Iex_3_49EchildExcC2ERNSt7__cxx1118basic_stringstreamIcSt11char_traitsIcESaIcEEE
libIex-3_4.so.33:_ZN7Iex_3_49EchildExcC2Ev
libIex-3_4.so.33:_ZN7Iex_3_49EchildExcD0Ev
libIex-3_4.so.33:_ZN7Iex_3_49EchildExcD1Ev
libIex-3_4.so.33:_ZN7Iex_3_49EchildExcD2Ev
libIex-3_4.so.33:_ZN7Iex_3_49EchildExcaSEOS0_
libIex-3_4.so.33:_ZN7Iex_3_49EchildExcaSERS0_
libIex-3_4.so.33:_ZN7Iex_3_49EchrngExcC1EONSt7__cxx1112basic_stringIcSt11char_traitsIcESaIcEEE
libIex-3_4.so.33:_ZN7Iex_3_49EchrngExcC1EOS0_
libIex-3_4.so.33:_ZN7Iex_3_49EchrngExcC1EPKc
libIex-3_4.so.33:_ZN7Iex_3_49EchrngExcC1ERKNSt7__cxx1112basic_stringIcSt11char_traitsIcESaIcEEE
libIex-3_4.so.33:_ZN7Iex_3_49EchrngExcC1ERKS0_
libIex-3_4.so.33:_ZN7Iex_3_49EchrngExcC1ERNSt7__cxx1118basic_stringstreamIcSt11char_traitsIcESaIcEEE
libIex-3_4.so.33:_ZN7Iex_3_49EchrngExcC1Ev
libIex-3_4.so.33:_ZN7Iex_3_49EchrngExcC2EONSt7__cxx1112basic_stringIcSt11char_traitsIcESaIcEEE
libIex-3_4.so.33:_ZN7Iex_3_49EchrngExcC2EOS0_
libIex-3_4.so.33:_ZN7Iex_3_49EchrngExcC2EPKc
libIex-3_4.so.33:_ZN7Iex_3_49EchrngExcC2ERKNSt7__cxx1112basic_stringIcSt11char_traitsIcESaIcEEE
libIex-3_4.so.33:_ZN7Iex_3_49EchrngExcC2ERKS0_
libIex-3_4.so.33:_ZN7Iex_3_49EchrngExcC2ERNSt7__cxx1118basic_stringstreamIcSt11char_traitsIcESaIcEEE
libIex-3_4.so.33:_ZN7Iex_3_49EchrngExcC2Ev
libIex-3_4.so.33:_ZN7Iex_3_49EchrngExcD0Ev
libIex-3_4.so.33:_ZN7Iex_3_49EchrngExcD1Ev
libIex-3_4.so.33:_ZN7Iex_3_49EchrngExcD2Ev
libIex-3_4.so.33:_ZN7Iex_3_49EchrngExcaSEOS0_
libIex-3_4.so.33:_ZN7Iex_3_49EchrngExcaSERS0_
libIex-3_4.so.33:_ZN7Iex_3_49EdquotExcC1EONSt7__cxx1112basic_stringIcSt11char_traitsIcESaIcEEE
libIex-3_4.so.33:_ZN7Iex_3_49EdquotExcC1EOS0_
libIex-3_4.so.33:_ZN7Iex_3_49EdquotExcC1EPKc
libIex-3_4.so.33:_ZN7Iex_3_49EdquotExcC1ERKNSt7__cxx1112basic_stringIcSt11char_traitsIcESaIcEEE
libIex-3_4.so.33:_ZN7Iex_3_49EdquotExcC1ERKS0_
libIex-3_4.so.33:_ZN7Iex_3_49EdquotExcC1ERNSt7__cxx1118basic_stringstreamIcSt11char_traitsIcESaIcEEE
libIex-3_4.so.33:_ZN7Iex_3_49EdquotExcC1Ev
libIex-3_4.so.33:_ZN7Iex_3_49EdquotExcC2EONSt7__cxx1112basic_stringIcSt11char_traitsIcESaIcEEE
libIex-3_4.so.33:_ZN7Iex_3_49EdquotExcC2EOS0_
libIex-3_4.so.33:_ZN7Iex_3_49EdquotExcC2EPKc
libIex-3_4.so.33:_ZN7Iex_3_49EdquotExcC2ERKNSt7__cxx1112basic_stringIcSt11char_traitsIcESaIcEEE
libIex-3_4.so.33:_ZN7Iex_3_49EdquotExcC2ERKS0_
libIex-3_4.so.33:_ZN7Iex_3_49EdquotExcC2ERNSt7__cxx1118basic_stringstreamIcSt11char_traitsIcESaIcEEE
libIex-3_4.so.33:_ZN7Iex_3_49EdquotExcC2Ev
libIex-3_4.so.33:_ZN7Iex_3_49EdquotExcD0Ev
libIex-3_4.so.33:_ZN7Iex_3_49EdquotExcD1Ev
libIex-3_4.so.33:_ZN7Iex_3_49EdquotExcD2Ev
libIex-3_4.so.33:_ZN7Iex_3_49EdquotExcaSEOS0_
libIex-3_4.so.33:_ZN7Iex_3_49EdquotExcaSERS0_
libIex-3_4.so.33:_ZN7Iex_3_49EemptyExcC1EONSt7__cxx1112basic_stringIcSt11char_traitsIcESaIcEEE
libIex-3_4.so.33:_ZN7Iex_3_49EemptyExcC1EOS0_
libIex-3_4.so.33:_ZN7Iex_3_49EemptyExcC1EPKc
libIex-3_4.so.33:_ZN7Iex_3_49EemptyExcC1ERKNSt7__cxx1112basic_stringIcSt11char_traitsIcESaIcEEE
libIex-3_4.so.33:_ZN7Iex_3_49EemptyExcC1ERKS0_
libIex-3_4.so.33:_ZN7Iex_3_49EemptyExcC1ERNSt7__cxx1118basic_stringstreamIcSt11char_traitsIcESaIcEEE
libIex-3_4.so.33:_ZN7Iex_3_49EemptyExcC1Ev
libIex-3_4.so.33:_ZN7Iex_3_49EemptyExcC2EONSt7__cxx1112basic_stringIcSt11char_traitsIcESaIcEEE
libIex-3_4.so.33:_ZN7Iex_3_49EemptyExcC2EOS0_
libIex-3_4.so.33:_ZN7Iex_3_49EemptyExcC2EPKc
libIex-3_4.so.33:_ZN7Iex_3_49EemptyExcC2ERKNSt7__cxx1112basic_stringIcSt11char_traitsIcESaIcEEE
libIex-3_4.so.33:_ZN7Iex_3_49EemptyExcC2ERKS0_
libIex-3_4.so.33:_ZN7Iex_3_49EemptyExcC2ERNSt7__cxx1118basic_stringstreamIcSt11char_traitsIcESaIcEEE
libIex-3_4.so.33:_ZN7Iex_3_49EemptyExcC2Ev
libIex-3_4.so.33:_ZN7Iex_3_49EemptyExcD0Ev
libIex-3_4.so.33:_ZN7Iex_3_49EemptyExcD1Ev
libIex-3_4.so.33:_ZN7Iex_3_49EemptyExcD2Ev
libIex-3_4.so.33:_ZN7Iex_3_49EemptyExcaSEOS0_
libIex-3_4.so.33:_ZN7Iex_3_49EemptyExcaSERS0_
libIex-3_4.so.33:_ZN7Iex_3_49EexistExcC1EONSt7__cxx1112basic_stringIcSt11char_traitsIcESaIcEEE
libIex-3_4.so.33:_ZN7Iex_3_49EexistExcC1EOS0_
libIex-3_4.so.33:_ZN7Iex_3_49EexistExcC1EPKc
libIex-3_4.so.33:_ZN7Iex_3_49EexistExcC1ERKNSt7__cxx1112basic_stringIcSt11char_traitsIcESaIcEEE
libIex-3_4.so.33:_ZN7Iex_3_49EexistExcC1ERKS0_
libIex-3_4.so.33:_ZN7Iex_3_49EexistExcC1ERNSt7__cxx1118basic_stringstreamIcSt11char_traitsIcESaIcEEE
libIex-3_4.so.33:_ZN7Iex_3_49EexistExcC1Ev
libIex-3_4.so.33:_ZN7Iex_3_49EexistExcC2EONSt7__cxx1112basic_stringIcSt11char_traitsIcESaIcEEE
libIex-3_4.so.33:_ZN7Iex_3_49EexistExcC2EOS0_
libIex-3_4.so.33:_ZN7Iex_3_49EexistExcC2EPKc
libIex-3_4.so.33:_ZN7Iex_3_49EexistExcC2ERKNSt7__cxx1112basic_stringIcSt11char_traitsIcESaIcEEE
libIex-3_4.so.33:_ZN7Iex_3_49EexistExcC2ERKS0_
libIex-3_4.so.33:_ZN7Iex_3_49EexistExcC2ERNSt7__cxx1118basic_stringstreamIcSt11char_traitsIcESaIcEEE
libIex-3_4.so.33:_ZN7Iex_3_49EexistExcC2Ev
libIex-3_4.so.33:_ZN7Iex_3_49EexistExcD0Ev
libIex-3_4.so.33:_ZN7Iex_3_49EexistExcD1Ev
libIex-3_4.so.33:_ZN7Iex_3_49EexistExcD2Ev
libIex-3_4.so.33:_ZN7Iex_3_49EexistExcaSEOS0_
libIex-3_4.so.33:_ZN7Iex_3_49EexistExcaSERS0_
libIex-3_4.so.33:_ZN7Iex_3_49EfaultExcC1EONSt7__cxx1112basic_stringIcSt11char_traitsIcESaIcEEE
libIex-3_4.so.33:_ZN7Iex_3_49EfaultExcC1EOS0_
libIex-3_4.so.33:_ZN7Iex_3_49EfaultExcC1EPKc
libIex-3_4.so.33:_ZN7Iex_3_49EfaultExcC1ERKNSt7__cxx1112basic_stringIcSt11char_traitsIcESaIcEEE
libIex-3_4.so.33:_ZN7Iex_3_49EfaultExcC1ERKS0_
libIex-3_4.so.33:_ZN7Iex_3_49EfaultExcC1ERNSt7__cxx1118basic_stringstreamIcSt11char_traitsIcESaIcEEE
libIex-3_4.so.33:_ZN7Iex_3_49EfaultExcC1Ev
libIex-3_4.so.33:_ZN7Iex_3_49EfaultExcC2EONSt7__cxx1112basic_stringIcSt11char_traitsIcESaIcEEE
libIex-3_4.so.33:_ZN7Iex_3_49EfaultExcC2EOS0_
libIex-3_4.so.33:_ZN7Iex_3_49EfaultExcC2EPKc
libIex-3_4.so.33:_ZN7Iex_3_49EfaultExcC2ERKNSt7__cxx1112basic_stringIcSt11char_traitsIcESaIcEEE
libIex-3_4.so.33:_ZN7Iex_3_49EfaultExcC2ERKS0_
libIex-3_4.so.33:_ZN7Iex_3_49EfaultExcC2ERNSt7__cxx1118basic_stringstreamIcSt11char_traitsIcESaIcEEE
libIex-3_4.so.33:_ZN7Iex_3_49EfaultExcC2Ev
libIex-3_4.so.33:_ZN7Iex_3_49EfaultExcD0Ev
libIex-3_4.so.33:_ZN7Iex_3_49EfaultExcD1Ev
libIex-3_4.so.33:_ZN7Iex_3_49EfaultExcD2Ev
libIex-3_4.so.33:_ZN7Iex_3_49EfaultExcaSEOS0_
libIex-3_4.so.33:_ZN7Iex_3_49EfaultExcaSERS0_
libIex-3_4.so.33:_ZN7Iex_3_49EilseqExcC1EONSt7__cxx1112basic_stringIcSt11char_traitsIcESaIcEEE
libIex-3_4.so.33:_ZN7Iex_3_49EilseqExcC1EOS0_
libIex-3_4.so.33:_ZN7Iex_3_49EilseqExcC1EPKc
libIex-3_4.so.33:_ZN7Iex_3_49EilseqExcC1ERKNSt7__cxx1112basic_stringIcSt11char_traitsIcESaIcEEE
libIex-3_4.so.33:_ZN7Iex_3_49EilseqExcC1ERKS0_
libIex-3_4.so.33:_ZN7Iex_3_49EilseqExcC1ERNSt7__cxx1118basic_stringstreamIcSt11char_traitsIcESaIcEEE
libIex-3_4.so.33:_ZN7Iex_3_49EilseqExcC1Ev
libIex-3_4.so.33:_ZN7Iex_3_49EilseqExcC2EONSt7__cxx1112basic_stringIcSt11char_traitsIcESaIcEEE
libIex-3_4.so.33:_ZN7Iex_3_49EilseqExcC2EOS0_
libIex-3_4.so.33:_ZN7Iex_3_49EilseqExcC2EPKc
libIex-3_4.so.33:_ZN7Iex_3_49EilseqExcC2ERKNSt7__cxx1112basic_stringIcSt11char_traitsIcESaIcEEE
libIex-3_4.so.33:_ZN7Iex_3_49EilseqExcC2ERKS0_
libIex-3_4.so.33:_ZN7Iex_3_49EilseqExcC2ERNSt7__cxx1118basic_stringstreamIcSt11char_traitsIcESaIcEEE
libIex-3_4.so.33:_ZN7Iex_3_49EilseqExcC2Ev
libIex-3_4.so.33:_ZN7Iex_3_49EilseqExcD0Ev
libIex-3_4.so.33:_ZN7Iex_3_49EilseqExcD1Ev
libIex-3_4.so.33:_ZN7Iex_3_49EilseqExcD2Ev
libIex-3_4.so.33:_ZN7Iex_3_49EilseqExcaSEOS0_
libIex-3_4.so.33:_ZN7Iex_3_49EilseqExcaSERS0_
libIex-3_4.so.33:_ZN7Iex_3_49EinvalExcC1EONSt7__cxx1112basic_stringIcSt11char_traitsIcESaIcEEE
libIex-3_4.so.33:_ZN7Iex_3_49EinvalExcC1EOS0_
libIex-3_4.so.33:_ZN7Iex_3_49EinvalExcC1EPKc
libIex-3_4.so.33:_ZN7Iex_3_49EinvalExcC1ERKNSt7__cxx1112basic_stringIcSt11char_traitsIcESaIcEEE
libIex-3_4.so.33:_ZN7Iex_3_49EinvalExcC1ERKS0_
libIex-3_4.so.33:_ZN7Iex_3_49EinvalExcC1ERNSt7__cxx1118basic_stringstreamIcSt11char_traitsIcESaIcEEE
libIex-3_4.so.33:_ZN7Iex_3_49EinvalExcC1Ev
libIex-3_4.so.33:_ZN7Iex_3_49EinvalExcC2EONSt7__cxx1112basic_stringIcSt11char_traitsIcESaIcEEE
libIex-3_4.so.33:_ZN7Iex_3_49EinvalExcC2EOS0_
libIex-3_4.so.33:_ZN7Iex_3_49EinvalExcC2EPKc
libIex-3_4.so.33:_ZN7Iex_3_49EinvalExcC2ERKNSt7__cxx1112basic_stringIcSt11char_traitsIcESaIcEEE
libIex-3_4.so.33:_ZN7Iex_3_49EinvalExcC2ERKS0_
libIex-3_4.so.33:_ZN7Iex_3_49EinvalExcC2ERNSt7__cxx1118basic_stringstreamIcSt11char_traitsIcESaIcEEE
libIex-3_4.so.33:_ZN7Iex_3_49EinvalExcC2Ev
libIex-3_4.so.33:_ZN7Iex_3_49EinvalExcD0Ev
libIex-3_4.so.33:_ZN7Iex_3_49EinvalExcD1Ev
libIex-3_4.so.33:_ZN7Iex_3_49EinvalExcD2Ev
libIex-3_4.so.33:_ZN7Iex_3_49EinvalExcaSEOS0_
libIex-3_4.so.33:_ZN7Iex_3_49EinvalExcaSERS0_
libIex-3_4.so.33:_ZN7Iex_3_49EisdirExcC1EONSt7__cxx1112basic_stringIcSt11char_traitsIcESaIcEEE
libIex-3_4.so.33:_ZN7Iex_3_49EisdirExcC1EOS0_
libIex-3_4.so.33:_ZN7Iex_3_49EisdirExcC1EPKc
libIex-3_4.so.33:_ZN7Iex_3_49EisdirExcC1ERKNSt7__cxx1112basic_stringIcSt11char_traitsIcESaIcEEE
libIex-3_4.so.33:_ZN7Iex_3_49EisdirExcC1ERKS0_
libIex-3_4.so.33:_ZN7Iex_3_49EisdirExcC1ERNSt7__cxx1118basic_stringstreamIcSt11char_traitsIcESaIcEEE
libIex-3_4.so.33:_ZN7Iex_3_49EisdirExcC1Ev
libIex-3_4.so.33:_ZN7Iex_3_49EisdirExcC2EONSt7__cxx1112basic_stringIcSt11char_traitsIcESaIcEEE
libIex-3_4.so.33:_ZN7Iex_3_49EisdirExcC2EOS0_
libIex-3_4.so.33:_ZN7Iex_3_49EisdirExcC2EPKc
libIex-3_4.so.33:_ZN7Iex_3_49EisdirExcC2ERKNSt7__cxx1112basic_stringIcSt11char_traitsIcESaIcEEE
libIex-3_4.so.33:_ZN7Iex_3_49EisdirExcC2ERKS0_
libIex-3_4.so.33:_ZN7Iex_3_49EisdirExcC2ERNSt7__cxx1118basic_stringstreamIcSt11char_traitsIcESaIcEEE
libIex-3_4.so.33:_ZN7Iex_3_49EisdirExcC2Ev
libIex-3_4.so.33:_ZN7Iex_3_49EisdirExcD0Ev
libIex-3_4.so.33:_ZN7Iex_3_49EisdirExcD1Ev
libIex-3_4.so.33:_ZN7Iex_3_49EisdirExcD2Ev
libIex-3_4.so.33:_ZN7Iex_3_49EisdirExcaSEOS0_
libIex-3_4.so.33:_ZN7Iex_3_49EisdirExcaSERS0_
libIex-3_4.so.33:_ZN7Iex_3_49EisnamExcC1EONSt7__cxx1112basic_stringIcSt11char_traitsIcESaIcEEE
libIex-3_4.so.33:_ZN7Iex_3_49EisnamExcC1EOS0_
libIex-3_4.so.33:_ZN7Iex_3_49EisnamExcC1EPKc
libIex-3_4.so.33:_ZN7Iex_3_49EisnamExcC1ERKNSt7__cxx1112basic_stringIcSt11char_traitsIcESaIcEEE
libIex-3_4.so.33:_ZN7Iex_3_49EisnamExcC1ERKS0_
libIex-3_4.so.33:_ZN7Iex_3_49EisnamExcC1ERNSt7__cxx1118basic_stringstreamIcSt11char_traitsIcESaIcEEE
libIex-3_4.so.33:_ZN7Iex_3_49EisnamExcC1Ev
libIex-3_4.so.33:_ZN7Iex_3_49EisnamExcC2EONSt7__cxx1112basic_stringIcSt11char_traitsIcESaIcEEE
libIex-3_4.so.33:_ZN7Iex_3_49EisnamExcC2EOS0_
libIex-3_4.so.33:_ZN7Iex_3_49EisnamExcC2EPKc
libIex-3_4.so.33:_ZN7Iex_3_49EisnamExcC2ERKNSt7__cxx1112basic_stringIcSt11char_traitsIcESaIcEEE
libIex-3_4.so.33:_ZN7Iex_3_49EisnamExcC2ERKS0_
libIex-3_4.so.33:_ZN7Iex_3_49EisnamExcC2ERNSt7__cxx1118basic_stringstreamIcSt11char_traitsIcESaIcEEE
libIex-3_4.so.33:_ZN7Iex_3_49EisnamExcC2Ev
libIex-3_4.so.33:_ZN7Iex_3_49EisnamExcD0Ev
libIex-3_4.so.33:_ZN7Iex_3_49EisnamExcD1Ev
libIex-3_4.so.33:_ZN7Iex_3_49EisnamExcD2Ev
libIex-3_4.so.33:_ZN7Iex_3_49EisnamExcaSEOS0_
libIex-3_4.so.33:_ZN7Iex_3_49EisnamExcaSERS0_
libIex-3_4.so.33:_ZN7Iex_3_49El2hltExcC1EONSt7__cxx1112basic_stringIcSt11char_traitsIcESaIcEEE
libIex-3_4.so.33:_ZN7Iex_3_49El2hltExcC1EOS0_
libIex-3_4.so.33:_ZN7Iex_3_49El2hltExcC1EPKc
libIex-3_4.so.33:_ZN7Iex_3_49El2hltExcC1ERKNSt7__cxx1112basic_stringIcSt11char_traitsIcESaIcEEE
libIex-3_4.so.33:_ZN7Iex_3_49El2hltExcC1ERKS0_
libIex-3_4.so.33:_ZN7Iex_3_49El2hltExcC1ERNSt7__cxx1118basic_stringstreamIcSt11char_traitsIcESaIcEEE
libIex-3_4.so.33:_ZN7Iex_3_49El2hltExcC1Ev
libIex-3_4.so.33:_ZN7Iex_3_49El2hltExcC2EONSt7__cxx1112basic_stringIcSt11char_traitsIcESaIcEEE
libIex-3_4.so.33:_ZN7Iex_3_49El2hltExcC2EOS0_
libIex-3_4.so.33:_ZN7Iex_3_49El2hltExcC2EPKc
libIex-3_4.so.33:_ZN7Iex_3_49El2hltExcC2ERKNSt7__cxx1112basic_stringIcSt11char_traitsIcESaIcEEE
libIex-3_4.so.33:_ZN7Iex_3_49El2hltExcC2ERKS0_
libIex-3_4.so.33:_ZN7Iex_3_49El2hltExcC2ERNSt7__cxx1118basic_stringstreamIcSt11char_traitsIcESaIcEEE
libIex-3_4.so.33:_ZN7Iex_3_49El2hltExcC2Ev
libIex-3_4.so.33:_ZN7Iex_3_49El2hltExcD0Ev
libIex-3_4.so.33:_ZN7Iex_3_49El2hltExcD1Ev
libIex-3_4.so.33:_ZN7Iex_3_49El2hltExcD2Ev
libIex-3_4.so.33:_ZN7Iex_3_49El2hltExcaSEOS0_
libIex-3_4.so.33:_ZN7Iex_3_49El2hltExcaSERS0_
libIex-3_4.so.33:_ZN7Iex_3_49El3hltExcC1EONSt7__cxx1112basic_stringIcSt11char_traitsIcESaIcEEE
libIex-3_4.so.33:_ZN7Iex_3_49El3hltExcC1EOS0_
libIex-3_4.so.33:_ZN7Iex_3_49El3hltExcC1EPKc
libIex-3_4.so.33:_ZN7Iex_3_49El3hltExcC1ERKNSt7__cxx1112basic_stringIcSt11char_traitsIcESaIcEEE
libIex-3_4.so.33:_ZN7Iex_3_49El3hltExcC1ERKS0_
libIex-3_4.so.33:_ZN7Iex_3_49El3hltExcC1ERNSt7__cxx1118basic_stringstreamIcSt11char_traitsIcESaIcEEE
libIex-3_4.so.33:_ZN7Iex_3_49El3hltExcC1Ev
libIex-3_4.so.33:_ZN7Iex_3_49El3hltExcC2EONSt7__cxx1112basic_stringIcSt11char_traitsIcESaIcEEE
libIex-3_4.so.33:_ZN7Iex_3_49El3hltExcC2EOS0_
libIex-3_4.so.33:_ZN7Iex_3_49El3hltExcC2EPKc
libIex-3_4.so.33:_ZN7Iex_3_49El3hltExcC2ERKNSt7__cxx1112basic_stringIcSt11char_traitsIcESaIcEEE
libIex-3_4.so.33:_ZN7Iex_3_49El3hltExcC2ERKS0_
libIex-3_4.so.33:_ZN7Iex_3_49El3hltExcC2ERNSt7__cxx1118basic_stringstreamIcSt11char_traitsIcESaIcEEE
libIex-3_4.so.33:_ZN7Iex_3_49El3hltExcC2Ev
libIex-3_4.so.33:_ZN7Iex_3_49El3hltExcD0Ev
libIex-3_4.so.33:_ZN7Iex_3_49El3hltExcD1Ev
libIex-3_4.so.33:_ZN7Iex_3_49El3hltExcD2Ev
libIex-3_4.so.33:_ZN7Iex_3_49El3hltExcaSEOS0_
libIex-3_4.so.33:_ZN7Iex_3_49El3hltExcaSERS0_
libIex-3_4.so.33:_ZN7Iex_3_49El3rstExcC1EONSt7__cxx1112basic_stringIcSt11char_traitsIcESaIcEEE
libIex-3_4.so.33:_ZN7Iex_3_49El3rstExcC1EOS0_
libIex-3_4.so.33:_ZN7Iex_3_49El3rstExcC1EPKc
libIex-3_4.so.33:_ZN7Iex_3_49El3rstExcC1ERKNSt7__cxx1112basic_stringIcSt11char_traitsIcESaIcEEE
libIex-3_4.so.33:_ZN7Iex_3_49El3rstExcC1ERKS0_
libIex-3_4.so.33:_ZN7Iex_3_49El3rstExcC1ERNSt7__cxx1118basic_stringstreamIcSt11char_traitsIcESaIcEEE
libIex-3_4.so.33:_ZN7Iex_3_49El3rstExcC1Ev
libIex-3_4.so.33:_ZN7Iex_3_49El3rstExcC2EONSt7__cxx1112basic_stringIcSt11char_traitsIcESaIcEEE
libIex-3_4.so.33:_ZN7Iex_3_49El3rstExcC2EOS0_
libIex-3_4.so.33:_ZN7Iex_3_49El3rstExcC2EPKc
libIex-3_4.so.33:_ZN7Iex_3_49El3rstExcC2ERKNSt7__cxx1112basic_stringIcSt11char_traitsIcESaIcEEE
libIex-3_4.so.33:_ZN7Iex_3_49El3rstExcC2ERKS0_
libIex-3_4.so.33:_ZN7Iex_3_49El3rstExcC2ERNSt7__cxx1118basic_stringstreamIcSt11char_traitsIcESaIcEEE
libIex-3_4.so.33:_ZN7Iex_3_49El3rstExcC2Ev
libIex-3_4.so.33:_ZN7Iex_3_49El3rstExcD0Ev
libIex-3_4.so.33:_ZN7Iex_3_49El3rstExcD1Ev
libIex-3_4.so.33:_ZN7Iex_3_49El3rstExcD2Ev
libIex-3_4.so.33:_ZN7Iex_3_49El3rstExcaSEOS0_
libIex-3_4.so.33:_ZN7Iex_3_49El3rstExcaSERS0_
libIex-3_4.so.33:_ZN7Iex_3_49ElnrngExcC1EONSt7__cxx1112basic_stringIcSt11char_traitsIcESaIcEEE
libIex-3_4.so.33:_ZN7Iex_3_49ElnrngExcC1EOS0_
libIex-3_4.so.33:_ZN7Iex_3_49ElnrngExcC1EPKc
libIex-3_4.so.33:_ZN7Iex_3_49ElnrngExcC1ERKNSt7__cxx1112basic_stringIcSt11char_traitsIcESaIcEEE
libIex-3_4.so.33:_ZN7Iex_3_49ElnrngExcC1ERKS0_
libIex-3_4.so.33:_ZN7Iex_3_49ElnrngExcC1ERNSt7__cxx1118basic_stringstreamIcSt11char_traitsIcESaIcEEE
libIex-3_4.so.33:_ZN7Iex_3_49ElnrngExcC1Ev
libIex-3_4.so.33:_ZN7Iex_3_49ElnrngExcC2EONSt7__cxx1112basic_stringIcSt11char_traitsIcESaIcEEE
libIex-3_4.so.33:_ZN7Iex_3_49ElnrngExcC2EOS0_
libIex-3_4.so.33:_ZN7Iex_3_49ElnrngExcC2EPKc
libIex-3_4.so.33:_ZN7Iex_3_49ElnrngExcC2ERKNSt7__cxx1112basic_stringIcSt11char_traitsIcESaIcEEE
libIex-3_4.so.33:_ZN7Iex_3_49ElnrngExcC2ERKS0_
libIex-3_4.so.33:_ZN7Iex_3_49ElnrngExcC2ERNSt7__cxx1118basic_stringstreamIcSt11char_traitsIcESaIcEEE
libIex-3_4.so.33:_ZN7Iex_3_49ElnrngExcC2Ev
libIex-3_4.so.33:_ZN7Iex_3_49ElnrngExcD0Ev
libIex-3_4.so.33:_ZN7Iex_3_49ElnrngExcD1Ev
libIex-3_4.so.33:_ZN7Iex_3_49ElnrngExcD2Ev
libIex-3_4.so.33:_ZN7Iex_3_49ElnrngExcaSEOS0_
libIex-3_4.so.33:_ZN7Iex_3_49ElnrngExcaSERS0_
libIex-3_4.so.33:_ZN7Iex_3_49EmfileExcC1EONSt7__cxx1112basic_stringIcSt11char_traitsIcESaIcEEE
libIex-3_4.so.33:_ZN7Iex_3_49EmfileExcC1EOS0_
libIex-3_4.so.33:_ZN7Iex_3_49EmfileExcC1EPKc
libIex-3_4.so.33:_ZN7Iex_3_49EmfileExcC1ERKNSt7__cxx1112basic_stringIcSt11char_traitsIcESaIcEEE
libIex-3_4.so.33:_ZN7Iex_3_49EmfileExcC1ERKS0_
libIex-3_4.so.33:_ZN7Iex_3_49EmfileExcC1ERNSt7__cxx1118basic_stringstreamIcSt11char_traitsIcESaIcEEE
libIex-3_4.so.33:_ZN7Iex_3_49EmfileExcC1Ev
libIex-3_4.so.33:_ZN7Iex_3_49EmfileExcC2EONSt7__cxx1112basic_stringIcSt11char_traitsIcESaIcEEE
libIex-3_4.so.33:_ZN7Iex_3_49EmfileExcC2EOS0_
libIex-3_4.so.33:_ZN7Iex_3_49EmfileExcC2EPKc
libIex-3_4.so.33:_ZN7Iex_3_49EmfileExcC2ERKNSt7__cxx1112basic_stringIcSt11char_traitsIcESaIcEEE
libIex-3_4.so.33:_ZN7Iex_3_49EmfileExcC2ERKS0_
libIex-3_4.so.33:_ZN7Iex_3_49EmfileExcC2ERNSt7__cxx1118basic_stringstreamIcSt11char_traitsIcESaIcEEE
libIex-3_4.so.33:_ZN7Iex_3_49EmfileExcC2Ev
libIex-3_4.so.33:_ZN7Iex_3_49EmfileExcD0Ev
libIex-3_4.so.33:_ZN7Iex_3_49EmfileExcD1Ev
libIex-3_4.so.33:_ZN7Iex_3_49EmfileExcD2Ev
libIex-3_4.so.33:_ZN7Iex_3_49EmfileExcaSEOS0_
libIex-3_4.so.33:_ZN7Iex_3_49EmfileExcaSERS0_
libIex-3_4.so.33:_ZN7Iex_3_49EmlinkExcC1EONSt7__cxx1112basic_stringIcSt11char_traitsIcESaIcEEE
libIex-3_4.so.33:_ZN7Iex_3_49EmlinkExcC1EOS0_
libIex-3_4.so.33:_ZN7Iex_3_49EmlinkExcC1EPKc
libIex-3_4.so.33:_ZN7Iex_3_49EmlinkExcC1ERKNSt7__cxx1112basic_stringIcSt11char_traitsIcESaIcEEE
libIex-3_4.so.33:_ZN7Iex_3_49EmlinkExcC1ERKS0_
libIex-3_4.so.33:_ZN7Iex_3_49EmlinkExcC1ERNSt7__cxx1118basic_stringstreamIcSt11char_traitsIcESaIcEEE
libIex-3_4.so.33:_ZN7Iex_3_49EmlinkExcC1Ev
libIex-3_4.so.33:_ZN7Iex_3_49EmlinkExcC2EONSt7__cxx1112basic_stringIcSt11char_traitsIcESaIcEEE
libIex-3_4.so.33:_ZN7Iex_3_49EmlinkExcC2EOS0_
libIex-3_4.so.33:_ZN7Iex_3_49EmlinkExcC2EPKc
libIex-3_4.so.33:_ZN7Iex_3_49EmlinkExcC2ERKNSt7__cxx1112basic_stringIcSt11char_traitsIcESaIcEEE
libIex-3_4.so.33:_ZN7Iex_3_49EmlinkExcC2ERKS0_
libIex-3_4.so.33:_ZN7Iex_3_49EmlinkExcC2ERNSt7__cxx1118basic_stringstreamIcSt11char_traitsIcESaIcEEE
libIex-3_4.so.33:_ZN7Iex_3_49EmlinkExcC2Ev
libIex-3_4.so.33:_ZN7Iex_3_49EmlinkExcD0Ev
libIex-3_4.so.33:_ZN7Iex_3_49EmlinkExcD1Ev
libIex-3_4.so.33:_ZN7Iex_3_49EmlinkExcD2Ev
libIex-3_4.so.33:_ZN7Iex_3_49EmlinkExcaSEOS0_
libIex-3_4.so.33:_ZN7Iex_3_49EmlinkExcaSERS0_
libIex-3_4.so.33:_ZN7Iex_3_49EnfileExcC1EONSt7__cxx1112basic_stringIcSt11char_traitsIcESaIcEEE
libIex-3_4.so.33:_ZN7Iex_3_49EnfileExcC1EOS0_
libIex-3_4.so.33:_ZN7Iex_3_49EnfileExcC1EPKc
libIex-3_4.so.33:_ZN7Iex_3_49EnfileExcC1ERKNSt7__cxx1112basic_stringIcSt11char_traitsIcESaIcEEE
libIex-3_4.so.33:_ZN7Iex_3_49EnfileExcC1ERKS0_
libIex-3_4.so.33:_ZN7Iex_3_49EnfileExcC1ERNSt7__cxx1118basic_stringstreamIcSt11char_traitsIcESaIcEEE
libIex-3_4.so.33:_ZN7Iex_3_49EnfileExcC1Ev
libIex-3_4.so.33:_ZN7Iex_3_49EnfileExcC2EONSt7__cxx1112basic_stringIcSt11char_traitsIcESaIcEEE
libIex-3_4.so.33:_ZN7Iex_3_49EnfileExcC2EOS0_
libIex-3_4.so.33:_ZN7Iex_3_49EnfileExcC2EPKc
libIex-3_4.so.33:_ZN7Iex_3_49EnfileExcC2ERKNSt7__cxx1112basic_stringIcSt11char_traitsIcESaIcEEE
libIex-3_4.so.33:_ZN7Iex_3_49EnfileExcC2ERKS0_
libIex-3_4.so.33:_ZN7Iex_3_49EnfileExcC2ERNSt7__cxx1118basic_stringstreamIcSt11char_traitsIcESaIcEEE
libIex-3_4.so.33:_ZN7Iex_3_49EnfileExcC2Ev
libIex-3_4.so.33:_ZN7Iex_3_49EnfileExcD0Ev
libIex-3_4.so.33:_ZN7Iex_3_49EnfileExcD1Ev
libIex-3_4.so.33:_ZN7Iex_3_49EnfileExcD2Ev
libIex-3_4.so.33:_ZN7Iex_3_49EnfileExcaSEOS0_
libIex-3_4.so.33:_ZN7Iex_3_49EnfileExcaSERS0_
libIex-3_4.so.33:_ZN7Iex_3_49EnoanoExcC1EONSt7__cxx1112basic_stringIcSt11char_traitsIcESaIcEEE
libIex-3_4.so.33:_ZN7Iex_3_49EnoanoExcC1EOS0_
libIex-3_4.so.33:_ZN7Iex_3_49EnoanoExcC1EPKc
libIex-3_4.so.33:_ZN7Iex_3_49EnoanoExcC1ERKNSt7__cxx1112basic_stringIcSt11char_traitsIcESaIcEEE
libIex-3_4.so.33:_ZN7Iex_3_49EnoanoExcC1ERKS0_
libIex-3_4.so.33:_ZN7Iex_3_49EnoanoExcC1ERNSt7__cxx1118basic_stringstreamIcSt11char_traitsIcESaIcEEE
libIex-3_4.so.33:_ZN7Iex_3_49EnoanoExcC1Ev
libIex-3_4.so.33:_ZN7Iex_3_49EnoanoExcC2EONSt7__cxx1112basic_stringIcSt11char_traitsIcESaIcEEE
libIex-3_4.so.33:_ZN7Iex_3_49EnoanoExcC2EOS0_
libIex-3_4.so.33:_ZN7Iex_3_49EnoanoExcC2EPKc
libIex-3_4.so.33:_ZN7Iex_3_49EnoanoExcC2ERKNSt7__cxx1112basic_stringIcSt11char_traitsIcESaIcEEE
libIex-3_4.so.33:_ZN7Iex_3_49EnoanoExcC2ERKS0_
libIex-3_4.so.33:_ZN7Iex_3_49EnoanoExcC2ERNSt7__cxx1118basic_stringstreamIcSt11char_traitsIcESaIcEEE
libIex-3_4.so.33:_ZN7Iex_3_49EnoanoExcC2Ev
libIex-3_4.so.33:_ZN7Iex_3_49EnoanoExcD0Ev
libIex-3_4.so.33:_ZN7Iex_3_49EnoanoExcD1Ev
libIex-3_4.so.33:_ZN7Iex_3_49EnoanoExcD2Ev
libIex-3_4.so.33:_ZN7Iex_3_49EnoanoExcaSEOS0_
libIex-3_4.so.33:_ZN7Iex_3_49EnoanoExcaSERS0_
libIex-3_4.so.33:_ZN7Iex_3_49EnocsiExcC1EONSt7__cxx1112basic_stringIcSt11char_traitsIcESaIcEEE
libIex-3_4.so.33:_ZN7Iex_3_49EnocsiExcC1EOS0_
libIex-3_4.so.33:_ZN7Iex_3_49EnocsiExcC1EPKc
libIex-3_4.so.33:_ZN7Iex_3_49EnocsiExcC1ERKNSt7__cxx1112basic_stringIcSt11char_traitsIcESaIcEEE
libIex-3_4.so.33:_ZN7Iex_3_49EnocsiExcC1ERKS0_
libIex-3_4.so.33:_ZN7Iex_3_49EnocsiExcC1ERNSt7__cxx1118basic_stringstreamIcSt11char_traitsIcESaIcEEE
libIex-3_4.so.33:_ZN7Iex_3_49EnocsiExcC1Ev
libIex-3_4.so.33:_ZN7Iex_3_49EnocsiExcC2EONSt7__cxx1112basic_stringIcSt11char_traitsIcESaIcEEE
libIex-3_4.so.33:_ZN7Iex_3_49EnocsiExcC2EOS0_
libIex-3_4.so.33:_ZN7Iex_3_49EnocsiExcC2EPKc
libIex-3_4.so.33:_ZN7Iex_3_49EnocsiExcC2ERKNSt7__cxx1112basic_stringIcSt11char_traitsIcESaIcEEE
libIex-3_4.so.33:_ZN7Iex_3_49EnocsiExcC2ERKS0_
libIex-3_4.so.33:_ZN7Iex_3_49EnocsiExcC2ERNSt7__cxx1118basic_stringstreamIcSt11char_traitsIcESaIcEEE
libIex-3_4.so.33:_ZN7Iex_3_49EnocsiExcC2Ev
libIex-3_4.so.33:_ZN7Iex_3_49EnocsiExcD0Ev
libIex-3_4.so.33:_ZN7Iex_3_49EnocsiExcD1Ev
libIex-3_4.so.33:_ZN7Iex_3_49EnocsiExcD2Ev
libIex-3_4.so.33:_ZN7Iex_3_49EnocsiExcaSEOS0_
libIex-3_4.so.33:_ZN7Iex_3_49EnocsiExcaSERS0_
libIex-3_4.so.33:_ZN7Iex_3_49EnodevExcC1EONSt7__cxx1112basic_stringIcSt11char_traitsIcESaIcEEE
libIex-3_4.so.33:_ZN7Iex_3_49EnodevExcC1EOS0_
libIex-3_4.so.33:_ZN7Iex_3_49EnodevExcC1EPKc
libIex-3_4.so.33:_ZN7Iex_3_49EnodevExcC1ERKNSt7__cxx1112basic_stringIcSt11char_traitsIcESaIcEEE
libIex-3_4.so.33:_ZN7Iex_3_49EnodevExcC1ERKS0_
libIex-3_4.so.33:_ZN7Iex_3_49EnodevExcC1ERNSt7__cxx1118basic_stringstreamIcSt11char_traitsIcESaIcEEE
libIex-3_4.so.33:_ZN7Iex_3_49EnodevExcC1Ev
libIex-3_4.so.33:_ZN7Iex_3_49EnodevExcC2EONSt7__cxx1112basic_stringIcSt11char_traitsIcESaIcEEE
libIex-3_4.so.33:_ZN7Iex_3_49EnodevExcC2EOS0_
libIex-3_4.so.33:_ZN7Iex_3_49EnodevExcC2EPKc
libIex-3_4.so.33:_ZN7Iex_3_49EnodevExcC2ERKNSt7__cxx1112basic_stringIcSt11char_traitsIcESaIcEEE
libIex-3_4.so.33:_ZN7Iex_3_49EnodevExcC2ERKS0_
libIex-3_4.so.33:_ZN7Iex_3_49EnodevExcC2ERNSt7__cxx1118basic_stringstreamIcSt11char_traitsIcESaIcEEE
libIex-3_4.so.33:_ZN7Iex_3_49EnodevExcC2Ev
libIex-3_4.so.33:_ZN7Iex_3_49EnodevExcD0Ev
libIex-3_4.so.33:_ZN7Iex_3_49EnodevExcD1Ev
libIex-3_4.so.33:_ZN7Iex_3_49EnodevExcD2Ev
libIex-3_4.so.33:_ZN7Iex_3_49EnodevExcaSEOS0_
libIex-3_4.so.33:_ZN7Iex_3_49EnodevExcaSERS0_
libIex-3_4.so.33:_ZN7Iex_3_49EnoentExcC1EONSt7__cxx1112basic_stringIcSt11char_traitsIcESaIcEEE
libIex-3_4.so.33:_ZN7Iex_3_49EnoentExcC1EOS0_
libIex-3_4.so.33:_ZN7Iex_3_49EnoentExcC1EPKc
libIex-3_4.so.33:_ZN7Iex_3_49EnoentExcC1ERKNSt7__cxx1112basic_stringIcSt11char_traitsIcESaIcEEE
libIex-3_4.so.33:_ZN7Iex_3_49EnoentExcC1ERKS0_
libIex-3_4.so.33:_ZN7Iex_3_49EnoentExcC1ERNSt7__cxx1118basic_stringstreamIcSt11char_traitsIcESaIcEEE
libIex-3_4.so.33:_ZN7Iex_3_49EnoentExcC1Ev
libIex-3_4.so.33:_ZN7Iex_3_49EnoentExcC2EONSt7__cxx1112basic_stringIcSt11char_traitsIcESaIcEEE
libIex-3_4.so.33:_ZN7Iex_3_49EnoentExcC2EOS0_
libIex-3_4.so.33:_ZN7Iex_3_49EnoentExcC2EPKc
libIex-3_4.so.33:_ZN7Iex_3_49EnoentExcC2ERKNSt7__cxx1112basic_stringIcSt11char_traitsIcESaIcEEE
libIex-3_4.so.33:_ZN7Iex_3_49EnoentExcC2ERKS0_
libIex-3_4.so.33:_ZN7Iex_3_49EnoentExcC2ERNSt7__cxx1118basic_stringstreamIcSt11char_traitsIcESaIcEEE
libIex-3_4.so.33:_ZN7Iex_3_49EnoentExcC2Ev
libIex-3_4.so.33:_ZN7Iex_3_49EnoentExcD0Ev
libIex-3_4.so.33:_ZN7Iex_3_49EnoentExcD1Ev
libIex-3_4.so.33:_ZN7Iex_3_49EnoentExcD2Ev
libIex-3_4.so.33:_ZN7Iex_3_49EnoentExcaSEOS0_
libIex-3_4.so.33:_ZN7Iex_3_49EnoentExcaSERS0_
libIex-3_4.so.33:_ZN7Iex_3_49EnolckExcC1EONSt7__cxx1112basic_stringIcSt11char_traitsIcESaIcEEE
libIex-3_4.so.33:_ZN7Iex_3_49EnolckExcC1EOS0_
libIex-3_4.so.33:_ZN7Iex_3_49EnolckExcC1EPKc
libIex-3_4.so.33:_ZN7Iex_3_49EnolckExcC1ERKNSt7__cxx1112basic_stringIcSt11char_traitsIcESaIcEEE
libIex-3_4.so.33:_ZN7Iex_3_49EnolckExcC1ERKS0_
libIex-3_4.so.33:_ZN7Iex_3_49EnolckExcC1ERNSt7__cxx1118basic_stringstreamIcSt11char_traitsIcESaIcEEE
libIex-3_4.so.33:_ZN7Iex_3_49EnolckExcC1Ev
libIex-3_4.so.33:_ZN7Iex_3_49EnolckExcC2EONSt7__cxx1112basic_stringIcSt11char_traitsIcESaIcEEE
libIex-3_4.so.33:_ZN7Iex_3_49EnolckExcC2EOS0_
libIex-3_4.so.33:_ZN7Iex_3_49EnolckExcC2EPKc
libIex-3_4.so.33:_ZN7Iex_3_49EnolckExcC2ERKNSt7__cxx1112basic_stringIcSt11char_traitsIcESaIcEEE
libIex-3_4.so.33:_ZN7Iex_3_49EnolckExcC2ERKS0_
libIex-3_4.so.33:_ZN7Iex_3_49EnolckExcC2ERNSt7__cxx1118basic_stringstreamIcSt11char_traitsIcESaIcEEE
libIex-3_4.so.33:_ZN7Iex_3_49EnolckExcC2Ev
libIex-3_4.so.33:_ZN7Iex_3_49EnolckExcD0Ev
libIex-3_4.so.33:_ZN7Iex_3_49EnolckExcD1Ev
libIex-3_4.so.33:_ZN7Iex_3_49EnolckExcD2Ev
libIex-3_4.so.33:_ZN7Iex_3_49EnolckExcaSEOS0_
libIex-3_4.so.33:_ZN7Iex_3_49EnolckExcaSERS0_
libIex-3_4.so.33:_ZN7Iex_3_49EnomemExcC1EONSt7__cxx1112basic_stringIcSt11char_traitsIcESaIcEEE
libIex-3_4.so.33:_ZN7Iex_3_49EnomemExcC1EOS0_
libIex-3_4.so.33:_ZN7Iex_3_49EnomemExcC1EPKc
libIex-3_4.so.33:_ZN7Iex_3_49EnomemExcC1ERKNSt7__cxx1112basic_stringIcSt11char_traitsIcESaIcEEE
libIex-3_4.so.33:_ZN7Iex_3_49EnomemExcC1ERKS0_
libIex-3_4.so.33:_ZN7Iex_3_49EnomemExcC1ERNSt7__cxx1118basic_stringstreamIcSt11char_traitsIcESaIcEEE
libIex-3_4.so.33:_ZN7Iex_3_49EnomemExcC1Ev
libIex-3_4.so.33:_ZN7Iex_3_49EnomemExcC2EONSt7__cxx1112basic_stringIcSt11char_traitsIcESaIcEEE
libIex-3_4.so.33:_ZN7Iex_3_49EnomemExcC2EOS0_
libIex-3_4.so.33:_ZN7Iex_3_49EnomemExcC2EPKc
libIex-3_4.so.33:_ZN7Iex_3_49EnomemExcC2ERKNSt7__cxx1112basic_stringIcSt11char_traitsIcESaIcEEE
libIex-3_4.so.33:_ZN7Iex_3_49EnomemExcC2ERKS0_
libIex-3_4.so.33:_ZN7Iex_3_49EnomemExcC2ERNSt7__cxx1118basic_stringstreamIcSt11char_traitsIcESaIcEEE
libIex-3_4.so.33:_ZN7Iex_3_49EnomemExcC2Ev
libIex-3_4.so.33:_ZN7Iex_3_49EnomemExcD0Ev
libIex-3_4.so.33:_ZN7Iex_3_49EnomemExcD1Ev
libIex-3_4.so.33:_ZN7Iex_3_49EnomemExcD2Ev
libIex-3_4.so.33:_ZN7Iex_3_49EnomemExcaSEOS0_
libIex-3_4.so.33:_ZN7Iex_3_49EnomemExcaSERS0_
libIex-3_4.so.33:_ZN7Iex_3_49EnomsgExcC1EONSt7__cxx1112basic_stringIcSt11char_traitsIcESaIcEEE
libIex-3_4.so.33:_ZN7Iex_3_49EnomsgExcC1EOS0_
libIex-3_4.so.33:_ZN7Iex_3_49EnomsgExcC1EPKc
libIex-3_4.so.33:_ZN7Iex_3_49EnomsgExcC1ERKNSt7__cxx1112basic_stringIcSt11char_traitsIcESaIcEEE
libIex-3_4.so.33:_ZN7Iex_3_49EnomsgExcC1ERKS0_
libIex-3_4.so.33:_ZN7Iex_3_49EnomsgExcC1ERNSt7__cxx1118basic_stringstreamIcSt11char_traitsIcESaIcEEE
libIex-3_4.so.33:_ZN7Iex_3_49EnomsgExcC1Ev
libIex-3_4.so.33:_ZN7Iex_3_49EnomsgExcC2EONSt7__cxx1112basic_stringIcSt11char_traitsIcESaIcEEE
libIex-3_4.so.33:_ZN7Iex_3_49EnomsgExcC2EOS0_
libIex-3_4.so.33:_ZN7Iex_3_49EnomsgExcC2EPKc
libIex-3_4.so.33:_ZN7Iex_3_49EnomsgExcC2ERKNSt7__cxx1112basic_stringIcSt11char_traitsIcESaIcEEE
libIex-3_4.so.33:_ZN7Iex_3_49EnomsgExcC2ERKS0_
libIex-3_4.so.33:_ZN7Iex_3_49EnomsgExcC2ERNSt7__cxx1118basic_stringstreamIcSt11char_traitsIcESaIcEEE
libIex-3_4.so.33:_ZN7Iex_3_49EnomsgExcC2Ev
libIex-3_4.so.33:_ZN7Iex_3_49EnomsgExcD0Ev
libIex-3_4.so.33:_ZN7Iex_3_49EnomsgExcD1Ev
libIex-3_4.so.33:_ZN7Iex_3_49EnomsgExcD2Ev
libIex-3_4.so.33:_ZN7Iex_3_49EnomsgExcaSEOS0_
libIex-3_4.so.33:_ZN7Iex_3_49EnomsgExcaSERS0_
libIex-3_4.so.33:_ZN7Iex_3_49EnonetExcC1EONSt7__cxx1112basic_stringIcSt11char_traitsIcESaIcEEE
libIex-3_4.so.33:_ZN7Iex_3_49EnonetExcC1EOS0_
libIex-3_4.so.33:_ZN7Iex_3_49EnonetExcC1EPKc
libIex-3_4.so.33:_ZN7Iex_3_49EnonetExcC1ERKNSt7__cxx1112basic_stringIcSt11char_traitsIcESaIcEEE
libIex-3_4.so.33:_ZN7Iex_3_49EnonetExcC1ERKS0_
libIex-3_4.so.33:_ZN7Iex_3_49EnonetExcC1ERNSt7__cxx1118basic_stringstreamIcSt11char_traitsIcESaIcEEE
libIex-3_4.so.33:_ZN7Iex_3_49EnonetExcC1Ev
libIex-3_4.so.33:_ZN7Iex_3_49EnonetExcC2EONSt7__cxx1112basic_stringIcSt11char_traitsIcESaIcEEE
libIex-3_4.so.33:_ZN7Iex_3_49EnonetExcC2EOS0_
libIex-3_4.so.33:_ZN7Iex_3_49EnonetExcC2EPKc
libIex-3_4.so.33:_ZN7Iex_3_49EnonetExcC2ERKNSt7__cxx1112basic_stringIcSt11char_traitsIcESaIcEEE
libIex-3_4.so.33:_ZN7Iex_3_49EnonetExcC2ERKS0_
libIex-3_4.so.33:_ZN7Iex_3_49EnonetExcC2ERNSt7__cxx1118basic_stringstreamIcSt11char_traitsIcESaIcEEE
libIex-3_4.so.33:_ZN7Iex_3_49EnonetExcC2Ev
libIex-3_4.so.33:_ZN7Iex_3_49EnonetExcD0Ev
libIex-3_4.so.33:_ZN7Iex_3_49EnonetExcD1Ev
libIex-3_4.so.33:_ZN7Iex_3_49EnonetExcD2Ev
libIex-3_4.so.33:_ZN7Iex_3_49EnonetExcaSEOS0_
libIex-3_4.so.33:_ZN7Iex_3_49EnonetExcaSERS0_
libIex-3_4.so.33:_ZN7Iex_3_49EnopkgExcC1EONSt7__cxx1112basic_stringIcSt11char_traitsIcESaIcEEE
libIex-3_4.so.33:_ZN7Iex_3_49EnopkgExcC1EOS0_
libIex-3_4.so.33:_ZN7Iex_3_49EnopkgExcC1EPKc
libIex-3_4.so.33:_ZN7Iex_3_49EnopkgExcC1ERKNSt7__cxx1112basic_stringIcSt11char_traitsIcESaIcEEE
libIex-3_4.so.33:_ZN7Iex_3_49EnopkgExcC1ERKS0_
libIex-3_4.so.33:_ZN7Iex_3_49EnopkgExcC1ERNSt7__cxx1118basic_stringstreamIcSt11char_traitsIcESaIcEEE
libIex-3_4.so.33:_ZN7Iex_3_49EnopkgExcC1Ev
libIex-3_4.so.33:_ZN7Iex_3_49EnopkgExcC2EONSt7__cxx1112basic_stringIcSt11char_traitsIcESaIcEEE
libIex-3_4.so.33:_ZN7Iex_3_49EnopkgExcC2EOS0_
libIex-3_4.so.33:_ZN7Iex_3_49EnopkgExcC2EPKc
libIex-3_4.so.33:_ZN7Iex_3_49EnopkgExcC2ERKNSt7__cxx1112basic_stringIcSt11char_traitsIcESaIcEEE
libIex-3_4.so.33:_ZN7Iex_3_49EnopkgExcC2ERKS0_
libIex-3_4.so.33:_ZN7Iex_3_49EnopkgExcC2ERNSt7__cxx1118basic_stringstreamIcSt11char_traitsIcESaIcEEE
libIex-3_4.so.33:_ZN7Iex_3_49EnopkgExcC2Ev
libIex-3_4.so.33:_ZN7Iex_3_49EnopkgExcD0Ev
libIex-3_4.so.33:_ZN7Iex_3_49EnopkgExcD1Ev
libIex-3_4.so.33:_ZN7Iex_3_49EnopkgExcD2Ev
libIex-3_4.so.33:_ZN7Iex_3_49EnopkgExcaSEOS0_
libIex-3_4.so.33:_ZN7Iex_3_49EnopkgExcaSERS0_
libIex-3_4.so.33:_ZN7Iex_3_49EnospcExcC1EONSt7__cxx1112basic_stringIcSt11char_traitsIcESaIcEEE
libIex-3_4.so.33:_ZN7Iex_3_49EnospcExcC1EOS0_
libIex-3_4.so.33:_ZN7Iex_3_49EnospcExcC1EPKc
libIex-3_4.so.33:_ZN7Iex_3_49EnospcExcC1ERKNSt7__cxx1112basic_stringIcSt11char_traitsIcESaIcEEE
libIex-3_4.so.33:_ZN7Iex_3_49EnospcExcC1ERKS0_
libIex-3_4.so.33:_ZN7Iex_3_49EnospcExcC1ERNSt7__cxx1118basic_stringstreamIcSt11char_traitsIcESaIcEEE
libIex-3_4.so.33:_ZN7Iex_3_49EnospcExcC1Ev
libIex-3_4.so.33:_ZN7Iex_3_49EnospcExcC2EONSt7__cxx1112basic_stringIcSt11char_traitsIcESaIcEEE
libIex-3_4.so.33:_ZN7Iex_3_49EnospcExcC2EOS0_
libIex-3_4.so.33:_ZN7Iex_3_49EnospcExcC2EPKc
libIex-3_4.so.33:_ZN7Iex_3_49EnospcExcC2ERKNSt7__cxx1112basic_stringIcSt11char_traitsIcESaIcEEE
libIex-3_4.so.33:_ZN7Iex_3_49EnospcExcC2ERKS0_
libIex-3_4.so.33:_ZN7Iex_3_49EnospcExcC2ERNSt7__cxx1118basic_stringstreamIcSt11char_traitsIcESaIcEEE
libIex-3_4.so.33:_ZN7Iex_3_49EnospcExcC2Ev
libIex-3_4.so.33:_ZN7Iex_3_49EnospcExcD0Ev
libIex-3_4.so.33:_ZN7Iex_3_49EnospcExcD1Ev
libIex-3_4.so.33:_ZN7Iex_3_49EnospcExcD2Ev
libIex-3_4.so.33:_ZN7Iex_3_49EnospcExcaSEOS0_
libIex-3_4.so.33:_ZN7Iex_3_49EnospcExcaSERS0_
libIex-3_4.so.33:_ZN7Iex_3_49EnostrExcC1EONSt7__cxx1112basic_stringIcSt11char_traitsIcESaIcEEE
libIex-3_4.so.33:_ZN7Iex_3_49EnostrExcC1EOS0_
libIex-3_4.so.33:_ZN7Iex_3_49EnostrExcC1EPKc
libIex-3_4.so.33:_ZN7Iex_3_49EnostrExcC1ERKNSt7__cxx1112basic_stringIcSt11char_traitsIcESaIcEEE
libIex-3_4.so.33:_ZN7Iex_3_49EnostrExcC1ERKS0_
libIex-3_4.so.33:_ZN7Iex_3_49EnostrExcC1ERNSt7__cxx1118basic_stringstreamIcSt11char_traitsIcESaIcEEE
libIex-3_4.so.33:_ZN7Iex_3_49EnostrExcC1Ev
libIex-3_4.so.33:_ZN7Iex_3_49EnostrExcC2EONSt7__cxx1112basic_stringIcSt11char_traitsIcESaIcEEE
libIex-3_4.so.33:_ZN7Iex_3_49EnostrExcC2EOS0_
libIex-3_4.so.33:_ZN7Iex_3_49EnostrExcC2EPKc
libIex-3_4.so.33:_ZN7Iex_3_49EnostrExcC2ERKNSt7__cxx1112basic_stringIcSt11char_traitsIcESaIcEEE
libIex-3_4.so.33:_ZN7Iex_3_49EnostrExcC2ERKS0_
libIex-3_4.so.33:_ZN7Iex_3_49EnostrExcC2ERNSt7__cxx1118basic_stringstreamIcSt11char_traitsIcESaIcEEE
libIex-3_4.so.33:_ZN7Iex_3_49EnostrExcC2Ev
libIex-3_4.so.33:_ZN7Iex_3_49EnostrExcD0Ev
libIex-3_4.so.33:_ZN7Iex_3_49EnostrExcD1Ev
libIex-3_4.so.33:_ZN7Iex_3_49EnostrExcD2Ev
libIex-3_4.so.33:_ZN7Iex_3_49EnostrExcaSEOS0_
libIex-3_4.so.33:_ZN7Iex_3_49EnostrExcaSERS0_
libIex-3_4.so.33:_ZN7Iex_3_49EnosysExcC1EONSt7__cxx1112basic_stringIcSt11char_traitsIcESaIcEEE
libIex-3_4.so.33:_ZN7Iex_3_49EnosysExcC1EOS0_
libIex-3_4.so.33:_ZN7Iex_3_49EnosysExcC1EPKc
libIex-3_4.so.33:_ZN7Iex_3_49EnosysExcC1ERKNSt7__cxx1112basic_stringIcSt11char_traitsIcESaIcEEE
libIex-3_4.so.33:_ZN7Iex_3_49EnosysExcC1ERKS0_
libIex-3_4.so.33:_ZN7Iex_3_49EnosysExcC1ERNSt7__cxx1118basic_stringstreamIcSt11char_traitsIcESaIcEEE
libIex-3_4.so.33:_ZN7Iex_3_49EnosysExcC1Ev
libIex-3_4.so.33:_ZN7Iex_3_49EnosysExcC2EONSt7__cxx1112basic_stringIcSt11char_traitsIcESaIcEEE
libIex-3_4.so.33:_ZN7Iex_3_49EnosysExcC2EOS0_
libIex-3_4.so.33:_ZN7Iex_3_49EnosysExcC2EPKc
libIex-3_4.so.33:_ZN7Iex_3_49EnosysExcC2ERKNSt7__cxx1112basic_stringIcSt11char_traitsIcESaIcEEE
libIex-3_4.so.33:_ZN7Iex_3_49EnosysExcC2ERKS0_
libIex-3_4.so.33:_ZN7Iex_3_49EnosysExcC2ERNSt7__cxx1118basic_stringstreamIcSt11char_traitsIcESaIcEEE
libIex-3_4.so.33:_ZN7Iex_3_49EnosysExcC2Ev
libIex-3_4.so.33:_ZN7Iex_3_49EnosysExcD0Ev
libIex-3_4.so.33:_ZN7Iex_3_49EnosysExcD1Ev
libIex-3_4.so.33:_ZN7Iex_3_49EnosysExcD2Ev
libIex-3_4.so.33:_ZN7Iex_3_49EnosysExcaSEOS0_
libIex-3_4.so.33:_ZN7Iex_3_49EnosysExcaSERS0_
libIex-3_4.so.33:_ZN7Iex_3_49EnottyExcC1EONSt7__cxx1112basic_stringIcSt11char_traitsIcESaIcEEE
libIex-3_4.so.33:_ZN7Iex_3_49EnottyExcC1EOS0_
libIex-3_4.so.33:_ZN7Iex_3_49EnottyExcC1EPKc
libIex-3_4.so.33:_ZN7Iex_3_49EnottyExcC1ERKNSt7__cxx1112basic_stringIcSt11char_traitsIcESaIcEEE
libIex-3_4.so.33:_ZN7Iex_3_49EnottyExcC1ERKS0_
libIex-3_4.so.33:_ZN7Iex_3_49EnottyExcC1ERNSt7__cxx1118basic_stringstreamIcSt11char_traitsIcESaIcEEE
libIex-3_4.so.33:_ZN7Iex_3_49EnottyExcC1Ev
libIex-3_4.so.33:_ZN7Iex_3_49EnottyExcC2EONSt7__cxx1112basic_stringIcSt11char_traitsIcESaIcEEE
libIex-3_4.so.33:_ZN7Iex_3_49EnottyExcC2EOS0_
libIex-3_4.so.33:_ZN7Iex_3_49EnottyExcC2EPKc
libIex-3_4.so.33:_ZN7Iex_3_49EnottyExcC2ERKNSt7__cxx1112basic_stringIcSt11char_traitsIcESaIcEEE
libIex-3_4.so.33:_ZN7Iex_3_49EnottyExcC2ERKS0_
libIex-3_4.so.33:_ZN7Iex_3_49EnottyExcC2ERNSt7__cxx1118basic_stringstreamIcSt11char_traitsIcESaIcEEE
libIex-3_4.so.33:_ZN7Iex_3_49EnottyExcC2Ev
libIex-3_4.so.33:_ZN7Iex_3_49EnottyExcD0Ev
libIex-3_4.so.33:_ZN7Iex_3_49EnottyExcD1Ev
libIex-3_4.so.33:_ZN7Iex_3_49EnottyExcD2Ev
libIex-3_4.so.33:_ZN7Iex_3_49EnottyExcaSEOS0_
libIex-3_4.so.33:_ZN7Iex_3_49EnottyExcaSERS0_
libIex-3_4.so.33:_ZN7Iex_3_49EprotoExcC1EONSt7__cxx1112basic_stringIcSt11char_traitsIcESaIcEEE
libIex-3_4.so.33:_ZN7Iex_3_49EprotoExcC1EOS0_
libIex-3_4.so.33:_ZN7Iex_3_49EprotoExcC1EPKc
libIex-3_4.so.33:_ZN7Iex_3_49EprotoExcC1ERKNSt7__cxx1112basic_stringIcSt11char_traitsIcESaIcEEE
libIex-3_4.so.33:_ZN7Iex_3_49EprotoExcC1ERKS0_
libIex-3_4.so.33:_ZN7Iex_3_49EprotoExcC1ERNSt7__cxx1118basic_stringstreamIcSt11char_traitsIcESaIcEEE
libIex-3_4.so.33:_ZN7Iex_3_49EprotoExcC1Ev
libIex-3_4.so.33:_ZN7Iex_3_49EprotoExcC2EONSt7__cxx1112basic_stringIcSt11char_traitsIcESaIcEEE
libIex-3_4.so.33:_ZN7Iex_3_49EprotoExcC2EOS0_
libIex-3_4.so.33:_ZN7Iex_3_49EprotoExcC2EPKc
libIex-3_4.so.33:_ZN7Iex_3_49EprotoExcC2ERKNSt7__cxx1112basic_stringIcSt11char_traitsIcESaIcEEE
libIex-3_4.so.33:_ZN7Iex_3_49EprotoExcC2ERKS0_
libIex-3_4.so.33:_ZN7Iex_3_49EprotoExcC2ERNSt7__cxx1118basic_stringstreamIcSt11char_traitsIcESaIcEEE
libIex-3_4.so.33:_ZN7Iex_3_49EprotoExcC2Ev
libIex-3_4.so.33:_ZN7Iex_3_49EprotoExcD0Ev
libIex-3_4.so.33:_ZN7Iex_3_49EprotoExcD1Ev
libIex-3_4.so.33:_ZN7Iex_3_49EprotoExcD2Ev
libIex-3_4.so.33:_ZN7Iex_3_49EprotoExcaSEOS0_
libIex-3_4.so.33:_ZN7Iex_3_49EprotoExcaSERS0_
libIex-3_4.so.33:_ZN7Iex_3_49ErangeExcC1EONSt7__cxx1112basic_stringIcSt11char_traitsIcESaIcEEE
libIex-3_4.so.33:_ZN7Iex_3_49ErangeExcC1EOS0_
libIex-3_4.so.33:_ZN7Iex_3_49ErangeExcC1EPKc
libIex-3_4.so.33:_ZN7Iex_3_49ErangeExcC1ERKNSt7__cxx1112basic_stringIcSt11char_traitsIcESaIcEEE
libIex-3_4.so.33:_ZN7Iex_3_49ErangeExcC1ERKS0_
libIex-3_4.so.33:_ZN7Iex_3_49ErangeExcC1ERNSt7__cxx1118basic_stringstreamIcSt11char_traitsIcESaIcEEE
libIex-3_4.so.33:_ZN7Iex_3_49ErangeExcC1Ev
libIex-3_4.so.33:_ZN7Iex_3_49ErangeExcC2EONSt7__cxx1112basic_stringIcSt11char_traitsIcESaIcEEE
libIex-3_4.so.33:_ZN7Iex_3_49ErangeExcC2EOS0_
libIex-3_4.so.33:_ZN7Iex_3_49ErangeExcC2EPKc
libIex-3_4.so.33:_ZN7Iex_3_49ErangeExcC2ERKNSt7__cxx1112basic_stringIcSt11char_traitsIcESaIcEEE
libIex-3_4.so.33:_ZN7Iex_3_49ErangeExcC2ERKS0_
libIex-3_4.so.33:_ZN7Iex_3_49ErangeExcC2ERNSt7__cxx1118basic_stringstreamIcSt11char_traitsIcESaIcEEE
libIex-3_4.so.33:_ZN7Iex_3_49ErangeExcC2Ev
libIex-3_4.so.33:_ZN7Iex_3_49ErangeExcD0Ev
libIex-3_4.so.33:_ZN7Iex_3_49ErangeExcD1Ev
libIex-3_4.so.33:_ZN7Iex_3_49ErangeExcD2Ev
libIex-3_4.so.33:_ZN7Iex_3_49ErangeExcaSEOS0_
libIex-3_4.so.33:_ZN7Iex_3_49ErangeExcaSERS0_
libIex-3_4.so.33:_ZN7Iex_3_49EspipeExcC1EONSt7__cxx1112basic_stringIcSt11char_traitsIcESaIcEEE
libIex-3_4.so.33:_ZN7Iex_3_49EspipeExcC1EOS0_
libIex-3_4.so.33:_ZN7Iex_3_49EspipeExcC1EPKc
libIex-3_4.so.33:_ZN7Iex_3_49EspipeExcC1ERKNSt7__cxx1112basic_stringIcSt11char_traitsIcESaIcEEE
libIex-3_4.so.33:_ZN7Iex_3_49EspipeExcC1ERKS0_
libIex-3_4.so.33:_ZN7Iex_3_49EspipeExcC1ERNSt7__cxx1118basic_stringstreamIcSt11char_traitsIcESaIcEEE
libIex-3_4.so.33:_ZN7Iex_3_49EspipeExcC1Ev
libIex-3_4.so.33:_ZN7Iex_3_49EspipeExcC2EONSt7__cxx1112basic_stringIcSt11char_traitsIcESaIcEEE
libIex-3_4.so.33:_ZN7Iex_3_49EspipeExcC2EOS0_
libIex-3_4.so.33:_ZN7Iex_3_49EspipeExcC2EPKc
libIex-3_4.so.33:_ZN7Iex_3_49EspipeExcC2ERKNSt7__cxx1112basic_stringIcSt11char_traitsIcESaIcEEE
libIex-3_4.so.33:_ZN7Iex_3_49EspipeExcC2ERKS0_
libIex-3_4.so.33:_ZN7Iex_3_49EspipeExcC2ERNSt7__cxx1118basic_stringstreamIcSt11char_traitsIcESaIcEEE
libIex-3_4.so.33:_ZN7Iex_3_49EspipeExcC2Ev
libIex-3_4.so.33:_ZN7Iex_3_49EspipeExcD0Ev
libIex-3_4.so.33:_ZN7Iex_3_49EspipeExcD1Ev
libIex-3_4.so.33:_ZN7Iex_3_49EspipeExcD2Ev
libIex-3_4.so.33:_ZN7Iex_3_49EspipeExcaSEOS0_
libIex-3_4.so.33:_ZN7Iex_3_49EspipeExcaSERS0_
libIex-3_4.so.33:_ZN7Iex_3_49EsrmntExcC1EONSt7__cxx1112basic_stringIcSt11char_traitsIcESaIcEEE
libIex-3_4.so.33:_ZN7Iex_3_49EsrmntExcC1EOS0_
libIex-3_4.so.33:_ZN7Iex_3_49EsrmntExcC1EPKc
libIex-3_4.so.33:_ZN7Iex_3_49EsrmntExcC1ERKNSt7__cxx1112basic_stringIcSt11char_traitsIcESaIcEEE
libIex-3_4.so.33:_ZN7Iex_3_49EsrmntExcC1ERKS0_
libIex-3_4.so.33:_ZN7Iex_3_49EsrmntExcC1ERNSt7__cxx1118basic_stringstreamIcSt11char_traitsIcESaIcEEE
libIex-3_4.so.33:_ZN7Iex_3_49EsrmntExcC1Ev
libIex-3_4.so.33:_ZN7Iex_3_49EsrmntExcC2EONSt7__cxx1112basic_stringIcSt11char_traitsIcESaIcEEE
libIex-3_4.so.33:_ZN7Iex_3_49EsrmntExcC2EOS0_
libIex-3_4.so.33:_ZN7Iex_3_49EsrmntExcC2EPKc
libIex-3_4.so.33:_ZN7Iex_3_49EsrmntExcC2ERKNSt7__cxx1112basic_stringIcSt11char_traitsIcESaIcEEE
libIex-3_4.so.33:_ZN7Iex_3_49EsrmntExcC2ERKS0_
libIex-3_4.so.33:_ZN7Iex_3_49EsrmntExcC2ERNSt7__cxx1118basic_stringstreamIcSt11char_traitsIcESaIcEEE
libIex-3_4.so.33:_ZN7Iex_3_49EsrmntExcC2Ev
libIex-3_4.so.33:_ZN7Iex_3_49EsrmntExcD0Ev
libIex-3_4.so.33:_ZN7Iex_3_49EsrmntExcD1Ev
libIex-3_4.so.33:_ZN7Iex_3_49EsrmntExcD2Ev
libIex-3_4.so.33:_ZN7Iex_3_49EsrmntExcaSEOS0_
libIex-3_4.so.33:_ZN7Iex_3_49EsrmntExcaSERS0_
libIex-3_4.so.33:_ZN7Iex_3_49EstaleExcC1EONSt7__cxx1112basic_stringIcSt11char_traitsIcESaIcEEE
libIex-3_4.so.33:_ZN7Iex_3_49EstaleExcC1EOS0_
libIex-3_4.so.33:_ZN7Iex_3_49EstaleExcC1EPKc
libIex-3_4.so.33:_ZN7Iex_3_49EstaleExcC1ERKNSt7__cxx1112basic_stringIcSt11char_traitsIcESaIcEEE
libIex-3_4.so.33:_ZN7Iex_3_49EstaleExcC1ERKS0_
libIex-3_4.so.33:_ZN7Iex_3_49EstaleExcC1ERNSt7__cxx1118basic_stringstreamIcSt11char_traitsIcESaIcEEE
libIex-3_4.so.33:_ZN7Iex_3_49EstaleExcC1Ev
libIex-3_4.so.33:_ZN7Iex_3_49EstaleExcC2EONSt7__cxx1112basic_stringIcSt11char_traitsIcESaIcEEE
libIex-3_4.so.33:_ZN7Iex_3_49EstaleExcC2EOS0_
libIex-3_4.so.33:_ZN7Iex_3_49EstaleExcC2EPKc
libIex-3_4.so.33:_ZN7Iex_3_49EstaleExcC2ERKNSt7__cxx1112basic_stringIcSt11char_traitsIcESaIcEEE
libIex-3_4.so.33:_ZN7Iex_3_49EstaleExcC2ERKS0_
libIex-3_4.so.33:_ZN7Iex_3_49EstaleExcC2ERNSt7__cxx1118basic_stringstreamIcSt11char_traitsIcESaIcEEE
libIex-3_4.so.33:_ZN7Iex_3_49EstaleExcC2Ev
libIex-3_4.so.33:_ZN7Iex_3_49EstaleExcD0Ev
libIex-3_4.so.33:_ZN7Iex_3_49EstaleExcD1Ev
libIex-3_4.so.33:_ZN7Iex_3_49EstaleExcD2Ev
libIex-3_4.so.33:_ZN7Iex_3_49EstaleExcaSEOS0_
libIex-3_4.so.33:_ZN7Iex_3_49EstaleExcaSERS0_
libIex-3_4.so.33:_ZN7Iex_3_49EusersExcC1EONSt7__cxx1112basic_stringIcSt11char_traitsIcESaIcEEE
libIex-3_4.so.33:_ZN7Iex_3_49EusersExcC1EOS0_
libIex-3_4.so.33:_ZN7Iex_3_49EusersExcC1EPKc
libIex-3_4.so.33:_ZN7Iex_3_49EusersExcC1ERKNSt7__cxx1112basic_stringIcSt11char_traitsIcESaIcEEE
libIex-3_4.so.33:_ZN7Iex_3_49EusersExcC1ERKS0_
libIex-3_4.so.33:_ZN7Iex_3_49EusersExcC1ERNSt7__cxx1118basic_stringstreamIcSt11char_traitsIcESaIcEEE
libIex-3_4.so.33:_ZN7Iex_3_49EusersExcC1Ev
libIex-3_4.so.33:_ZN7Iex_3_49EusersExcC2EONSt7__cxx1112basic_stringIcSt11char_traitsIcESaIcEEE
libIex-3_4.so.33:_ZN7Iex_3_49EusersExcC2EOS0_
libIex-3_4.so.33:_ZN7Iex_3_49EusersExcC2EPKc
libIex-3_4.so.33:_ZN7Iex_3_49EusersExcC2ERKNSt7__cxx1112basic_stringIcSt11char_traitsIcESaIcEEE
libIex-3_4.so.33:_ZN7Iex_3_49EusersExcC2ERKS0_
libIex-3_4.so.33:_ZN7Iex_3_49EusersExcC2ERNSt7__cxx1118basic_stringstreamIcSt11char_traitsIcESaIcEEE
libIex-3_4.so.33:_ZN7Iex_3_49EusersExcC2Ev
libIex-3_4.so.33:_ZN7Iex_3_49EusersExcD0Ev
libIex-3_4.so.33:_ZN7Iex_3_49EusersExcD1Ev
libIex-3_4.so.33:_ZN7Iex_3_49EusersExcD2Ev
libIex-3_4.so.33:_ZN7Iex_3_49EusersExcaSEOS0_
libIex-3_4.so.33:_ZN7Iex_3_49EusersExcaSERS0_
libIex-3_4.so.33:_ZN7Iex_3_49ExfullExcC1EONSt7__cxx1112basic_stringIcSt11char_traitsIcESaIcEEE
libIex-3_4.so.33:_ZN7Iex_3_49ExfullExcC1EOS0_
libIex-3_4.so.33:_ZN7Iex_3_49ExfullExcC1EPKc
libIex-3_4.so.33:_ZN7Iex_3_49ExfullExcC1ERKNSt7__cxx1112basic_stringIcSt11char_traitsIcESaIcEEE
libIex-3_4.so.33:_ZN7Iex_3_49ExfullExcC1ERKS0_
libIex-3_4.so.33:_ZN7Iex_3_49ExfullExcC1ERNSt7__cxx1118basic_stringstreamIcSt11char_traitsIcESaIcEEE
libIex-3_4.so.33:_ZN7Iex_3_49ExfullExcC1Ev
libIex-3_4.so.33:_ZN7Iex_3_49ExfullExcC2EONSt7__cxx1112basic_stringIcSt11char_traitsIcESaIcEEE
libIex-3_4.so.33:_ZN7Iex_3_49ExfullExcC2EOS0_
libIex-3_4.so.33:_ZN7Iex_3_49ExfullExcC2EPKc
libIex-3_4.so.33:_ZN7Iex_3_49ExfullExcC2ERKNSt7__cxx1112basic_stringIcSt11char_traitsIcESaIcEEE
libIex-3_4.so.33:_ZN7Iex_3_49ExfullExcC2ERKS0_
libIex-3_4.so.33:_ZN7Iex_3_49ExfullExcC2ERNSt7__cxx1118basic_stringstreamIcSt11char_traitsIcESaIcEEE
libIex-3_4.so.33:_ZN7Iex_3_49ExfullExcC2Ev
libIex-3_4.so.33:_ZN7Iex_3_49ExfullExcD0Ev
libIex-3_4.so.33:_ZN7Iex_3_49ExfullExcD1Ev
libIex-3_4.so.33:_ZN7Iex_3_49ExfullExcD2Ev
libIex-3_4.so.33:_ZN7Iex_3_49ExfullExcaSEOS0_
libIex-3_4.so.33:_ZN7Iex_3_49ExfullExcaSERS0_
libIex-3_4.so.33:_ZN7Iex_3_49MathExcOn27handleOutstandingExceptionsEv
libIex-3_4.so.33:_ZN7Iex_3_49MathExcOnC1Ei
libIex-3_4.so.33:_ZN7Iex_3_49MathExcOnC2Ei
libIex-3_4.so.33:_ZN7Iex_3_49MathExcOnD1Ev
libIex-3_4.so.33:_ZN7Iex_3_49MathExcOnD2Ev
libIex-3_4.so.33:_ZN7Iex_3_49NoImplExcC1EONSt7__cxx1112basic_stringIcSt11char_traitsIcESaIcEEE
libIex-3_4.so.33:_ZN7Iex_3_49NoImplExcC1EOS0_
libIex-3_4.so.33:_ZN7Iex_3_49NoImplExcC1EPKc
libIex-3_4.so.33:_ZN7Iex_3_49NoImplExcC1ERKNSt7__cxx1112basic_stringIcSt11char_traitsIcESaIcEEE
libIex-3_4.so.33:_ZN7Iex_3_49NoImplExcC1ERKS0_
libIex-3_4.so.33:_ZN7Iex_3_49NoImplExcC1ERNSt7__cxx1118basic_stringstreamIcSt11char_traitsIcESaIcEEE
libIex-3_4.so.33:_ZN7Iex_3_49NoImplExcC1Ev
libIex-3_4.so.33:_ZN7Iex_3_49NoImplExcC2EONSt7__cxx1112basic_stringIcSt11char_traitsIcESaIcEEE
libIex-3_4.so.33:_ZN7Iex_3_49NoImplExcC2EOS0_
libIex-3_4.so.33:_ZN7Iex_3_49NoImplExcC2EPKc
libIex-3_4.so.33:_ZN7Iex_3_49NoImplExcC2ERKNSt7__cxx1112basic_stringIcSt11char_traitsIcESaIcEEE
libIex-3_4.so.33:_ZN7Iex_3_49NoImplExcC2ERKS0_
libIex-3_4.so.33:_ZN7Iex_3_49NoImplExcC2ERNSt7__cxx1118basic_stringstreamIcSt11char_traitsIcESaIcEEE
libIex-3_4.so.33:_ZN7Iex_3_49NoImplExcC2Ev
libIex-3_4.so.33:_ZN7Iex_3_49NoImplExcD0Ev
libIex-3_4.so.33:_ZN7Iex_3_49NoImplExcD1Ev
libIex-3_4.so.33:_ZN7Iex_3_49NoImplExcD2Ev
libIex-3_4.so.33:_ZN7Iex_3_49NoImplExcaSEOS0_
libIex-3_4.so.33:_ZN7Iex_3_49NoImplExcaSERS0_
libIex-3_4.so.33:_ZN7Iex_3_49mathExcOnEi
libIex-3_4.so.33:_ZNK7Iex_3_47BaseExc10stackTraceB5cxx11Ev
libIex-3_4.so.33:_ZNK7Iex_3_47BaseExc4whatEv
libIex-3_4.so.33:_ZNK7Iex_3_47BaseExc7messageB5cxx11Ev
libIlmThread-3_4.so.33:_ZN13IlmThread_3_410ThreadPool13addGlobalTaskEPNS_4TaskE
libIlmThread-3_4.so.33:_ZN13IlmThread_3_410ThreadPool13setNumThreadsEi
libIlmThread-3_4.so.33:_ZN13IlmThread_3_410ThreadPool16globalThreadPoolEv
libIlmThread-3_4.so.33:_ZN13IlmThread_3_410ThreadPool17setThreadProviderEPNS_18ThreadPoolProviderE
libIlmThread-3_4.so.33:_ZN13IlmThread_3_410ThreadPool28estimateThreadCountForFileIOEv
libIlmThread-3_4.so.33:_ZN13IlmThread_3_410ThreadPool7addTaskEPNS_4TaskE
libIlmThread-3_4.so.33:_ZN13IlmThread_3_410ThreadPoolC1Ej
libIlmThread-3_4.so.33:_ZN13IlmThread_3_410ThreadPoolC2Ej
libIlmThread-3_4.so.33:_ZN13IlmThread_3_410ThreadPoolD0Ev
libIlmThread-3_4.so.33:_ZN13IlmThread_3_410ThreadPoolD1Ev
libIlmThread-3_4.so.33:_ZN13IlmThread_3_410ThreadPoolD2Ev
libIlmThread-3_4.so.33:_ZN13IlmThread_3_415supportsThreadsEv
libIlmThread-3_4.so.33:_ZN13IlmThread_3_418ThreadPoolProviderC1Ev
libIlmThread-3_4.so.33:_ZN13IlmThread_3_418ThreadPoolProviderC2Ev
libIlmThread-3_4.so.33:_ZN13IlmThread_3_418ThreadPoolProviderD0Ev
libIlmThread-3_4.so.33:_ZN13IlmThread_3_418ThreadPoolProviderD1Ev
libIlmThread-3_4.so.33:_ZN13IlmThread_3_418ThreadPoolProviderD2Ev
libIlmThread-3_4.so.33:_ZN13IlmThread_3_44Task5groupEv
libIlmThread-3_4.so.33:_ZN13IlmThread_3_44TaskC1EPNS_9TaskGroupE
libIlmThread-3_4.so.33:_ZN13IlmThread_3_44TaskC2EPNS_9TaskGroupE
libIlmThread-3_4.so.33:_ZN13IlmThread_3_44TaskD0Ev
libIlmThread-3_4.so.33:_ZN13IlmThread_3_44TaskD1Ev
libIlmThread-3_4.so.33:_ZN13IlmThread_3_44TaskD2Ev
libIlmThread-3_4.so.33:_ZN13IlmThread_3_46Thread4joinEv
libIlmThread-3_4.so.33:_ZN13IlmThread_3_46Thread5startEv
libIlmThread-3_4.so.33:_ZN13IlmThread_3_46ThreadC1Ev
libIlmThread-3_4.so.33:_ZN13IlmThread_3_46ThreadC2Ev
libIlmThread-3_4.so.33:_ZN13IlmThread_3_46ThreadD0Ev
libIlmThread-3_4.so.33:_ZN13IlmThread_3_46ThreadD1Ev
libIlmThread-3_4.so.33:_ZN13IlmThread_3_46ThreadD2Ev
libIlmThread-3_4.so.33:_ZN13IlmThread_3_49Semaphore4postEv
libIlmThread-3_4.so.33:_ZN13IlmThread_3_49Semaphore4waitEv
libIlmThread-3_4.so.33:_ZN13IlmThread_3_49Semaphore7tryWaitEv
libIlmThread-3_4.so.33:_ZN13IlmThread_3_49SemaphoreC1Ej
libIlmThread-3_4.so.33:_ZN13IlmThread_3_49SemaphoreC2Ej
libIlmThread-3_4.so.33:_ZN13IlmThread_3_49SemaphoreD0Ev
libIlmThread-3_4.so.33:_ZN13IlmThread_3_49SemaphoreD1Ev
libIlmThread-3_4.so.33:_ZN13IlmThread_3_49SemaphoreD2Ev
libIlmThread-3_4.so.33:_ZN13IlmThread_3_49TaskGroup13finishOneTaskEv
libIlmThread-3_4.so.33:_ZN13IlmThread_3_49TaskGroupC1Ev
libIlmThread-3_4.so.33:_ZN13IlmThread_3_49TaskGroupC2Ev
libIlmThread-3_4.so.33:_ZN13IlmThread_3_49TaskGroupD1Ev
libIlmThread-3_4.so.33:_ZN13IlmThread_3_49TaskGroupD2Ev
libIlmThread-3_4.so.33:_ZNK13IlmThread_3_410ThreadPool10numThreadsEv
libIlmThread-3_4.so.33:_ZNK13IlmThread_3_46Thread8joinableEv
libIlmThread-3_4.so.33:_ZNK13IlmThread_3_49Semaphore5valueEv
libOpenEXR-3_4.so.33:ImfApplyLut
libOpenEXR-3_4.so.33:ImfCloseInputFile
libOpenEXR-3_4.so.33:ImfCloseOutputFile
libOpenEXR-3_4.so.33:ImfCloseTiledInputFile
libOpenEXR-3_4.so.33:ImfCloseTiledOutputFile
libOpenEXR-3_4.so.33:ImfCopyHeader
libOpenEXR-3_4.so.33:ImfDeleteHeader
libOpenEXR-3_4.so.33:ImfDeleteLut
libOpenEXR-3_4.so.33:ImfErrorMessage
libOpenEXR-3_4.so.33:ImfFloatToHalf
libOpenEXR-3_4.so.33:ImfFloatToHalfArray
libOpenEXR-3_4.so.33:ImfHalfToFloat
libOpenEXR-3_4.so.33:ImfHalfToFloatArray
libOpenEXR-3_4.so.33:ImfHeaderBox2fAttribute
libOpenEXR-3_4.so.33:ImfHeaderBox2iAttribute
libOpenEXR-3_4.so.33:ImfHeaderCompression
libOpenEXR-3_4.so.33:ImfHeaderDataWindow
libOpenEXR-3_4.so.33:ImfHeaderDisplayWindow
libOpenEXR-3_4.so.33:ImfHeaderDoubleAttribute
libOpenEXR-3_4.so.33:ImfHeaderFloatAttribute
libOpenEXR-3_4.so.33:ImfHeaderIntAttribute
libOpenEXR-3_4.so.33:ImfHeaderLineOrder
libOpenEXR-3_4.so.33:ImfHeaderM33fAttribute
libOpenEXR-3_4.so.33:ImfHeaderM44fAttribute
libOpenEXR-3_4.so.33:ImfHeaderPixelAspectRatio
libOpenEXR-3_4.so.33:ImfHeaderScreenWindowCenter
libOpenEXR-3_4.so.33:ImfHeaderScreenWindowWidth
libOpenEXR-3_4.so.33:ImfHeaderSetBox2fAttribute
libOpenEXR-3_4.so.33:ImfHeaderSetBox2iAttribute
libOpenEXR-3_4.so.33:ImfHeaderSetCompression
libOpenEXR-3_4.so.33:ImfHeaderSetDataWindow
libOpenEXR-3_4.so.33:ImfHeaderSetDisplayWindow
libOpenEXR-3_4.so.33:ImfHeaderSetDoubleAttribute
libOpenEXR-3_4.so.33:ImfHeaderSetFloatAttribute
libOpenEXR-3_4.so.33:ImfHeaderSetIntAttribute
libOpenEXR-3_4.so.33:ImfHeaderSetLineOrder
libOpenEXR-3_4.so.33:ImfHeaderSetM33fAttribute
libOpenEXR-3_4.so.33:ImfHeaderSetM44fAttribute
libOpenEXR-3_4.so.33:ImfHeaderSetPixelAspectRatio
libOpenEXR-3_4.so.33:ImfHeaderSetScreenWindowCenter
libOpenEXR-3_4.so.33:ImfHeaderSetScreenWindowWidth
libOpenEXR-3_4.so.33:ImfHeaderSetStringAttribute
libOpenEXR-3_4.so.33:ImfHeaderSetV2fAttribute
libOpenEXR-3_4.so.33:ImfHeaderSetV2iAttribute
libOpenEXR-3_4.so.33:ImfHeaderSetV3fAttribute
libOpenEXR-3_4.so.33:ImfHeaderSetV3iAttribute
libOpenEXR-3_4.so.33:ImfHeaderStringAttribute
libOpenEXR-3_4.so.33:ImfHeaderV2fAttribute
libOpenEXR-3_4.so.33:ImfHeaderV2iAttribute
libOpenEXR-3_4.so.33:ImfHeaderV3fAttribute
libOpenEXR-3_4.so.33:ImfHeaderV3iAttribute
libOpenEXR-3_4.so.33:ImfInputChannels
libOpenEXR-3_4.so.33:ImfInputFileName
libOpenEXR-3_4.so.33:ImfInputHeader
libOpenEXR-3_4.so.33:ImfInputReadPixels
libOpenEXR-3_4.so.33:ImfInputSetFrameBuffer
libOpenEXR-3_4.so.33:ImfNewHeader
libOpenEXR-3_4.so.33:ImfNewRound12logLut
libOpenEXR-3_4.so.33:ImfNewRoundNBitLut
libOpenEXR-3_4.so.33:ImfOpenInputFile
libOpenEXR-3_4.so.33:ImfOpenOutputFile
libOpenEXR-3_4.so.33:ImfOpenTiledInputFile
libOpenEXR-3_4.so.33:ImfOpenTiledOutputFile
libOpenEXR-3_4.so.33:ImfOutputChannels
libOpenEXR-3_4.so.33:ImfOutputCurrentScanLine
libOpenEXR-3_4.so.33:ImfOutputHeader
libOpenEXR-3_4.so.33:ImfOutputSetFrameBuffer
libOpenEXR-3_4.so.33:ImfOutputWritePixels
libOpenEXR-3_4.so.33:ImfTiledInputChannels
libOpenEXR-3_4.so.33:ImfTiledInputFileName
libOpenEXR-3_4.so.33:ImfTiledInputHeader
libOpenEXR-3_4.so.33:ImfTiledInputLevelMode
libOpenEXR-3_4.so.33:ImfTiledInputLevelRoundingMode
libOpenEXR-3_4.so.33:ImfTiledInputReadTile
libOpenEXR-3_4.so.33:ImfTiledInputReadTiles
libOpenEXR-3_4.so.33:ImfTiledInputSetFrameBuffer
libOpenEXR-3_4.so.33:ImfTiledInputTileXSize
libOpenEXR-3_4.so.33:ImfTiledInputTileYSize
libOpenEXR-3_4.so.33:ImfTiledOutputChannels
libOpenEXR-3_4.so.33:ImfTiledOutputHeader
libOpenEXR-3_4.so.33:ImfTiledOutputLevelMode
libOpenEXR-3_4.so.33:ImfTiledOutputLevelRoundingMode
libOpenEXR-3_4.so.33:ImfTiledOutputSetFrameBuffer
libOpenEXR-3_4.so.33:ImfTiledOutputTileXSize
libOpenEXR-3_4.so.33:ImfTiledOutputTileYSize
libOpenEXR-3_4.so.33:ImfTiledOutputWriteTile
libOpenEXR-3_4.so.33:ImfTiledOutputWriteTiles
libOpenEXR-3_4.so.33:_ZN7Imf_3_410Compressor10uncompressEPKciiRS2_
libOpenEXR-3_4.so.33:_ZN7Imf_3_410Compressor12compressTileEPKciN9Imath_3_13BoxINS3_4Vec2IiEEEERS2_
libOpenEXR-3_4.so.33:_ZN7Imf_3_410Compressor13runDecodeStepEPKciN9Imath_3_13BoxINS3_4Vec2IiEEEERS2_
libOpenEXR-3_4.so.33:_ZN7Imf_3_410Compressor13runEncodeStepEPKciN9Imath_3_13BoxINS3_4Vec2IiEEEERS2_
libOpenEXR-3_4.so.33:_ZN7Imf_3_410Compressor14uncompressTileEPKciN9Imath_3_13BoxINS3_4Vec2IiEEEERS2_
libOpenEXR-3_4.so.33:_ZN7Imf_3_410Compressor8compressEPKciiRS2_
libOpenEXR-3_4.so.33:_ZN7Imf_3_410CompressorC1ERKNS_6HeaderE17exr_compression_tmi
libOpenEXR-3_4.so.33:_ZN7Imf_3_410CompressorC2ERKNS_6HeaderE17exr_compression_tmi
libOpenEXR-3_4.so.33:_ZN7Imf_3_410CompressorD0Ev
libOpenEXR-3_4.so.33:_ZN7Imf_3_410CompressorD1Ev
libOpenEXR-3_4.so.33:_ZN7Imf_3_410CompressorD2Ev
libOpenEXR-3_4.so.33:_ZN7Imf_3_410IDManifest10CUSTOMHASHB5cxx11E
libOpenEXR-3_4.so.33:_ZN7Imf_3_410IDManifest10ID2_SCHEMEB5cxx11E
libOpenEXR-3_4.so.33:_ZN7Imf_3_410IDManifest12MurmurHash32ERKNSt7__cxx1112basic_stringIcSt11char_traitsIcESaIcEEE
libOpenEXR-3_4.so.33:_ZN7Imf_3_410IDManifest12MurmurHash32ERKSt6vectorINSt7__cxx1112basic_stringIcSt11char_traitsIcESaIcEEESaIS7_EE
libOpenEXR-3_4.so.33:_ZN7Imf_3_410IDManifest12MurmurHash64ERKNSt7__cxx1112basic_stringIcSt11char_traitsIcESaIcEEE
libOpenEXR-3_4.so.33:_ZN7Imf_3_410IDManifest12MurmurHash64ERKSt6vectorINSt7__cxx1112basic_stringIcSt11char_traitsIcESaIcEEESaIS7_EE
libOpenEXR-3_4.so.33:_ZN7Imf_3_410IDManifest14MURMURHASH3_32B5cxx11E
libOpenEXR-3_4.so.33:_ZN7Imf_3_410IDManifest14MURMURHASH3_64B5cxx11E
libOpenEXR-3_4.so.33:_ZN7Imf_3_410IDManifest20ChannelGroupManifest10setChannelERKNSt7__cxx1112basic_stringIcSt11char_traitsIcESaIcEEE
libOpenEXR-3_4.so.33:_ZN7Imf_3_410IDManifest20ChannelGroupManifest11getChannelsB5cxx11Ev
libOpenEXR-3_4.so.33:_ZN7Imf_3_410IDManifest20ChannelGroupManifest11setChannelsERKSt3setINSt7__cxx1112basic_stringIcSt11char_traitsIcESaIcEEESt4lessIS8_ESaIS8_EE
libOpenEXR-3_4.so.33:_ZN7Imf_3_410IDManifest20ChannelGroupManifest12setComponentERKNSt7__cxx1112basic_stringIcSt11char_traitsIcESaIcEEE
libOpenEXR-3_4.so.33:_ZN7Imf_3_410IDManifest20ChannelGroupManifest13setComponentsERKSt6vectorINSt7__cxx1112basic_stringIcSt11char_traitsIcESaIcEEESaIS8_EE
libOpenEXR-3_4.so.33:_ZN7Imf_3_410IDManifest20ChannelGroupManifest3endEv
libOpenEXR-3_4.so.33:_ZN7Imf_3_410IDManifest20ChannelGroupManifest4findEm
libOpenEXR-3_4.so.33:_ZN7Imf_3_410IDManifest20ChannelGroupManifest5beginEv
libOpenEXR-3_4.so.33:_ZN7Imf_3_410IDManifest20ChannelGroupManifest5eraseEm
libOpenEXR-3_4.so.33:_ZN7Imf_3_410IDManifest20ChannelGroupManifest6insertERKNSt7__cxx1112basic_stringIcSt11char_traitsIcESaIcEEE
libOpenEXR-3_4.so.33:_ZN7Imf_3_410IDManifest20ChannelGroupManifest6insertERKSt6vectorINSt7__cxx1112basic_stringIcSt11char_traitsIcESaIcEEESaIS8_EE
libOpenEXR-3_4.so.33:_ZN7Imf_3_410IDManifest20ChannelGroupManifest6insertEmRKNSt7__cxx1112basic_stringIcSt11char_traitsIcESaIcEEE
libOpenEXR-3_4.so.33:_ZN7Imf_3_410IDManifest20ChannelGroupManifest6insertEmRKSt6vectorINSt7__cxx1112basic_stringIcSt11char_traitsIcESaIcEEESaIS8_EE
libOpenEXR-3_4.so.33:_ZN7Imf_3_410IDManifest20ChannelGroupManifestC1Ev
libOpenEXR-3_4.so.33:_ZN7Imf_3_410IDManifest20ChannelGroupManifestC2Ev
libOpenEXR-3_4.so.33:_ZN7Imf_3_410IDManifest20ChannelGroupManifestixB5cxx11Em
libOpenEXR-3_4.so.33:_ZN7Imf_3_410IDManifest20ChannelGroupManifestlsERKNSt7__cxx1112basic_stringIcSt11char_traitsIcESaIcEEE
libOpenEXR-3_4.so.33:_ZN7Imf_3_410IDManifest20ChannelGroupManifestlsEm
libOpenEXR-3_4.so.33:_ZN7Imf_3_410IDManifest3addERKNS0_20ChannelGroupManifestE
libOpenEXR-3_4.so.33:_ZN7Imf_3_410IDManifest3addERKNSt7__cxx1112basic_stringIcSt11char_traitsIcESaIcEEE
libOpenEXR-3_4.so.33:_ZN7Imf_3_410IDManifest3addERKSt3setINSt7__cxx1112basic_stringIcSt11char_traitsIcESaIcEEESt4lessIS7_ESaIS7_EE
libOpenEXR-3_4.so.33:_ZN7Imf_3_410IDManifest5mergeERKS0_
libOpenEXR-3_4.so.33:_ZN7Imf_3_410IDManifest7UNKNOWNB5cxx11E
libOpenEXR-3_4.so.33:_ZN7Imf_3_410IDManifest9ID_SCHEMEB5cxx11E
libOpenEXR-3_4.so.33:_ZN7Imf_3_410IDManifest9NOTHASHEDB5cxx11E
libOpenEXR-3_4.so.33:_ZN7Imf_3_410IDManifestC1EPKcS2_
libOpenEXR-3_4.so.33:_ZN7Imf_3_410IDManifestC1ERKNS_20CompressedIDManifestE
libOpenEXR-3_4.so.33:_ZN7Imf_3_410IDManifestC1Ev
libOpenEXR-3_4.so.33:_ZN7Imf_3_410IDManifestC2EPKcS2_
libOpenEXR-3_4.so.33:_ZN7Imf_3_410IDManifestC2ERKNS_20CompressedIDManifestE
libOpenEXR-3_4.so.33:_ZN7Imf_3_410IDManifestC2Ev
libOpenEXR-3_4.so.33:_ZN7Imf_3_410IDManifestixEm
libOpenEXR-3_4.so.33:_ZN7Imf_3_410LatLongMap13pixelPositionERKN9Imath_3_13BoxINS1_4Vec2IiEEEERKNS1_4Vec3IfEE
libOpenEXR-3_4.so.33:_ZN7Imf_3_410LatLongMap13pixelPositionERKN9Imath_3_13BoxINS1_4Vec2IiEEEERKNS3_IfEE
libOpenEXR-3_4.so.33:_ZN7Imf_3_410LatLongMap7latLongERKN9Imath_3_13BoxINS1_4Vec2IiEEEERKNS3_IfEE
libOpenEXR-3_4.so.33:_ZN7Imf_3_410LatLongMap7latLongERKN9Imath_3_14Vec3IfEE
libOpenEXR-3_4.so.33:_ZN7Imf_3_410LatLongMap9directionERKN9Imath_3_13BoxINS1_4Vec2IiEEEERKNS3_IfEE
libOpenEXR-3_4.so.33:_ZN7Imf_3_410OutputFile10copyPixelsERNS_9InputFileE
libOpenEXR-3_4.so.33:_ZN7Imf_3_410OutputFile10copyPixelsERNS_9InputPartE
libOpenEXR-3_4.so.33:_ZN7Imf_3_410OutputFile10initializeERKNS_6HeaderE
libOpenEXR-3_4.so.33:_ZN7Imf_3_410OutputFile11writePixelsEi
libOpenEXR-3_4.so.33:_ZN7Imf_3_410OutputFile13breakScanLineEiiic
libOpenEXR-3_4.so.33:_ZN7Imf_3_410OutputFile14setFrameBufferERKNS_11FrameBufferE
libOpenEXR-3_4.so.33:_ZN7Imf_3_410OutputFile18updatePreviewImageEPKNS_11PreviewRgbaE
libOpenEXR-3_4.so.33:_ZN7Imf_3_410OutputFileC1EPKcRKNS_6HeaderEi
libOpenEXR-3_4.so.33:_ZN7Imf_3_410OutputFileC1ERNS_7OStreamERKNS_6HeaderEi
libOpenEXR-3_4.so.33:_ZN7Imf_3_410OutputFileC2EPKcRKNS_6HeaderEi
libOpenEXR-3_4.so.33:_ZN7Imf_3_410OutputFileC2ERNS_7OStreamERKNS_6HeaderEi
libOpenEXR-3_4.so.33:_ZN7Imf_3_410OutputFileD0Ev
libOpenEXR-3_4.so.33:_ZN7Imf_3_410OutputFileD1Ev
libOpenEXR-3_4.so.33:_ZN7Imf_3_410OutputFileD2Ev
libOpenEXR-3_4.so.33:_ZN7Imf_3_410OutputPart10copyPixelsERNS_9InputFileE
libOpenEXR-3_4.so.33:_ZN7Imf_3_410OutputPart10copyPixelsERNS_9InputPartE
libOpenEXR-3_4.so.33:_ZN7Imf_3_410OutputPart11writePixelsEi
libOpenEXR-3_4.so.33:_ZN7Imf_3_410OutputPart13breakScanLineEiiic
libOpenEXR-3_4.so.33:_ZN7Imf_3_410OutputPart14setFrameBufferERKNS_11FrameBufferE
libOpenEXR-3_4.so.33:_ZN7Imf_3_410OutputPart18updatePreviewImageEPKNS_11PreviewRgbaE
libOpenEXR-3_4.so.33:_ZN7Imf_3_410OutputPartC1ERNS_19MultiPartOutputFileEi
libOpenEXR-3_4.so.33:_ZN7Imf_3_410OutputPartC2ERNS_19MultiPartOutputFileEi
libOpenEXR-3_4.so.33:_ZN7Imf_3_410addCapDateERNS_6HeaderERKNSt7__cxx1112basic_stringIcSt11char_traitsIcESaIcEEE
libOpenEXR-3_4.so.33:_ZN7Imf_3_410addExpTimeERNS_6HeaderERKf
libOpenEXR-3_4.so.33:_ZN7Imf_3_410addKeyCodeERNS_6HeaderERKNS_7KeyCodeE
libOpenEXR-3_4.so.33:_ZN7Imf_3_410cameraMakeB5cxx11ERKNS_6HeaderE
libOpenEXR-3_4.so.33:_ZN7Imf_3_410cameraMakeB5cxx11ERNS_6HeaderE
libOpenEXR-3_4.so.33:_ZN7Imf_3_410cameraUuidB5cxx11ERKNS_6HeaderE
libOpenEXR-3_4.so.33:_ZN7Imf_3_410cameraUuidB5cxx11ERNS_6HeaderE
libOpenEXR-3_4.so.33:_ZN7Imf_3_410halfToUintEN9Imath_3_14halfE
libOpenEXR-3_4.so.33:_ZN7Imf_3_410hasCapDateERKNS_6HeaderE
libOpenEXR-3_4.so.33:_ZN7Imf_3_410hasExpTimeERKNS_6HeaderE
libOpenEXR-3_4.so.33:_ZN7Imf_3_410hasKeyCodeERKNS_6HeaderE
libOpenEXR-3_4.so.33:_ZN7Imf_3_410idManifestERKNS_6HeaderE
libOpenEXR-3_4.so.33:_ZN7Imf_3_410idManifestERNS_6HeaderE
libOpenEXR-3_4.so.33:_ZN7Imf_3_410isDeepDataERKNSt7__cxx1112basic_stringIcSt11char_traitsIcESaIcEEE
libOpenEXR-3_4.so.33:_ZN7Imf_3_410isImfMagicEPKc
libOpenEXR-3_4.so.33:_ZN7Imf_3_410numSamplesEiii
libOpenEXR-3_4.so.33:_ZN7Imf_3_410round12logEN9Imath_3_14halfE
libOpenEXR-3_4.so.33:_ZN7Imf_3_410uintToHalfEj
libOpenEXR-3_4.so.33:_ZN7Imf_3_410wav2DecodeEPtiiiit
libOpenEXR-3_4.so.33:_ZN7Imf_3_410wav2EncodeEPtiiiit
libOpenEXR-3_4.so.33:_ZN7Imf_3_410worldToNDCERKNS_6HeaderE
libOpenEXR-3_4.so.33:_ZN7Imf_3_410worldToNDCERNS_6HeaderE
libOpenEXR-3_4.so.33:_ZN7Imf_3_411ChannelList11findChannelEPKc
libOpenEXR-3_4.so.33:_ZN7Imf_3_411ChannelList11findChannelERKNSt7__cxx1112basic_stringIcSt11char_traitsIcESaIcEEE
libOpenEXR-3_4.so.33:_ZN7Imf_3_411ChannelList15channelsInLayerERKNSt7__cxx1112basic_stringIcSt11char_traitsIcESaIcEEERNS0_8IteratorESA_
libOpenEXR-3_4.so.33:_ZN7Imf_3_411ChannelList18channelsWithPrefixEPKcRNS0_8IteratorES4_
libOpenEXR-3_4.so.33:_ZN7Imf_3_411ChannelList18channelsWithPrefixERKNSt7__cxx1112basic_stringIcSt11char_traitsIcESaIcEEERNS0_8IteratorESA_
libOpenEXR-3_4.so.33:_ZN7Imf_3_411ChannelList3endEv
libOpenEXR-3_4.so.33:_ZN7Imf_3_411ChannelList4findEPKc
libOpenEXR-3_4.so.33:_ZN7Imf_3_411ChannelList4findERKNSt7__cxx1112basic_stringIcSt11char_traitsIcESaIcEEE
libOpenEXR-3_4.so.33:_ZN7Imf_3_411ChannelList5beginEv
libOpenEXR-3_4.so.33:_ZN7Imf_3_411ChannelList6insertEPKcRKNS_7ChannelE
libOpenEXR-3_4.so.33:_ZN7Imf_3_411ChannelList6insertERKNSt7__cxx1112basic_stringIcSt11char_traitsIcESaIcEEERKNS_7ChannelE
libOpenEXR-3_4.so.33:_ZN7Imf_3_411ChannelListixEPKc
libOpenEXR-3_4.so.33:_ZN7Imf_3_411ChannelListixERKNSt7__cxx1112basic_stringIcSt11char_traitsIcESaIcEEE
libOpenEXR-3_4.so.33:_ZN7Imf_3_411FrameBuffer3endEv
libOpenEXR-3_4.so.33:_ZN7Imf_3_411FrameBuffer4findEPKc
libOpenEXR-3_4.so.33:_ZN7Imf_3_411FrameBuffer4findERKNSt7__cxx1112basic_stringIcSt11char_traitsIcESaIcEEE
libOpenEXR-3_4.so.33:_ZN7Imf_3_411FrameBuffer5beginEv
libOpenEXR-3_4.so.33:_ZN7Imf_3_411FrameBuffer6insertEPKcRKNS_5SliceE
libOpenEXR-3_4.so.33:_ZN7Imf_3_411FrameBuffer6insertERKNSt7__cxx1112basic_stringIcSt11char_traitsIcESaIcEEERKNS_5SliceE
libOpenEXR-3_4.so.33:_ZN7Imf_3_411FrameBuffer9findSliceEPKc
libOpenEXR-3_4.so.33:_ZN7Imf_3_411FrameBuffer9findSliceERKNSt7__cxx1112basic_stringIcSt11char_traitsIcESaIcEEE
libOpenEXR-3_4.so.33:_ZN7Imf_3_411FrameBufferixEPKc
libOpenEXR-3_4.so.33:_ZN7Imf_3_411FrameBufferixERKNSt7__cxx1112basic_stringIcSt11char_traitsIcESaIcEEE
libOpenEXR-3_4.so.33:_ZN7Imf_3_411StdIFStream4readEPci
libOpenEXR-3_4.so.33:_ZN7Imf_3_411StdIFStream5clearEv
libOpenEXR-3_4.so.33:_ZN7Imf_3_411StdIFStream5seekgEm
libOpenEXR-3_4.so.33:_ZN7Imf_3_411StdIFStream5tellgEv
libOpenEXR-3_4.so.33:_ZN7Imf_3_411StdIFStreamC1EPKc
libOpenEXR-3_4.so.33:_ZN7Imf_3_411StdIFStreamC1ERSt14basic_ifstreamIcSt11char_traitsIcEEPKc
libOpenEXR-3_4.so.33:_ZN7Imf_3_411StdIFStreamC2EPKc
libOpenEXR-3_4.so.33:_ZN7Imf_3_411StdIFStreamC2ERSt14basic_ifstreamIcSt11char_traitsIcEEPKc
libOpenEXR-3_4.so.33:_ZN7Imf_3_411StdIFStreamD0Ev
libOpenEXR-3_4.so.33:_ZN7Imf_3_411StdIFStreamD1Ev
libOpenEXR-3_4.so.33:_ZN7Imf_3_411StdIFStreamD2Ev
libOpenEXR-3_4.so.33:_ZN7Imf_3_411StdISStream3strERKNSt7__cxx1112basic_stringIcSt11char_traitsIcESaIcEEE
libOpenEXR-3_4.so.33:_ZN7Imf_3_411StdISStream4readEPci
libOpenEXR-3_4.so.33:_ZN7Imf_3_411StdISStream5clearEv
libOpenEXR-3_4.so.33:_ZN7Imf_3_411StdISStream5seekgEm
libOpenEXR-3_4.so.33:_ZN7Imf_3_411StdISStream5tellgEv
libOpenEXR-3_4.so.33:_ZN7Imf_3_411StdISStreamC1Ev
libOpenEXR-3_4.so.33:_ZN7Imf_3_411StdISStreamC2Ev
libOpenEXR-3_4.so.33:_ZN7Imf_3_411StdISStreamD0Ev
libOpenEXR-3_4.so.33:_ZN7Imf_3_411StdISStreamD1Ev
libOpenEXR-3_4.so.33:_ZN7Imf_3_411StdISStreamD2Ev
libOpenEXR-3_4.so.33:_ZN7Imf_3_411StdOFStream5seekpEm
libOpenEXR-3_4.so.33:_ZN7Imf_3_411StdOFStream5tellpEv
libOpenEXR-3_4.so.33:_ZN7Imf_3_411StdOFStream5writeEPKci
libOpenEXR-3_4.so.33:_ZN7Imf_3_411StdOFStreamC1EPKc
libOpenEXR-3_4.so.33:_ZN7Imf_3_411StdOFStreamC1ERSt14basic_ofstreamIcSt11char_traitsIcEEPKc
libOpenEXR-3_4.so.33:_ZN7Imf_3_411StdOFStreamC2EPKc
libOpenEXR-3_4.so.33:_ZN7Imf_3_411StdOFStreamC2ERSt14basic_ofstreamIcSt11char_traitsIcEEPKc
libOpenEXR-3_4.so.33:_ZN7Imf_3_411StdOFStreamD0Ev
libOpenEXR-3_4.so.33:_ZN7Imf_3_411StdOFStreamD1Ev
libOpenEXR-3_4.so.33:_ZN7Imf_3_411StdOFStreamD2Ev
libOpenEXR-3_4.so.33:_ZN7Imf_3_411StdOSStream5seekpEm
libOpenEXR-3_4.so.33:_ZN7Imf_3_411StdOSStream5tellpEv
libOpenEXR-3_4.so.33:_ZN7Imf_3_411StdOSStream5writeEPKci
libOpenEXR-3_4.so.33:_ZN7Imf_3_411StdOSStreamC1Ev
libOpenEXR-3_4.so.33:_ZN7Imf_3_411StdOSStreamC2Ev
libOpenEXR-3_4.so.33:_ZN7Imf_3_411StdOSStreamD0Ev
libOpenEXR-3_4.so.33:_ZN7Imf_3_411StdOSStreamD1Ev
libOpenEXR-3_4.so.33:_ZN7Imf_3_411StdOSStreamD2Ev
libOpenEXR-3_4.so.33:_ZN7Imf_3_411TileOffsets8readFromERNS_7IStreamERbbb
libOpenEXR-3_4.so.33:_ZN7Imf_3_411TileOffsets8readFromESt6vectorImSaImEERb
libOpenEXR-3_4.so.33:_ZN7Imf_3_411TileOffsetsC1ENS_9LevelModeEiiPKiS3_
libOpenEXR-3_4.so.33:_ZN7Imf_3_411TileOffsetsC2ENS_9LevelModeEiiPKiS3_
libOpenEXR-3_4.so.33:_ZN7Imf_3_411TileOffsetsclEiii
libOpenEXR-3_4.so.33:_ZN7Imf_3_411TileOffsetsclEiiii
libOpenEXR-3_4.so.33:_ZN7Imf_3_411addAltitudeERNS_6HeaderERKf
libOpenEXR-3_4.so.33:_ZN7Imf_3_411addApertureERNS_6HeaderERKf
libOpenEXR-3_4.so.33:_ZN7Imf_3_411addCommentsERNS_6HeaderERKNSt7__cxx1112basic_stringIcSt11char_traitsIcESaIcEEE
libOpenEXR-3_4.so.33:_ZN7Imf_3_411addIsoSpeedERNS_6HeaderERKf
libOpenEXR-3_4.so.33:_ZN7Imf_3_411addLatitudeERNS_6HeaderERKf
libOpenEXR-3_4.so.33:_ZN7Imf_3_411addLensMakeERNS_6HeaderERKNSt7__cxx1112basic_stringIcSt11char_traitsIcESaIcEEE
libOpenEXR-3_4.so.33:_ZN7Imf_3_411addReelNameERNS_6HeaderERKNSt7__cxx1112basic_stringIcSt11char_traitsIcESaIcEEE
libOpenEXR-3_4.so.33:_ZN7Imf_3_411addTimeCodeERNS_6HeaderERKNS_8TimeCodeE
libOpenEXR-3_4.so.33:_ZN7Imf_3_411addXDensityERNS_6HeaderERKf
libOpenEXR-3_4.so.33:_ZN7Imf_3_411cameraLabelB5cxx11ERKNS_6HeaderE
libOpenEXR-3_4.so.33:_ZN7Imf_3_411cameraLabelB5cxx11ERNS_6HeaderE
libOpenEXR-3_4.so.33:_ZN7Imf_3_411cameraModelB5cxx11ERKNS_6HeaderE
libOpenEXR-3_4.so.33:_ZN7Imf_3_411cameraModelB5cxx11ERNS_6HeaderE
libOpenEXR-3_4.so.33:_ZN7Imf_3_411captureRateERKNS_6HeaderE
libOpenEXR-3_4.so.33:_ZN7Imf_3_411captureRateERNS_6HeaderE
libOpenEXR-3_4.so.33:_ZN7Imf_3_411floatToHalfEf
libOpenEXR-3_4.so.33:_ZN7Imf_3_411floatToUintEf
libOpenEXR-3_4.so.33:_ZN7Imf_3_411hasAltitudeERKNS_6HeaderE
libOpenEXR-3_4.so.33:_ZN7Imf_3_411hasApertureERKNS_6HeaderE
libOpenEXR-3_4.so.33:_ZN7Imf_3_411hasCommentsERKNS_6HeaderE
libOpenEXR-3_4.so.33:_ZN7Imf_3_411hasIsoSpeedERKNS_6HeaderE
libOpenEXR-3_4.so.33:_ZN7Imf_3_411hasLatitudeERKNS_6HeaderE
libOpenEXR-3_4.so.33:_ZN7Imf_3_411hasLensMakeERKNS_6HeaderE
libOpenEXR-3_4.so.33:_ZN7Imf_3_411hasReelNameERKNS_6HeaderE
libOpenEXR-3_4.so.33:_ZN7Imf_3_411hasTimeCodeERKNS_6HeaderE
libOpenEXR-3_4.so.33:_ZN7Imf_3_411hasXDensityERKNS_6HeaderE
libOpenEXR-3_4.so.33:_ZN7Imf_3_411hufCompressEPKtiPc
libOpenEXR-3_4.so.33:_ZN7Imf_3_411rleCompressEiPKcPa
libOpenEXR-3_4.so.33:_ZN7Imf_3_411skipChannelERPKcNS_9PixelTypeEm
libOpenEXR-3_4.so.33:_ZN7Imf_3_412PreviewImageC1ERKS0_
libOpenEXR-3_4.so.33:_ZN7Imf_3_412PreviewImageC1EjjPKNS_11PreviewRgbaE
libOpenEXR-3_4.so.33:_ZN7Imf_3_412PreviewImageC2ERKS0_
libOpenEXR-3_4.so.33:_ZN7Imf_3_412PreviewImageC2EjjPKNS_11PreviewRgbaE
libOpenEXR-3_4.so.33:_ZN7Imf_3_412PreviewImageD1Ev
libOpenEXR-3_4.so.33:_ZN7Imf_3_412PreviewImageD2Ev
libOpenEXR-3_4.so.33:_ZN7Imf_3_412PreviewImageaSERKS0_
libOpenEXR-3_4.so.33:_ZN7Imf_3_412addLensModelERNS_6HeaderERKNSt7__cxx1112basic_stringIcSt11char_traitsIcESaIcEEE
libOpenEXR-3_4.so.33:_ZN7Imf_3_412addLongitudeERNS_6HeaderERKf
libOpenEXR-3_4.so.33:_ZN7Imf_3_412addMultiViewERNS_6HeaderERKSt6vectorINSt7__cxx1112basic_stringIcSt11char_traitsIcESaIcEEESaIS8_EE
libOpenEXR-3_4.so.33:_ZN7Imf_3_412addUtcOffsetERNS_6HeaderERKf
libOpenEXR-3_4.so.33:_ZN7Imf_3_412addWrapmodesERNS_6HeaderERKNSt7__cxx1112basic_stringIcSt11char_traitsIcESaIcEEE
libOpenEXR-3_4.so.33:_ZN7Imf_3_412hasLensModelERKNS_6HeaderE
libOpenEXR-3_4.so.33:_ZN7Imf_3_412hasLongitudeERKNS_6HeaderE
libOpenEXR-3_4.so.33:_ZN7Imf_3_412hasMultiViewERKNS_6HeaderE
libOpenEXR-3_4.so.33:_ZN7Imf_3_412hasUtcOffsetERKNS_6HeaderE
libOpenEXR-3_4.so.33:_ZN7Imf_3_412hasWrapmodesERKNS_6HeaderE
libOpenEXR-3_4.so.33:_ZN7Imf_3_412imageCounterERKNS_6HeaderE
libOpenEXR-3_4.so.33:_ZN7Imf_3_412imageCounterERNS_6HeaderE
libOpenEXR-3_4.so.33:_ZN7Imf_3_412shutterAngleERKNS_6HeaderE
libOpenEXR-3_4.so.33:_ZN7Imf_3_412shutterAngleERNS_6HeaderE
libOpenEXR-3_4.so.33:_ZN7Imf_3_413AcesInputFile10readPixelsEi
libOpenEXR-3_4.so.33:_ZN7Imf_3_413AcesInputFile10readPixelsEii
libOpenEXR-3_4.so.33:_ZN7Imf_3_413AcesInputFile14setFrameBufferEPNS_4RgbaEmm
libOpenEXR-3_4.so.33:_ZN7Imf_3_413AcesInputFileC1ERKNSt7__cxx1112basic_stringIcSt11char_traitsIcESaIcEEEi
libOpenEXR-3_4.so.33:_ZN7Imf_3_413AcesInputFileC1ERNS_7IStreamEi
libOpenEXR-3_4.so.33:_ZN7Imf_3_413AcesInputFileC2ERKNSt7__cxx1112basic_stringIcSt11char_traitsIcESaIcEEEi
libOpenEXR-3_4.so.33:_ZN7Imf_3_413AcesInputFileC2ERNS_7IStreamEi
libOpenEXR-3_4.so.33:_ZN7Imf_3_413AcesInputFileD0Ev
libOpenEXR-3_4.so.33:_ZN7Imf_3_413AcesInputFileD1Ev
libOpenEXR-3_4.so.33:_ZN7Imf_3_413AcesInputFileD2Ev
libOpenEXR-3_4.so.33:_ZN7Imf_3_413RgbaInputFile10readPixelsEi
libOpenEXR-3_4.so.33:_ZN7Imf_3_413RgbaInputFile10readPixelsEii
libOpenEXR-3_4.so.33:_ZN7Imf_3_413RgbaInputFile12setLayerNameERKNSt7__cxx1112basic_stringIcSt11char_traitsIcESaIcEEE
libOpenEXR-3_4.so.33:_ZN7Imf_3_413RgbaInputFile14setFrameBufferEPNS_4RgbaEmm
libOpenEXR-3_4.so.33:_ZN7Imf_3_413RgbaInputFile15setPartAndLayerEiRKNSt7__cxx1112basic_stringIcSt11char_traitsIcESaIcEEE
libOpenEXR-3_4.so.33:_ZN7Imf_3_413RgbaInputFile7setPartEi
libOpenEXR-3_4.so.33:_ZN7Imf_3_413RgbaInputFileC1EPKcRKNSt7__cxx1112basic_stringIcSt11char_traitsIcESaIcEEEi
libOpenEXR-3_4.so.33:_ZN7Imf_3_413RgbaInputFileC1EPKci
libOpenEXR-3_4.so.33:_ZN7Imf_3_413RgbaInputFileC1ERNS_7IStreamERKNSt7__cxx1112basic_stringIcSt11char_traitsIcESaIcEEEi
libOpenEXR-3_4.so.33:_ZN7Imf_3_413RgbaInputFileC1ERNS_7IStreamEi
libOpenEXR-3_4.so.33:_ZN7Imf_3_413RgbaInputFileC1EiPKcRKNSt7__cxx1112basic_stringIcSt11char_traitsIcESaIcEEEi
libOpenEXR-3_4.so.33:_ZN7Imf_3_413RgbaInputFileC1EiPKci
libOpenEXR-3_4.so.33:_ZN7Imf_3_413RgbaInputFileC1EiRNS_7IStreamERKNSt7__cxx1112basic_stringIcSt11char_traitsIcESaIcEEEi
libOpenEXR-3_4.so.33:_ZN7Imf_3_413RgbaInputFileC1EiRNS_7IStreamEi
libOpenEXR-3_4.so.33:_ZN7Imf_3_413RgbaInputFileC2EPKcRKNSt7__cxx1112basic_stringIcSt11char_traitsIcESaIcEEEi
libOpenEXR-3_4.so.33:_ZN7Imf_3_413RgbaInputFileC2EPKci
libOpenEXR-3_4.so.33:_ZN7Imf_3_413RgbaInputFileC2ERNS_7IStreamERKNSt7__cxx1112basic_stringIcSt11char_traitsIcESaIcEEEi
libOpenEXR-3_4.so.33:_ZN7Imf_3_413RgbaInputFileC2ERNS_7IStreamEi
libOpenEXR-3_4.so.33:_ZN7Imf_3_413RgbaInputFileC2EiPKcRKNSt7__cxx1112basic_stringIcSt11char_traitsIcESaIcEEEi
libOpenEXR-3_4.so.33:_ZN7Imf_3_413RgbaInputFileC2EiPKci
libOpenEXR-3_4.so.33:_ZN7Imf_3_413RgbaInputFileC2EiRNS_7IStreamERKNSt7__cxx1112basic_stringIcSt11char_traitsIcESaIcEEEi
libOpenEXR-3_4.so.33:_ZN7Imf_3_413RgbaInputFileC2EiRNS_7IStreamEi
libOpenEXR-3_4.so.33:_ZN7Imf_3_413RgbaInputFileD0Ev
libOpenEXR-3_4.so.33:_ZN7Imf_3_413RgbaInputFileD1Ev
libOpenEXR-3_4.so.33:_ZN7Imf_3_413RgbaInputFileD2Ev
libOpenEXR-3_4.so.33:_ZN7Imf_3_413WidenFilenameB5cxx11EPKc
libOpenEXR-3_4.so.33:_ZN7Imf_3_413addCameraMakeERNS_6HeaderERKNSt7__cxx1112basic_stringIcSt11char_traitsIcESaIcEEE
libOpenEXR-3_4.so.33:_ZN7Imf_3_413addCameraUuidERNS_6HeaderERKNSt7__cxx1112basic_stringIcSt11char_traitsIcESaIcEEE
libOpenEXR-3_4.so.33:_ZN7Imf_3_413addIDManifestERNS_6HeaderERKNS_20CompressedIDManifestE
libOpenEXR-3_4.so.33:_ZN7Imf_3_413addWorldToNDCERNS_6HeaderERKN9Imath_3_18Matrix44IfEE
libOpenEXR-3_4.so.33:_ZN7Imf_3_413defaultFormatEPNS_10CompressorE
libOpenEXR-3_4.so.33:_ZN7Imf_3_413guessExactFpsERKNS_8RationalE
libOpenEXR-3_4.so.33:_ZN7Imf_3_413guessExactFpsEd
libOpenEXR-3_4.so.33:_ZN7Imf_3_413hasCameraMakeERKNS_6HeaderE
libOpenEXR-3_4.so.33:_ZN7Imf_3_413hasCameraUuidERKNS_6HeaderE
libOpenEXR-3_4.so.33:_ZN7Imf_3_413hasIDManifestERKNS_6HeaderE
libOpenEXR-3_4.so.33:_ZN7Imf_3_413hasWorldToNDCERKNS_6HeaderE
libOpenEXR-3_4.so.33:_ZN7Imf_3_413hufUncompressEPKciPti
libOpenEXR-3_4.so.33:_ZN7Imf_3_413isOpenExrFileEPKc
libOpenEXR-3_4.so.33:_ZN7Imf_3_413isOpenExrFileEPKcRb
libOpenEXR-3_4.so.33:_ZN7Imf_3_413isOpenExrFileEPKcRbS2_
libOpenEXR-3_4.so.33:_ZN7Imf_3_413isOpenExrFileEPKcRbS2_S2_
libOpenEXR-3_4.so.33:_ZN7Imf_3_413isOpenExrFileERNS_7IStreamE
libOpenEXR-3_4.so.33:_ZN7Imf_3_413isOpenExrFileERNS_7IStreamERb
libOpenEXR-3_4.so.33:_ZN7Imf_3_413isOpenExrFileERNS_7IStreamERbS2_
libOpenEXR-3_4.so.33:_ZN7Imf_3_413isOpenExrFileERNS_7IStreamERbS2_S2_
libOpenEXR-3_4.so.33:_ZN7Imf_3_413newCompressorENS_11CompressionEmRKNS_6HeaderE
libOpenEXR-3_4.so.33:_ZN7Imf_3_413pixelTypeSizeENS_9PixelTypeE
libOpenEXR-3_4.so.33:_ZN7Imf_3_413rleUncompressEiiPKaPc
libOpenEXR-3_4.so.33:_ZN7Imf_3_413usesLongNamesERKNS_6HeaderE
libOpenEXR-3_4.so.33:_ZN7Imf_3_413worldToCameraERKNS_6HeaderE
libOpenEXR-3_4.so.33:_ZN7Imf_3_413worldToCameraERNS_6HeaderE
libOpenEXR-3_4.so.33:_ZN7Imf_3_414AcesOutputFile11writePixelsEi
libOpenEXR-3_4.so.33:_ZN7Imf_3_414AcesOutputFile14setFrameBufferEPKNS_4RgbaEmm
libOpenEXR-3_4.so.33:_ZN7Imf_3_414AcesOutputFile18updatePreviewImageEPKNS_11PreviewRgbaE
libOpenEXR-3_4.so.33:_ZN7Imf_3_414AcesOutputFileC1ERKNSt7__cxx1112basic_stringIcSt11char_traitsIcESaIcEEERKN9Imath_3_13BoxINS9_4Vec2IiEEEESF_NS_12RgbaChannelsEfNSB_IfEEfNS_9LineOrderENS_11CompressionEi
libOpenEXR-3_4.so.33:_ZN7Imf_3_414AcesOutputFileC1ERKNSt7__cxx1112basic_stringIcSt11char_traitsIcESaIcEEERKNS_6HeaderENS_12RgbaChannelsEi
libOpenEXR-3_4.so.33:_ZN7Imf_3_414AcesOutputFileC1ERKNSt7__cxx1112basic_stringIcSt11char_traitsIcESaIcEEEiiNS_12RgbaChannelsEfN9Imath_3_14Vec2IfEEfNS_9LineOrderENS_11CompressionEi
libOpenEXR-3_4.so.33:_ZN7Imf_3_414AcesOutputFileC1ERNS_7OStreamERKNS_6HeaderENS_12RgbaChannelsEi
libOpenEXR-3_4.so.33:_ZN7Imf_3_414AcesOutputFileC2ERKNSt7__cxx1112basic_stringIcSt11char_traitsIcESaIcEEERKN9Imath_3_13BoxINS9_4Vec2IiEEEESF_NS_12RgbaChannelsEfNSB_IfEEfNS_9LineOrderENS_11CompressionEi
libOpenEXR-3_4.so.33:_ZN7Imf_3_414AcesOutputFileC2ERKNSt7__cxx1112basic_stringIcSt11char_traitsIcESaIcEEERKNS_6HeaderENS_12RgbaChannelsEi
libOpenEXR-3_4.so.33:_ZN7Imf_3_414AcesOutputFileC2ERKNSt7__cxx1112basic_stringIcSt11char_traitsIcESaIcEEEiiNS_12RgbaChannelsEfN9Imath_3_14Vec2IfEEfNS_9LineOrderENS_11CompressionEi
libOpenEXR-3_4.so.33:_ZN7Imf_3_414AcesOutputFileC2ERNS_7OStreamERKNS_6HeaderENS_12RgbaChannelsEi
libOpenEXR-3_4.so.33:_ZN7Imf_3_414AcesOutputFileD0Ev
libOpenEXR-3_4.so.33:_ZN7Imf_3_414AcesOutputFileD1Ev
libOpenEXR-3_4.so.33:_ZN7Imf_3_414AcesOutputFileD2Ev
libOpenEXR-3_4.so.33:_ZN7Imf_3_414BytesAttribute13copyValueFromERKNS_9AttributeE
libOpenEXR-3_4.so.33:_ZN7Imf_3_414BytesAttribute13readValueFromERNS_7IStreamEii
libOpenEXR-3_4.so.33:_ZN7Imf_3_414BytesAttribute14staticTypeNameEv
libOpenEXR-3_4.so.33:_ZN7Imf_3_414BytesAttribute16makeNewAttributeEv
libOpenEXR-3_4.so.33:_ZN7Imf_3_414BytesAttribute21registerAttributeTypeEv
libOpenEXR-3_4.so.33:_ZN7Imf_3_414BytesAttribute23unRegisterAttributeTypeEv
libOpenEXR-3_4.so.33:_ZN7Imf_3_414BytesAttribute7setDataEPKhm
libOpenEXR-3_4.so.33:_ZN7Imf_3_414BytesAttributeC1ERKS0_
libOpenEXR-3_4.so.33:_ZN7Imf_3_414BytesAttributeC1EmPKvRKNSt7__cxx1112basic_stringIcSt11char_traitsIcESaIcEEE
libOpenEXR-3_4.so.33:_ZN7Imf_3_414BytesAttributeC1Ev
libOpenEXR-3_4.so.33:_ZN7Imf_3_414BytesAttributeC2ERKS0_
libOpenEXR-3_4.so.33:_ZN7Imf_3_414BytesAttributeC2EmPKvRKNSt7__cxx1112basic_stringIcSt11char_traitsIcESaIcEEE
libOpenEXR-3_4.so.33:_ZN7Imf_3_414BytesAttributeC2Ev
libOpenEXR-3_4.so.33:_ZN7Imf_3_414BytesAttributeD0Ev
libOpenEXR-3_4.so.33:_ZN7Imf_3_414BytesAttributeD1Ev
libOpenEXR-3_4.so.33:_ZN7Imf_3_414BytesAttributeD2Ev
libOpenEXR-3_4.so.33:_ZN7Imf_3_414ChromaticitiesC1ERKN9Imath_3_14Vec2IfEES5_S5_S5_
libOpenEXR-3_4.so.33:_ZN7Imf_3_414ChromaticitiesC2ERKN9Imath_3_14Vec2IfEES5_S5_S5_
libOpenEXR-3_4.so.33:_ZN7Imf_3_414RgbaOutputFile11writePixelsEi
libOpenEXR-3_4.so.33:_ZN7Imf_3_414RgbaOutputFile13breakScanLineEiiic
libOpenEXR-3_4.so.33:_ZN7Imf_3_414RgbaOutputFile13setYCRoundingEjj
libOpenEXR-3_4.so.33:_ZN7Imf_3_414RgbaOutputFile14setFrameBufferEPKNS_4RgbaEmm
libOpenEXR-3_4.so.33:_ZN7Imf_3_414RgbaOutputFile18updatePreviewImageEPKNS_11PreviewRgbaE
libOpenEXR-3_4.so.33:_ZN7Imf_3_414RgbaOutputFileC1EPKcRKN9Imath_3_13BoxINS3_4Vec2IiEEEES9_NS_12RgbaChannelsEfNS5_IfEEfNS_9LineOrderENS_11CompressionEi
libOpenEXR-3_4.so.33:_ZN7Imf_3_414RgbaOutputFileC1EPKcRKNS_6HeaderENS_12RgbaChannelsEi
libOpenEXR-3_4.so.33:_ZN7Imf_3_414RgbaOutputFileC1EPKciiNS_12RgbaChannelsEfN9Imath_3_14Vec2IfEEfNS_9LineOrderENS_11CompressionEi
libOpenEXR-3_4.so.33:_ZN7Imf_3_414RgbaOutputFileC1ERNS_7OStreamERKNS_6HeaderENS_12RgbaChannelsEi
libOpenEXR-3_4.so.33:_ZN7Imf_3_414RgbaOutputFileC2EPKcRKN9Imath_3_13BoxINS3_4Vec2IiEEEES9_NS_12RgbaChannelsEfNS5_IfEEfNS_9LineOrderENS_11CompressionEi
libOpenEXR-3_4.so.33:_ZN7Imf_3_414RgbaOutputFileC2EPKcRKNS_6HeaderENS_12RgbaChannelsEi
libOpenEXR-3_4.so.33:_ZN7Imf_3_414RgbaOutputFileC2EPKciiNS_12RgbaChannelsEfN9Imath_3_14Vec2IfEEfNS_9LineOrderENS_11CompressionEi
libOpenEXR-3_4.so.33:_ZN7Imf_3_414RgbaOutputFileC2ERNS_7OStreamERKNS_6HeaderENS_12RgbaChannelsEi
libOpenEXR-3_4.so.33:_ZN7Imf_3_414RgbaOutputFileD0Ev
libOpenEXR-3_4.so.33:_ZN7Imf_3_414RgbaOutputFileD1Ev
libOpenEXR-3_4.so.33:_ZN7Imf_3_414RgbaOutputFileD2Ev
libOpenEXR-3_4.so.33:_ZN7Imf_3_414TiledInputFile11rawTileDataERiS1_S1_S1_RPKcS1_
libOpenEXR-3_4.so.33:_ZN7Imf_3_414TiledInputFile14setFrameBufferERKNS_11FrameBufferE
libOpenEXR-3_4.so.33:_ZN7Imf_3_414TiledInputFile8readTileEiii
libOpenEXR-3_4.so.33:_ZN7Imf_3_414TiledInputFile8readTileEiiii
libOpenEXR-3_4.so.33:_ZN7Imf_3_414TiledInputFile9readTilesEiiiii
libOpenEXR-3_4.so.33:_ZN7Imf_3_414TiledInputFile9readTilesEiiiiii
libOpenEXR-3_4.so.33:_ZN7Imf_3_414TiledInputFileC1EPKcRKNS_18ContextInitializerEi
libOpenEXR-3_4.so.33:_ZN7Imf_3_414TiledInputFileC1EPKci
libOpenEXR-3_4.so.33:_ZN7Imf_3_414TiledInputFileC1ERNS_7IStreamEi
libOpenEXR-3_4.so.33:_ZN7Imf_3_414TiledInputFileC2EPKcRKNS_18ContextInitializerEi
libOpenEXR-3_4.so.33:_ZN7Imf_3_414TiledInputFileC2EPKci
libOpenEXR-3_4.so.33:_ZN7Imf_3_414TiledInputFileC2ERNS_7IStreamEi
libOpenEXR-3_4.so.33:_ZN7Imf_3_414TiledInputPart11rawTileDataERiS1_S1_S1_RPKcS1_
libOpenEXR-3_4.so.33:_ZN7Imf_3_414TiledInputPart14setFrameBufferERKNS_11FrameBufferE
libOpenEXR-3_4.so.33:_ZN7Imf_3_414TiledInputPart8readTileEiii
libOpenEXR-3_4.so.33:_ZN7Imf_3_414TiledInputPart8readTileEiiii
libOpenEXR-3_4.so.33:_ZN7Imf_3_414TiledInputPart9readTilesEiiiii
libOpenEXR-3_4.so.33:_ZN7Imf_3_414TiledInputPart9readTilesEiiiiii
libOpenEXR-3_4.so.33:_ZN7Imf_3_414TiledInputPartC1ERNS_18MultiPartInputFileEi
libOpenEXR-3_4.so.33:_ZN7Imf_3_414TiledInputPartC2ERNS_18MultiPartInputFileEi
libOpenEXR-3_4.so.33:_ZN7Imf_3_414TypedAttributeIN9Imath_3_13BoxINS1_4Vec2IfEEEEE13readValueFromERNS_7IStreamEii
libOpenEXR-3_4.so.33:_ZN7Imf_3_414TypedAttributeIN9Imath_3_13BoxINS1_4Vec2IfEEEEE14staticTypeNameEv
libOpenEXR-3_4.so.33:_ZN7Imf_3_414TypedAttributeIN9Imath_3_13BoxINS1_4Vec2IiEEEEE13readValueFromERNS_7IStreamEii
libOpenEXR-3_4.so.33:_ZN7Imf_3_414TypedAttributeIN9Imath_3_13BoxINS1_4Vec2IiEEEEE14staticTypeNameEv
libOpenEXR-3_4.so.33:_ZN7Imf_3_414TypedAttributeIN9Imath_3_14Vec2IdEEE13readValueFromERNS_7IStreamEii
libOpenEXR-3_4.so.33:_ZN7Imf_3_414TypedAttributeIN9Imath_3_14Vec2IdEEE14staticTypeNameEv
libOpenEXR-3_4.so.33:_ZN7Imf_3_414TypedAttributeIN9Imath_3_14Vec2IfEEE13readValueFromERNS_7IStreamEii
libOpenEXR-3_4.so.33:_ZN7Imf_3_414TypedAttributeIN9Imath_3_14Vec2IfEEE14staticTypeNameEv
libOpenEXR-3_4.so.33:_ZN7Imf_3_414TypedAttributeIN9Imath_3_14Vec2IiEEE13readValueFromERNS_7IStreamEii
libOpenEXR-3_4.so.33:_ZN7Imf_3_414TypedAttributeIN9Imath_3_14Vec2IiEEE14staticTypeNameEv
libOpenEXR-3_4.so.33:_ZN7Imf_3_414TypedAttributeIN9Imath_3_14Vec3IdEEE13readValueFromERNS_7IStreamEii
libOpenEXR-3_4.so.33:_ZN7Imf_3_414TypedAttributeIN9Imath_3_14Vec3IdEEE14staticTypeNameEv
libOpenEXR-3_4.so.33:_ZN7Imf_3_414TypedAttributeIN9Imath_3_14Vec3IfEEE13readValueFromERNS_7IStreamEii
libOpenEXR-3_4.so.33:_ZN7Imf_3_414TypedAttributeIN9Imath_3_14Vec3IfEEE14staticTypeNameEv
libOpenEXR-3_4.so.33:_ZN7Imf_3_414TypedAttributeIN9Imath_3_14Vec3IiEEE13readValueFromERNS_7IStreamEii
libOpenEXR-3_4.so.33:_ZN7Imf_3_414TypedAttributeIN9Imath_3_14Vec3IiEEE14staticTypeNameEv
libOpenEXR-3_4.so.33:_ZN7Imf_3_414TypedAttributeIN9Imath_3_18Matrix33IdEEE13readValueFromERNS_7IStreamEii
libOpenEXR-3_4.so.33:_ZN7Imf_3_414TypedAttributeIN9Imath_3_18Matrix33IdEEE14staticTypeNameEv
libOpenEXR-3_4.so.33:_ZN7Imf_3_414TypedAttributeIN9Imath_3_18Matrix33IfEEE13readValueFromERNS_7IStreamEii
libOpenEXR-3_4.so.33:_ZN7Imf_3_414TypedAttributeIN9Imath_3_18Matrix33IfEEE14staticTypeNameEv
libOpenEXR-3_4.so.33:_ZN7Imf_3_414TypedAttributeIN9Imath_3_18Matrix44IdEEE13readValueFromERNS_7IStreamEii
libOpenEXR-3_4.so.33:_ZN7Imf_3_414TypedAttributeIN9Imath_3_18Matrix44IdEEE14staticTypeNameEv
libOpenEXR-3_4.so.33:_ZN7Imf_3_414TypedAttributeIN9Imath_3_18Matrix44IfEEE13readValueFromERNS_7IStreamEii
libOpenEXR-3_4.so.33:_ZN7Imf_3_414TypedAttributeIN9Imath_3_18Matrix44IfEEE14staticTypeNameEv
libOpenEXR-3_4.so.33:_ZN7Imf_3_414TypedAttributeINS_11ChannelListEE13readValueFromERNS_7IStreamEii
libOpenEXR-3_4.so.33:_ZN7Imf_3_414TypedAttributeINS_11ChannelListEE14staticTypeNameEv
libOpenEXR-3_4.so.33:_ZN7Imf_3_414TypedAttributeINS_11CompressionEE13readValueFromERNS_7IStreamEii
libOpenEXR-3_4.so.33:_ZN7Imf_3_414TypedAttributeINS_11CompressionEE14staticTypeNameEv
libOpenEXR-3_4.so.33:_ZN7Imf_3_414TypedAttributeINS_12PreviewImageEE13readValueFromERNS_7IStreamEii
libOpenEXR-3_4.so.33:_ZN7Imf_3_414TypedAttributeINS_12PreviewImageEE14staticTypeNameEv
libOpenEXR-3_4.so.33:_ZN7Imf_3_414TypedAttributeINS_14ChromaticitiesEE13readValueFromERNS_7IStreamEii
libOpenEXR-3_4.so.33:_ZN7Imf_3_414TypedAttributeINS_14ChromaticitiesEE14staticTypeNameEv
libOpenEXR-3_4.so.33:_ZN7Imf_3_414TypedAttributeINS_14DeepImageStateEE13copyValueFromERKNS_9AttributeE
libOpenEXR-3_4.so.33:_ZN7Imf_3_414TypedAttributeINS_14DeepImageStateEE13readValueFromERNS_7IStreamEii
libOpenEXR-3_4.so.33:_ZN7Imf_3_414TypedAttributeINS_14DeepImageStateEE14staticTypeNameEv
libOpenEXR-3_4.so.33:_ZN7Imf_3_414TypedAttributeINS_15TileDescriptionEE13readValueFromERNS_7IStreamEii
libOpenEXR-3_4.so.33:_ZN7Imf_3_414TypedAttributeINS_15TileDescriptionEE14staticTypeNameEv
libOpenEXR-3_4.so.33:_ZN7Imf_3_414TypedAttributeINS_20CompressedIDManifestEE13readValueFromERNS_7IStreamEii
libOpenEXR-3_4.so.33:_ZN7Imf_3_414TypedAttributeINS_20CompressedIDManifestEE14staticTypeNameEv
libOpenEXR-3_4.so.33:_ZN7Imf_3_414TypedAttributeINS_6EnvmapEE13copyValueFromERKNS_9AttributeE
libOpenEXR-3_4.so.33:_ZN7Imf_3_414TypedAttributeINS_6EnvmapEE13readValueFromERNS_7IStreamEii
libOpenEXR-3_4.so.33:_ZN7Imf_3_414TypedAttributeINS_6EnvmapEE14staticTypeNameEv
libOpenEXR-3_4.so.33:_ZN7Imf_3_414TypedAttributeINS_7KeyCodeEE13readValueFromERNS_7IStreamEii
libOpenEXR-3_4.so.33:_ZN7Imf_3_414TypedAttributeINS_7KeyCodeEE14staticTypeNameEv
libOpenEXR-3_4.so.33:_ZN7Imf_3_414TypedAttributeINS_8RationalEE13readValueFromERNS_7IStreamEii
libOpenEXR-3_4.so.33:_ZN7Imf_3_414TypedAttributeINS_8RationalEE14staticTypeNameEv
libOpenEXR-3_4.so.33:_ZN7Imf_3_414TypedAttributeINS_8TimeCodeEE13readValueFromERNS_7IStreamEii
libOpenEXR-3_4.so.33:_ZN7Imf_3_414TypedAttributeINS_8TimeCodeEE14staticTypeNameEv
libOpenEXR-3_4.so.33:_ZN7Imf_3_414TypedAttributeINS_9LineOrderEE13readValueFromERNS_7IStreamEii
libOpenEXR-3_4.so.33:_ZN7Imf_3_414TypedAttributeINS_9LineOrderEE14staticTypeNameEv
libOpenEXR-3_4.so.33:_ZN7Imf_3_414TypedAttributeINSt7__cxx1112basic_stringIcSt11char_traitsIcESaIcEEEE13readValueFromERNS_7IStreamEii
libOpenEXR-3_4.so.33:_ZN7Imf_3_414TypedAttributeINSt7__cxx1112basic_stringIcSt11char_traitsIcESaIcEEEE14staticTypeNameEv
libOpenEXR-3_4.so.33:_ZN7Imf_3_414TypedAttributeISt6vectorINSt7__cxx1112basic_stringIcSt11char_traitsIcESaIcEEESaIS7_EEE13readValueFromERNS_7IStreamEii
libOpenEXR-3_4.so.33:_ZN7Imf_3_414TypedAttributeISt6vectorINSt7__cxx1112basic_stringIcSt11char_traitsIcESaIcEEESaIS7_EEE14staticTypeNameEv
libOpenEXR-3_4.so.33:_ZN7Imf_3_414TypedAttributeISt6vectorIfSaIfEEE13readValueFromERNS_7IStreamEii
libOpenEXR-3_4.so.33:_ZN7Imf_3_414TypedAttributeISt6vectorIfSaIfEEE14staticTypeNameEv
libOpenEXR-3_4.so.33:_ZN7Imf_3_414TypedAttributeIdE14staticTypeNameEv
libOpenEXR-3_4.so.33:_ZN7Imf_3_414TypedAttributeIfE14staticTypeNameEv
libOpenEXR-3_4.so.33:_ZN7Imf_3_414TypedAttributeIiE14staticTypeNameEv
libOpenEXR-3_4.so.33:_ZN7Imf_3_414addCameraLabelERNS_6HeaderERKNSt7__cxx1112basic_stringIcSt11char_traitsIcESaIcEEE
libOpenEXR-3_4.so.33:_ZN7Imf_3_414addCameraModelERNS_6HeaderERKNSt7__cxx1112basic_stringIcSt11char_traitsIcESaIcEEE
libOpenEXR-3_4.so.33:_ZN7Imf_3_414addCaptureRateERNS_6HeaderERKNS_8RationalE
libOpenEXR-3_4.so.33:_ZN7Imf_3_414adoptedNeutralERKNS_6HeaderE
libOpenEXR-3_4.so.33:_ZN7Imf_3_414adoptedNeutralERNS_6HeaderE
libOpenEXR-3_4.so.33:_ZN7Imf_3_414channelsInViewERKNSt7__cxx1112basic_stringIcSt11char_traitsIcESaIcEEERKNS_11ChannelListERKSt6vectorIS5_SaIS5_EE
libOpenEXR-3_4.so.33:_ZN7Imf_3_414chromaticitiesERKNS_6HeaderE
libOpenEXR-3_4.so.33:_ZN7Imf_3_414chromaticitiesERNS_6HeaderE
libOpenEXR-3_4.so.33:_ZN7Imf_3_414colorInteropIDB5cxx11ERKNS_6HeaderE
libOpenEXR-3_4.so.33:_ZN7Imf_3_414colorInteropIDB5cxx11ERNS_6HeaderE
libOpenEXR-3_4.so.33:_ZN7Imf_3_414convertInPlaceERPcRPKcNS_9PixelTypeEm
libOpenEXR-3_4.so.33:_ZN7Imf_3_414deepImageStateERKNS_6HeaderE
libOpenEXR-3_4.so.33:_ZN7Imf_3_414deepImageStateERNS_6HeaderE
libOpenEXR-3_4.so.33:_ZN7Imf_3_414focusAttributeERKNS_6HeaderE
libOpenEXR-3_4.so.33:_ZN7Imf_3_414focusAttributeERNS_6HeaderE
libOpenEXR-3_4.so.33:_ZN7Imf_3_414hasCameraLabelERKNS_6HeaderE
libOpenEXR-3_4.so.33:_ZN7Imf_3_414hasCameraModelERKNS_6HeaderE
libOpenEXR-3_4.so.33:_ZN7Imf_3_414hasCaptureRateERKNS_6HeaderE
libOpenEXR-3_4.so.33:_ZN7Imf_3_414insertViewNameERKNSt7__cxx1112basic_stringIcSt11char_traitsIcESaIcEEERKSt6vectorIS5_SaIS5_EEi
libOpenEXR-3_4.so.33:_ZN7Imf_3_414lineBufferMaxYEiii
libOpenEXR-3_4.so.33:_ZN7Imf_3_414lineBufferMinYEiii
libOpenEXR-3_4.so.33:_ZN7Imf_3_414ownerAttributeB5cxx11ERKNS_6HeaderE
libOpenEXR-3_4.so.33:_ZN7Imf_3_414ownerAttributeB5cxx11ERNS_6HeaderE
libOpenEXR-3_4.so.33:_ZN7Imf_3_414removeViewNameERKNSt7__cxx1112basic_stringIcSt11char_traitsIcESaIcEEES7_
libOpenEXR-3_4.so.33:_ZN7Imf_3_414tStopAttributeERKNS_6HeaderE
libOpenEXR-3_4.so.33:_ZN7Imf_3_414tStopAttributeERNS_6HeaderE
libOpenEXR-3_4.so.33:_ZN7Imf_3_414whiteLuminanceERKNS_6HeaderE
libOpenEXR-3_4.so.33:_ZN7Imf_3_414whiteLuminanceERNS_6HeaderE
libOpenEXR-3_4.so.33:_ZN7Imf_3_415DeepCompositing15composite_pixelEPfPPKfPPKciii
libOpenEXR-3_4.so.33:_ZN7Imf_3_415DeepCompositing4sortEPiPPKfPPKciii
libOpenEXR-3_4.so.33:_ZN7Imf_3_415DeepCompositingC1Ev
libOpenEXR-3_4.so.33:_ZN7Imf_3_415DeepCompositingC2Ev
libOpenEXR-3_4.so.33:_ZN7Imf_3_415DeepCompositingD0Ev
libOpenEXR-3_4.so.33:_ZN7Imf_3_415DeepCompositingD1Ev
libOpenEXR-3_4.so.33:_ZN7Imf_3_415DeepCompositingD2Ev
libOpenEXR-3_4.so.33:_ZN7Imf_3_415DeepFrameBuffer22insertSampleCountSliceERKNS_5SliceE
libOpenEXR-3_4.so.33:_ZN7Imf_3_415DeepFrameBuffer3endEv
libOpenEXR-3_4.so.33:_ZN7Imf_3_415DeepFrameBuffer4findEPKc
libOpenEXR-3_4.so.33:_ZN7Imf_3_415DeepFrameBuffer4findERKNSt7__cxx1112basic_stringIcSt11char_traitsIcESaIcEEE
libOpenEXR-3_4.so.33:_ZN7Imf_3_415DeepFrameBuffer5beginEv
libOpenEXR-3_4.so.33:_ZN7Imf_3_415DeepFrameBuffer6insertEPKcRKNS_9DeepSliceE
libOpenEXR-3_4.so.33:_ZN7Imf_3_415DeepFrameBuffer6insertERKNSt7__cxx1112basic_stringIcSt11char_traitsIcESaIcEEERKNS_9DeepSliceE
libOpenEXR-3_4.so.33:_ZN7Imf_3_415DeepFrameBuffer9findSliceEPKc
libOpenEXR-3_4.so.33:_ZN7Imf_3_415DeepFrameBuffer9findSliceERKNSt7__cxx1112basic_stringIcSt11char_traitsIcESaIcEEE
libOpenEXR-3_4.so.33:_ZN7Imf_3_415DeepFrameBufferixEPKc
libOpenEXR-3_4.so.33:_ZN7Imf_3_415DeepFrameBufferixERKNSt7__cxx1112basic_stringIcSt11char_traitsIcESaIcEEE
libOpenEXR-3_4.so.33:_ZN7Imf_3_415OpaqueAttribute13copyValueFromERKNS_9AttributeE
libOpenEXR-3_4.so.33:_ZN7Imf_3_415OpaqueAttribute13readValueFromERNS_7IStreamEii
libOpenEXR-3_4.so.33:_ZN7Imf_3_415OpaqueAttributeC1EPKc
libOpenEXR-3_4.so.33:_ZN7Imf_3_415OpaqueAttributeC1EPKclPKv
libOpenEXR-3_4.so.33:_ZN7Imf_3_415OpaqueAttributeC1ERKS0_
libOpenEXR-3_4.so.33:_ZN7Imf_3_415OpaqueAttributeC2EPKc
libOpenEXR-3_4.so.33:_ZN7Imf_3_415OpaqueAttributeC2EPKclPKv
libOpenEXR-3_4.so.33:_ZN7Imf_3_415OpaqueAttributeC2ERKS0_
libOpenEXR-3_4.so.33:_ZN7Imf_3_415OpaqueAttributeD0Ev
libOpenEXR-3_4.so.33:_ZN7Imf_3_415OpaqueAttributeD1Ev
libOpenEXR-3_4.so.33:_ZN7Imf_3_415OpaqueAttributeD2Ev
libOpenEXR-3_4.so.33:_ZN7Imf_3_415TiledOutputFile10copyPixelsERNS_14TiledInputFileE
libOpenEXR-3_4.so.33:_ZN7Imf_3_415TiledOutputFile10copyPixelsERNS_14TiledInputPartE
libOpenEXR-3_4.so.33:_ZN7Imf_3_415TiledOutputFile10copyPixelsERNS_9InputFileE
libOpenEXR-3_4.so.33:_ZN7Imf_3_415TiledOutputFile10copyPixelsERNS_9InputPartE
libOpenEXR-3_4.so.33:_ZN7Imf_3_415TiledOutputFile10writeTilesEiiiii
libOpenEXR-3_4.so.33:_ZN7Imf_3_415TiledOutputFile10writeTilesEiiiiii
libOpenEXR-3_4.so.33:_ZN7Imf_3_415TiledOutputFile14setFrameBufferERKNS_11FrameBufferE
libOpenEXR-3_4.so.33:_ZN7Imf_3_415TiledOutputFile18updatePreviewImageEPKNS_11PreviewRgbaE
libOpenEXR-3_4.so.33:_ZN7Imf_3_415TiledOutputFile9breakTileEiiiiiic
libOpenEXR-3_4.so.33:_ZN7Imf_3_415TiledOutputFile9writeTileEiii
libOpenEXR-3_4.so.33:_ZN7Imf_3_415TiledOutputFile9writeTileEiiii
libOpenEXR-3_4.so.33:_ZN7Imf_3_415TiledOutputFileC1EPKcRKNS_6HeaderEi
libOpenEXR-3_4.so.33:_ZN7Imf_3_415TiledOutputFileC1ERNS_7OStreamERKNS_6HeaderEi
libOpenEXR-3_4.so.33:_ZN7Imf_3_415TiledOutputFileC2EPKcRKNS_6HeaderEi
libOpenEXR-3_4.so.33:_ZN7Imf_3_415TiledOutputFileC2ERNS_7OStreamERKNS_6HeaderEi
libOpenEXR-3_4.so.33:_ZN7Imf_3_415TiledOutputFileD0Ev
libOpenEXR-3_4.so.33:_ZN7Imf_3_415TiledOutputFileD1Ev
libOpenEXR-3_4.so.33:_ZN7Imf_3_415TiledOutputFileD2Ev
libOpenEXR-3_4.so.33:_ZN7Imf_3_415TiledOutputPart10copyPixelsERNS_14TiledInputFileE
libOpenEXR-3_4.so.33:_ZN7Imf_3_415TiledOutputPart10copyPixelsERNS_14TiledInputPartE
libOpenEXR-3_4.so.33:_ZN7Imf_3_415TiledOutputPart10copyPixelsERNS_9InputFileE
libOpenEXR-3_4.so.33:_ZN7Imf_3_415TiledOutputPart10copyPixelsERNS_9InputPartE
libOpenEXR-3_4.so.33:_ZN7Imf_3_415TiledOutputPart10writeTilesEiiiii
libOpenEXR-3_4.so.33:_ZN7Imf_3_415TiledOutputPart10writeTilesEiiiiii
libOpenEXR-3_4.so.33:_ZN7Imf_3_415TiledOutputPart14setFrameBufferERKNS_11FrameBufferE
libOpenEXR-3_4.so.33:_ZN7Imf_3_415TiledOutputPart18updatePreviewImageEPKNS_11PreviewRgbaE
libOpenEXR-3_4.so.33:_ZN7Imf_3_415TiledOutputPart9breakTileEiiiiiic
libOpenEXR-3_4.so.33:_ZN7Imf_3_415TiledOutputPart9writeTileEiii
libOpenEXR-3_4.so.33:_ZN7Imf_3_415TiledOutputPart9writeTileEiiii
libOpenEXR-3_4.so.33:_ZN7Imf_3_415TiledOutputPartC1ERNS_19MultiPartOutputFileEi
libOpenEXR-3_4.so.33:_ZN7Imf_3_415TiledOutputPartC2ERNS_19MultiPartOutputFileEi
libOpenEXR-3_4.so.33:_ZN7Imf_3_415addImageCounterERNS_6HeaderERKi
libOpenEXR-3_4.so.33:_ZN7Imf_3_415addShutterAngleERNS_6HeaderERKf
libOpenEXR-3_4.so.33:_ZN7Imf_3_415areCounterpartsERKNSt7__cxx1112basic_stringIcSt11char_traitsIcESaIcEEES7_RKSt6vectorIS5_SaIS5_EE
libOpenEXR-3_4.so.33:_ZN7Imf_3_415defaultViewNameERKSt6vectorINSt7__cxx1112basic_stringIcSt11char_traitsIcESaIcEEESaIS6_EE
libOpenEXR-3_4.so.33:_ZN7Imf_3_415envmapAttributeERKNS_6HeaderE
libOpenEXR-3_4.so.33:_ZN7Imf_3_415envmapAttributeERNS_6HeaderE
libOpenEXR-3_4.so.33:_ZN7Imf_3_415framesPerSecondERKNS_6HeaderE
libOpenEXR-3_4.so.33:_ZN7Imf_3_415framesPerSecondERNS_6HeaderE
libOpenEXR-3_4.so.33:_ZN7Imf_3_415hasImageCounterERKNS_6HeaderE
libOpenEXR-3_4.so.33:_ZN7Imf_3_415hasShutterAngleERKNS_6HeaderE
libOpenEXR-3_4.so.33:_ZN7Imf_3_415isSupportedTypeERKNSt7__cxx1112basic_stringIcSt11char_traitsIcESaIcEEE
libOpenEXR-3_4.so.33:_ZN7Imf_3_416GenericInputFile30readMagicNumberAndVersionFieldERNS_7IStreamERi
libOpenEXR-3_4.so.33:_ZN7Imf_3_416GenericInputFileC1Ev
libOpenEXR-3_4.so.33:_ZN7Imf_3_416GenericInputFileC2Ev
libOpenEXR-3_4.so.33:_ZN7Imf_3_416GenericInputFileD0Ev
libOpenEXR-3_4.so.33:_ZN7Imf_3_416GenericInputFileD1Ev
libOpenEXR-3_4.so.33:_ZN7Imf_3_416GenericInputFileD2Ev
libOpenEXR-3_4.so.33:_ZN7Imf_3_416addWorldToCameraERNS_6HeaderERKN9Imath_3_18Matrix44IfEE
libOpenEXR-3_4.so.33:_ZN7Imf_3_416cameraCCTSettingERKNS_6HeaderE
libOpenEXR-3_4.so.33:_ZN7Imf_3_416cameraCCTSettingERNS_6HeaderE
libOpenEXR-3_4.so.33:_ZN7Imf_3_416capDateAttributeB5cxx11ERKNS_6HeaderE
libOpenEXR-3_4.so.33:_ZN7Imf_3_416capDateAttributeB5cxx11ERNS_6HeaderE
libOpenEXR-3_4.so.33:_ZN7Imf_3_416channelsInNoViewERKNS_11ChannelListERKSt6vectorINSt7__cxx1112basic_stringIcSt11char_traitsIcESaIcEEESaIS9_EE
libOpenEXR-3_4.so.33:_ZN7Imf_3_416expTimeAttributeERKNS_6HeaderE
libOpenEXR-3_4.so.33:_ZN7Imf_3_416expTimeAttributeERNS_6HeaderE
libOpenEXR-3_4.so.33:_ZN7Imf_3_416hasWorldToCameraERKNS_6HeaderE
libOpenEXR-3_4.so.33:_ZN7Imf_3_416keyCodeAttributeERKNS_6HeaderE
libOpenEXR-3_4.so.33:_ZN7Imf_3_416keyCodeAttributeERNS_6HeaderE
libOpenEXR-3_4.so.33:_ZN7Imf_3_416lensSerialNumberB5cxx11ERKNS_6HeaderE
libOpenEXR-3_4.so.33:_ZN7Imf_3_416lensSerialNumberB5cxx11ERNS_6HeaderE
libOpenEXR-3_4.so.33:_ZN7Imf_3_416lookModTransformB5cxx11ERKNS_6HeaderE
libOpenEXR-3_4.so.33:_ZN7Imf_3_416lookModTransformB5cxx11ERNS_6HeaderE
libOpenEXR-3_4.so.33:_ZN7Imf_3_416numLinesInBufferENS_11CompressionE
libOpenEXR-3_4.so.33:_ZN7Imf_3_416numLinesInBufferEPNS_10CompressorE
libOpenEXR-3_4.so.33:_ZN7Imf_3_416staticInitializeEv
libOpenEXR-3_4.so.33:_ZN7Imf_3_417GenericOutputFile31writeMagicNumberAndVersionFieldERNS_7OStreamEPKNS_6HeaderEi
libOpenEXR-3_4.so.33:_ZN7Imf_3_417GenericOutputFile31writeMagicNumberAndVersionFieldERNS_7OStreamERKNS_6HeaderE
libOpenEXR-3_4.so.33:_ZN7Imf_3_417GenericOutputFileC1Ev
libOpenEXR-3_4.so.33:_ZN7Imf_3_417GenericOutputFileC2Ev
libOpenEXR-3_4.so.33:_ZN7Imf_3_417GenericOutputFileD0Ev
libOpenEXR-3_4.so.33:_ZN7Imf_3_417GenericOutputFileD1Ev
libOpenEXR-3_4.so.33:_ZN7Imf_3_417GenericOutputFileD2Ev
libOpenEXR-3_4.so.33:_ZN7Imf_3_417ScanLineInputFile10readPixelsERKNS_11FrameBufferEii
libOpenEXR-3_4.so.33:_ZN7Imf_3_417ScanLineInputFile10readPixelsEi
libOpenEXR-3_4.so.33:_ZN7Imf_3_417ScanLineInputFile10readPixelsEii
libOpenEXR-3_4.so.33:_ZN7Imf_3_417ScanLineInputFile12rawPixelDataEiRPKcRi
libOpenEXR-3_4.so.33:_ZN7Imf_3_417ScanLineInputFile14setFrameBufferERKNS_11FrameBufferE
libOpenEXR-3_4.so.33:_ZN7Imf_3_417ScanLineInputFileC1EPKcRKNS_18ContextInitializerEi
libOpenEXR-3_4.so.33:_ZN7Imf_3_417ScanLineInputFileC1EPKci
libOpenEXR-3_4.so.33:_ZN7Imf_3_417ScanLineInputFileC1ERNS_7IStreamEi
libOpenEXR-3_4.so.33:_ZN7Imf_3_417ScanLineInputFileC2EPKcRKNS_18ContextInitializerEi
libOpenEXR-3_4.so.33:_ZN7Imf_3_417ScanLineInputFileC2EPKci
libOpenEXR-3_4.so.33:_ZN7Imf_3_417ScanLineInputFileC2ERNS_7IStreamEi
libOpenEXR-3_4.so.33:_ZN7Imf_3_417addAdoptedNeutralERNS_6HeaderERKN9Imath_3_14Vec2IfEE
libOpenEXR-3_4.so.33:_ZN7Imf_3_417addChromaticitiesERNS_6HeaderERKNS_14ChromaticitiesE
libOpenEXR-3_4.so.33:_ZN7Imf_3_417addColorInteropIDERNS_6HeaderERKNSt7__cxx1112basic_stringIcSt11char_traitsIcESaIcEEE
libOpenEXR-3_4.so.33:_ZN7Imf_3_417addDeepImageStateERNS_6HeaderERKNS_14DeepImageStateE
libOpenEXR-3_4.so.33:_ZN7Imf_3_417addWhiteLuminanceERNS_6HeaderERKf
libOpenEXR-3_4.so.33:_ZN7Imf_3_417altitudeAttributeERKNS_6HeaderE
libOpenEXR-3_4.so.33:_ZN7Imf_3_417altitudeAttributeERNS_6HeaderE
libOpenEXR-3_4.so.33:_ZN7Imf_3_417apertureAttributeERKNS_6HeaderE
libOpenEXR-3_4.so.33:_ZN7Imf_3_417apertureAttributeERNS_6HeaderE
libOpenEXR-3_4.so.33:_ZN7Imf_3_417bytesPerLineTableERKNS_6HeaderERSt6vectorImSaImEE
libOpenEXR-3_4.so.33:_ZN7Imf_3_417cameraTintSettingERKNS_6HeaderE
libOpenEXR-3_4.so.33:_ZN7Imf_3_417cameraTintSettingERNS_6HeaderE
libOpenEXR-3_4.so.33:_ZN7Imf_3_417channelInAllViewsERKNSt7__cxx1112basic_stringIcSt11char_traitsIcESaIcEEERKNS_11ChannelListERKSt6vectorIS5_SaIS5_EE
libOpenEXR-3_4.so.33:_ZN7Imf_3_417commentsAttributeB5cxx11ERKNS_6HeaderE
libOpenEXR-3_4.so.33:_ZN7Imf_3_417commentsAttributeB5cxx11ERNS_6HeaderE
libOpenEXR-3_4.so.33:_ZN7Imf_3_417dataWindowForTileERKNS_15TileDescriptionEiiiiiiii
libOpenEXR-3_4.so.33:_ZN7Imf_3_417getLibraryVersionEv
libOpenEXR-3_4.so.33:_ZN7Imf_3_417globalThreadCountEv
libOpenEXR-3_4.so.33:_ZN7Imf_3_417hasAdoptedNeutralERKNS_6HeaderE
libOpenEXR-3_4.so.33:_ZN7Imf_3_417hasChromaticitiesERKNS_6HeaderE
libOpenEXR-3_4.so.33:_ZN7Imf_3_417hasColorInteropIDERKNS_6HeaderE
libOpenEXR-3_4.so.33:_ZN7Imf_3_417hasDeepImageStateERKNS_6HeaderE
libOpenEXR-3_4.so.33:_ZN7Imf_3_417hasWhiteLuminanceERKNS_6HeaderE
libOpenEXR-3_4.so.33:_ZN7Imf_3_417isDeepOpenExrFileEPKc
libOpenEXR-3_4.so.33:_ZN7Imf_3_417isDeepOpenExrFileERNS_7IStreamE
libOpenEXR-3_4.so.33:_ZN7Imf_3_417isoSpeedAttributeERKNS_6HeaderE
libOpenEXR-3_4.so.33:_ZN7Imf_3_417isoSpeedAttributeERNS_6HeaderE
libOpenEXR-3_4.so.33:_ZN7Imf_3_417latitudeAttributeERKNS_6HeaderE
libOpenEXR-3_4.so.33:_ZN7Imf_3_417latitudeAttributeERNS_6HeaderE
libOpenEXR-3_4.so.33:_ZN7Imf_3_417lensMakeAttributeB5cxx11ERKNS_6HeaderE
libOpenEXR-3_4.so.33:_ZN7Imf_3_417lensMakeAttributeB5cxx11ERNS_6HeaderE
libOpenEXR-3_4.so.33:_ZN7Imf_3_417newTileCompressorENS_11CompressionEmmRKNS_6HeaderE
libOpenEXR-3_4.so.33:_ZN7Imf_3_417reelNameAttributeB5cxx11ERKNS_6HeaderE
libOpenEXR-3_4.so.33:_ZN7Imf_3_417reelNameAttributeB5cxx11ERNS_6HeaderE
libOpenEXR-3_4.so.33:_ZN7Imf_3_417timeCodeAttributeERKNS_6HeaderE
libOpenEXR-3_4.so.33:_ZN7Imf_3_417timeCodeAttributeERNS_6HeaderE
libOpenEXR-3_4.so.33:_ZN7Imf_3_417xDensityAttributeERKNS_6HeaderE
libOpenEXR-3_4.so.33:_ZN7Imf_3_417xDensityAttributeERNS_6HeaderE
libOpenEXR-3_4.so.33:_ZN7Imf_3_418ContextInitializer14setInputStreamEPNS_7IStreamE
libOpenEXR-3_4.so.33:_ZN7Imf_3_418ContextInitializer15setOutputStreamEPNS_7OStreamE
libOpenEXR-3_4.so.33:_ZN7Imf_3_418DeepTiledInputFile14setFrameBufferERKNS_15DeepFrameBufferE
libOpenEXR-3_4.so.33:_ZN7Imf_3_418DeepTiledInputFile20readPixelSampleCountEiii
libOpenEXR-3_4.so.33:_ZN7Imf_3_418DeepTiledInputFile20readPixelSampleCountEiiii
libOpenEXR-3_4.so.33:_ZN7Imf_3_418DeepTiledInputFile21readPixelSampleCountsEiiiii
libOpenEXR-3_4.so.33:_ZN7Imf_3_418DeepTiledInputFile21readPixelSampleCountsEiiiiii
libOpenEXR-3_4.so.33:_ZN7Imf_3_418DeepTiledInputFile8readTileEiii
libOpenEXR-3_4.so.33:_ZN7Imf_3_418DeepTiledInputFile8readTileEiiii
libOpenEXR-3_4.so.33:_ZN7Imf_3_418DeepTiledInputFile9readTilesEiiiii
libOpenEXR-3_4.so.33:_ZN7Imf_3_418DeepTiledInputFile9readTilesEiiiiii
libOpenEXR-3_4.so.33:_ZN7Imf_3_418DeepTiledInputFileC1EPKcRKNS_18ContextInitializerEi
libOpenEXR-3_4.so.33:_ZN7Imf_3_418DeepTiledInputFileC1EPKci
libOpenEXR-3_4.so.33:_ZN7Imf_3_418DeepTiledInputFileC1ERNS_7IStreamEi
libOpenEXR-3_4.so.33:_ZN7Imf_3_418DeepTiledInputFileC2EPKcRKNS_18ContextInitializerEi
libOpenEXR-3_4.so.33:_ZN7Imf_3_418DeepTiledInputFileC2EPKci
libOpenEXR-3_4.so.33:_ZN7Imf_3_418DeepTiledInputFileC2ERNS_7IStreamEi
libOpenEXR-3_4.so.33:_ZN7Imf_3_418DeepTiledInputPart14setFrameBufferERKNS_15DeepFrameBufferE
libOpenEXR-3_4.so.33:_ZN7Imf_3_418DeepTiledInputPart20readPixelSampleCountEiii
libOpenEXR-3_4.so.33:_ZN7Imf_3_418DeepTiledInputPart20readPixelSampleCountEiiii
libOpenEXR-3_4.so.33:_ZN7Imf_3_418DeepTiledInputPart21readPixelSampleCountsEiiiii
libOpenEXR-3_4.so.33:_ZN7Imf_3_418DeepTiledInputPart21readPixelSampleCountsEiiiiii
libOpenEXR-3_4.so.33:_ZN7Imf_3_418DeepTiledInputPart8readTileEiii
libOpenEXR-3_4.so.33:_ZN7Imf_3_418DeepTiledInputPart8readTileEiiii
libOpenEXR-3_4.so.33:_ZN7Imf_3_418DeepTiledInputPart9readTilesEiiiii
libOpenEXR-3_4.so.33:_ZN7Imf_3_418DeepTiledInputPart9readTilesEiiiiii
libOpenEXR-3_4.so.33:_ZN7Imf_3_418DeepTiledInputPartC1ERNS_18MultiPartInputFileEi
libOpenEXR-3_4.so.33:_ZN7Imf_3_418DeepTiledInputPartC2ERNS_18MultiPartInputFileEi
libOpenEXR-3_4.so.33:_ZN7Imf_3_418MultiPartInputFile14flushPartCacheEv
libOpenEXR-3_4.so.33:_ZN7Imf_3_418MultiPartInputFileC1EPKcRKNS_18ContextInitializerEib
libOpenEXR-3_4.so.33:_ZN7Imf_3_418MultiPartInputFileC1EPKcib
libOpenEXR-3_4.so.33:_ZN7Imf_3_418MultiPartInputFileC1ERNS_7IStreamEib
libOpenEXR-3_4.so.33:_ZN7Imf_3_418MultiPartInputFileC2EPKcRKNS_18ContextInitializerEib
libOpenEXR-3_4.so.33:_ZN7Imf_3_418MultiPartInputFileC2EPKcib
libOpenEXR-3_4.so.33:_ZN7Imf_3_418MultiPartInputFileC2ERNS_7IStreamEib
libOpenEXR-3_4.so.33:_ZN7Imf_3_418TiledRgbaInputFile12setLayerNameERKNSt7__cxx1112basic_stringIcSt11char_traitsIcESaIcEEE
libOpenEXR-3_4.so.33:_ZN7Imf_3_418TiledRgbaInputFile14setFrameBufferEPNS_4RgbaEmm
libOpenEXR-3_4.so.33:_ZN7Imf_3_418TiledRgbaInputFile6FromYa14setFrameBufferEPNS_4RgbaEmmRKNSt7__cxx1112basic_stringIcSt11char_traitsIcESaIcEEE
libOpenEXR-3_4.so.33:_ZN7Imf_3_418TiledRgbaInputFile6FromYa8readTileEiiii
libOpenEXR-3_4.so.33:_ZN7Imf_3_418TiledRgbaInputFile6FromYaC1ERNS_14TiledInputFileE
libOpenEXR-3_4.so.33:_ZN7Imf_3_418TiledRgbaInputFile6FromYaC2ERNS_14TiledInputFileE
libOpenEXR-3_4.so.33:_ZN7Imf_3_418TiledRgbaInputFile8readTileEiii
libOpenEXR-3_4.so.33:_ZN7Imf_3_418TiledRgbaInputFile8readTileEiiii
libOpenEXR-3_4.so.33:_ZN7Imf_3_418TiledRgbaInputFile9readTilesEiiiii
libOpenEXR-3_4.so.33:_ZN7Imf_3_418TiledRgbaInputFile9readTilesEiiiiii
libOpenEXR-3_4.so.33:_ZN7Imf_3_418TiledRgbaInputFileC1EPKcRKNS_18ContextInitializerERKNSt7__cxx1112basic_stringIcSt11char_traitsIcESaIcEEEi
libOpenEXR-3_4.so.33:_ZN7Imf_3_418TiledRgbaInputFileC1EPKcRKNSt7__cxx1112basic_stringIcSt11char_traitsIcESaIcEEEi
libOpenEXR-3_4.so.33:_ZN7Imf_3_418TiledRgbaInputFileC1EPKci
libOpenEXR-3_4.so.33:_ZN7Imf_3_418TiledRgbaInputFileC1ERNS_7IStreamERKNSt7__cxx1112basic_stringIcSt11char_traitsIcESaIcEEEi
libOpenEXR-3_4.so.33:_ZN7Imf_3_418TiledRgbaInputFileC1ERNS_7IStreamEi
libOpenEXR-3_4.so.33:_ZN7Imf_3_418TiledRgbaInputFileC2EPKcRKNS_18ContextInitializerERKNSt7__cxx1112basic_stringIcSt11char_traitsIcESaIcEEEi
libOpenEXR-3_4.so.33:_ZN7Imf_3_418TiledRgbaInputFileC2EPKcRKNSt7__cxx1112basic_stringIcSt11char_traitsIcESaIcEEEi
libOpenEXR-3_4.so.33:_ZN7Imf_3_418TiledRgbaInputFileC2EPKci
libOpenEXR-3_4.so.33:_ZN7Imf_3_418TiledRgbaInputFileC2ERNS_7IStreamERKNSt7__cxx1112basic_stringIcSt11char_traitsIcESaIcEEEi
libOpenEXR-3_4.so.33:_ZN7Imf_3_418TiledRgbaInputFileC2ERNS_7IStreamEi
libOpenEXR-3_4.so.33:_ZN7Imf_3_418TiledRgbaInputFileD0Ev
libOpenEXR-3_4.so.33:_ZN7Imf_3_418TiledRgbaInputFileD1Ev
libOpenEXR-3_4.so.33:_ZN7Imf_3_418TiledRgbaInputFileD2Ev
libOpenEXR-3_4.so.33:_ZN7Imf_3_418addFramesPerSecondERNS_6HeaderERKNS_8RationalE
libOpenEXR-3_4.so.33:_ZN7Imf_3_418cameraColorBalanceERKNS_6HeaderE
libOpenEXR-3_4.so.33:_ZN7Imf_3_418cameraColorBalanceERNS_6HeaderE
libOpenEXR-3_4.so.33:_ZN7Imf_3_418cameraSerialNumberB5cxx11ERKNS_6HeaderE
libOpenEXR-3_4.so.33:_ZN7Imf_3_418cameraSerialNumberB5cxx11ERNS_6HeaderE
libOpenEXR-3_4.so.33:_ZN7Imf_3_418channelInOtherViewERKNSt7__cxx1112basic_stringIcSt11char_traitsIcESaIcEEERKNS_11ChannelListERKSt6vectorIS5_SaIS5_EES7_
libOpenEXR-3_4.so.33:_ZN7Imf_3_418dataWindowForLevelERKNS_15TileDescriptionEiiiiii
libOpenEXR-3_4.so.33:_ZN7Imf_3_418hasFramesPerSecondERKNS_6HeaderE
libOpenEXR-3_4.so.33:_ZN7Imf_3_418isLossyCompressionENS_11CompressionE
libOpenEXR-3_4.so.33:_ZN7Imf_3_418isTiledOpenExrFileEPKc
libOpenEXR-3_4.so.33:_ZN7Imf_3_418isTiledOpenExrFileERNS_7IStreamE
libOpenEXR-3_4.so.33:_ZN7Imf_3_418isValidCompressionEi
libOpenEXR-3_4.so.33:_ZN7Imf_3_418lensModelAttributeB5cxx11ERKNS_6HeaderE
libOpenEXR-3_4.so.33:_ZN7Imf_3_418lensModelAttributeB5cxx11ERNS_6HeaderE
libOpenEXR-3_4.so.33:_ZN7Imf_3_418longitudeAttributeERKNS_6HeaderE
libOpenEXR-3_4.so.33:_ZN7Imf_3_418longitudeAttributeERNS_6HeaderE
libOpenEXR-3_4.so.33:_ZN7Imf_3_418multiViewAttributeB5cxx11ERKNS_6HeaderE
libOpenEXR-3_4.so.33:_ZN7Imf_3_418multiViewAttributeB5cxx11ERNS_6HeaderE
libOpenEXR-3_4.so.33:_ZN7Imf_3_418nominalFocalLengthERKNS_6HeaderE
libOpenEXR-3_4.so.33:_ZN7Imf_3_418nominalFocalLengthERNS_6HeaderE
libOpenEXR-3_4.so.33:_ZN7Imf_3_418originalDataWindowERKNS_6HeaderE
libOpenEXR-3_4.so.33:_ZN7Imf_3_418originalDataWindowERNS_6HeaderE
libOpenEXR-3_4.so.33:_ZN7Imf_3_418pinholeFocalLengthERKNS_6HeaderE
libOpenEXR-3_4.so.33:_ZN7Imf_3_418pinholeFocalLengthERNS_6HeaderE
libOpenEXR-3_4.so.33:_ZN7Imf_3_418renderingTransformB5cxx11ERKNS_6HeaderE
libOpenEXR-3_4.so.33:_ZN7Imf_3_418renderingTransformB5cxx11ERNS_6HeaderE
libOpenEXR-3_4.so.33:_ZN7Imf_3_418sensorCenterOffsetERKNS_6HeaderE
libOpenEXR-3_4.so.33:_ZN7Imf_3_418sensorCenterOffsetERNS_6HeaderE
libOpenEXR-3_4.so.33:_ZN7Imf_3_418utcOffsetAttributeERKNS_6HeaderE
libOpenEXR-3_4.so.33:_ZN7Imf_3_418utcOffsetAttributeERNS_6HeaderE
libOpenEXR-3_4.so.33:_ZN7Imf_3_418wrapmodesAttributeB5cxx11ERKNS_6HeaderE
libOpenEXR-3_4.so.33:_ZN7Imf_3_418wrapmodesAttributeB5cxx11ERNS_6HeaderE
libOpenEXR-3_4.so.33:_ZN7Imf_3_419DeepTiledOutputFile10copyPixelsERNS_18DeepTiledInputFileE
libOpenEXR-3_4.so.33:_ZN7Imf_3_419DeepTiledOutputFile10copyPixelsERNS_18DeepTiledInputPartE
libOpenEXR-3_4.so.33:_ZN7Imf_3_419DeepTiledOutputFile10initializeERKNS_6HeaderE
libOpenEXR-3_4.so.33:_ZN7Imf_3_419DeepTiledOutputFile10writeTilesEiiiii
libOpenEXR-3_4.so.33:_ZN7Imf_3_419DeepTiledOutputFile10writeTilesEiiiiii
libOpenEXR-3_4.so.33:_ZN7Imf_3_419DeepTiledOutputFile14setFrameBufferERKNS_15DeepFrameBufferE
libOpenEXR-3_4.so.33:_ZN7Imf_3_419DeepTiledOutputFile18updatePreviewImageEPKNS_11PreviewRgbaE
libOpenEXR-3_4.so.33:_ZN7Imf_3_419DeepTiledOutputFile4Data14getSampleCountEii
libOpenEXR-3_4.so.33:_ZN7Imf_3_419DeepTiledOutputFile4DataC1Ei
libOpenEXR-3_4.so.33:_ZN7Imf_3_419DeepTiledOutputFile4DataC2Ei
libOpenEXR-3_4.so.33:_ZN7Imf_3_419DeepTiledOutputFile4DataD1Ev
libOpenEXR-3_4.so.33:_ZN7Imf_3_419DeepTiledOutputFile4DataD2Ev
libOpenEXR-3_4.so.33:_ZN7Imf_3_419DeepTiledOutputFile9breakTileEiiiiiic
libOpenEXR-3_4.so.33:_ZN7Imf_3_419DeepTiledOutputFile9writeTileEiii
libOpenEXR-3_4.so.33:_ZN7Imf_3_419DeepTiledOutputFile9writeTileEiiii
libOpenEXR-3_4.so.33:_ZN7Imf_3_419DeepTiledOutputFileC1EPKNS_14OutputPartDataE
libOpenEXR-3_4.so.33:_ZN7Imf_3_419DeepTiledOutputFileC1EPKcRKNS_6HeaderEi
libOpenEXR-3_4.so.33:_ZN7Imf_3_419DeepTiledOutputFileC1ERNS_7OStreamERKNS_6HeaderEi
libOpenEXR-3_4.so.33:_ZN7Imf_3_419DeepTiledOutputFileC2EPKNS_14OutputPartDataE
libOpenEXR-3_4.so.33:_ZN7Imf_3_419DeepTiledOutputFileC2EPKcRKNS_6HeaderEi
libOpenEXR-3_4.so.33:_ZN7Imf_3_419DeepTiledOutputFileC2ERNS_7OStreamERKNS_6HeaderEi
libOpenEXR-3_4.so.33:_ZN7Imf_3_419DeepTiledOutputFileD0Ev
libOpenEXR-3_4.so.33:_ZN7Imf_3_419DeepTiledOutputFileD1Ev
libOpenEXR-3_4.so.33:_ZN7Imf_3_419DeepTiledOutputFileD2Ev
libOpenEXR-3_4.so.33:_ZN7Imf_3_419DeepTiledOutputPart10copyPixelsERNS_18DeepTiledInputFileE
libOpenEXR-3_4.so.33:_ZN7Imf_3_419DeepTiledOutputPart10copyPixelsERNS_18DeepTiledInputPartE
libOpenEXR-3_4.so.33:_ZN7Imf_3_419DeepTiledOutputPart10writeTilesEiiiii
libOpenEXR-3_4.so.33:_ZN7Imf_3_419DeepTiledOutputPart10writeTilesEiiiiii
libOpenEXR-3_4.so.33:_ZN7Imf_3_419DeepTiledOutputPart14setFrameBufferERKNS_15DeepFrameBufferE
libOpenEXR-3_4.so.33:_ZN7Imf_3_419DeepTiledOutputPart18updatePreviewImageEPKNS_11PreviewRgbaE
libOpenEXR-3_4.so.33:_ZN7Imf_3_419DeepTiledOutputPart9breakTileEiiiiiic
libOpenEXR-3_4.so.33:_ZN7Imf_3_419DeepTiledOutputPart9writeTileEiii
libOpenEXR-3_4.so.33:_ZN7Imf_3_419DeepTiledOutputPart9writeTileEiiii
libOpenEXR-3_4.so.33:_ZN7Imf_3_419DeepTiledOutputPartC1ERNS_19MultiPartOutputFileEi
libOpenEXR-3_4.so.33:_ZN7Imf_3_419DeepTiledOutputPartC2ERNS_19MultiPartOutputFileEi
libOpenEXR-3_4.so.33:_ZN7Imf_3_419MultiPartOutputFileC1EPKcPKNS_6HeaderEibi
libOpenEXR-3_4.so.33:_ZN7Imf_3_419MultiPartOutputFileC1ERNS_7OStreamEPKNS_6HeaderEibi
libOpenEXR-3_4.so.33:_ZN7Imf_3_419MultiPartOutputFileC2EPKcPKNS_6HeaderEibi
libOpenEXR-3_4.so.33:_ZN7Imf_3_419MultiPartOutputFileC2ERNS_7OStreamEPKNS_6HeaderEibi
libOpenEXR-3_4.so.33:_ZN7Imf_3_419MultiPartOutputFileD0Ev
libOpenEXR-3_4.so.33:_ZN7Imf_3_419MultiPartOutputFileD1Ev
libOpenEXR-3_4.so.33:_ZN7Imf_3_419MultiPartOutputFileD2Ev
libOpenEXR-3_4.so.33:_ZN7Imf_3_419TiledRgbaOutputFile10writeTilesEiiiii
libOpenEXR-3_4.so.33:_ZN7Imf_3_419TiledRgbaOutputFile10writeTilesEiiiiii
libOpenEXR-3_4.so.33:_ZN7Imf_3_419TiledRgbaOutputFile14setFrameBufferEPKNS_4RgbaEmm
libOpenEXR-3_4.so.33:_ZN7Imf_3_419TiledRgbaOutputFile18updatePreviewImageEPKNS_11PreviewRgbaE
libOpenEXR-3_4.so.33:_ZN7Imf_3_419TiledRgbaOutputFile9breakTileEiiiiiic
libOpenEXR-3_4.so.33:_ZN7Imf_3_419TiledRgbaOutputFile9writeTileEiii
libOpenEXR-3_4.so.33:_ZN7Imf_3_419TiledRgbaOutputFile9writeTileEiiii
libOpenEXR-3_4.so.33:_ZN7Imf_3_419TiledRgbaOutputFileC1EPKcRKNS_6HeaderENS_12RgbaChannelsEiiNS_9LevelModeENS_17LevelRoundingModeEi
libOpenEXR-3_4.so.33:_ZN7Imf_3_419TiledRgbaOutputFileC1EPKciiNS_9LevelModeENS_17LevelRoundingModeERKN9Imath_3_13BoxINS5_4Vec2IiEEEESB_NS_12RgbaChannelsEfNS7_IfEEfNS_9LineOrderENS_11CompressionEi
libOpenEXR-3_4.so.33:_ZN7Imf_3_419TiledRgbaOutputFileC1EPKciiiiNS_9LevelModeENS_17LevelRoundingModeENS_12RgbaChannelsEfN9Imath_3_14Vec2IfEEfNS_9LineOrderENS_11CompressionEi
libOpenEXR-3_4.so.33:_ZN7Imf_3_419TiledRgbaOutputFileC1ERNS_7OStreamERKNS_6HeaderENS_12RgbaChannelsEiiNS_9LevelModeENS_17LevelRoundingModeEi
libOpenEXR-3_4.so.33:_ZN7Imf_3_419TiledRgbaOutputFileC2EPKcRKNS_6HeaderENS_12RgbaChannelsEiiNS_9LevelModeENS_17LevelRoundingModeEi
libOpenEXR-3_4.so.33:_ZN7Imf_3_419TiledRgbaOutputFileC2EPKciiNS_9LevelModeENS_17LevelRoundingModeERKN9Imath_3_13BoxINS5_4Vec2IiEEEESB_NS_12RgbaChannelsEfNS7_IfEEfNS_9LineOrderENS_11CompressionEi
libOpenEXR-3_4.so.33:_ZN7Imf_3_419TiledRgbaOutputFileC2EPKciiiiNS_9LevelModeENS_17LevelRoundingModeENS_12RgbaChannelsEfN9Imath_3_14Vec2IfEEfNS_9LineOrderENS_11CompressionEi
libOpenEXR-3_4.so.33:_ZN7Imf_3_419TiledRgbaOutputFileC2ERNS_7OStreamERKNS_6HeaderENS_12RgbaChannelsEiiNS_9LevelModeENS_17LevelRoundingModeEi
libOpenEXR-3_4.so.33:_ZN7Imf_3_419TiledRgbaOutputFileD0Ev
libOpenEXR-3_4.so.33:_ZN7Imf_3_419TiledRgbaOutputFileD1Ev
libOpenEXR-3_4.so.33:_ZN7Imf_3_419TiledRgbaOutputFileD2Ev
libOpenEXR-3_4.so.33:_ZN7Imf_3_419addCameraCCTSettingERNS_6HeaderERKf
libOpenEXR-3_4.so.33:_ZN7Imf_3_419addLensSerialNumberERNS_6HeaderERKNSt7__cxx1112basic_stringIcSt11char_traitsIcESaIcEEE
libOpenEXR-3_4.so.33:_ZN7Imf_3_419addLookModTransformERNS_6HeaderERKNSt7__cxx1112basic_stringIcSt11char_traitsIcESaIcEEE
libOpenEXR-3_4.so.33:_ZN7Imf_3_419cameraMakeAttributeB5cxx11ERKNS_6HeaderE
libOpenEXR-3_4.so.33:_ZN7Imf_3_419cameraMakeAttributeB5cxx11ERNS_6HeaderE
libOpenEXR-3_4.so.33:_ZN7Imf_3_419cameraUuidAttributeB5cxx11ERKNS_6HeaderE
libOpenEXR-3_4.so.33:_ZN7Imf_3_419cameraUuidAttributeB5cxx11ERNS_6HeaderE
libOpenEXR-3_4.so.33:_ZN7Imf_3_419copyFromFrameBufferERPcRPKcS3_mNS_10Compressor6FormatENS_9PixelTypeE
libOpenEXR-3_4.so.33:_ZN7Imf_3_419copyIntoFrameBufferERPKcPcS3_mbdNS_10Compressor6FormatENS_9PixelTypeES6_
libOpenEXR-3_4.so.33:_ZN7Imf_3_419dwaCompressionLevelERKNS_6HeaderE
libOpenEXR-3_4.so.33:_ZN7Imf_3_419dwaCompressionLevelERNS_6HeaderE
libOpenEXR-3_4.so.33:_ZN7Imf_3_419entrancePupilOffsetERKNS_6HeaderE
libOpenEXR-3_4.so.33:_ZN7Imf_3_419entrancePupilOffsetERNS_6HeaderE
libOpenEXR-3_4.so.33:_ZN7Imf_3_419hasCameraCCTSettingERKNS_6HeaderE
libOpenEXR-3_4.so.33:_ZN7Imf_3_419hasLensSerialNumberERKNS_6HeaderE
libOpenEXR-3_4.so.33:_ZN7Imf_3_419hasLookModTransformERKNS_6HeaderE
libOpenEXR-3_4.so.33:_ZN7Imf_3_419idManifestAttributeERKNS_6HeaderE
libOpenEXR-3_4.so.33:_ZN7Imf_3_419idManifestAttributeERNS_6HeaderE
libOpenEXR-3_4.so.33:_ZN7Imf_3_419lensFirmwareVersionB5cxx11ERKNS_6HeaderE
libOpenEXR-3_4.so.33:_ZN7Imf_3_419lensFirmwareVersionB5cxx11ERNS_6HeaderE
libOpenEXR-3_4.so.33:_ZN7Imf_3_419viewFromChannelNameERKNSt7__cxx1112basic_stringIcSt11char_traitsIcESaIcEEERKSt6vectorIS5_SaIS5_EE
libOpenEXR-3_4.so.33:_ZN7Imf_3_419worldToNDCAttributeERKNS_6HeaderE
libOpenEXR-3_4.so.33:_ZN7Imf_3_419worldToNDCAttributeERNS_6HeaderE
libOpenEXR-3_4.so.33:_ZN7Imf_3_420CompressedIDManifestC1ERKNS_10IDManifestE
libOpenEXR-3_4.so.33:_ZN7Imf_3_420CompressedIDManifestC1ERKS0_
libOpenEXR-3_4.so.33:_ZN7Imf_3_420CompressedIDManifestC1Ev
libOpenEXR-3_4.so.33:_ZN7Imf_3_420CompressedIDManifestC2ERKNS_10IDManifestE
libOpenEXR-3_4.so.33:_ZN7Imf_3_420CompressedIDManifestC2ERKS0_
libOpenEXR-3_4.so.33:_ZN7Imf_3_420CompressedIDManifestC2Ev
libOpenEXR-3_4.so.33:_ZN7Imf_3_420CompressedIDManifestD1Ev
libOpenEXR-3_4.so.33:_ZN7Imf_3_420CompressedIDManifestD2Ev
libOpenEXR-3_4.so.33:_ZN7Imf_3_420CompressedIDManifestaSERKS0_
libOpenEXR-3_4.so.33:_ZN7Imf_3_420addCameraTintSettingERNS_6HeaderERKf
libOpenEXR-3_4.so.33:_ZN7Imf_3_420cameraLabelAttributeB5cxx11ERKNS_6HeaderE
libOpenEXR-3_4.so.33:_ZN7Imf_3_420cameraLabelAttributeB5cxx11ERNS_6HeaderE
libOpenEXR-3_4.so.33:_ZN7Imf_3_420cameraModelAttributeB5cxx11ERKNS_6HeaderE
libOpenEXR-3_4.so.33:_ZN7Imf_3_420cameraModelAttributeB5cxx11ERNS_6HeaderE
libOpenEXR-3_4.so.33:_ZN7Imf_3_420captureRateAttributeERKNS_6HeaderE
libOpenEXR-3_4.so.33:_ZN7Imf_3_420captureRateAttributeERNS_6HeaderE
libOpenEXR-3_4.so.33:_ZN7Imf_3_420effectiveFocalLengthERKNS_6HeaderE
libOpenEXR-3_4.so.33:_ZN7Imf_3_420effectiveFocalLengthERNS_6HeaderE
libOpenEXR-3_4.so.33:_ZN7Imf_3_420hasCameraTintSettingERKNS_6HeaderE
libOpenEXR-3_4.so.33:_ZN7Imf_3_420precalculateTileInfoERKNS_15TileDescriptionEiiiiRPiS4_RiS5_
libOpenEXR-3_4.so.33:_ZN7Imf_3_420sensorPhotositePitchERKNS_6HeaderE
libOpenEXR-3_4.so.33:_ZN7Imf_3_420sensorPhotositePitchERNS_6HeaderE
libOpenEXR-3_4.so.33:_ZN7Imf_3_420setGlobalThreadCountEi
libOpenEXR-3_4.so.33:_ZN7Imf_3_421CompositeDeepScanLine10readPixelsEii
libOpenEXR-3_4.so.33:_ZN7Imf_3_421CompositeDeepScanLine14setCompositingEPNS_15DeepCompositingE
libOpenEXR-3_4.so.33:_ZN7Imf_3_421CompositeDeepScanLine14setFrameBufferERKNS_11FrameBufferE
libOpenEXR-3_4.so.33:_ZN7Imf_3_421CompositeDeepScanLine21getMaximumSampleCountEv
libOpenEXR-3_4.so.33:_ZN7Imf_3_421CompositeDeepScanLine21setMaximumSampleCountEl
libOpenEXR-3_4.so.33:_ZN7Imf_3_421CompositeDeepScanLine9addSourceEPNS_21DeepScanLineInputFileE
libOpenEXR-3_4.so.33:_ZN7Imf_3_421CompositeDeepScanLine9addSourceEPNS_21DeepScanLineInputPartE
libOpenEXR-3_4.so.33:_ZN7Imf_3_421CompositeDeepScanLineC1Ev
libOpenEXR-3_4.so.33:_ZN7Imf_3_421CompositeDeepScanLineC2Ev
libOpenEXR-3_4.so.33:_ZN7Imf_3_421CompositeDeepScanLineD0Ev
libOpenEXR-3_4.so.33:_ZN7Imf_3_421CompositeDeepScanLineD1Ev
libOpenEXR-3_4.so.33:_ZN7Imf_3_421CompositeDeepScanLineD2Ev
libOpenEXR-3_4.so.33:_ZN7Imf_3_421DeepScanLineInputFile10readPixelsEi
libOpenEXR-3_4.so.33:_ZN7Imf_3_421DeepScanLineInputFile10readPixelsEii
libOpenEXR-3_4.so.33:_ZN7Imf_3_421DeepScanLineInputFile12rawPixelDataEiPcRm
libOpenEXR-3_4.so.33:_ZN7Imf_3_421DeepScanLineInputFile14setFrameBufferERKNS_15DeepFrameBufferE
libOpenEXR-3_4.so.33:_ZN7Imf_3_421DeepScanLineInputFile21readPixelSampleCountsEi
libOpenEXR-3_4.so.33:_ZN7Imf_3_421DeepScanLineInputFile21readPixelSampleCountsEii
libOpenEXR-3_4.so.33:_ZN7Imf_3_421DeepScanLineInputFileC1EPKcRKNS_18ContextInitializerEi
libOpenEXR-3_4.so.33:_ZN7Imf_3_421DeepScanLineInputFileC1EPKci
libOpenEXR-3_4.so.33:_ZN7Imf_3_421DeepScanLineInputFileC1ERKNS_6HeaderEPNS_7IStreamEii
libOpenEXR-3_4.so.33:_ZN7Imf_3_421DeepScanLineInputFileC1ERNS_7IStreamEi
libOpenEXR-3_4.so.33:_ZN7Imf_3_421DeepScanLineInputFileC2EPKcRKNS_18ContextInitializerEi
libOpenEXR-3_4.so.33:_ZN7Imf_3_421DeepScanLineInputFileC2EPKci
libOpenEXR-3_4.so.33:_ZN7Imf_3_421DeepScanLineInputFileC2ERKNS_6HeaderEPNS_7IStreamEii
libOpenEXR-3_4.so.33:_ZN7Imf_3_421DeepScanLineInputFileC2ERNS_7IStreamEi
libOpenEXR-3_4.so.33:_ZN7Imf_3_421DeepScanLineInputPart10readPixelsEi
libOpenEXR-3_4.so.33:_ZN7Imf_3_421DeepScanLineInputPart10readPixelsEii
libOpenEXR-3_4.so.33:_ZN7Imf_3_421DeepScanLineInputPart12rawPixelDataEiPcRm
libOpenEXR-3_4.so.33:_ZN7Imf_3_421DeepScanLineInputPart14setFrameBufferERKNS_15DeepFrameBufferE
libOpenEXR-3_4.so.33:_ZN7Imf_3_421DeepScanLineInputPart21readPixelSampleCountsEi
libOpenEXR-3_4.so.33:_ZN7Imf_3_421DeepScanLineInputPart21readPixelSampleCountsEii
libOpenEXR-3_4.so.33:_ZN7Imf_3_421DeepScanLineInputPartC1ERNS_18MultiPartInputFileEi
libOpenEXR-3_4.so.33:_ZN7Imf_3_421DeepScanLineInputPartC2ERNS_18MultiPartInputFileEi
libOpenEXR-3_4.so.33:_ZN7Imf_3_421addCameraColorBalanceERNS_6HeaderERKN9Imath_3_14Vec2IfEE
libOpenEXR-3_4.so.33:_ZN7Imf_3_421addCameraSerialNumberERNS_6HeaderERKNSt7__cxx1112basic_stringIcSt11char_traitsIcESaIcEEE
libOpenEXR-3_4.so.33:_ZN7Imf_3_421addNominalFocalLengthERNS_6HeaderERKf
libOpenEXR-3_4.so.33:_ZN7Imf_3_421addOriginalDataWindowERNS_6HeaderERKN9Imath_3_13BoxINS2_4Vec2IiEEEE
libOpenEXR-3_4.so.33:_ZN7Imf_3_421addPinholeFocalLengthERNS_6HeaderERKf
libOpenEXR-3_4.so.33:_ZN7Imf_3_421addRenderingTransformERNS_6HeaderERKNSt7__cxx1112basic_stringIcSt11char_traitsIcESaIcEEE
libOpenEXR-3_4.so.33:_ZN7Imf_3_421addSensorCenterOffsetERNS_6HeaderERKN9Imath_3_14Vec2IfEE
libOpenEXR-3_4.so.33:_ZN7Imf_3_421bytesPerDeepLineTableERKNS_6HeaderEPciiRSt6vectorImSaImEE
libOpenEXR-3_4.so.33:_ZN7Imf_3_421bytesPerDeepLineTableERKNS_6HeaderEiiPKciiRSt6vectorImSaImEE
libOpenEXR-3_4.so.33:_ZN7Imf_3_421calculateBytesPerLineERKNS_6HeaderEPciiiiiiRSt6vectorIiSaIiEES7_RS4_ImSaImEE
libOpenEXR-3_4.so.33:_ZN7Imf_3_421cameraFirmwareVersionB5cxx11ERKNS_6HeaderE
libOpenEXR-3_4.so.33:_ZN7Imf_3_421cameraFirmwareVersionB5cxx11ERNS_6HeaderE
libOpenEXR-3_4.so.33:_ZN7Imf_3_421fillChannelWithZeroesERPcNS_10Compressor6FormatENS_9PixelTypeEm
libOpenEXR-3_4.so.33:_ZN7Imf_3_421hasCameraColorBalanceERKNS_6HeaderE
libOpenEXR-3_4.so.33:_ZN7Imf_3_421hasCameraSerialNumberERKNS_6HeaderE
libOpenEXR-3_4.so.33:_ZN7Imf_3_421hasNominalFocalLengthERKNS_6HeaderE
libOpenEXR-3_4.so.33:_ZN7Imf_3_421hasOriginalDataWindowERKNS_6HeaderE
libOpenEXR-3_4.so.33:_ZN7Imf_3_421hasPinholeFocalLengthERKNS_6HeaderE
libOpenEXR-3_4.so.33:_ZN7Imf_3_421hasRenderingTransformERKNS_6HeaderE
libOpenEXR-3_4.so.33:_ZN7Imf_3_421hasSensorCenterOffsetERKNS_6HeaderE
libOpenEXR-3_4.so.33:_ZN7Imf_3_421imageCounterAttributeERKNS_6HeaderE
libOpenEXR-3_4.so.33:_ZN7Imf_3_421imageCounterAttributeERNS_6HeaderE
libOpenEXR-3_4.so.33:_ZN7Imf_3_421shutterAngleAttributeERKNS_6HeaderE
libOpenEXR-3_4.so.33:_ZN7Imf_3_421shutterAngleAttributeERNS_6HeaderE
libOpenEXR-3_4.so.33:_ZN7Imf_3_422DeepScanLineOutputFile10copyPixelsERNS_21DeepScanLineInputFileE
libOpenEXR-3_4.so.33:_ZN7Imf_3_422DeepScanLineOutputFile10copyPixelsERNS_21DeepScanLineInputPartE
libOpenEXR-3_4.so.33:_ZN7Imf_3_422DeepScanLineOutputFile10initializeERKNS_6HeaderE
libOpenEXR-3_4.so.33:_ZN7Imf_3_422DeepScanLineOutputFile11writePixelsEi
libOpenEXR-3_4.so.33:_ZN7Imf_3_422DeepScanLineOutputFile14setFrameBufferERKNS_15DeepFrameBufferE
libOpenEXR-3_4.so.33:_ZN7Imf_3_422DeepScanLineOutputFile18updatePreviewImageEPKNS_11PreviewRgbaE
libOpenEXR-3_4.so.33:_ZN7Imf_3_422DeepScanLineOutputFile4DataC1Ei
libOpenEXR-3_4.so.33:_ZN7Imf_3_422DeepScanLineOutputFile4DataC2Ei
libOpenEXR-3_4.so.33:_ZN7Imf_3_422DeepScanLineOutputFile4DataD1Ev
libOpenEXR-3_4.so.33:_ZN7Imf_3_422DeepScanLineOutputFile4DataD2Ev
libOpenEXR-3_4.so.33:_ZN7Imf_3_422DeepScanLineOutputFileC1EPKNS_14OutputPartDataE
libOpenEXR-3_4.so.33:_ZN7Imf_3_422DeepScanLineOutputFileC1EPKcRKNS_6HeaderEi
libOpenEXR-3_4.so.33:_ZN7Imf_3_422DeepScanLineOutputFileC1ERNS_7OStreamERKNS_6HeaderEi
libOpenEXR-3_4.so.33:_ZN7Imf_3_422DeepScanLineOutputFileC2EPKNS_14OutputPartDataE
libOpenEXR-3_4.so.33:_ZN7Imf_3_422DeepScanLineOutputFileC2EPKcRKNS_6HeaderEi
libOpenEXR-3_4.so.33:_ZN7Imf_3_422DeepScanLineOutputFileC2ERNS_7OStreamERKNS_6HeaderEi
libOpenEXR-3_4.so.33:_ZN7Imf_3_422DeepScanLineOutputFileD0Ev
libOpenEXR-3_4.so.33:_ZN7Imf_3_422DeepScanLineOutputFileD1Ev
libOpenEXR-3_4.so.33:_ZN7Imf_3_422DeepScanLineOutputFileD2Ev
libOpenEXR-3_4.so.33:_ZN7Imf_3_422DeepScanLineOutputPart10copyPixelsERNS_21DeepScanLineInputFileE
libOpenEXR-3_4.so.33:_ZN7Imf_3_422DeepScanLineOutputPart10copyPixelsERNS_21DeepScanLineInputPartE
libOpenEXR-3_4.so.33:_ZN7Imf_3_422DeepScanLineOutputPart11writePixelsEi
libOpenEXR-3_4.so.33:_ZN7Imf_3_422DeepScanLineOutputPart14setFrameBufferERKNS_15DeepFrameBufferE
libOpenEXR-3_4.so.33:_ZN7Imf_3_422DeepScanLineOutputPart18updatePreviewImageEPKNS_11PreviewRgbaE
libOpenEXR-3_4.so.33:_ZN7Imf_3_422DeepScanLineOutputPartC1ERNS_19MultiPartOutputFileEi
libOpenEXR-3_4.so.33:_ZN7Imf_3_422DeepScanLineOutputPartC2ERNS_19MultiPartOutputFileEi
libOpenEXR-3_4.so.33:_ZN7Imf_3_422addDwaCompressionLevelERNS_6HeaderERKf
libOpenEXR-3_4.so.33:_ZN7Imf_3_422addEntrancePupilOffsetERNS_6HeaderERKf
libOpenEXR-3_4.so.33:_ZN7Imf_3_422addLensFirmwareVersionERNS_6HeaderERKNSt7__cxx1112basic_stringIcSt11char_traitsIcESaIcEEE
libOpenEXR-3_4.so.33:_ZN7Imf_3_422ascFramingDecisionListB5cxx11ERKNS_6HeaderE
libOpenEXR-3_4.so.33:_ZN7Imf_3_422ascFramingDecisionListB5cxx11ERNS_6HeaderE
libOpenEXR-3_4.so.33:_ZN7Imf_3_422calculateBytesPerPixelERKNS_6HeaderE
libOpenEXR-3_4.so.33:_ZN7Imf_3_422hasDwaCompressionLevelERKNS_6HeaderE
libOpenEXR-3_4.so.33:_ZN7Imf_3_422hasEntrancePupilOffsetERKNS_6HeaderE
libOpenEXR-3_4.so.33:_ZN7Imf_3_422hasLensFirmwareVersionERKNS_6HeaderE
libOpenEXR-3_4.so.33:_ZN7Imf_3_422isMultiPartOpenExrFileEPKc
libOpenEXR-3_4.so.33:_ZN7Imf_3_422isMultiPartOpenExrFileERNS_7IStreamE
libOpenEXR-3_4.so.33:_ZN7Imf_3_422isValidDeepCompressionENS_11CompressionE
libOpenEXR-3_4.so.33:_ZN7Imf_3_422worldToCameraAttributeERKNS_6HeaderE
libOpenEXR-3_4.so.33:_ZN7Imf_3_422worldToCameraAttributeERNS_6HeaderE
libOpenEXR-3_4.so.33:_ZN7Imf_3_423addEffectiveFocalLengthERNS_6HeaderERKf
libOpenEXR-3_4.so.33:_ZN7Imf_3_423addSensorPhotositePitchERNS_6HeaderERKf
libOpenEXR-3_4.so.33:_ZN7Imf_3_423adoptedNeutralAttributeERKNS_6HeaderE
libOpenEXR-3_4.so.33:_ZN7Imf_3_423adoptedNeutralAttributeERNS_6HeaderE
libOpenEXR-3_4.so.33:_ZN7Imf_3_423chromaticitiesAttributeERKNS_6HeaderE
libOpenEXR-3_4.so.33:_ZN7Imf_3_423chromaticitiesAttributeERNS_6HeaderE
libOpenEXR-3_4.so.33:_ZN7Imf_3_423colorInteropIDAttributeB5cxx11ERKNS_6HeaderE
libOpenEXR-3_4.so.33:_ZN7Imf_3_423colorInteropIDAttributeB5cxx11ERNS_6HeaderE
libOpenEXR-3_4.so.33:_ZN7Imf_3_423copyFromDeepFrameBufferERPcPKcS0_lliiiiiiilllNS_10Compressor6FormatENS_9PixelTypeE
libOpenEXR-3_4.so.33:_ZN7Imf_3_423copyIntoDeepFrameBufferERPKcPcS1_lliiiiiiilllbdNS_10Compressor6FormatENS_9PixelTypeES6_
libOpenEXR-3_4.so.33:_ZN7Imf_3_423deepImageStateAttributeERKNS_6HeaderE
libOpenEXR-3_4.so.33:_ZN7Imf_3_423deepImageStateAttributeERNS_6HeaderE
libOpenEXR-3_4.so.33:_ZN7Imf_3_423getChunkOffsetTableSizeERKNS_6HeaderE
libOpenEXR-3_4.so.33:_ZN7Imf_3_423hasEffectiveFocalLengthERKNS_6HeaderE
libOpenEXR-3_4.so.33:_ZN7Imf_3_423hasSensorPhotositePitchERKNS_6HeaderE
libOpenEXR-3_4.so.33:_ZN7Imf_3_423offsetInLineBufferTableERKSt6vectorImSaImEEiRS2_
libOpenEXR-3_4.so.33:_ZN7Imf_3_423offsetInLineBufferTableERKSt6vectorImSaImEEiiiRS2_
libOpenEXR-3_4.so.33:_ZN7Imf_3_423sensorOverallDimensionsERKNS_6HeaderE
libOpenEXR-3_4.so.33:_ZN7Imf_3_423sensorOverallDimensionsERNS_6HeaderE
libOpenEXR-3_4.so.33:_ZN7Imf_3_423whiteLuminanceAttributeERKNS_6HeaderE
libOpenEXR-3_4.so.33:_ZN7Imf_3_423whiteLuminanceAttributeERNS_6HeaderE
libOpenEXR-3_4.so.33:_ZN7Imf_3_424addCameraFirmwareVersionERNS_6HeaderERKNSt7__cxx1112basic_stringIcSt11char_traitsIcESaIcEEE
libOpenEXR-3_4.so.33:_ZN7Imf_3_424framesPerSecondAttributeERKNS_6HeaderE
libOpenEXR-3_4.so.33:_ZN7Imf_3_424framesPerSecondAttributeERNS_6HeaderE
libOpenEXR-3_4.so.33:_ZN7Imf_3_424getCompressionIdFromNameERKNSt7__cxx1112basic_stringIcSt11char_traitsIcESaIcEEERNS_11CompressionE
libOpenEXR-3_4.so.33:_ZN7Imf_3_424getCompressionNameFromIdENS_11CompressionERNSt7__cxx1112basic_stringIcSt11char_traitsIcESaIcEEE
libOpenEXR-3_4.so.33:_ZN7Imf_3_424hasCameraFirmwareVersionERKNS_6HeaderE
libOpenEXR-3_4.so.33:_ZN7Imf_3_425addAscFramingDecisionListERNS_6HeaderERKNSt7__cxx1112basic_stringIcSt11char_traitsIcESaIcEEE
libOpenEXR-3_4.so.33:_ZN7Imf_3_425cameraCCTSettingAttributeERKNS_6HeaderE
libOpenEXR-3_4.so.33:_ZN7Imf_3_425cameraCCTSettingAttributeERNS_6HeaderE
libOpenEXR-3_4.so.33:_ZN7Imf_3_425getCompressionNamesStringERKNSt7__cxx1112basic_stringIcSt11char_traitsIcESaIcEEERS5_
libOpenEXR-3_4.so.33:_ZN7Imf_3_425hasAscFramingDecisionListERKNS_6HeaderE
libOpenEXR-3_4.so.33:_ZN7Imf_3_425lensSerialNumberAttributeB5cxx11ERKNS_6HeaderE
libOpenEXR-3_4.so.33:_ZN7Imf_3_425lensSerialNumberAttributeB5cxx11ERNS_6HeaderE
libOpenEXR-3_4.so.33:_ZN7Imf_3_425lookModTransformAttributeB5cxx11ERKNS_6HeaderE
libOpenEXR-3_4.so.33:_ZN7Imf_3_425lookModTransformAttributeB5cxx11ERNS_6HeaderE
libOpenEXR-3_4.so.33:_ZN7Imf_3_426addSensorOverallDimensionsERNS_6HeaderERKN9Imath_3_14Vec2IfEE
libOpenEXR-3_4.so.33:_ZN7Imf_3_426cameraTintSettingAttributeERKNS_6HeaderE
libOpenEXR-3_4.so.33:_ZN7Imf_3_426cameraTintSettingAttributeERNS_6HeaderE
libOpenEXR-3_4.so.33:_ZN7Imf_3_426getCompressionNumScanlinesENS_11CompressionE
libOpenEXR-3_4.so.33:_ZN7Imf_3_426hasSensorOverallDimensionsERKNS_6HeaderE
libOpenEXR-3_4.so.33:_ZN7Imf_3_426sensorAcquisitionRectangleERKNS_6HeaderE
libOpenEXR-3_4.so.33:_ZN7Imf_3_426sensorAcquisitionRectangleERNS_6HeaderE
libOpenEXR-3_4.so.33:_ZN7Imf_3_427cameraColorBalanceAttributeERKNS_6HeaderE
libOpenEXR-3_4.so.33:_ZN7Imf_3_427cameraColorBalanceAttributeERNS_6HeaderE
libOpenEXR-3_4.so.33:_ZN7Imf_3_427cameraSerialNumberAttributeB5cxx11ERKNS_6HeaderE
libOpenEXR-3_4.so.33:_ZN7Imf_3_427cameraSerialNumberAttributeB5cxx11ERNS_6HeaderE
libOpenEXR-3_4.so.33:_ZN7Imf_3_427nominalFocalLengthAttributeERKNS_6HeaderE
libOpenEXR-3_4.so.33:_ZN7Imf_3_427nominalFocalLengthAttributeERNS_6HeaderE
libOpenEXR-3_4.so.33:_ZN7Imf_3_427originalDataWindowAttributeERKNS_6HeaderE
libOpenEXR-3_4.so.33:_ZN7Imf_3_427originalDataWindowAttributeERNS_6HeaderE
libOpenEXR-3_4.so.33:_ZN7Imf_3_427pinholeFocalLengthAttributeERKNS_6HeaderE
libOpenEXR-3_4.so.33:_ZN7Imf_3_427pinholeFocalLengthAttributeERNS_6HeaderE
libOpenEXR-3_4.so.33:_ZN7Imf_3_427renderingTransformAttributeB5cxx11ERKNS_6HeaderE
libOpenEXR-3_4.so.33:_ZN7Imf_3_427renderingTransformAttributeB5cxx11ERNS_6HeaderE
libOpenEXR-3_4.so.33:_ZN7Imf_3_427sensorCenterOffsetAttributeERKNS_6HeaderE
libOpenEXR-3_4.so.33:_ZN7Imf_3_427sensorCenterOffsetAttributeERNS_6HeaderE
libOpenEXR-3_4.so.33:_ZN7Imf_3_428dwaCompressionLevelAttributeERKNS_6HeaderE
libOpenEXR-3_4.so.33:_ZN7Imf_3_428dwaCompressionLevelAttributeERNS_6HeaderE
libOpenEXR-3_4.so.33:_ZN7Imf_3_428entrancePupilOffsetAttributeERKNS_6HeaderE
libOpenEXR-3_4.so.33:_ZN7Imf_3_428entrancePupilOffsetAttributeERNS_6HeaderE
libOpenEXR-3_4.so.33:_ZN7Imf_3_428getTiledChunkOffsetTableSizeERKNS_6HeaderE
libOpenEXR-3_4.so.33:_ZN7Imf_3_428lensFirmwareVersionAttributeB5cxx11ERKNS_6HeaderE
libOpenEXR-3_4.so.33:_ZN7Imf_3_428lensFirmwareVersionAttributeB5cxx11ERNS_6HeaderE
libOpenEXR-3_4.so.33:_ZN7Imf_3_429addSensorAcquisitionRectangleERNS_6HeaderERKN9Imath_3_13BoxINS2_4Vec2IiEEEE
libOpenEXR-3_4.so.33:_ZN7Imf_3_429effectiveFocalLengthAttributeERKNS_6HeaderE
libOpenEXR-3_4.so.33:_ZN7Imf_3_429effectiveFocalLengthAttributeERNS_6HeaderE
libOpenEXR-3_4.so.33:_ZN7Imf_3_429hasSensorAcquisitionRectangleERKNS_6HeaderE
libOpenEXR-3_4.so.33:_ZN7Imf_3_429sensorPhotositePitchAttributeERKNS_6HeaderE
libOpenEXR-3_4.so.33:_ZN7Imf_3_429sensorPhotositePitchAttributeERNS_6HeaderE
libOpenEXR-3_4.so.33:_ZN7Imf_3_429setDefaultDwaCompressionLevelEf
libOpenEXR-3_4.so.33:_ZN7Imf_3_429setDefaultZipCompressionLevelEi
libOpenEXR-3_4.so.33:_ZN7Imf_3_430cameraFirmwareVersionAttributeB5cxx11ERKNS_6HeaderE
libOpenEXR-3_4.so.33:_ZN7Imf_3_430cameraFirmwareVersionAttributeB5cxx11ERNS_6HeaderE
libOpenEXR-3_4.so.33:_ZN7Imf_3_431ascFramingDecisionListAttributeB5cxx11ERKNS_6HeaderE
libOpenEXR-3_4.so.33:_ZN7Imf_3_431ascFramingDecisionListAttributeB5cxx11ERNS_6HeaderE
libOpenEXR-3_4.so.33:_ZN7Imf_3_431getCompressionDescriptionFromIdENS_11CompressionERNSt7__cxx1112basic_stringIcSt11char_traitsIcESaIcEEE
libOpenEXR-3_4.so.33:_ZN7Imf_3_432sensorOverallDimensionsAttributeERKNS_6HeaderE
libOpenEXR-3_4.so.33:_ZN7Imf_3_432sensorOverallDimensionsAttributeERNS_6HeaderE
libOpenEXR-3_4.so.33:_ZN7Imf_3_435sensorAcquisitionRectangleAttributeERKNS_6HeaderE
libOpenEXR-3_4.so.33:_ZN7Imf_3_435sensorAcquisitionRectangleAttributeERNS_6HeaderE
libOpenEXR-3_4.so.33:_ZN7Imf_3_45CpuIdC1Ev
libOpenEXR-3_4.so.33:_ZN7Imf_3_45CpuIdC2Ev
libOpenEXR-3_4.so.33:_ZN7Imf_3_45Slice4MakeENS_9PixelTypeEPKvRKN9Imath_3_13BoxINS4_4Vec2IiEEEEmmiidbb
libOpenEXR-3_4.so.33:_ZN7Imf_3_45Slice4MakeENS_9PixelTypeEPKvRKN9Imath_3_14Vec2IiEEllmmiidbb
libOpenEXR-3_4.so.33:_ZN7Imf_3_45SliceC1ENS_9PixelTypeEPcmmiidbb
libOpenEXR-3_4.so.33:_ZN7Imf_3_45SliceC2ENS_9PixelTypeEPcmmiidbb
libOpenEXR-3_4.so.33:_ZN7Imf_3_45focusERKNS_6HeaderE
libOpenEXR-3_4.so.33:_ZN7Imf_3_45focusERNS_6HeaderE
libOpenEXR-3_4.so.33:_ZN7Imf_3_45ownerB5cxx11ERKNS_6HeaderE
libOpenEXR-3_4.so.33:_ZN7Imf_3_45ownerB5cxx11ERNS_6HeaderE
libOpenEXR-3_4.so.33:_ZN7Imf_3_45tStopERKNS_6HeaderE
libOpenEXR-3_4.so.33:_ZN7Imf_3_45tStopERNS_6HeaderE
libOpenEXR-3_4.so.33:_ZN7Imf_3_46Header10chunkCountEv
libOpenEXR-3_4.so.33:_ZN7Imf_3_46Header10dataWindowEv
libOpenEXR-3_4.so.33:_ZN7Imf_3_46Header10setVersionEi
libOpenEXR-3_4.so.33:_ZN7Imf_3_46Header11compressionEv
libOpenEXR-3_4.so.33:_ZN7Imf_3_46Header12previewImageEv
libOpenEXR-3_4.so.33:_ZN7Imf_3_46Header12readsNothingEv
libOpenEXR-3_4.so.33:_ZN7Imf_3_46Header13displayWindowEv
libOpenEXR-3_4.so.33:_ZN7Imf_3_46Header13setChunkCountEi
libOpenEXR-3_4.so.33:_ZN7Imf_3_46Header14getMaxTileSizeERiS1_
libOpenEXR-3_4.so.33:_ZN7Imf_3_46Header14setMaxTileSizeEii
libOpenEXR-3_4.so.33:_ZN7Imf_3_46Header15getMaxImageSizeERiS1_
libOpenEXR-3_4.so.33:_ZN7Imf_3_46Header15setMaxImageSizeEii
libOpenEXR-3_4.so.33:_ZN7Imf_3_46Header15setPreviewImageERKNS_12PreviewImageE
libOpenEXR-3_4.so.33:_ZN7Imf_3_46Header15tileDescriptionEv
libOpenEXR-3_4.so.33:_ZN7Imf_3_46Header16pixelAspectRatioEv
libOpenEXR-3_4.so.33:_ZN7Imf_3_46Header17screenWindowWidthEv
libOpenEXR-3_4.so.33:_ZN7Imf_3_46Header18screenWindowCenterEv
libOpenEXR-3_4.so.33:_ZN7Imf_3_46Header18setTileDescriptionERKNS_15TileDescriptionE
libOpenEXR-3_4.so.33:_ZN7Imf_3_46Header19dwaCompressionLevelEv
libOpenEXR-3_4.so.33:_ZN7Imf_3_46Header19zipCompressionLevelEv
libOpenEXR-3_4.so.33:_ZN7Imf_3_46Header29resetDefaultCompressionLevelsEv
libOpenEXR-3_4.so.33:_ZN7Imf_3_46Header3endEv
libOpenEXR-3_4.so.33:_ZN7Imf_3_46Header4findEPKc
libOpenEXR-3_4.so.33:_ZN7Imf_3_46Header4findERKNSt7__cxx1112basic_stringIcSt11char_traitsIcESaIcEEE
libOpenEXR-3_4.so.33:_ZN7Imf_3_46Header4nameB5cxx11Ev
libOpenEXR-3_4.so.33:_ZN7Imf_3_46Header4typeB5cxx11Ev
libOpenEXR-3_4.so.33:_ZN7Imf_3_46Header4viewB5cxx11Ev
libOpenEXR-3_4.so.33:_ZN7Imf_3_46Header5beginEv
libOpenEXR-3_4.so.33:_ZN7Imf_3_46Header5eraseEPKc
libOpenEXR-3_4.so.33:_ZN7Imf_3_46Header5eraseERKNSt7__cxx1112basic_stringIcSt11char_traitsIcESaIcEEE
libOpenEXR-3_4.so.33:_ZN7Imf_3_46Header6insertEPKcRKNS_9AttributeE
libOpenEXR-3_4.so.33:_ZN7Imf_3_46Header6insertERKNSt7__cxx1112basic_stringIcSt11char_traitsIcESaIcEEERKNS_9AttributeE
libOpenEXR-3_4.so.33:_ZN7Imf_3_46Header7setNameERKNSt7__cxx1112basic_stringIcSt11char_traitsIcESaIcEEE
libOpenEXR-3_4.so.33:_ZN7Imf_3_46Header7setTypeERKNSt7__cxx1112basic_stringIcSt11char_traitsIcESaIcEEE
libOpenEXR-3_4.so.33:_ZN7Imf_3_46Header7setViewERKNSt7__cxx1112basic_stringIcSt11char_traitsIcESaIcEEE
libOpenEXR-3_4.so.33:_ZN7Imf_3_46Header7versionEv
libOpenEXR-3_4.so.33:_ZN7Imf_3_46Header8channelsEv
libOpenEXR-3_4.so.33:_ZN7Imf_3_46Header8readFromERNS_7IStreamERi
libOpenEXR-3_4.so.33:_ZN7Imf_3_46Header9lineOrderEv
libOpenEXR-3_4.so.33:_ZN7Imf_3_46HeaderC1EOS0_
libOpenEXR-3_4.so.33:_ZN7Imf_3_46HeaderC1ERKN9Imath_3_13BoxINS1_4Vec2IiEEEES7_fRKNS3_IfEEfNS_9LineOrderENS_11CompressionE
libOpenEXR-3_4.so.33:_ZN7Imf_3_46HeaderC1ERKS0_
libOpenEXR-3_4.so.33:_ZN7Imf_3_46HeaderC1EiiRKN9Imath_3_13BoxINS1_4Vec2IiEEEEfRKNS3_IfEEfNS_9LineOrderENS_11CompressionE
libOpenEXR-3_4.so.33:_ZN7Imf_3_46HeaderC1EiifRKN9Imath_3_14Vec2IfEEfNS_9LineOrderENS_11CompressionE
libOpenEXR-3_4.so.33:_ZN7Imf_3_46HeaderC2EOS0_
libOpenEXR-3_4.so.33:_ZN7Imf_3_46HeaderC2ERKN9Imath_3_13BoxINS1_4Vec2IiEEEES7_fRKNS3_IfEEfNS_9LineOrderENS_11CompressionE
libOpenEXR-3_4.so.33:_ZN7Imf_3_46HeaderC2ERKS0_
libOpenEXR-3_4.so.33:_ZN7Imf_3_46HeaderC2EiiRKN9Imath_3_13BoxINS1_4Vec2IiEEEEfRKNS3_IfEEfNS_9LineOrderENS_11CompressionE
libOpenEXR-3_4.so.33:_ZN7Imf_3_46HeaderC2EiifRKN9Imath_3_14Vec2IfEEfNS_9LineOrderENS_11CompressionE
libOpenEXR-3_4.so.33:_ZN7Imf_3_46HeaderD1Ev
libOpenEXR-3_4.so.33:_ZN7Imf_3_46HeaderD2Ev
libOpenEXR-3_4.so.33:_ZN7Imf_3_46HeaderaSEOS0_
libOpenEXR-3_4.so.33:_ZN7Imf_3_46HeaderaSERKS0_
libOpenEXR-3_4.so.33:_ZN7Imf_3_46HeaderixEPKc
libOpenEXR-3_4.so.33:_ZN7Imf_3_46HeaderixERKNSt7__cxx1112basic_stringIcSt11char_traitsIcESaIcEEE
libOpenEXR-3_4.so.33:_ZN7Imf_3_46envmapERKNS_6HeaderE
libOpenEXR-3_4.so.33:_ZN7Imf_3_46envmapERNS_6HeaderE
libOpenEXR-3_4.so.33:_ZN7Imf_3_47ChannelC1ENS_9PixelTypeEiib
libOpenEXR-3_4.so.33:_ZN7Imf_3_47ChannelC2ENS_9PixelTypeEiib
libOpenEXR-3_4.so.33:_ZN7Imf_3_47Context18setLongNameSupportEb
libOpenEXR-3_4.so.33:_ZN7Imf_3_47Context9addHeaderEiRKNS_6HeaderE
libOpenEXR-3_4.so.33:_ZN7Imf_3_47ContextC1EPKcRKNS_18ContextInitializerENS0_11read_mode_tE
libOpenEXR-3_4.so.33:_ZN7Imf_3_47ContextC1EPKcRKNS_18ContextInitializerENS0_11temp_mode_tE
libOpenEXR-3_4.so.33:_ZN7Imf_3_47ContextC1EPKcRKNS_18ContextInitializerENS0_12write_mode_tE
libOpenEXR-3_4.so.33:_ZN7Imf_3_47ContextC1Ev
libOpenEXR-3_4.so.33:_ZN7Imf_3_47ContextC2EPKcRKNS_18ContextInitializerENS0_11read_mode_tE
libOpenEXR-3_4.so.33:_ZN7Imf_3_47ContextC2EPKcRKNS_18ContextInitializerENS0_11temp_mode_tE
libOpenEXR-3_4.so.33:_ZN7Imf_3_47ContextC2EPKcRKNS_18ContextInitializerENS0_12write_mode_tE
libOpenEXR-3_4.so.33:_ZN7Imf_3_47ContextC2Ev
libOpenEXR-3_4.so.33:_ZN7Imf_3_47CubeMap10sizeOfFaceERKN9Imath_3_13BoxINS1_4Vec2IiEEEE
libOpenEXR-3_4.so.33:_ZN7Imf_3_47CubeMap13pixelPositionENS_11CubeMapFaceERKN9Imath_3_13BoxINS2_4Vec2IiEEEENS4_IfEE
libOpenEXR-3_4.so.33:_ZN7Imf_3_47CubeMap17dataWindowForFaceENS_11CubeMapFaceERKN9Imath_3_13BoxINS2_4Vec2IiEEEE
libOpenEXR-3_4.so.33:_ZN7Imf_3_47CubeMap20faceAndPixelPositionERKN9Imath_3_14Vec3IfEERKNS1_3BoxINS1_4Vec2IiEEEERNS_11CubeMapFaceERNS7_IfEE
libOpenEXR-3_4.so.33:_ZN7Imf_3_47CubeMap9directionENS_11CubeMapFaceERKN9Imath_3_13BoxINS2_4Vec2IiEEEERKNS4_IfEE
libOpenEXR-3_4.so.33:_ZN7Imf_3_47IStream16readMemoryMappedEi
libOpenEXR-3_4.so.33:_ZN7Imf_3_47IStream4readEPvmm
libOpenEXR-3_4.so.33:_ZN7Imf_3_47IStream4sizeEv
libOpenEXR-3_4.so.33:_ZN7Imf_3_47IStream5clearEv
libOpenEXR-3_4.so.33:_ZN7Imf_3_47IStreamC1EPKc
libOpenEXR-3_4.so.33:_ZN7Imf_3_47IStreamC2EPKc
libOpenEXR-3_4.so.33:_ZN7Imf_3_47IStreamD0Ev
libOpenEXR-3_4.so.33:_ZN7Imf_3_47IStreamD1Ev
libOpenEXR-3_4.so.33:_ZN7Imf_3_47IStreamD2Ev
libOpenEXR-3_4.so.33:_ZN7Imf_3_47KeyCode11setFilmTypeEi
libOpenEXR-3_4.so.33:_ZN7Imf_3_47KeyCode13setPerfOffsetEi
libOpenEXR-3_4.so.33:_ZN7Imf_3_47KeyCode14setFilmMfcCodeEi
libOpenEXR-3_4.so.33:_ZN7Imf_3_47KeyCode16setPerfsPerCountEi
libOpenEXR-3_4.so.33:_ZN7Imf_3_47KeyCode16setPerfsPerFrameEi
libOpenEXR-3_4.so.33:_ZN7Imf_3_47KeyCode8setCountEi
libOpenEXR-3_4.so.33:_ZN7Imf_3_47KeyCode9setPrefixEi
libOpenEXR-3_4.so.33:_ZN7Imf_3_47KeyCodeC1ERKS0_
libOpenEXR-3_4.so.33:_ZN7Imf_3_47KeyCodeC1Eiiiiiii
libOpenEXR-3_4.so.33:_ZN7Imf_3_47KeyCodeC2ERKS0_
libOpenEXR-3_4.so.33:_ZN7Imf_3_47KeyCodeC2Eiiiiiii
libOpenEXR-3_4.so.33:_ZN7Imf_3_47KeyCodeaSERKS0_
libOpenEXR-3_4.so.33:_ZN7Imf_3_47OStreamC1EPKc
libOpenEXR-3_4.so.33:_ZN7Imf_3_47OStreamC2EPKc
libOpenEXR-3_4.so.33:_ZN7Imf_3_47OStreamD0Ev
libOpenEXR-3_4.so.33:_ZN7Imf_3_47OStreamD1Ev
libOpenEXR-3_4.so.33:_ZN7Imf_3_47OStreamD2Ev
libOpenEXR-3_4.so.33:_ZN7Imf_3_47RgbaYca13fixSaturationERKN9Imath_3_14Vec3IfEEiPKPKNS_4RgbaEPS6_
libOpenEXR-3_4.so.33:_ZN7Imf_3_47RgbaYca18decimateChromaVertEiPKPKNS_4RgbaEPS1_
libOpenEXR-3_4.so.33:_ZN7Imf_3_47RgbaYca19decimateChromaHorizEiPKNS_4RgbaEPS1_
libOpenEXR-3_4.so.33:_ZN7Imf_3_47RgbaYca21reconstructChromaVertEiPKPKNS_4RgbaEPS1_
libOpenEXR-3_4.so.33:_ZN7Imf_3_47RgbaYca22reconstructChromaHorizEiPKNS_4RgbaEPS1_
libOpenEXR-3_4.so.33:_ZN7Imf_3_47RgbaYca8roundYCAEijjPKNS_4RgbaEPS1_
libOpenEXR-3_4.so.33:_ZN7Imf_3_47RgbaYca9RGBAtoYCAERKN9Imath_3_14Vec3IfEEibPKNS_4RgbaEPS6_
libOpenEXR-3_4.so.33:_ZN7Imf_3_47RgbaYca9YCAtoRGBAERKN9Imath_3_14Vec3IfEEiPKNS_4RgbaEPS6_
libOpenEXR-3_4.so.33:_ZN7Imf_3_47RgbaYca9computeYwERKNS_14ChromaticitiesE
libOpenEXR-3_4.so.33:_ZN7Imf_3_47capDateB5cxx11ERKNS_6HeaderE
libOpenEXR-3_4.so.33:_ZN7Imf_3_47capDateB5cxx11ERNS_6HeaderE
libOpenEXR-3_4.so.33:_ZN7Imf_3_47expTimeERKNS_6HeaderE
libOpenEXR-3_4.so.33:_ZN7Imf_3_47expTimeERNS_6HeaderE
libOpenEXR-3_4.so.33:_ZN7Imf_3_47isImageERKNSt7__cxx1112basic_stringIcSt11char_traitsIcESaIcEEE
libOpenEXR-3_4.so.33:_ZN7Imf_3_47isTiledERKNSt7__cxx1112basic_stringIcSt11char_traitsIcESaIcEEE
libOpenEXR-3_4.so.33:_ZN7Imf_3_47keyCodeERKNS_6HeaderE
libOpenEXR-3_4.so.33:_ZN7Imf_3_47keyCodeERNS_6HeaderE
libOpenEXR-3_4.so.33:_ZN7Imf_3_48RGBtoXYZERKNS_14ChromaticitiesEf
libOpenEXR-3_4.so.33:_ZN7Imf_3_48RationalC1Ed
libOpenEXR-3_4.so.33:_ZN7Imf_3_48RationalC2Ed
libOpenEXR-3_4.so.33:_ZN7Imf_3_48TimeCode10setMinutesEi
libOpenEXR-3_4.so.33:_ZN7Imf_3_48TimeCode10setSecondsEi
libOpenEXR-3_4.so.33:_ZN7Imf_3_48TimeCode11setUserDataEj
libOpenEXR-3_4.so.33:_ZN7Imf_3_48TimeCode12setDropFrameEb
libOpenEXR-3_4.so.33:_ZN7Imf_3_48TimeCode13setColorFrameEb
libOpenEXR-3_4.so.33:_ZN7Imf_3_48TimeCode13setFieldPhaseEb
libOpenEXR-3_4.so.33:_ZN7Imf_3_48TimeCode14setBinaryGroupEii
libOpenEXR-3_4.so.33:_ZN7Imf_3_48TimeCode15setTimeAndFlagsEjNS0_7PackingE
libOpenEXR-3_4.so.33:_ZN7Imf_3_48TimeCode7setBgf0Eb
libOpenEXR-3_4.so.33:_ZN7Imf_3_48TimeCode7setBgf1Eb
libOpenEXR-3_4.so.33:_ZN7Imf_3_48TimeCode7setBgf2Eb
libOpenEXR-3_4.so.33:_ZN7Imf_3_48TimeCode8setFrameEi
libOpenEXR-3_4.so.33:_ZN7Imf_3_48TimeCode8setHoursEi
libOpenEXR-3_4.so.33:_ZN7Imf_3_48TimeCodeC1ERKS0_
libOpenEXR-3_4.so.33:_ZN7Imf_3_48TimeCodeC1Eiiiibbbbbbiiiiiiii
libOpenEXR-3_4.so.33:_ZN7Imf_3_48TimeCodeC1EjjNS0_7PackingE
libOpenEXR-3_4.so.33:_ZN7Imf_3_48TimeCodeC1Ev
libOpenEXR-3_4.so.33:_ZN7Imf_3_48TimeCodeC2ERKS0_
libOpenEXR-3_4.so.33:_ZN7Imf_3_48TimeCodeC2Eiiiibbbbbbiiiiiiii
libOpenEXR-3_4.so.33:_ZN7Imf_3_48TimeCodeC2EjjNS0_7PackingE
libOpenEXR-3_4.so.33:_ZN7Imf_3_48TimeCodeC2Ev
libOpenEXR-3_4.so.33:_ZN7Imf_3_48TimeCodeaSERKS0_
libOpenEXR-3_4.so.33:_ZN7Imf_3_48XYZtoRGBERKNS_14ChromaticitiesEf
libOpenEXR-3_4.so.33:_ZN7Imf_3_48addFocusERNS_6HeaderERKf
libOpenEXR-3_4.so.33:_ZN7Imf_3_48addOwnerERNS_6HeaderERKNSt7__cxx1112basic_stringIcSt11char_traitsIcESaIcEEE
libOpenEXR-3_4.so.33:_ZN7Imf_3_48addTStopERNS_6HeaderERKf
libOpenEXR-3_4.so.33:_ZN7Imf_3_48altitudeERKNS_6HeaderE
libOpenEXR-3_4.so.33:_ZN7Imf_3_48altitudeERNS_6HeaderE
libOpenEXR-3_4.so.33:_ZN7Imf_3_48apertureERKNS_6HeaderE
libOpenEXR-3_4.so.33:_ZN7Imf_3_48apertureERNS_6HeaderE
libOpenEXR-3_4.so.33:_ZN7Imf_3_48commentsB5cxx11ERKNS_6HeaderE
libOpenEXR-3_4.so.33:_ZN7Imf_3_48commentsB5cxx11ERNS_6HeaderE
libOpenEXR-3_4.so.33:_ZN7Imf_3_48hasFocusERKNS_6HeaderE
libOpenEXR-3_4.so.33:_ZN7Imf_3_48hasOwnerERKNS_6HeaderE
libOpenEXR-3_4.so.33:_ZN7Imf_3_48hasTStopERKNS_6HeaderE
libOpenEXR-3_4.so.33:_ZN7Imf_3_48isoSpeedERKNS_6HeaderE
libOpenEXR-3_4.so.33:_ZN7Imf_3_48isoSpeedERNS_6HeaderE
libOpenEXR-3_4.so.33:_ZN7Imf_3_48latitudeERKNS_6HeaderE
libOpenEXR-3_4.so.33:_ZN7Imf_3_48latitudeERNS_6HeaderE
libOpenEXR-3_4.so.33:_ZN7Imf_3_48lensMakeB5cxx11ERKNS_6HeaderE
libOpenEXR-3_4.so.33:_ZN7Imf_3_48lensMakeB5cxx11ERNS_6HeaderE
libOpenEXR-3_4.so.33:_ZN7Imf_3_48reelNameB5cxx11ERKNS_6HeaderE
libOpenEXR-3_4.so.33:_ZN7Imf_3_48reelNameB5cxx11ERNS_6HeaderE
libOpenEXR-3_4.so.33:_ZN7Imf_3_48timeCodeERKNS_6HeaderE
libOpenEXR-3_4.so.33:_ZN7Imf_3_48timeCodeERNS_6HeaderE
libOpenEXR-3_4.so.33:_ZN7Imf_3_48xDensityERKNS_6HeaderE
libOpenEXR-3_4.so.33:_ZN7Imf_3_48xDensityERNS_6HeaderE
libOpenEXR-3_4.so.33:_ZN7Imf_3_49Attribute12newAttributeEPKc
libOpenEXR-3_4.so.33:_ZN7Imf_3_49Attribute21registerAttributeTypeEPKcPFPS0_vE
libOpenEXR-3_4.so.33:_ZN7Imf_3_49Attribute23unRegisterAttributeTypeEPKc
libOpenEXR-3_4.so.33:_ZN7Imf_3_49Attribute9knownTypeEPKc
libOpenEXR-3_4.so.33:_ZN7Imf_3_49AttributeC1Ev
libOpenEXR-3_4.so.33:_ZN7Imf_3_49AttributeC2Ev
libOpenEXR-3_4.so.33:_ZN7Imf_3_49AttributeD0Ev
libOpenEXR-3_4.so.33:_ZN7Imf_3_49AttributeD1Ev
libOpenEXR-3_4.so.33:_ZN7Imf_3_49AttributeD2Ev
libOpenEXR-3_4.so.33:_ZN7Imf_3_49DeepSliceC1ENS_9PixelTypeEPcmmmiidbb
libOpenEXR-3_4.so.33:_ZN7Imf_3_49DeepSliceC2ENS_9PixelTypeEPcmmmiidbb
libOpenEXR-3_4.so.33:_ZN7Imf_3_49InputFile10readPixelsERKNS_11FrameBufferEii
libOpenEXR-3_4.so.33:_ZN7Imf_3_49InputFile10readPixelsEi
libOpenEXR-3_4.so.33:_ZN7Imf_3_49InputFile10readPixelsEii
libOpenEXR-3_4.so.33:_ZN7Imf_3_49InputFile11rawTileDataERiS1_S1_S1_RPKcS1_
libOpenEXR-3_4.so.33:_ZN7Imf_3_49InputFile12rawPixelDataEiRPKcRi
libOpenEXR-3_4.so.33:_ZN7Imf_3_49InputFile14setFrameBufferERKNS_11FrameBufferE
libOpenEXR-3_4.so.33:_ZN7Imf_3_49InputFile4Data10fillBufferENS_11FrameBuffer13ConstIteratorEiiiii
libOpenEXR-3_4.so.33:_ZN7Imf_3_49InputFile4Data10readPixelsERKNS_11FrameBufferEii
libOpenEXR-3_4.so.33:_ZN7Imf_3_49InputFile4Data10readPixelsEii
libOpenEXR-3_4.so.33:_ZN7Imf_3_49InputFile4Data14setFrameBufferERKNS_11FrameBufferE
libOpenEXR-3_4.so.33:_ZN7Imf_3_49InputFile4Data16copyCachedBufferENS_11FrameBuffer13ConstIteratorES3_iiiii
libOpenEXR-3_4.so.33:_ZN7Imf_3_49InputFile4Data18bufferedReadPixelsEii
libOpenEXR-3_4.so.33:_ZN7Imf_3_49InputFile4Data18deleteCachedBufferEv
libOpenEXR-3_4.so.33:_ZN7Imf_3_49InputFile4Data20lockedSetFrameBufferERKNS_11FrameBufferE
libOpenEXR-3_4.so.33:_ZN7Imf_3_49InputFileC1EPKcRKNS_18ContextInitializerEi
libOpenEXR-3_4.so.33:_ZN7Imf_3_49InputFileC1EPKci
libOpenEXR-3_4.so.33:_ZN7Imf_3_49InputFileC1ERNS_7IStreamEi
libOpenEXR-3_4.so.33:_ZN7Imf_3_49InputFileC2EPKcRKNS_18ContextInitializerEi
libOpenEXR-3_4.so.33:_ZN7Imf_3_49InputFileC2EPKci
libOpenEXR-3_4.so.33:_ZN7Imf_3_49InputFileC2ERNS_7IStreamEi
libOpenEXR-3_4.so.33:_ZN7Imf_3_49InputPart10readPixelsERKNS_11FrameBufferEii
libOpenEXR-3_4.so.33:_ZN7Imf_3_49InputPart10readPixelsEi
libOpenEXR-3_4.so.33:_ZN7Imf_3_49InputPart10readPixelsEii
libOpenEXR-3_4.so.33:_ZN7Imf_3_49InputPart11rawTileDataERiS1_S1_S1_RPKcS1_
libOpenEXR-3_4.so.33:_ZN7Imf_3_49InputPart12rawPixelDataEiRPKcRi
libOpenEXR-3_4.so.33:_ZN7Imf_3_49InputPart14setFrameBufferERKNS_11FrameBufferE
libOpenEXR-3_4.so.33:_ZN7Imf_3_49InputPartC1ERNS_18MultiPartInputFileEi
libOpenEXR-3_4.so.33:_ZN7Imf_3_49InputPartC2ERNS_18MultiPartInputFileEi
libOpenEXR-3_4.so.33:_ZN7Imf_3_49addEnvmapERNS_6HeaderERKNS_6EnvmapE
libOpenEXR-3_4.so.33:_ZN7Imf_3_49hasEnvmapERKNS_6HeaderE
libOpenEXR-3_4.so.33:_ZN7Imf_3_49lensModelB5cxx11ERKNS_6HeaderE
libOpenEXR-3_4.so.33:_ZN7Imf_3_49lensModelB5cxx11ERNS_6HeaderE
libOpenEXR-3_4.so.33:_ZN7Imf_3_49levelSizeEiiiNS_17LevelRoundingModeE
libOpenEXR-3_4.so.33:_ZN7Imf_3_49longitudeERKNS_6HeaderE
libOpenEXR-3_4.so.33:_ZN7Imf_3_49longitudeERNS_6HeaderE
libOpenEXR-3_4.so.33:_ZN7Imf_3_49multiViewB5cxx11ERKNS_6HeaderE
libOpenEXR-3_4.so.33:_ZN7Imf_3_49multiViewB5cxx11ERNS_6HeaderE
libOpenEXR-3_4.so.33:_ZN7Imf_3_49utcOffsetERKNS_6HeaderE
libOpenEXR-3_4.so.33:_ZN7Imf_3_49utcOffsetERNS_6HeaderE
libOpenEXR-3_4.so.33:_ZN7Imf_3_49wrapmodesB5cxx11ERKNS_6HeaderE
libOpenEXR-3_4.so.33:_ZN7Imf_3_49wrapmodesB5cxx11ERNS_6HeaderE
libOpenEXR-3_4.so.33:_ZNK7Imf_3_410Compressor12numScanLinesEv
libOpenEXR-3_4.so.33:_ZNK7Imf_3_410Compressor6formatEv
libOpenEXR-3_4.so.33:_ZNK7Imf_3_410IDManifest20ChannelGroupManifest11getChannelsB5cxx11Ev
libOpenEXR-3_4.so.33:_ZNK7Imf_3_410IDManifest20ChannelGroupManifest13getComponentsB5cxx11Ev
libOpenEXR-3_4.so.33:_ZNK7Imf_3_410IDManifest20ChannelGroupManifest3endEv
libOpenEXR-3_4.so.33:_ZNK7Imf_3_410IDManifest20ChannelGroupManifest4findEm
libOpenEXR-3_4.so.33:_ZNK7Imf_3_410IDManifest20ChannelGroupManifest4sizeEv
libOpenEXR-3_4.so.33:_ZNK7Imf_3_410IDManifest20ChannelGroupManifest5beginEv
libOpenEXR-3_4.so.33:_ZNK7Imf_3_410IDManifest20ChannelGroupManifesteqERKS1_
libOpenEXR-3_4.so.33:_ZNK7Imf_3_410IDManifest4findERKNSt7__cxx1112basic_stringIcSt11char_traitsIcESaIcEEE
libOpenEXR-3_4.so.33:_ZNK7Imf_3_410IDManifest4sizeEv
libOpenEXR-3_4.so.33:_ZNK7Imf_3_410IDManifest9serializeERSt6vectorIcSaIcEE
libOpenEXR-3_4.so.33:_ZNK7Imf_3_410IDManifesteqERKS0_
libOpenEXR-3_4.so.33:_ZNK7Imf_3_410IDManifestixEm
libOpenEXR-3_4.so.33:_ZNK7Imf_3_410IDManifestneERKS0_
libOpenEXR-3_4.so.33:_ZNK7Imf_3_410OutputFile11frameBufferEv
libOpenEXR-3_4.so.33:_ZNK7Imf_3_410OutputFile15currentScanLineEv
libOpenEXR-3_4.so.33:_ZNK7Imf_3_410OutputFile6headerEv
libOpenEXR-3_4.so.33:_ZNK7Imf_3_410OutputFile8fileNameEv
libOpenEXR-3_4.so.33:_ZNK7Imf_3_410OutputPart11frameBufferEv
libOpenEXR-3_4.so.33:_ZNK7Imf_3_410OutputPart15currentScanLineEv
libOpenEXR-3_4.so.33:_ZNK7Imf_3_410OutputPart6headerEv
libOpenEXR-3_4.so.33:_ZNK7Imf_3_410OutputPart8fileNameEv
libOpenEXR-3_4.so.33:_ZNK7Imf_3_411ChannelList11findChannelEPKc
libOpenEXR-3_4.so.33:_ZNK7Imf_3_411ChannelList11findChannelERKNSt7__cxx1112basic_stringIcSt11char_traitsIcESaIcEEE
libOpenEXR-3_4.so.33:_ZNK7Imf_3_411ChannelList15channelsInLayerERKNSt7__cxx1112basic_stringIcSt11char_traitsIcESaIcEEERNS0_13ConstIteratorESA_
libOpenEXR-3_4.so.33:_ZNK7Imf_3_411ChannelList18channelsWithPrefixEPKcRNS0_13ConstIteratorES4_
libOpenEXR-3_4.so.33:_ZNK7Imf_3_411ChannelList18channelsWithPrefixERKNSt7__cxx1112basic_stringIcSt11char_traitsIcESaIcEEERNS0_13ConstIteratorESA_
libOpenEXR-3_4.so.33:_ZNK7Imf_3_411ChannelList3endEv
libOpenEXR-3_4.so.33:_ZNK7Imf_3_411ChannelList4findEPKc
libOpenEXR-3_4.so.33:_ZNK7Imf_3_411ChannelList4findERKNSt7__cxx1112basic_stringIcSt11char_traitsIcESaIcEEE
libOpenEXR-3_4.so.33:_ZNK7Imf_3_411ChannelList5beginEv
libOpenEXR-3_4.so.33:_ZNK7Imf_3_411ChannelList6layersERSt3setINSt7__cxx1112basic_stringIcSt11char_traitsIcESaIcEEESt4lessIS7_ESaIS7_EE
libOpenEXR-3_4.so.33:_ZNK7Imf_3_411ChannelListeqERKS0_
libOpenEXR-3_4.so.33:_ZNK7Imf_3_411ChannelListixEPKc
libOpenEXR-3_4.so.33:_ZNK7Imf_3_411ChannelListixERKNSt7__cxx1112basic_stringIcSt11char_traitsIcESaIcEEE
libOpenEXR-3_4.so.33:_ZNK7Imf_3_411FrameBuffer3endEv
libOpenEXR-3_4.so.33:_ZNK7Imf_3_411FrameBuffer4findEPKc
libOpenEXR-3_4.so.33:_ZNK7Imf_3_411FrameBuffer4findERKNSt7__cxx1112basic_stringIcSt11char_traitsIcESaIcEEE
libOpenEXR-3_4.so.33:_ZNK7Imf_3_411FrameBuffer5beginEv
libOpenEXR-3_4.so.33:_ZNK7Imf_3_411FrameBuffer9findSliceEPKc
libOpenEXR-3_4.so.33:_ZNK7Imf_3_411FrameBuffer9findSliceERKNSt7__cxx1112basic_stringIcSt11char_traitsIcESaIcEEE
libOpenEXR-3_4.so.33:_ZNK7Imf_3_411FrameBufferixEPKc
libOpenEXR-3_4.so.33:_ZNK7Imf_3_411FrameBufferixERKNSt7__cxx1112basic_stringIcSt11char_traitsIcESaIcEEE
libOpenEXR-3_4.so.33:_ZNK7Imf_3_411StdISStream3strB5cxx11Ev
libOpenEXR-3_4.so.33:_ZNK7Imf_3_411StdOSStream3strB5cxx11Ev
libOpenEXR-3_4.so.33:_ZNK7Imf_3_411TileOffsets10getOffsetsEv
libOpenEXR-3_4.so.33:_ZNK7Imf_3_411TileOffsets11isValidTileEiiii
libOpenEXR-3_4.so.33:_ZNK7Imf_3_411TileOffsets12getTileOrderEPiS1_S1_S1_
libOpenEXR-3_4.so.33:_ZNK7Imf_3_411TileOffsets7isEmptyEv
libOpenEXR-3_4.so.33:_ZNK7Imf_3_411TileOffsets7writeToERNS_7OStreamE
libOpenEXR-3_4.so.33:_ZNK7Imf_3_411TileOffsetsclEiii
libOpenEXR-3_4.so.33:_ZNK7Imf_3_411TileOffsetsclEiiii
libOpenEXR-3_4.so.33:_ZNK7Imf_3_413AcesInputFile10dataWindowEv
libOpenEXR-3_4.so.33:_ZNK7Imf_3_413AcesInputFile10isCompleteEv
libOpenEXR-3_4.so.33:_ZNK7Imf_3_413AcesInputFile11compressionEv
libOpenEXR-3_4.so.33:_ZNK7Imf_3_413AcesInputFile13displayWindowEv
libOpenEXR-3_4.so.33:_ZNK7Imf_3_413AcesInputFile16pixelAspectRatioEv
libOpenEXR-3_4.so.33:_ZNK7Imf_3_413AcesInputFile17screenWindowWidthEv
libOpenEXR-3_4.so.33:_ZNK7Imf_3_413AcesInputFile18screenWindowCenterEv
libOpenEXR-3_4.so.33:_ZNK7Imf_3_413AcesInputFile6headerEv
libOpenEXR-3_4.so.33:_ZNK7Imf_3_413AcesInputFile7versionEv
libOpenEXR-3_4.so.33:_ZNK7Imf_3_413AcesInputFile8channelsEv
libOpenEXR-3_4.so.33:_ZNK7Imf_3_413AcesInputFile8fileNameEv
libOpenEXR-3_4.so.33:_ZNK7Imf_3_413AcesInputFile9lineOrderEv
libOpenEXR-3_4.so.33:_ZNK7Imf_3_413RgbaInputFile10dataWindowEv
libOpenEXR-3_4.so.33:_ZNK7Imf_3_413RgbaInputFile10isCompleteEv
libOpenEXR-3_4.so.33:_ZNK7Imf_3_413RgbaInputFile11compressionEv
libOpenEXR-3_4.so.33:_ZNK7Imf_3_413RgbaInputFile11frameBufferEv
libOpenEXR-3_4.so.33:_ZNK7Imf_3_413RgbaInputFile13displayWindowEv
libOpenEXR-3_4.so.33:_ZNK7Imf_3_413RgbaInputFile16pixelAspectRatioEv
libOpenEXR-3_4.so.33:_ZNK7Imf_3_413RgbaInputFile17screenWindowWidthEv
libOpenEXR-3_4.so.33:_ZNK7Imf_3_413RgbaInputFile18screenWindowCenterEv
libOpenEXR-3_4.so.33:_ZNK7Imf_3_413RgbaInputFile5partsEv
libOpenEXR-3_4.so.33:_ZNK7Imf_3_413RgbaInputFile6headerEv
libOpenEXR-3_4.so.33:_ZNK7Imf_3_413RgbaInputFile7versionEv
libOpenEXR-3_4.so.33:_ZNK7Imf_3_413RgbaInputFile8channelsEv
libOpenEXR-3_4.so.33:_ZNK7Imf_3_413RgbaInputFile8fileNameEv
libOpenEXR-3_4.so.33:_ZNK7Imf_3_413RgbaInputFile9lineOrderEv
libOpenEXR-3_4.so.33:_ZNK7Imf_3_414AcesOutputFile10dataWindowEv
libOpenEXR-3_4.so.33:_ZNK7Imf_3_414AcesOutputFile11compressionEv
libOpenEXR-3_4.so.33:_ZNK7Imf_3_414AcesOutputFile13displayWindowEv
libOpenEXR-3_4.so.33:_ZNK7Imf_3_414AcesOutputFile15currentScanLineEv
libOpenEXR-3_4.so.33:_ZNK7Imf_3_414AcesOutputFile16pixelAspectRatioEv
libOpenEXR-3_4.so.33:_ZNK7Imf_3_414AcesOutputFile17screenWindowWidthEv
libOpenEXR-3_4.so.33:_ZNK7Imf_3_414AcesOutputFile18screenWindowCenterEv
libOpenEXR-3_4.so.33:_ZNK7Imf_3_414AcesOutputFile6headerEv
libOpenEXR-3_4.so.33:_ZNK7Imf_3_414AcesOutputFile8channelsEv
libOpenEXR-3_4.so.33:_ZNK7Imf_3_414AcesOutputFile9lineOrderEv
libOpenEXR-3_4.so.33:_ZNK7Imf_3_414BytesAttribute12writeValueToERNS_7OStreamEi
libOpenEXR-3_4.so.33:_ZNK7Imf_3_414BytesAttribute4copyEv
libOpenEXR-3_4.so.33:_ZNK7Imf_3_414BytesAttribute8typeNameEv
libOpenEXR-3_4.so.33:_ZNK7Imf_3_414BytesAttributeeqERKS0_
libOpenEXR-3_4.so.33:_ZNK7Imf_3_414ChromaticitieseqERKS0_
libOpenEXR-3_4.so.33:_ZNK7Imf_3_414ChromaticitiesneERKS0_
libOpenEXR-3_4.so.33:_ZNK7Imf_3_414RgbaOutputFile10dataWindowEv
libOpenEXR-3_4.so.33:_ZNK7Imf_3_414RgbaOutputFile11compressionEv
libOpenEXR-3_4.so.33:_ZNK7Imf_3_414RgbaOutputFile11frameBufferEv
libOpenEXR-3_4.so.33:_ZNK7Imf_3_414RgbaOutputFile13displayWindowEv
libOpenEXR-3_4.so.33:_ZNK7Imf_3_414RgbaOutputFile15currentScanLineEv
libOpenEXR-3_4.so.33:_ZNK7Imf_3_414RgbaOutputFile16pixelAspectRatioEv
libOpenEXR-3_4.so.33:_ZNK7Imf_3_414RgbaOutputFile17screenWindowWidthEv
libOpenEXR-3_4.so.33:_ZNK7Imf_3_414RgbaOutputFile18screenWindowCenterEv
libOpenEXR-3_4.so.33:_ZNK7Imf_3_414RgbaOutputFile6headerEv
libOpenEXR-3_4.so.33:_ZNK7Imf_3_414RgbaOutputFile8channelsEv
libOpenEXR-3_4.so.33:_ZNK7Imf_3_414RgbaOutputFile9lineOrderEv
libOpenEXR-3_4.so.33:_ZNK7Imf_3_414TiledInputFile10isCompleteEv
libOpenEXR-3_4.so.33:_ZNK7Imf_3_414TiledInputFile10levelWidthEi
libOpenEXR-3_4.so.33:_ZNK7Imf_3_414TiledInputFile10numXLevelsEv
libOpenEXR-3_4.so.33:_ZNK7Imf_3_414TiledInputFile10numYLevelsEv
libOpenEXR-3_4.so.33:_ZNK7Imf_3_414TiledInputFile11frameBufferEv
libOpenEXR-3_4.so.33:_ZNK7Imf_3_414TiledInputFile11levelHeightEi
libOpenEXR-3_4.so.33:_ZNK7Imf_3_414TiledInputFile12isValidLevelEii
libOpenEXR-3_4.so.33:_ZNK7Imf_3_414TiledInputFile17dataWindowForTileEiii
libOpenEXR-3_4.so.33:_ZNK7Imf_3_414TiledInputFile17dataWindowForTileEiiii
libOpenEXR-3_4.so.33:_ZNK7Imf_3_414TiledInputFile17levelRoundingModeEv
libOpenEXR-3_4.so.33:_ZNK7Imf_3_414TiledInputFile18dataWindowForLevelEi
libOpenEXR-3_4.so.33:_ZNK7Imf_3_414TiledInputFile18dataWindowForLevelEii
libOpenEXR-3_4.so.33:_ZNK7Imf_3_414TiledInputFile6headerEv
libOpenEXR-3_4.so.33:_ZNK7Imf_3_414TiledInputFile7versionEv
libOpenEXR-3_4.so.33:_ZNK7Imf_3_414TiledInputFile8fileNameEv
libOpenEXR-3_4.so.33:_ZNK7Imf_3_414TiledInputFile9levelModeEv
libOpenEXR-3_4.so.33:_ZNK7Imf_3_414TiledInputFile9numLevelsEv
libOpenEXR-3_4.so.33:_ZNK7Imf_3_414TiledInputFile9numXTilesEi
libOpenEXR-3_4.so.33:_ZNK7Imf_3_414TiledInputFile9numYTilesEi
libOpenEXR-3_4.so.33:_ZNK7Imf_3_414TiledInputFile9tileXSizeEv
libOpenEXR-3_4.so.33:_ZNK7Imf_3_414TiledInputFile9tileYSizeEv
libOpenEXR-3_4.so.33:_ZNK7Imf_3_414TiledInputPart10isCompleteEv
libOpenEXR-3_4.so.33:_ZNK7Imf_3_414TiledInputPart10levelWidthEi
libOpenEXR-3_4.so.33:_ZNK7Imf_3_414TiledInputPart10numXLevelsEv
libOpenEXR-3_4.so.33:_ZNK7Imf_3_414TiledInputPart10numYLevelsEv
libOpenEXR-3_4.so.33:_ZNK7Imf_3_414TiledInputPart11frameBufferEv
libOpenEXR-3_4.so.33:_ZNK7Imf_3_414TiledInputPart11levelHeightEi
libOpenEXR-3_4.so.33:_ZNK7Imf_3_414TiledInputPart12isValidLevelEii
libOpenEXR-3_4.so.33:_ZNK7Imf_3_414TiledInputPart17dataWindowForTileEiii
libOpenEXR-3_4.so.33:_ZNK7Imf_3_414TiledInputPart17dataWindowForTileEiiii
libOpenEXR-3_4.so.33:_ZNK7Imf_3_414TiledInputPart17levelRoundingModeEv
libOpenEXR-3_4.so.33:_ZNK7Imf_3_414TiledInputPart18dataWindowForLevelEi
libOpenEXR-3_4.so.33:_ZNK7Imf_3_414TiledInputPart18dataWindowForLevelEii
libOpenEXR-3_4.so.33:_ZNK7Imf_3_414TiledInputPart6headerEv
libOpenEXR-3_4.so.33:_ZNK7Imf_3_414TiledInputPart7versionEv
libOpenEXR-3_4.so.33:_ZNK7Imf_3_414TiledInputPart8fileNameEv
libOpenEXR-3_4.so.33:_ZNK7Imf_3_414TiledInputPart9levelModeEv
libOpenEXR-3_4.so.33:_ZNK7Imf_3_414TiledInputPart9numLevelsEv
libOpenEXR-3_4.so.33:_ZNK7Imf_3_414TiledInputPart9numXTilesEi
libOpenEXR-3_4.so.33:_ZNK7Imf_3_414TiledInputPart9numYTilesEi
libOpenEXR-3_4.so.33:_ZNK7Imf_3_414TiledInputPart9tileXSizeEv
libOpenEXR-3_4.so.33:_ZNK7Imf_3_414TiledInputPart9tileYSizeEv
libOpenEXR-3_4.so.33:_ZNK7Imf_3_414TypedAttributeIN9Imath_3_13BoxINS1_4Vec2IfEEEEE12writeValueToERNS_7OStreamEi
libOpenEXR-3_4.so.33:_ZNK7Imf_3_414TypedAttributeIN9Imath_3_13BoxINS1_4Vec2IiEEEEE12writeValueToERNS_7OStreamEi
libOpenEXR-3_4.so.33:_ZNK7Imf_3_414TypedAttributeIN9Imath_3_14Vec2IdEEE12writeValueToERNS_7OStreamEi
libOpenEXR-3_4.so.33:_ZNK7Imf_3_414TypedAttributeIN9Imath_3_14Vec2IfEEE12writeValueToERNS_7OStreamEi
libOpenEXR-3_4.so.33:_ZNK7Imf_3_414TypedAttributeIN9Imath_3_14Vec2IiEEE12writeValueToERNS_7OStreamEi
libOpenEXR-3_4.so.33:_ZNK7Imf_3_414TypedAttributeIN9Imath_3_14Vec3IdEEE12writeValueToERNS_7OStreamEi
libOpenEXR-3_4.so.33:_ZNK7Imf_3_414TypedAttributeIN9Imath_3_14Vec3IfEEE12writeValueToERNS_7OStreamEi
libOpenEXR-3_4.so.33:_ZNK7Imf_3_414TypedAttributeIN9Imath_3_14Vec3IiEEE12writeValueToERNS_7OStreamEi
libOpenEXR-3_4.so.33:_ZNK7Imf_3_414TypedAttributeIN9Imath_3_18Matrix33IdEEE12writeValueToERNS_7OStreamEi
libOpenEXR-3_4.so.33:_ZNK7Imf_3_414TypedAttributeIN9Imath_3_18Matrix33IfEEE12writeValueToERNS_7OStreamEi
libOpenEXR-3_4.so.33:_ZNK7Imf_3_414TypedAttributeIN9Imath_3_18Matrix44IdEEE12writeValueToERNS_7OStreamEi
libOpenEXR-3_4.so.33:_ZNK7Imf_3_414TypedAttributeIN9Imath_3_18Matrix44IfEEE12writeValueToERNS_7OStreamEi
libOpenEXR-3_4.so.33:_ZNK7Imf_3_414TypedAttributeINS_11ChannelListEE12writeValueToERNS_7OStreamEi
libOpenEXR-3_4.so.33:_ZNK7Imf_3_414TypedAttributeINS_11CompressionEE12writeValueToERNS_7OStreamEi
libOpenEXR-3_4.so.33:_ZNK7Imf_3_414TypedAttributeINS_12PreviewImageEE12writeValueToERNS_7OStreamEi
libOpenEXR-3_4.so.33:_ZNK7Imf_3_414TypedAttributeINS_14ChromaticitiesEE12writeValueToERNS_7OStreamEi
libOpenEXR-3_4.so.33:_ZNK7Imf_3_414TypedAttributeINS_14DeepImageStateEE12writeValueToERNS_7OStreamEi
libOpenEXR-3_4.so.33:_ZNK7Imf_3_414TypedAttributeINS_15TileDescriptionEE12writeValueToERNS_7OStreamEi
libOpenEXR-3_4.so.33:_ZNK7Imf_3_414TypedAttributeINS_20CompressedIDManifestEE12writeValueToERNS_7OStreamEi
libOpenEXR-3_4.so.33:_ZNK7Imf_3_414TypedAttributeINS_6EnvmapEE12writeValueToERNS_7OStreamEi
libOpenEXR-3_4.so.33:_ZNK7Imf_3_414TypedAttributeINS_7KeyCodeEE12writeValueToERNS_7OStreamEi
libOpenEXR-3_4.so.33:_ZNK7Imf_3_414TypedAttributeINS_8RationalEE12writeValueToERNS_7OStreamEi
libOpenEXR-3_4.so.33:_ZNK7Imf_3_414TypedAttributeINS_8TimeCodeEE12writeValueToERNS_7OStreamEi
libOpenEXR-3_4.so.33:_ZNK7Imf_3_414TypedAttributeINS_9LineOrderEE12writeValueToERNS_7OStreamEi
libOpenEXR-3_4.so.33:_ZNK7Imf_3_414TypedAttributeINSt7__cxx1112basic_stringIcSt11char_traitsIcESaIcEEEE12writeValueToERNS_7OStreamEi
libOpenEXR-3_4.so.33:_ZNK7Imf_3_414TypedAttributeISt6vectorINSt7__cxx1112basic_stringIcSt11char_traitsIcESaIcEEESaIS7_EEE12writeValueToERNS_7OStreamEi
libOpenEXR-3_4.so.33:_ZNK7Imf_3_414TypedAttributeISt6vectorIfSaIfEEE12writeValueToERNS_7OStreamEi
libOpenEXR-3_4.so.33:_ZNK7Imf_3_415DeepFrameBuffer19getSampleCountSliceEv
libOpenEXR-3_4.so.33:_ZNK7Imf_3_415DeepFrameBuffer3endEv
libOpenEXR-3_4.so.33:_ZNK7Imf_3_415DeepFrameBuffer4findEPKc
libOpenEXR-3_4.so.33:_ZNK7Imf_3_415DeepFrameBuffer4findERKNSt7__cxx1112basic_stringIcSt11char_traitsIcESaIcEEE
libOpenEXR-3_4.so.33:_ZNK7Imf_3_415DeepFrameBuffer5beginEv
libOpenEXR-3_4.so.33:_ZNK7Imf_3_415DeepFrameBuffer9findSliceEPKc
libOpenEXR-3_4.so.33:_ZNK7Imf_3_415DeepFrameBuffer9findSliceERKNSt7__cxx1112basic_stringIcSt11char_traitsIcESaIcEEE
libOpenEXR-3_4.so.33:_ZNK7Imf_3_415DeepFrameBufferixEPKc
libOpenEXR-3_4.so.33:_ZNK7Imf_3_415DeepFrameBufferixERKNSt7__cxx1112basic_stringIcSt11char_traitsIcESaIcEEE
libOpenEXR-3_4.so.33:_ZNK7Imf_3_415OpaqueAttribute12writeValueToERNS_7OStreamEi
libOpenEXR-3_4.so.33:_ZNK7Imf_3_415OpaqueAttribute4copyEv
libOpenEXR-3_4.so.33:_ZNK7Imf_3_415OpaqueAttribute8typeNameEv
libOpenEXR-3_4.so.33:_ZNK7Imf_3_415TiledOutputFile10levelWidthEi
libOpenEXR-3_4.so.33:_ZNK7Imf_3_415TiledOutputFile10numXLevelsEv
libOpenEXR-3_4.so.33:_ZNK7Imf_3_415TiledOutputFile10numYLevelsEv
libOpenEXR-3_4.so.33:_ZNK7Imf_3_415TiledOutputFile11frameBufferEv
libOpenEXR-3_4.so.33:_ZNK7Imf_3_415TiledOutputFile11levelHeightEi
libOpenEXR-3_4.so.33:_ZNK7Imf_3_415TiledOutputFile12isValidLevelEii
libOpenEXR-3_4.so.33:_ZNK7Imf_3_415TiledOutputFile17dataWindowForTileEiii
libOpenEXR-3_4.so.33:_ZNK7Imf_3_415TiledOutputFile17dataWindowForTileEiiii
libOpenEXR-3_4.so.33:_ZNK7Imf_3_415TiledOutputFile17levelRoundingModeEv
libOpenEXR-3_4.so.33:_ZNK7Imf_3_415TiledOutputFile18dataWindowForLevelEi
libOpenEXR-3_4.so.33:_ZNK7Imf_3_415TiledOutputFile18dataWindowForLevelEii
libOpenEXR-3_4.so.33:_ZNK7Imf_3_415TiledOutputFile6headerEv
libOpenEXR-3_4.so.33:_ZNK7Imf_3_415TiledOutputFile8fileNameEv
libOpenEXR-3_4.so.33:_ZNK7Imf_3_415TiledOutputFile9levelModeEv
libOpenEXR-3_4.so.33:_ZNK7Imf_3_415TiledOutputFile9numLevelsEv
libOpenEXR-3_4.so.33:_ZNK7Imf_3_415TiledOutputFile9numXTilesEi
libOpenEXR-3_4.so.33:_ZNK7Imf_3_415TiledOutputFile9numYTilesEi
libOpenEXR-3_4.so.33:_ZNK7Imf_3_415TiledOutputFile9tileXSizeEv
libOpenEXR-3_4.so.33:_ZNK7Imf_3_415TiledOutputFile9tileYSizeEv
libOpenEXR-3_4.so.33:_ZNK7Imf_3_415TiledOutputPart10levelWidthEi
libOpenEXR-3_4.so.33:_ZNK7Imf_3_415TiledOutputPart10numXLevelsEv
libOpenEXR-3_4.so.33:_ZNK7Imf_3_415TiledOutputPart10numYLevelsEv
libOpenEXR-3_4.so.33:_ZNK7Imf_3_415TiledOutputPart11frameBufferEv
libOpenEXR-3_4.so.33:_ZNK7Imf_3_415TiledOutputPart11levelHeightEi
libOpenEXR-3_4.so.33:_ZNK7Imf_3_415TiledOutputPart12isValidLevelEii
libOpenEXR-3_4.so.33:_ZNK7Imf_3_415TiledOutputPart17dataWindowForTileEiii
libOpenEXR-3_4.so.33:_ZNK7Imf_3_415TiledOutputPart17dataWindowForTileEiiii
libOpenEXR-3_4.so.33:_ZNK7Imf_3_415TiledOutputPart17levelRoundingModeEv
libOpenEXR-3_4.so.33:_ZNK7Imf_3_415TiledOutputPart18dataWindowForLevelEi
libOpenEXR-3_4.so.33:_ZNK7Imf_3_415TiledOutputPart18dataWindowForLevelEii
libOpenEXR-3_4.so.33:_ZNK7Imf_3_415TiledOutputPart6headerEv
libOpenEXR-3_4.so.33:_ZNK7Imf_3_415TiledOutputPart8fileNameEv
libOpenEXR-3_4.so.33:_ZNK7Imf_3_415TiledOutputPart9levelModeEv
libOpenEXR-3_4.so.33:_ZNK7Imf_3_415TiledOutputPart9numLevelsEv
libOpenEXR-3_4.so.33:_ZNK7Imf_3_415TiledOutputPart9numXTilesEi
libOpenEXR-3_4.so.33:_ZNK7Imf_3_415TiledOutputPart9numYTilesEi
libOpenEXR-3_4.so.33:_ZNK7Imf_3_415TiledOutputPart9tileXSizeEv
libOpenEXR-3_4.so.33:_ZNK7Imf_3_415TiledOutputPart9tileYSizeEv
libOpenEXR-3_4.so.33:_ZNK7Imf_3_417ScanLineInputFile10isCompleteEv
libOpenEXR-3_4.so.33:_ZNK7Imf_3_417ScanLineInputFile11frameBufferEv
libOpenEXR-3_4.so.33:_ZNK7Imf_3_417ScanLineInputFile20rawPixelDataToBufferEiPcRi
libOpenEXR-3_4.so.33:_ZNK7Imf_3_417ScanLineInputFile21isOptimizationEnabledEv
libOpenEXR-3_4.so.33:_ZNK7Imf_3_417ScanLineInputFile6headerEv
libOpenEXR-3_4.so.33:_ZNK7Imf_3_417ScanLineInputFile7versionEv
libOpenEXR-3_4.so.33:_ZNK7Imf_3_417ScanLineInputFile8fileNameEv
libOpenEXR-3_4.so.33:_ZNK7Imf_3_418DeepTiledInputFile10isCompleteEv
libOpenEXR-3_4.so.33:_ZNK7Imf_3_418DeepTiledInputFile10levelWidthEi
libOpenEXR-3_4.so.33:_ZNK7Imf_3_418DeepTiledInputFile10numXLevelsEv
libOpenEXR-3_4.so.33:_ZNK7Imf_3_418DeepTiledInputFile10numYLevelsEv
libOpenEXR-3_4.so.33:_ZNK7Imf_3_418DeepTiledInputFile10totalTilesEv
libOpenEXR-3_4.so.33:_ZNK7Imf_3_418DeepTiledInputFile11frameBufferEv
libOpenEXR-3_4.so.33:_ZNK7Imf_3_418DeepTiledInputFile11isValidTileEiiii
libOpenEXR-3_4.so.33:_ZNK7Imf_3_418DeepTiledInputFile11levelHeightEi
libOpenEXR-3_4.so.33:_ZNK7Imf_3_418DeepTiledInputFile11rawTileDataERiS1_S1_S1_PcRm
libOpenEXR-3_4.so.33:_ZNK7Imf_3_418DeepTiledInputFile12getTileOrderEPiS1_S1_S1_
libOpenEXR-3_4.so.33:_ZNK7Imf_3_418DeepTiledInputFile12isValidLevelEii
libOpenEXR-3_4.so.33:_ZNK7Imf_3_418DeepTiledInputFile17dataWindowForTileEiii
libOpenEXR-3_4.so.33:_ZNK7Imf_3_418DeepTiledInputFile17dataWindowForTileEiiii
libOpenEXR-3_4.so.33:_ZNK7Imf_3_418DeepTiledInputFile17levelRoundingModeEv
libOpenEXR-3_4.so.33:_ZNK7Imf_3_418DeepTiledInputFile18dataWindowForLevelEi
libOpenEXR-3_4.so.33:_ZNK7Imf_3_418DeepTiledInputFile18dataWindowForLevelEii
libOpenEXR-3_4.so.33:_ZNK7Imf_3_418DeepTiledInputFile6headerEv
libOpenEXR-3_4.so.33:_ZNK7Imf_3_418DeepTiledInputFile7versionEv
libOpenEXR-3_4.so.33:_ZNK7Imf_3_418DeepTiledInputFile8fileNameEv
libOpenEXR-3_4.so.33:_ZNK7Imf_3_418DeepTiledInputFile9levelModeEv
libOpenEXR-3_4.so.33:_ZNK7Imf_3_418DeepTiledInputFile9numLevelsEv
libOpenEXR-3_4.so.33:_ZNK7Imf_3_418DeepTiledInputFile9numXTilesEi
libOpenEXR-3_4.so.33:_ZNK7Imf_3_418DeepTiledInputFile9numYTilesEi
libOpenEXR-3_4.so.33:_ZNK7Imf_3_418DeepTiledInputFile9tileXSizeEv
libOpenEXR-3_4.so.33:_ZNK7Imf_3_418DeepTiledInputFile9tileYSizeEv
libOpenEXR-3_4.so.33:_ZNK7Imf_3_418DeepTiledInputPart10isCompleteEv
libOpenEXR-3_4.so.33:_ZNK7Imf_3_418DeepTiledInputPart10levelWidthEi
libOpenEXR-3_4.so.33:_ZNK7Imf_3_418DeepTiledInputPart10numXLevelsEv
libOpenEXR-3_4.so.33:_ZNK7Imf_3_418DeepTiledInputPart10numYLevelsEv
libOpenEXR-3_4.so.33:_ZNK7Imf_3_418DeepTiledInputPart11frameBufferEv
libOpenEXR-3_4.so.33:_ZNK7Imf_3_418DeepTiledInputPart11levelHeightEi
libOpenEXR-3_4.so.33:_ZNK7Imf_3_418DeepTiledInputPart11rawTileDataERiS1_S1_S1_PcRm
libOpenEXR-3_4.so.33:_ZNK7Imf_3_418DeepTiledInputPart12isValidLevelEii
libOpenEXR-3_4.so.33:_ZNK7Imf_3_418DeepTiledInputPart17dataWindowForTileEiii
libOpenEXR-3_4.so.33:_ZNK7Imf_3_418DeepTiledInputPart17dataWindowForTileEiiii
libOpenEXR-3_4.so.33:_ZNK7Imf_3_418DeepTiledInputPart17levelRoundingModeEv
libOpenEXR-3_4.so.33:_ZNK7Imf_3_418DeepTiledInputPart18dataWindowForLevelEi
libOpenEXR-3_4.so.33:_ZNK7Imf_3_418DeepTiledInputPart18dataWindowForLevelEii
libOpenEXR-3_4.so.33:_ZNK7Imf_3_418DeepTiledInputPart6headerEv
libOpenEXR-3_4.so.33:_ZNK7Imf_3_418DeepTiledInputPart7versionEv
libOpenEXR-3_4.so.33:_ZNK7Imf_3_418DeepTiledInputPart8fileNameEv
libOpenEXR-3_4.so.33:_ZNK7Imf_3_418DeepTiledInputPart9levelModeEv
libOpenEXR-3_4.so.33:_ZNK7Imf_3_418DeepTiledInputPart9numLevelsEv
libOpenEXR-3_4.so.33:_ZNK7Imf_3_418DeepTiledInputPart9numXTilesEi
libOpenEXR-3_4.so.33:_ZNK7Imf_3_418DeepTiledInputPart9numYTilesEi
libOpenEXR-3_4.so.33:_ZNK7Imf_3_418DeepTiledInputPart9tileXSizeEv
libOpenEXR-3_4.so.33:_ZNK7Imf_3_418DeepTiledInputPart9tileYSizeEv
libOpenEXR-3_4.so.33:_ZNK7Imf_3_418MultiPartInputFile12partCompleteEi
libOpenEXR-3_4.so.33:_ZNK7Imf_3_418MultiPartInputFile5partsEv
libOpenEXR-3_4.so.33:_ZNK7Imf_3_418MultiPartInputFile6headerEi
libOpenEXR-3_4.so.33:_ZNK7Imf_3_418MultiPartInputFile7versionEv
libOpenEXR-3_4.so.33:_ZNK7Imf_3_418MultiPartInputFile8fileNameEv
libOpenEXR-3_4.so.33:_ZNK7Imf_3_418TiledRgbaInputFile10dataWindowEv
libOpenEXR-3_4.so.33:_ZNK7Imf_3_418TiledRgbaInputFile10isCompleteEv
libOpenEXR-3_4.so.33:_ZNK7Imf_3_418TiledRgbaInputFile10levelWidthEi
libOpenEXR-3_4.so.33:_ZNK7Imf_3_418TiledRgbaInputFile10numXLevelsEv
libOpenEXR-3_4.so.33:_ZNK7Imf_3_418TiledRgbaInputFile10numYLevelsEv
libOpenEXR-3_4.so.33:_ZNK7Imf_3_418TiledRgbaInputFile11compressionEv
libOpenEXR-3_4.so.33:_ZNK7Imf_3_418TiledRgbaInputFile11frameBufferEv
libOpenEXR-3_4.so.33:_ZNK7Imf_3_418TiledRgbaInputFile11levelHeightEi
libOpenEXR-3_4.so.33:_ZNK7Imf_3_418TiledRgbaInputFile12isValidLevelEii
libOpenEXR-3_4.so.33:_ZNK7Imf_3_418TiledRgbaInputFile13displayWindowEv
libOpenEXR-3_4.so.33:_ZNK7Imf_3_418TiledRgbaInputFile16pixelAspectRatioEv
libOpenEXR-3_4.so.33:_ZNK7Imf_3_418TiledRgbaInputFile17dataWindowForTileEiii
libOpenEXR-3_4.so.33:_ZNK7Imf_3_418TiledRgbaInputFile17dataWindowForTileEiiii
libOpenEXR-3_4.so.33:_ZNK7Imf_3_418TiledRgbaInputFile17levelRoundingModeEv
libOpenEXR-3_4.so.33:_ZNK7Imf_3_418TiledRgbaInputFile17screenWindowWidthEv
libOpenEXR-3_4.so.33:_ZNK7Imf_3_418TiledRgbaInputFile18dataWindowForLevelEi
libOpenEXR-3_4.so.33:_ZNK7Imf_3_418TiledRgbaInputFile18dataWindowForLevelEii
libOpenEXR-3_4.so.33:_ZNK7Imf_3_418TiledRgbaInputFile18screenWindowCenterEv
libOpenEXR-3_4.so.33:_ZNK7Imf_3_418TiledRgbaInputFile6headerEv
libOpenEXR-3_4.so.33:_ZNK7Imf_3_418TiledRgbaInputFile7versionEv
libOpenEXR-3_4.so.33:_ZNK7Imf_3_418TiledRgbaInputFile8channelsEv
libOpenEXR-3_4.so.33:_ZNK7Imf_3_418TiledRgbaInputFile8fileNameEv
libOpenEXR-3_4.so.33:_ZNK7Imf_3_418TiledRgbaInputFile9levelModeEv
libOpenEXR-3_4.so.33:_ZNK7Imf_3_418TiledRgbaInputFile9lineOrderEv
libOpenEXR-3_4.so.33:_ZNK7Imf_3_418TiledRgbaInputFile9numLevelsEv
libOpenEXR-3_4.so.33:_ZNK7Imf_3_418TiledRgbaInputFile9numXTilesEi
libOpenEXR-3_4.so.33:_ZNK7Imf_3_418TiledRgbaInputFile9numYTilesEi
libOpenEXR-3_4.so.33:_ZNK7Imf_3_418TiledRgbaInputFile9tileXSizeEv
libOpenEXR-3_4.so.33:_ZNK7Imf_3_418TiledRgbaInputFile9tileYSizeEv
libOpenEXR-3_4.so.33:_ZNK7Imf_3_419DeepTiledOutputFile10levelWidthEi
libOpenEXR-3_4.so.33:_ZNK7Imf_3_419DeepTiledOutputFile10numXLevelsEv
libOpenEXR-3_4.so.33:_ZNK7Imf_3_419DeepTiledOutputFile10numYLevelsEv
libOpenEXR-3_4.so.33:_ZNK7Imf_3_419DeepTiledOutputFile11frameBufferEv
libOpenEXR-3_4.so.33:_ZNK7Imf_3_419DeepTiledOutputFile11isValidTileEiiii
libOpenEXR-3_4.so.33:_ZNK7Imf_3_419DeepTiledOutputFile11levelHeightEi
libOpenEXR-3_4.so.33:_ZNK7Imf_3_419DeepTiledOutputFile12isValidLevelEii
libOpenEXR-3_4.so.33:_ZNK7Imf_3_419DeepTiledOutputFile17dataWindowForTileEiii
libOpenEXR-3_4.so.33:_ZNK7Imf_3_419DeepTiledOutputFile17dataWindowForTileEiiii
libOpenEXR-3_4.so.33:_ZNK7Imf_3_419DeepTiledOutputFile17levelRoundingModeEv
libOpenEXR-3_4.so.33:_ZNK7Imf_3_419DeepTiledOutputFile18dataWindowForLevelEi
libOpenEXR-3_4.so.33:_ZNK7Imf_3_419DeepTiledOutputFile18dataWindowForLevelEii
libOpenEXR-3_4.so.33:_ZNK7Imf_3_419DeepTiledOutputFile6headerEv
libOpenEXR-3_4.so.33:_ZNK7Imf_3_419DeepTiledOutputFile8fileNameEv
libOpenEXR-3_4.so.33:_ZNK7Imf_3_419DeepTiledOutputFile9levelModeEv
libOpenEXR-3_4.so.33:_ZNK7Imf_3_419DeepTiledOutputFile9numLevelsEv
libOpenEXR-3_4.so.33:_ZNK7Imf_3_419DeepTiledOutputFile9numXTilesEi
libOpenEXR-3_4.so.33:_ZNK7Imf_3_419DeepTiledOutputFile9numYTilesEi
libOpenEXR-3_4.so.33:_ZNK7Imf_3_419DeepTiledOutputFile9tileXSizeEv
libOpenEXR-3_4.so.33:_ZNK7Imf_3_419DeepTiledOutputFile9tileYSizeEv
libOpenEXR-3_4.so.33:_ZNK7Imf_3_419DeepTiledOutputPart10levelWidthEi
libOpenEXR-3_4.so.33:_ZNK7Imf_3_419DeepTiledOutputPart10numXLevelsEv
libOpenEXR-3_4.so.33:_ZNK7Imf_3_419DeepTiledOutputPart10numYLevelsEv
libOpenEXR-3_4.so.33:_ZNK7Imf_3_419DeepTiledOutputPart11frameBufferEv
libOpenEXR-3_4.so.33:_ZNK7Imf_3_419DeepTiledOutputPart11levelHeightEi
libOpenEXR-3_4.so.33:_ZNK7Imf_3_419DeepTiledOutputPart12isValidLevelEii
libOpenEXR-3_4.so.33:_ZNK7Imf_3_419DeepTiledOutputPart17dataWindowForTileEiii
libOpenEXR-3_4.so.33:_ZNK7Imf_3_419DeepTiledOutputPart17dataWindowForTileEiiii
libOpenEXR-3_4.so.33:_ZNK7Imf_3_419DeepTiledOutputPart17levelRoundingModeEv
libOpenEXR-3_4.so.33:_ZNK7Imf_3_419DeepTiledOutputPart18dataWindowForLevelEi
libOpenEXR-3_4.so.33:_ZNK7Imf_3_419DeepTiledOutputPart18dataWindowForLevelEii
libOpenEXR-3_4.so.33:_ZNK7Imf_3_419DeepTiledOutputPart6headerEv
libOpenEXR-3_4.so.33:_ZNK7Imf_3_419DeepTiledOutputPart8fileNameEv
libOpenEXR-3_4.so.33:_ZNK7Imf_3_419DeepTiledOutputPart9levelModeEv
libOpenEXR-3_4.so.33:_ZNK7Imf_3_419DeepTiledOutputPart9numLevelsEv
libOpenEXR-3_4.so.33:_ZNK7Imf_3_419DeepTiledOutputPart9numXTilesEi
libOpenEXR-3_4.so.33:_ZNK7Imf_3_419DeepTiledOutputPart9numYTilesEi
libOpenEXR-3_4.so.33:_ZNK7Imf_3_419DeepTiledOutputPart9tileXSizeEv
libOpenEXR-3_4.so.33:_ZNK7Imf_3_419DeepTiledOutputPart9tileYSizeEv
libOpenEXR-3_4.so.33:_ZNK7Imf_3_419MultiPartOutputFile5partsEv
libOpenEXR-3_4.so.33:_ZNK7Imf_3_419MultiPartOutputFile6headerEi
libOpenEXR-3_4.so.33:_ZNK7Imf_3_419TiledRgbaOutputFile10dataWindowEv
libOpenEXR-3_4.so.33:_ZNK7Imf_3_419TiledRgbaOutputFile10levelWidthEi
libOpenEXR-3_4.so.33:_ZNK7Imf_3_419TiledRgbaOutputFile10numXLevelsEv
libOpenEXR-3_4.so.33:_ZNK7Imf_3_419TiledRgbaOutputFile10numYLevelsEv
libOpenEXR-3_4.so.33:_ZNK7Imf_3_419TiledRgbaOutputFile11compressionEv
libOpenEXR-3_4.so.33:_ZNK7Imf_3_419TiledRgbaOutputFile11frameBufferEv
libOpenEXR-3_4.so.33:_ZNK7Imf_3_419TiledRgbaOutputFile11levelHeightEi
libOpenEXR-3_4.so.33:_ZNK7Imf_3_419TiledRgbaOutputFile12isValidLevelEii
libOpenEXR-3_4.so.33:_ZNK7Imf_3_419TiledRgbaOutputFile13displayWindowEv
libOpenEXR-3_4.so.33:_ZNK7Imf_3_419TiledRgbaOutputFile16pixelAspectRatioEv
libOpenEXR-3_4.so.33:_ZNK7Imf_3_419TiledRgbaOutputFile17dataWindowForTileEiii
libOpenEXR-3_4.so.33:_ZNK7Imf_3_419TiledRgbaOutputFile17dataWindowForTileEiiii
libOpenEXR-3_4.so.33:_ZNK7Imf_3_419TiledRgbaOutputFile17levelRoundingModeEv
libOpenEXR-3_4.so.33:_ZNK7Imf_3_419TiledRgbaOutputFile17screenWindowWidthEv
libOpenEXR-3_4.so.33:_ZNK7Imf_3_419TiledRgbaOutputFile18dataWindowForLevelEi
libOpenEXR-3_4.so.33:_ZNK7Imf_3_419TiledRgbaOutputFile18dataWindowForLevelEii
libOpenEXR-3_4.so.33:_ZNK7Imf_3_419TiledRgbaOutputFile18screenWindowCenterEv
libOpenEXR-3_4.so.33:_ZNK7Imf_3_419TiledRgbaOutputFile6headerEv
libOpenEXR-3_4.so.33:_ZNK7Imf_3_419TiledRgbaOutputFile8channelsEv
libOpenEXR-3_4.so.33:_ZNK7Imf_3_419TiledRgbaOutputFile9levelModeEv
libOpenEXR-3_4.so.33:_ZNK7Imf_3_419TiledRgbaOutputFile9lineOrderEv
libOpenEXR-3_4.so.33:_ZNK7Imf_3_419TiledRgbaOutputFile9numLevelsEv
libOpenEXR-3_4.so.33:_ZNK7Imf_3_419TiledRgbaOutputFile9numXTilesEi
libOpenEXR-3_4.so.33:_ZNK7Imf_3_419TiledRgbaOutputFile9numYTilesEi
libOpenEXR-3_4.so.33:_ZNK7Imf_3_419TiledRgbaOutputFile9tileXSizeEv
libOpenEXR-3_4.so.33:_ZNK7Imf_3_419TiledRgbaOutputFile9tileYSizeEv
libOpenEXR-3_4.so.33:_ZNK7Imf_3_421CompositeDeepScanLine10dataWindowEv
libOpenEXR-3_4.so.33:_ZNK7Imf_3_421CompositeDeepScanLine11frameBufferEv
libOpenEXR-3_4.so.33:_ZNK7Imf_3_421CompositeDeepScanLine7sourcesEv
libOpenEXR-3_4.so.33:_ZNK7Imf_3_421DeepScanLineInputFile10isCompleteEv
libOpenEXR-3_4.so.33:_ZNK7Imf_3_421DeepScanLineInputFile10readPixelsEPKcRKNS_15DeepFrameBufferEii
libOpenEXR-3_4.so.33:_ZNK7Imf_3_421DeepScanLineInputFile11frameBufferEv
libOpenEXR-3_4.so.33:_ZNK7Imf_3_421DeepScanLineInputFile19lastScanLineInChunkEi
libOpenEXR-3_4.so.33:_ZNK7Imf_3_421DeepScanLineInputFile20firstScanLineInChunkEi
libOpenEXR-3_4.so.33:_ZNK7Imf_3_421DeepScanLineInputFile21readPixelSampleCountsEPKcRKNS_15DeepFrameBufferEii
libOpenEXR-3_4.so.33:_ZNK7Imf_3_421DeepScanLineInputFile6headerEv
libOpenEXR-3_4.so.33:_ZNK7Imf_3_421DeepScanLineInputFile7versionEv
libOpenEXR-3_4.so.33:_ZNK7Imf_3_421DeepScanLineInputFile8fileNameEv
libOpenEXR-3_4.so.33:_ZNK7Imf_3_421DeepScanLineInputPart10isCompleteEv
libOpenEXR-3_4.so.33:_ZNK7Imf_3_421DeepScanLineInputPart10readPixelsEPKcRKNS_15DeepFrameBufferEii
libOpenEXR-3_4.so.33:_ZNK7Imf_3_421DeepScanLineInputPart11frameBufferEv
libOpenEXR-3_4.so.33:_ZNK7Imf_3_421DeepScanLineInputPart19lastScanLineInChunkEi
libOpenEXR-3_4.so.33:_ZNK7Imf_3_421DeepScanLineInputPart20firstScanLineInChunkEi
libOpenEXR-3_4.so.33:_ZNK7Imf_3_421DeepScanLineInputPart21readPixelSampleCountsEPKcRKNS_15DeepFrameBufferEii
libOpenEXR-3_4.so.33:_ZNK7Imf_3_421DeepScanLineInputPart6headerEv
libOpenEXR-3_4.so.33:_ZNK7Imf_3_421DeepScanLineInputPart7versionEv
libOpenEXR-3_4.so.33:_ZNK7Imf_3_421DeepScanLineInputPart8fileNameEv
libOpenEXR-3_4.so.33:_ZNK7Imf_3_422DeepScanLineOutputFile11frameBufferEv
libOpenEXR-3_4.so.33:_ZNK7Imf_3_422DeepScanLineOutputFile15currentScanLineEv
libOpenEXR-3_4.so.33:_ZNK7Imf_3_422DeepScanLineOutputFile6headerEv
libOpenEXR-3_4.so.33:_ZNK7Imf_3_422DeepScanLineOutputFile8fileNameEv
libOpenEXR-3_4.so.33:_ZNK7Imf_3_422DeepScanLineOutputPart11frameBufferEv
libOpenEXR-3_4.so.33:_ZNK7Imf_3_422DeepScanLineOutputPart15currentScanLineEv
libOpenEXR-3_4.so.33:_ZNK7Imf_3_422DeepScanLineOutputPart6headerEv
libOpenEXR-3_4.so.33:_ZNK7Imf_3_422DeepScanLineOutputPart8fileNameEv
libOpenEXR-3_4.so.33:_ZNK7Imf_3_46Header10chunkCountEv
libOpenEXR-3_4.so.33:_ZNK7Imf_3_46Header10dataWindowEv
libOpenEXR-3_4.so.33:_ZNK7Imf_3_46Header10hasVersionEv
libOpenEXR-3_4.so.33:_ZNK7Imf_3_46Header11compressionEv
libOpenEXR-3_4.so.33:_ZNK7Imf_3_46Header11sanityCheckEbb
libOpenEXR-3_4.so.33:_ZNK7Imf_3_46Header12previewImageEv
libOpenEXR-3_4.so.33:_ZNK7Imf_3_46Header13displayWindowEv
libOpenEXR-3_4.so.33:_ZNK7Imf_3_46Header13hasChunkCountEv
libOpenEXR-3_4.so.33:_ZNK7Imf_3_46Header15hasPreviewImageEv
libOpenEXR-3_4.so.33:_ZNK7Imf_3_46Header15tileDescriptionEv
libOpenEXR-3_4.so.33:_ZNK7Imf_3_46Header16pixelAspectRatioEv
libOpenEXR-3_4.so.33:_ZNK7Imf_3_46Header17screenWindowWidthEv
libOpenEXR-3_4.so.33:_ZNK7Imf_3_46Header18hasTileDescriptionEv
libOpenEXR-3_4.so.33:_ZNK7Imf_3_46Header18screenWindowCenterEv
libOpenEXR-3_4.so.33:_ZNK7Imf_3_46Header19dwaCompressionLevelEv
libOpenEXR-3_4.so.33:_ZNK7Imf_3_46Header19zipCompressionLevelEv
libOpenEXR-3_4.so.33:_ZNK7Imf_3_46Header3endEv
libOpenEXR-3_4.so.33:_ZNK7Imf_3_46Header4findEPKc
libOpenEXR-3_4.so.33:_ZNK7Imf_3_46Header4findERKNSt7__cxx1112basic_stringIcSt11char_traitsIcESaIcEEE
libOpenEXR-3_4.so.33:_ZNK7Imf_3_46Header4nameB5cxx11Ev
libOpenEXR-3_4.so.33:_ZNK7Imf_3_46Header4typeB5cxx11Ev
libOpenEXR-3_4.so.33:_ZNK7Imf_3_46Header4viewB5cxx11Ev
libOpenEXR-3_4.so.33:_ZNK7Imf_3_46Header5beginEv
libOpenEXR-3_4.so.33:_ZNK7Imf_3_46Header7hasNameEv
libOpenEXR-3_4.so.33:_ZNK7Imf_3_46Header7hasTypeEv
libOpenEXR-3_4.so.33:_ZNK7Imf_3_46Header7hasViewEv
libOpenEXR-3_4.so.33:_ZNK7Imf_3_46Header7versionEv
libOpenEXR-3_4.so.33:_ZNK7Imf_3_46Header7writeToERNS_7OStreamEb
libOpenEXR-3_4.so.33:_ZNK7Imf_3_46Header8channelsEv
libOpenEXR-3_4.so.33:_ZNK7Imf_3_46Header9lineOrderEv
libOpenEXR-3_4.so.33:_ZNK7Imf_3_46HeaderixEPKc
libOpenEXR-3_4.so.33:_ZNK7Imf_3_46HeaderixERKNSt7__cxx1112basic_stringIcSt11char_traitsIcESaIcEEE
libOpenEXR-3_4.so.33:_ZNK7Imf_3_47ChanneleqERKS0_
libOpenEXR-3_4.so.33:_ZNK7Imf_3_47Context10dataWindowEi
libOpenEXR-3_4.so.33:_ZNK7Imf_3_47Context10hasChannelEiPKc
libOpenEXR-3_4.so.33:_ZNK7Imf_3_47Context11findChannelEiPKc
libOpenEXR-3_4.so.33:_ZNK7Imf_3_47Context15chunkTableValidEi
libOpenEXR-3_4.so.33:_ZNK7Imf_3_47Context6headerEi
libOpenEXR-3_4.so.33:_ZNK7Imf_3_47Context7getAttrEiPKc
libOpenEXR-3_4.so.33:_ZNK7Imf_3_47Context7getAttrEii
libOpenEXR-3_4.so.33:_ZNK7Imf_3_47Context7storageEi
libOpenEXR-3_4.so.33:_ZNK7Imf_3_47Context7versionEv
libOpenEXR-3_4.so.33:_ZNK7Imf_3_47Context8channelsEi
libOpenEXR-3_4.so.33:_ZNK7Imf_3_47Context8fileNameEv
libOpenEXR-3_4.so.33:_ZNK7Imf_3_47Context9attrCountEi
libOpenEXR-3_4.so.33:_ZNK7Imf_3_47Context9lineOrderEi
libOpenEXR-3_4.so.33:_ZNK7Imf_3_47Context9partCountEv
libOpenEXR-3_4.so.33:_ZNK7Imf_3_47HalfLut5applyEPN9Imath_3_14halfEii
libOpenEXR-3_4.so.33:_ZNK7Imf_3_47HalfLut5applyERKNS_5SliceERKN9Imath_3_13BoxINS4_4Vec2IiEEEE
libOpenEXR-3_4.so.33:_ZNK7Imf_3_47IStream14isMemoryMappedEv
libOpenEXR-3_4.so.33:_ZNK7Imf_3_47IStream15isStatelessReadEv
libOpenEXR-3_4.so.33:_ZNK7Imf_3_47IStream8fileNameEv
libOpenEXR-3_4.so.33:_ZNK7Imf_3_47KeyCode10perfOffsetEv
libOpenEXR-3_4.so.33:_ZNK7Imf_3_47KeyCode11filmMfcCodeEv
libOpenEXR-3_4.so.33:_ZNK7Imf_3_47KeyCode13perfsPerCountEv
libOpenEXR-3_4.so.33:_ZNK7Imf_3_47KeyCode13perfsPerFrameEv
libOpenEXR-3_4.so.33:_ZNK7Imf_3_47KeyCode5countEv
libOpenEXR-3_4.so.33:_ZNK7Imf_3_47KeyCode6prefixEv
libOpenEXR-3_4.so.33:_ZNK7Imf_3_47KeyCode8filmTypeEv
libOpenEXR-3_4.so.33:_ZNK7Imf_3_47KeyCodeeqERKS0_
libOpenEXR-3_4.so.33:_ZNK7Imf_3_47OStream8fileNameEv
libOpenEXR-3_4.so.33:_ZNK7Imf_3_47RgbaLut5applyEPNS_4RgbaEii
libOpenEXR-3_4.so.33:_ZNK7Imf_3_47RgbaLut5applyEPNS_4RgbaEiiRKN9Imath_3_13BoxINS3_4Vec2IiEEEE
libOpenEXR-3_4.so.33:_ZNK7Imf_3_48TimeCode10colorFrameEv
libOpenEXR-3_4.so.33:_ZNK7Imf_3_48TimeCode10fieldPhaseEv
libOpenEXR-3_4.so.33:_ZNK7Imf_3_48TimeCode11binaryGroupEi
libOpenEXR-3_4.so.33:_ZNK7Imf_3_48TimeCode12timeAndFlagsENS0_7PackingE
libOpenEXR-3_4.so.33:_ZNK7Imf_3_48TimeCode4bgf0Ev
libOpenEXR-3_4.so.33:_ZNK7Imf_3_48TimeCode4bgf1Ev
libOpenEXR-3_4.so.33:_ZNK7Imf_3_48TimeCode4bgf2Ev
libOpenEXR-3_4.so.33:_ZNK7Imf_3_48TimeCode5frameEv
libOpenEXR-3_4.so.33:_ZNK7Imf_3_48TimeCode5hoursEv
libOpenEXR-3_4.so.33:_ZNK7Imf_3_48TimeCode7minutesEv
libOpenEXR-3_4.so.33:_ZNK7Imf_3_48TimeCode7secondsEv
libOpenEXR-3_4.so.33:_ZNK7Imf_3_48TimeCode8userDataEv
libOpenEXR-3_4.so.33:_ZNK7Imf_3_48TimeCode9dropFrameEv
libOpenEXR-3_4.so.33:_ZNK7Imf_3_48TimeCodeeqERKS0_
libOpenEXR-3_4.so.33:_ZNK7Imf_3_48TimeCodeneERKS0_
libOpenEXR-3_4.so.33:_ZNK7Imf_3_49InputFile10isCompleteEv
libOpenEXR-3_4.so.33:_ZNK7Imf_3_49InputFile11frameBufferEv
libOpenEXR-3_4.so.33:_ZNK7Imf_3_49InputFile20rawPixelDataToBufferEiPcRi
libOpenEXR-3_4.so.33:_ZNK7Imf_3_49InputFile21isOptimizationEnabledEv
libOpenEXR-3_4.so.33:_ZNK7Imf_3_49InputFile6headerEv
libOpenEXR-3_4.so.33:_ZNK7Imf_3_49InputFile7versionEv
libOpenEXR-3_4.so.33:_ZNK7Imf_3_49InputFile8fileNameEv
libOpenEXR-3_4.so.33:_ZNK7Imf_3_49InputPart10isCompleteEv
libOpenEXR-3_4.so.33:_ZNK7Imf_3_49InputPart11frameBufferEv
libOpenEXR-3_4.so.33:_ZNK7Imf_3_49InputPart20rawPixelDataToBufferEiPcRi
libOpenEXR-3_4.so.33:_ZNK7Imf_3_49InputPart21isOptimizationEnabledEv
libOpenEXR-3_4.so.33:_ZNK7Imf_3_49InputPart6headerEv
libOpenEXR-3_4.so.33:_ZNK7Imf_3_49InputPart7versionEv
libOpenEXR-3_4.so.33:_ZNK7Imf_3_49InputPart8fileNameEv
libOpenEXRCore-3_4.so.33:exr_add_channel
libOpenEXRCore-3_4.so.33:exr_add_part
libOpenEXRCore-3_4.so.33:exr_attr_declare
libOpenEXRCore-3_4.so.33:exr_attr_declare_by_type
libOpenEXRCore-3_4.so.33:exr_attr_get_box2f
libOpenEXRCore-3_4.so.33:exr_attr_get_box2i
libOpenEXRCore-3_4.so.33:exr_attr_get_bytes
libOpenEXRCore-3_4.so.33:exr_attr_get_channels
libOpenEXRCore-3_4.so.33:exr_attr_get_chromaticities
libOpenEXRCore-3_4.so.33:exr_attr_get_compression
libOpenEXRCore-3_4.so.33:exr_attr_get_double
libOpenEXRCore-3_4.so.33:exr_attr_get_envmap
libOpenEXRCore-3_4.so.33:exr_attr_get_float
libOpenEXRCore-3_4.so.33:exr_attr_get_float_vector
libOpenEXRCore-3_4.so.33:exr_attr_get_int
libOpenEXRCore-3_4.so.33:exr_attr_get_keycode
libOpenEXRCore-3_4.so.33:exr_attr_get_lineorder
libOpenEXRCore-3_4.so.33:exr_attr_get_m33d
libOpenEXRCore-3_4.so.33:exr_attr_get_m33f
libOpenEXRCore-3_4.so.33:exr_attr_get_m44d
libOpenEXRCore-3_4.so.33:exr_attr_get_m44f
libOpenEXRCore-3_4.so.33:exr_attr_get_preview
libOpenEXRCore-3_4.so.33:exr_attr_get_rational
libOpenEXRCore-3_4.so.33:exr_attr_get_string
libOpenEXRCore-3_4.so.33:exr_attr_get_string_vector
libOpenEXRCore-3_4.so.33:exr_attr_get_tiledesc
libOpenEXRCore-3_4.so.33:exr_attr_get_timecode
libOpenEXRCore-3_4.so.33:exr_attr_get_user
libOpenEXRCore-3_4.so.33:exr_attr_get_v2d
libOpenEXRCore-3_4.so.33:exr_attr_get_v2f
libOpenEXRCore-3_4.so.33:exr_attr_get_v2i
libOpenEXRCore-3_4.so.33:exr_attr_get_v3d
libOpenEXRCore-3_4.so.33:exr_attr_get_v3f
libOpenEXRCore-3_4.so.33:exr_attr_get_v3i
libOpenEXRCore-3_4.so.33:exr_attr_set_box2f
libOpenEXRCore-3_4.so.33:exr_attr_set_box2i
libOpenEXRCore-3_4.so.33:exr_attr_set_bytes
libOpenEXRCore-3_4.so.33:exr_attr_set_channels
libOpenEXRCore-3_4.so.33:exr_attr_set_chromaticities
libOpenEXRCore-3_4.so.33:exr_attr_set_compression
libOpenEXRCore-3_4.so.33:exr_attr_set_double
libOpenEXRCore-3_4.so.33:exr_attr_set_envmap
libOpenEXRCore-3_4.so.33:exr_attr_set_float
libOpenEXRCore-3_4.so.33:exr_attr_set_float_vector
libOpenEXRCore-3_4.so.33:exr_attr_set_int
libOpenEXRCore-3_4.so.33:exr_attr_set_keycode
libOpenEXRCore-3_4.so.33:exr_attr_set_lineorder
libOpenEXRCore-3_4.so.33:exr_attr_set_m33d
libOpenEXRCore-3_4.so.33:exr_attr_set_m33f
libOpenEXRCore-3_4.so.33:exr_attr_set_m44d
libOpenEXRCore-3_4.so.33:exr_attr_set_m44f
libOpenEXRCore-3_4.so.33:exr_attr_set_preview
libOpenEXRCore-3_4.so.33:exr_attr_set_rational
libOpenEXRCore-3_4.so.33:exr_attr_set_string
libOpenEXRCore-3_4.so.33:exr_attr_set_string_vector
libOpenEXRCore-3_4.so.33:exr_attr_set_tiledesc
libOpenEXRCore-3_4.so.33:exr_attr_set_timecode
libOpenEXRCore-3_4.so.33:exr_attr_set_user
libOpenEXRCore-3_4.so.33:exr_attr_set_v2d
libOpenEXRCore-3_4.so.33:exr_attr_set_v2f
libOpenEXRCore-3_4.so.33:exr_attr_set_v2i
libOpenEXRCore-3_4.so.33:exr_attr_set_v3d
libOpenEXRCore-3_4.so.33:exr_attr_set_v3f
libOpenEXRCore-3_4.so.33:exr_attr_set_v3i
libOpenEXRCore-3_4.so.33:exr_chunk_default_initialize
libOpenEXRCore-3_4.so.33:exr_compress_buffer
libOpenEXRCore-3_4.so.33:exr_compress_chunk
libOpenEXRCore-3_4.so.33:exr_compress_max_buffer_size
libOpenEXRCore-3_4.so.33:exr_compression_lines_per_chunk
libOpenEXRCore-3_4.so.33:exr_copy_unset_attributes
libOpenEXRCore-3_4.so.33:exr_decoding_choose_default_routines
libOpenEXRCore-3_4.so.33:exr_decoding_destroy
libOpenEXRCore-3_4.so.33:exr_decoding_initialize
libOpenEXRCore-3_4.so.33:exr_decoding_run
libOpenEXRCore-3_4.so.33:exr_decoding_update
libOpenEXRCore-3_4.so.33:exr_encoding_choose_default_routines
libOpenEXRCore-3_4.so.33:exr_encoding_destroy
libOpenEXRCore-3_4.so.33:exr_encoding_initialize
libOpenEXRCore-3_4.so.33:exr_encoding_run
libOpenEXRCore-3_4.so.33:exr_encoding_update
libOpenEXRCore-3_4.so.33:exr_finish
libOpenEXRCore-3_4.so.33:exr_get_attribute_by_index
libOpenEXRCore-3_4.so.33:exr_get_attribute_by_name
libOpenEXRCore-3_4.so.33:exr_get_attribute_count
libOpenEXRCore-3_4.so.33:exr_get_attribute_list
libOpenEXRCore-3_4.so.33:exr_get_channels
libOpenEXRCore-3_4.so.33:exr_get_chunk_count
libOpenEXRCore-3_4.so.33:exr_get_chunk_table
libOpenEXRCore-3_4.so.33:exr_get_chunk_table_offset
libOpenEXRCore-3_4.so.33:exr_get_chunk_unpacked_size
libOpenEXRCore-3_4.so.33:exr_get_compression
libOpenEXRCore-3_4.so.33:exr_get_count
libOpenEXRCore-3_4.so.33:exr_get_data_window
libOpenEXRCore-3_4.so.33:exr_get_default_dwa_compression_quality
libOpenEXRCore-3_4.so.33:exr_get_default_error_message
libOpenEXRCore-3_4.so.33:exr_get_default_maximum_image_size
libOpenEXRCore-3_4.so.33:exr_get_default_maximum_tile_size
libOpenEXRCore-3_4.so.33:exr_get_default_zip_compression_level
libOpenEXRCore-3_4.so.33:exr_get_display_window
libOpenEXRCore-3_4.so.33:exr_get_dwa_compression_level
libOpenEXRCore-3_4.so.33:exr_get_error_code_as_string
libOpenEXRCore-3_4.so.33:exr_get_file_name
libOpenEXRCore-3_4.so.33:exr_get_file_version_and_flags
libOpenEXRCore-3_4.so.33:exr_get_level_sizes
libOpenEXRCore-3_4.so.33:exr_get_library_version
libOpenEXRCore-3_4.so.33:exr_get_lineorder
libOpenEXRCore-3_4.so.33:exr_get_name
libOpenEXRCore-3_4.so.33:exr_get_pixel_aspect_ratio
libOpenEXRCore-3_4.so.33:exr_get_scanlines_per_chunk
libOpenEXRCore-3_4.so.33:exr_get_screen_window_center
libOpenEXRCore-3_4.so.33:exr_get_screen_window_width
libOpenEXRCore-3_4.so.33:exr_get_storage
libOpenEXRCore-3_4.so.33:exr_get_tile_counts
libOpenEXRCore-3_4.so.33:exr_get_tile_descriptor
libOpenEXRCore-3_4.so.33:exr_get_tile_levels
libOpenEXRCore-3_4.so.33:exr_get_tile_sizes
libOpenEXRCore-3_4.so.33:exr_get_user_data
libOpenEXRCore-3_4.so.33:exr_get_version
libOpenEXRCore-3_4.so.33:exr_get_zip_compression_level
libOpenEXRCore-3_4.so.33:exr_initialize_required_attr
libOpenEXRCore-3_4.so.33:exr_initialize_required_attr_simple
libOpenEXRCore-3_4.so.33:exr_print_context_info
libOpenEXRCore-3_4.so.33:exr_read_chunk
libOpenEXRCore-3_4.so.33:exr_read_deep_chunk
libOpenEXRCore-3_4.so.33:exr_read_scanline_chunk_info
libOpenEXRCore-3_4.so.33:exr_read_tile_chunk_info
libOpenEXRCore-3_4.so.33:exr_register_attr_type_handler
libOpenEXRCore-3_4.so.33:exr_rle_compress_buffer
libOpenEXRCore-3_4.so.33:exr_rle_uncompress_buffer
libOpenEXRCore-3_4.so.33:exr_set_channels
libOpenEXRCore-3_4.so.33:exr_set_chunk_count
libOpenEXRCore-3_4.so.33:exr_set_compression
libOpenEXRCore-3_4.so.33:exr_set_data_window
libOpenEXRCore-3_4.so.33:exr_set_default_dwa_compression_quality
libOpenEXRCore-3_4.so.33:exr_set_default_maximum_image_size
libOpenEXRCore-3_4.so.33:exr_set_default_maximum_tile_size
libOpenEXRCore-3_4.so.33:exr_set_default_memory_routines
libOpenEXRCore-3_4.so.33:exr_set_default_zip_compression_level
libOpenEXRCore-3_4.so.33:exr_set_display_window
libOpenEXRCore-3_4.so.33:exr_set_dwa_compression_level
libOpenEXRCore-3_4.so.33:exr_set_lineorder
libOpenEXRCore-3_4.so.33:exr_set_longname_support
libOpenEXRCore-3_4.so.33:exr_set_name
libOpenEXRCore-3_4.so.33:exr_set_pixel_aspect_ratio
libOpenEXRCore-3_4.so.33:exr_set_screen_window_center
libOpenEXRCore-3_4.so.33:exr_set_screen_window_width
libOpenEXRCore-3_4.so.33:exr_set_tile_descriptor
libOpenEXRCore-3_4.so.33:exr_set_version
libOpenEXRCore-3_4.so.33:exr_set_zip_compression_level
libOpenEXRCore-3_4.so.33:exr_start_inplace_header_update
libOpenEXRCore-3_4.so.33:exr_start_read
libOpenEXRCore-3_4.so.33:exr_start_temporary_context
libOpenEXRCore-3_4.so.33:exr_start_write
libOpenEXRCore-3_4.so.33:exr_test_file_header
libOpenEXRCore-3_4.so.33:exr_uncompress_buffer
libOpenEXRCore-3_4.so.33:exr_uncompress_chunk
libOpenEXRCore-3_4.so.33:exr_validate_chunk_table
libOpenEXRCore-3_4.so.33:exr_write_deep_scanline_chunk
libOpenEXRCore-3_4.so.33:exr_write_deep_tile_chunk
libOpenEXRCore-3_4.so.33:exr_write_header
libOpenEXRCore-3_4.so.33:exr_write_scanline_chunk
libOpenEXRCore-3_4.so.33:exr_write_scanline_chunk_info
libOpenEXRCore-3_4.so.33:exr_write_tile_chunk
libOpenEXRCore-3_4.so.33:exr_write_tile_chunk_info
libOpenEXRUtil-3_4.so.33:_ZN7Imf_3_410ImageLevel11shiftPixelsEii
libOpenEXRUtil-3_4.so.33:_ZN7Imf_3_410ImageLevel6resizeERKN9Imath_3_13BoxINS1_4Vec2IiEEEE
libOpenEXRUtil-3_4.so.33:_ZN7Imf_3_410ImageLevelC1ERNS_5ImageEii
libOpenEXRUtil-3_4.so.33:_ZN7Imf_3_410ImageLevelC2ERNS_5ImageEii
libOpenEXRUtil-3_4.so.33:_ZN7Imf_3_410ImageLevelD0Ev
libOpenEXRUtil-3_4.so.33:_ZN7Imf_3_410ImageLevelD1Ev
libOpenEXRUtil-3_4.so.33:_ZN7Imf_3_410ImageLevelD2Ev
libOpenEXRUtil-3_4.so.33:_ZN7Imf_3_412ImageChannel6resizeEv
libOpenEXRUtil-3_4.so.33:_ZN7Imf_3_412ImageChannelC1ERNS_10ImageLevelEiib
libOpenEXRUtil-3_4.so.33:_ZN7Imf_3_412ImageChannelC2ERNS_10ImageLevelEiib
libOpenEXRUtil-3_4.so.33:_ZN7Imf_3_412ImageChannelD0Ev
libOpenEXRUtil-3_4.so.33:_ZN7Imf_3_412ImageChannelD1Ev
libOpenEXRUtil-3_4.so.33:_ZN7Imf_3_412ImageChannelD2Ev
libOpenEXRUtil-3_4.so.33:_ZN7Imf_3_413loadDeepImageERKNSt7__cxx1112basic_stringIcSt11char_traitsIcESaIcEEERNS_6HeaderERNS_9DeepImageE
libOpenEXRUtil-3_4.so.33:_ZN7Imf_3_413loadDeepImageERKNSt7__cxx1112basic_stringIcSt11char_traitsIcESaIcEEERNS_9DeepImageE
libOpenEXRUtil-3_4.so.33:_ZN7Imf_3_413loadFlatImageERKNSt7__cxx1112basic_stringIcSt11char_traitsIcESaIcEEERNS_6HeaderERNS_9FlatImageE
libOpenEXRUtil-3_4.so.33:_ZN7Imf_3_413loadFlatImageERKNSt7__cxx1112basic_stringIcSt11char_traitsIcESaIcEEERNS_9FlatImageE
libOpenEXRUtil-3_4.so.33:_ZN7Imf_3_413saveDeepImageERKNSt7__cxx1112basic_stringIcSt11char_traitsIcESaIcEEERKNS_6HeaderERKNS_9DeepImageENS_16DataWindowSourceE
libOpenEXRUtil-3_4.so.33:_ZN7Imf_3_413saveDeepImageERKNSt7__cxx1112basic_stringIcSt11char_traitsIcESaIcEEERKNS_9DeepImageE
libOpenEXRUtil-3_4.so.33:_ZN7Imf_3_413saveFlatImageERKNSt7__cxx1112basic_stringIcSt11char_traitsIcESaIcEEERKNS_6HeaderERKNS_9FlatImageENS_16DataWindowSourceE
libOpenEXRUtil-3_4.so.33:_ZN7Imf_3_413saveFlatImageERKNSt7__cxx1112basic_stringIcSt11char_traitsIcESaIcEEERKNS_9FlatImageE
libOpenEXRUtil-3_4.so.33:_ZN7Imf_3_414DeepImageLevel11findChannelERKNSt7__cxx1112basic_stringIcSt11char_traitsIcESaIcEEE
libOpenEXRUtil-3_4.so.33:_ZN7Imf_3_414DeepImageLevel3endEv
libOpenEXRUtil-3_4.so.33:_ZN7Imf_3_414DeepImageLevel5beginEv
libOpenEXRUtil-3_4.so.33:_ZN7Imf_3_414DeepImageLevel7channelERKNSt7__cxx1112basic_stringIcSt11char_traitsIcESaIcEEE
libOpenEXRUtil-3_4.so.33:_ZN7Imf_3_414DeepImageLevel9deepImageEv
libOpenEXRUtil-3_4.so.33:_ZN7Imf_3_414FlatImageLevel11findChannelERKNSt7__cxx1112basic_stringIcSt11char_traitsIcESaIcEEE
libOpenEXRUtil-3_4.so.33:_ZN7Imf_3_414FlatImageLevel3endEv
libOpenEXRUtil-3_4.so.33:_ZN7Imf_3_414FlatImageLevel5beginEv
libOpenEXRUtil-3_4.so.33:_ZN7Imf_3_414FlatImageLevel7channelERKNSt7__cxx1112basic_stringIcSt11char_traitsIcESaIcEEE
libOpenEXRUtil-3_4.so.33:_ZN7Imf_3_414FlatImageLevel9flatImageEv
libOpenEXRUtil-3_4.so.33:_ZN7Imf_3_416DeepImageChannel12sampleCountsEv
libOpenEXRUtil-3_4.so.33:_ZN7Imf_3_416DeepImageChannel6resizeEv
libOpenEXRUtil-3_4.so.33:_ZN7Imf_3_416DeepImageChannel9deepLevelEv
libOpenEXRUtil-3_4.so.33:_ZN7Imf_3_416DeepImageChannelC1ERNS_14DeepImageLevelEb
libOpenEXRUtil-3_4.so.33:_ZN7Imf_3_416DeepImageChannelC2ERNS_14DeepImageLevelEb
libOpenEXRUtil-3_4.so.33:_ZN7Imf_3_416DeepImageChannelD0Ev
libOpenEXRUtil-3_4.so.33:_ZN7Imf_3_416DeepImageChannelD1Ev
libOpenEXRUtil-3_4.so.33:_ZN7Imf_3_416DeepImageChannelD2Ev
libOpenEXRUtil-3_4.so.33:_ZN7Imf_3_416FlatImageChannel6resizeEv
libOpenEXRUtil-3_4.so.33:_ZN7Imf_3_416FlatImageChannel9flatLevelEv
libOpenEXRUtil-3_4.so.33:_ZN7Imf_3_416FlatImageChannelC1ERNS_14FlatImageLevelEiib
libOpenEXRUtil-3_4.so.33:_ZN7Imf_3_416FlatImageChannelC2ERNS_14FlatImageLevelEiib
libOpenEXRUtil-3_4.so.33:_ZN7Imf_3_416FlatImageChannelD0Ev
libOpenEXRUtil-3_4.so.33:_ZN7Imf_3_416FlatImageChannelD1Ev
libOpenEXRUtil-3_4.so.33:_ZN7Imf_3_416FlatImageChannelD2Ev
libOpenEXRUtil-3_4.so.33:_ZN7Imf_3_416checkOpenEXRFileEPKcbbb
libOpenEXRUtil-3_4.so.33:_ZN7Imf_3_416checkOpenEXRFileEPKcmbbb
libOpenEXRUtil-3_4.so.33:_ZN7Imf_3_417dataWindowForFileERKNS_6HeaderERKNS_5ImageENS_16DataWindowSourceE
libOpenEXRUtil-3_4.so.33:_ZN7Imf_3_418SampleCountChannel16resetBasePointerEv
libOpenEXRUtil-3_4.so.33:_ZN7Imf_3_418SampleCountChannel3setEiPj
libOpenEXRUtil-3_4.so.33:_ZN7Imf_3_418SampleCountChannel3setEiij
libOpenEXRUtil-3_4.so.33:_ZN7Imf_3_418SampleCountChannel5clearEv
libOpenEXRUtil-3_4.so.33:_ZN7Imf_3_418SampleCountChannel6resizeEv
libOpenEXRUtil-3_4.so.33:_ZN7Imf_3_418SampleCountChannel7endEditEv
libOpenEXRUtil-3_4.so.33:_ZN7Imf_3_418SampleCountChannel9beginEditEv
libOpenEXRUtil-3_4.so.33:_ZN7Imf_3_418SampleCountChannel9deepLevelEv
libOpenEXRUtil-3_4.so.33:_ZN7Imf_3_418SampleCountChannelC1ERNS_14DeepImageLevelE
libOpenEXRUtil-3_4.so.33:_ZN7Imf_3_418SampleCountChannelC2ERNS_14DeepImageLevelE
libOpenEXRUtil-3_4.so.33:_ZN7Imf_3_418SampleCountChannelD0Ev
libOpenEXRUtil-3_4.so.33:_ZN7Imf_3_418SampleCountChannelD1Ev
libOpenEXRUtil-3_4.so.33:_ZN7Imf_3_418SampleCountChannelD2Ev
libOpenEXRUtil-3_4.so.33:_ZN7Imf_3_418loadDeepTiledImageERKNSt7__cxx1112basic_stringIcSt11char_traitsIcESaIcEEERNS_6HeaderERNS_9DeepImageE
libOpenEXRUtil-3_4.so.33:_ZN7Imf_3_418loadDeepTiledImageERKNSt7__cxx1112basic_stringIcSt11char_traitsIcESaIcEEERNS_9DeepImageE
libOpenEXRUtil-3_4.so.33:_ZN7Imf_3_418loadFlatTiledImageERKNSt7__cxx1112basic_stringIcSt11char_traitsIcESaIcEEERNS_6HeaderERNS_9FlatImageE
libOpenEXRUtil-3_4.so.33:_ZN7Imf_3_418loadFlatTiledImageERKNSt7__cxx1112basic_stringIcSt11char_traitsIcESaIcEEERNS_9FlatImageE
libOpenEXRUtil-3_4.so.33:_ZN7Imf_3_418saveDeepTiledImageERKNSt7__cxx1112basic_stringIcSt11char_traitsIcESaIcEEERKNS_6HeaderERKNS_9DeepImageENS_16DataWindowSourceE
libOpenEXRUtil-3_4.so.33:_ZN7Imf_3_418saveDeepTiledImageERKNSt7__cxx1112basic_stringIcSt11char_traitsIcESaIcEEERKNS_9DeepImageE
libOpenEXRUtil-3_4.so.33:_ZN7Imf_3_418saveFlatTiledImageERKNSt7__cxx1112basic_stringIcSt11char_traitsIcESaIcEEERKNS_6HeaderERKNS_9FlatImageENS_16DataWindowSourceE
libOpenEXRUtil-3_4.so.33:_ZN7Imf_3_418saveFlatTiledImageERKNSt7__cxx1112basic_stringIcSt11char_traitsIcESaIcEEERKNS_9FlatImageE
libOpenEXRUtil-3_4.so.33:_ZN7Imf_3_421loadDeepScanLineImageERKNSt7__cxx1112basic_stringIcSt11char_traitsIcESaIcEEERNS_6HeaderERNS_9DeepImageE
libOpenEXRUtil-3_4.so.33:_ZN7Imf_3_421loadDeepScanLineImageERKNSt7__cxx1112basic_stringIcSt11char_traitsIcESaIcEEERNS_9DeepImageE
libOpenEXRUtil-3_4.so.33:_ZN7Imf_3_421loadFlatScanLineImageERKNSt7__cxx1112basic_stringIcSt11char_traitsIcESaIcEEERNS_6HeaderERNS_9FlatImageE
libOpenEXRUtil-3_4.so.33:_ZN7Imf_3_421loadFlatScanLineImageERKNSt7__cxx1112basic_stringIcSt11char_traitsIcESaIcEEERNS_9FlatImageE
libOpenEXRUtil-3_4.so.33:_ZN7Imf_3_421saveDeepScanLineImageERKNSt7__cxx1112basic_stringIcSt11char_traitsIcESaIcEEERKNS_6HeaderERKNS_9DeepImageENS_16DataWindowSourceE
libOpenEXRUtil-3_4.so.33:_ZN7Imf_3_421saveDeepScanLineImageERKNSt7__cxx1112basic_stringIcSt11char_traitsIcESaIcEEERKNS_9DeepImageE
libOpenEXRUtil-3_4.so.33:_ZN7Imf_3_421saveFlatScanLineImageERKNSt7__cxx1112basic_stringIcSt11char_traitsIcESaIcEEERKNS_6HeaderERKNS_9FlatImageENS_16DataWindowSourceE
libOpenEXRUtil-3_4.so.33:_ZN7Imf_3_421saveFlatScanLineImageERKNSt7__cxx1112basic_stringIcSt11char_traitsIcESaIcEEERKNS_9FlatImageE
libOpenEXRUtil-3_4.so.33:_ZN7Imf_3_45Image11shiftPixelsEii
libOpenEXRUtil-3_4.so.33:_ZN7Imf_3_45Image12eraseChannelERKNSt7__cxx1112basic_stringIcSt11char_traitsIcESaIcEEE
libOpenEXRUtil-3_4.so.33:_ZN7Imf_3_45Image13clearChannelsEv
libOpenEXRUtil-3_4.so.33:_ZN7Imf_3_45Image13insertChannelERKNSt7__cxx1112basic_stringIcSt11char_traitsIcESaIcEEENS_9PixelTypeEiib
libOpenEXRUtil-3_4.so.33:_ZN7Imf_3_45Image13insertChannelERKNSt7__cxx1112basic_stringIcSt11char_traitsIcESaIcEEERKNS_7ChannelE
libOpenEXRUtil-3_4.so.33:_ZN7Imf_3_45Image13renameChannelERKNSt7__cxx1112basic_stringIcSt11char_traitsIcESaIcEEES8_
libOpenEXRUtil-3_4.so.33:_ZN7Imf_3_45Image14renameChannelsERKSt3mapINSt7__cxx1112basic_stringIcSt11char_traitsIcESaIcEEES7_St4lessIS7_ESaISt4pairIKS7_S7_EEE
libOpenEXRUtil-3_4.so.33:_ZN7Imf_3_45Image5levelEi
libOpenEXRUtil-3_4.so.33:_ZN7Imf_3_45Image5levelEii
libOpenEXRUtil-3_4.so.33:_ZN7Imf_3_45Image6resizeERKN9Imath_3_13BoxINS1_4Vec2IiEEEE
libOpenEXRUtil-3_4.so.33:_ZN7Imf_3_45Image6resizeERKN9Imath_3_13BoxINS1_4Vec2IiEEEENS_9LevelModeENS_17LevelRoundingModeE
libOpenEXRUtil-3_4.so.33:_ZN7Imf_3_45ImageC1Ev
libOpenEXRUtil-3_4.so.33:_ZN7Imf_3_45ImageC2Ev
libOpenEXRUtil-3_4.so.33:_ZN7Imf_3_45ImageD0Ev
libOpenEXRUtil-3_4.so.33:_ZN7Imf_3_45ImageD1Ev
libOpenEXRUtil-3_4.so.33:_ZN7Imf_3_45ImageD2Ev
libOpenEXRUtil-3_4.so.33:_ZN7Imf_3_49DeepImage5levelEi
libOpenEXRUtil-3_4.so.33:_ZN7Imf_3_49DeepImage5levelEii
libOpenEXRUtil-3_4.so.33:_ZN7Imf_3_49DeepImage8newLevelEiiRKN9Imath_3_13BoxINS1_4Vec2IiEEEE
libOpenEXRUtil-3_4.so.33:_ZN7Imf_3_49DeepImageC1ERKN9Imath_3_13BoxINS1_4Vec2IiEEEENS_9LevelModeENS_17LevelRoundingModeE
libOpenEXRUtil-3_4.so.33:_ZN7Imf_3_49DeepImageC1Ev
libOpenEXRUtil-3_4.so.33:_ZN7Imf_3_49DeepImageC2ERKN9Imath_3_13BoxINS1_4Vec2IiEEEENS_9LevelModeENS_17LevelRoundingModeE
libOpenEXRUtil-3_4.so.33:_ZN7Imf_3_49DeepImageC2Ev
libOpenEXRUtil-3_4.so.33:_ZN7Imf_3_49DeepImageD0Ev
libOpenEXRUtil-3_4.so.33:_ZN7Imf_3_49DeepImageD1Ev
libOpenEXRUtil-3_4.so.33:_ZN7Imf_3_49DeepImageD2Ev
libOpenEXRUtil-3_4.so.33:_ZN7Imf_3_49FlatImage5levelEi
libOpenEXRUtil-3_4.so.33:_ZN7Imf_3_49FlatImage5levelEii
libOpenEXRUtil-3_4.so.33:_ZN7Imf_3_49FlatImage8newLevelEiiRKN9Imath_3_13BoxINS1_4Vec2IiEEEE
libOpenEXRUtil-3_4.so.33:_ZN7Imf_3_49FlatImageC1ERKN9Imath_3_13BoxINS1_4Vec2IiEEEENS_9LevelModeENS_17LevelRoundingModeE
libOpenEXRUtil-3_4.so.33:_ZN7Imf_3_49FlatImageC1Ev
libOpenEXRUtil-3_4.so.33:_ZN7Imf_3_49FlatImageC2ERKN9Imath_3_13BoxINS1_4Vec2IiEEEENS_9LevelModeENS_17LevelRoundingModeE
libOpenEXRUtil-3_4.so.33:_ZN7Imf_3_49FlatImageC2Ev
libOpenEXRUtil-3_4.so.33:_ZN7Imf_3_49FlatImageD0Ev
libOpenEXRUtil-3_4.so.33:_ZN7Imf_3_49FlatImageD1Ev
libOpenEXRUtil-3_4.so.33:_ZN7Imf_3_49FlatImageD2Ev
libOpenEXRUtil-3_4.so.33:_ZN7Imf_3_49loadImageERKNSt7__cxx1112basic_stringIcSt11char_traitsIcESaIcEEE
libOpenEXRUtil-3_4.so.33:_ZN7Imf_3_49loadImageERKNSt7__cxx1112basic_stringIcSt11char_traitsIcESaIcEEERNS_6HeaderE
libOpenEXRUtil-3_4.so.33:_ZN7Imf_3_49saveImageERKNSt7__cxx1112basic_stringIcSt11char_traitsIcESaIcEEERKNS_5ImageE
libOpenEXRUtil-3_4.so.33:_ZN7Imf_3_49saveImageERKNSt7__cxx1112basic_stringIcSt11char_traitsIcESaIcEEERKNS_6HeaderERKNS_5ImageENS_16DataWindowSourceE
libOpenEXRUtil-3_4.so.33:_ZNK7Imf_3_410ImageLevel18throwChannelExistsERKNSt7__cxx1112basic_stringIcSt11char_traitsIcESaIcEEE
libOpenEXRUtil-3_4.so.33:_ZNK7Imf_3_410ImageLevel19throwBadChannelNameERKNSt7__cxx1112basic_stringIcSt11char_traitsIcESaIcEEE
libOpenEXRUtil-3_4.so.33:_ZNK7Imf_3_410ImageLevel25throwBadChannelNameOrTypeERKNSt7__cxx1112basic_stringIcSt11char_traitsIcESaIcEEE
libOpenEXRUtil-3_4.so.33:_ZNK7Imf_3_412ImageChannel11boundsCheckEii
libOpenEXRUtil-3_4.so.33:_ZNK7Imf_3_412ImageChannel7channelEv
libOpenEXRUtil-3_4.so.33:_ZNK7Imf_3_414DeepImageLevel11findChannelERKNSt7__cxx1112basic_stringIcSt11char_traitsIcESaIcEEE
libOpenEXRUtil-3_4.so.33:_ZNK7Imf_3_414DeepImageLevel3endEv
libOpenEXRUtil-3_4.so.33:_ZNK7Imf_3_414DeepImageLevel5beginEv
libOpenEXRUtil-3_4.so.33:_ZNK7Imf_3_414DeepImageLevel7channelERKNSt7__cxx1112basic_stringIcSt11char_traitsIcESaIcEEE
libOpenEXRUtil-3_4.so.33:_ZNK7Imf_3_414DeepImageLevel9deepImageEv
libOpenEXRUtil-3_4.so.33:_ZNK7Imf_3_414FlatImageLevel11findChannelERKNSt7__cxx1112basic_stringIcSt11char_traitsIcESaIcEEE
libOpenEXRUtil-3_4.so.33:_ZNK7Imf_3_414FlatImageLevel3endEv
libOpenEXRUtil-3_4.so.33:_ZNK7Imf_3_414FlatImageLevel5beginEv
libOpenEXRUtil-3_4.so.33:_ZNK7Imf_3_414FlatImageLevel7channelERKNSt7__cxx1112basic_stringIcSt11char_traitsIcESaIcEEE
libOpenEXRUtil-3_4.so.33:_ZNK7Imf_3_414FlatImageLevel9flatImageEv
libOpenEXRUtil-3_4.so.33:_ZNK7Imf_3_416DeepImageChannel12sampleCountsEv
libOpenEXRUtil-3_4.so.33:_ZNK7Imf_3_416DeepImageChannel9deepLevelEv
libOpenEXRUtil-3_4.so.33:_ZNK7Imf_3_416FlatImageChannel9flatLevelEv
libOpenEXRUtil-3_4.so.33:_ZNK7Imf_3_418SampleCountChannel5sliceEv
libOpenEXRUtil-3_4.so.33:_ZNK7Imf_3_418SampleCountChannel9deepLevelEv
libOpenEXRUtil-3_4.so.33:_ZNK7Imf_3_418SampleCountChannel9pixelTypeEv
libOpenEXRUtil-3_4.so.33:_ZNK7Imf_3_421TypedDeepImageChannelIN9Imath_3_14halfEE9pixelTypeEv
libOpenEXRUtil-3_4.so.33:_ZNK7Imf_3_421TypedDeepImageChannelIfE9pixelTypeEv
libOpenEXRUtil-3_4.so.33:_ZNK7Imf_3_421TypedDeepImageChannelIjE9pixelTypeEv
libOpenEXRUtil-3_4.so.33:_ZNK7Imf_3_45Image10dataWindowEv
libOpenEXRUtil-3_4.so.33:_ZNK7Imf_3_45Image10levelWidthEi
libOpenEXRUtil-3_4.so.33:_ZNK7Imf_3_45Image10numXLevelsEv
libOpenEXRUtil-3_4.so.33:_ZNK7Imf_3_45Image10numYLevelsEv
libOpenEXRUtil-3_4.so.33:_ZNK7Imf_3_45Image11levelHeightEi
libOpenEXRUtil-3_4.so.33:_ZNK7Imf_3_45Image17levelRoundingModeEv
libOpenEXRUtil-3_4.so.33:_ZNK7Imf_3_45Image18dataWindowForLevelEi
libOpenEXRUtil-3_4.so.33:_ZNK7Imf_3_45Image18dataWindowForLevelEii
libOpenEXRUtil-3_4.so.33:_ZNK7Imf_3_45Image5levelEi
libOpenEXRUtil-3_4.so.33:_ZNK7Imf_3_45Image5levelEii
libOpenEXRUtil-3_4.so.33:_ZNK7Imf_3_45Image9levelModeEv
libOpenEXRUtil-3_4.so.33:_ZNK7Imf_3_45Image9numLevelsEv
libOpenEXRUtil-3_4.so.33:_ZNK7Imf_3_49DeepImage5levelEi
libOpenEXRUtil-3_4.so.33:_ZNK7Imf_3_49DeepImage5levelEii
libOpenEXRUtil-3_4.so.33:_ZNK7Imf_3_49FlatImage5levelEi
libOpenEXRUtil-3_4.so.33:_ZNK7Imf_3_49FlatImage5levelEii
