libAdjustHSL.so:_Z24qInitResources_AdjustHSLv
libAdjustHSL.so:_Z27qCleanupResources_AdjustHSLv
libAdjustHSL.so:_ZN16AdjustHSLElement10hueChangedEi
libAdjustHSL.so:_ZN16AdjustHSLElement11qt_metacallEN11QMetaObject4CallEiPPv
libAdjustHSL.so:_ZN16AdjustHSLElement11qt_metacastEPKc
libAdjustHSL.so:_ZN16AdjustHSLElement12iVideoStreamERK13AkVideoPacket
libAdjustHSL.so:_ZN16AdjustHSLElement12setLuminanceEi
libAdjustHSL.so:_ZN16AdjustHSLElement13setSaturationEi
libAdjustHSL.so:_ZN16AdjustHSLElement14resetLuminanceEv
libAdjustHSL.so:_ZN16AdjustHSLElement15resetSaturationEv
libAdjustHSL.so:_ZN16AdjustHSLElement16luminanceChangedEi
libAdjustHSL.so:_ZN16AdjustHSLElement16staticMetaObjectE
libAdjustHSL.so:_ZN16AdjustHSLElement17saturationChangedEi
libAdjustHSL.so:_ZN16AdjustHSLElement6setHueEi
libAdjustHSL.so:_ZN16AdjustHSLElement8resetHueEv
libAdjustHSL.so:_ZN16AdjustHSLElementC1Ev
libAdjustHSL.so:_ZN16AdjustHSLElementC2Ev
libAdjustHSL.so:_ZN16AdjustHSLElementD0Ev
libAdjustHSL.so:_ZN16AdjustHSLElementD1Ev
libAdjustHSL.so:_ZN16AdjustHSLElementD2Ev
libAdjustHSL.so:_ZN9AdjustHSL11qt_metacallEN11QMetaObject4CallEiPPv
libAdjustHSL.so:_ZN9AdjustHSL11qt_metacastEPKc
libAdjustHSL.so:_ZN9AdjustHSL16staticMetaObjectE
libAdjustHSL.so:_ZN9AdjustHSL6createERK7QStringS2_
libAdjustHSL.so:_ZNK16AdjustHSLElement10metaObjectEv
libAdjustHSL.so:_ZNK16AdjustHSLElement10saturationEv
libAdjustHSL.so:_ZNK16AdjustHSLElement23controlInterfaceProvideERK7QString
libAdjustHSL.so:_ZNK16AdjustHSLElement25controlInterfaceConfigureEP11QQmlContextRK7QString
libAdjustHSL.so:_ZNK16AdjustHSLElement3hueEv
libAdjustHSL.so:_ZNK16AdjustHSLElement9luminanceEv
libAdjustHSL.so:_ZNK9AdjustHSL10metaObjectEv
libAdjustHSL.so:_ZNK9AdjustHSL4keysEv
libAdjustHSL.so:_ZThn16_N9AdjustHSL6createERK7QStringS2_
libAdjustHSL.so:_ZThn16_NK9AdjustHSL4keysEv
libAdjustHSL.so:qt_plugin_instance
libAdjustHSL.so:qt_plugin_query_metadata_v2
libAging.so:_Z20qInitResources_Agingv
libAging.so:_Z23qCleanupResources_Agingv
libAging.so:_ZN12AgingElement10setAddDustEb
libAging.so:_ZN12AgingElement11qt_metacallEN11QMetaObject4CallEiPPv
libAging.so:_ZN12AgingElement11qt_metacastEPKc
libAging.so:_ZN12AgingElement12iVideoStreamERK13AkVideoPacket
libAging.so:_ZN12AgingElement12resetAddDustEv
libAging.so:_ZN12AgingElement13setNScratchesEi
libAging.so:_ZN12AgingElement14addDustChangedEb
libAging.so:_ZN12AgingElement15resetNScratchesEv
libAging.so:_ZN12AgingElement16staticMetaObjectE
libAging.so:_ZN12AgingElement17nScratchesChangedEi
libAging.so:_ZN12AgingElementC1Ev
libAging.so:_ZN12AgingElementC2Ev
libAging.so:_ZN12AgingElementD0Ev
libAging.so:_ZN12AgingElementD1Ev
libAging.so:_ZN12AgingElementD2Ev
libAging.so:_ZN19AgingElementPrivate10colorAgingERK13AkVideoPacket
libAging.so:_ZN19AgingElementPrivate10scratchingER13AkVideoPacket
libAging.so:_ZN19AgingElementPrivate4pitsER13AkVideoPacket
libAging.so:_ZN19AgingElementPrivate5dustsER13AkVideoPacket
libAging.so:_ZN5Aging11qt_metacallEN11QMetaObject4CallEiPPv
libAging.so:_ZN5Aging11qt_metacastEPKc
libAging.so:_ZN5Aging16staticMetaObjectE
libAging.so:_ZN5Aging6createERK7QStringS2_
libAging.so:_ZN7Scratch10resetDLifeEv
libAging.so:_ZN7Scratch1xEv
libAging.so:_ZN7Scratch1yEv
libAging.so:_ZN7Scratch2dxEv
libAging.so:_ZN7Scratch4lifeEv
libAging.so:_ZN7Scratch4setXEd
libAging.so:_ZN7Scratch4setYEi
libAging.so:_ZN7Scratch5dlifeEv
libAging.so:_ZN7Scratch5setDxEd
libAging.so:_ZN7Scratch6resetXEv
libAging.so:_ZN7Scratch6resetYEv
libAging.so:_ZN7Scratch7resetDxEv
libAging.so:_ZN7Scratch7setLifeEd
libAging.so:_ZN7Scratch8setDLifeEd
libAging.so:_ZN7Scratch9resetLifeEv
libAging.so:_ZN7ScratchC1ERKS_
libAging.so:_ZN7ScratchC1Eddddddddii
libAging.so:_ZN7ScratchC1Ev
libAging.so:_ZN7ScratchC2ERKS_
libAging.so:_ZN7ScratchC2Eddddddddii
libAging.so:_ZN7ScratchC2Ev
libAging.so:_ZN7ScratchD1Ev
libAging.so:_ZN7ScratchD2Ev
libAging.so:_ZN7ScratchaSERKS_
libAging.so:_ZN7ScratchppEi
libAging.so:_ZN7ScratchppEv
libAging.so:_ZNK12AgingElement10metaObjectEv
libAging.so:_ZNK12AgingElement10nScratchesEv
libAging.so:_ZNK12AgingElement23controlInterfaceProvideERK7QString
libAging.so:_ZNK12AgingElement25controlInterfaceConfigureEP11QQmlContextRK7QString
libAging.so:_ZNK12AgingElement7addDustEv
libAging.so:_ZNK5Aging10metaObjectEv
libAging.so:_ZNK5Aging4keysEv
libAging.so:_ZNK7Scratch12isAboutToDieEv
libAging.so:_ZNK7Scratch1xEv
libAging.so:_ZNK7Scratch1yEv
libAging.so:_ZNK7Scratch2dxEv
libAging.so:_ZNK7Scratch4lifeEv
libAging.so:_ZNK7Scratch5dlifeEv
libAging.so:_ZThn16_N5Aging6createERK7QStringS2_
libAging.so:_ZThn16_NK5Aging4keysEv
libAging.so:qt_plugin_instance
libAging.so:qt_plugin_query_metadata_v2
libAnalogTV.so:_Z23qInitResources_AnalogTVv
libAnalogTV.so:_Z26qCleanupResources_AnalogTVv
libAnalogTV.so:_ZN15AnalogTVElement10resetNoiseEv
libAnalogTV.so:_ZN15AnalogTVElement10resetVSyncEv
libAnalogTV.so:_ZN15AnalogTVElement10setXOffsetEi
libAnalogTV.so:_ZN15AnalogTVElement11qt_metacallEN11QMetaObject4CallEiPPv
libAnalogTV.so:_ZN15AnalogTVElement11qt_metacastEPKc
libAnalogTV.so:_ZN15AnalogTVElement12iVideoStreamERK13AkVideoPacket
libAnalogTV.so:_ZN15AnalogTVElement12noiseChangedEd
libAnalogTV.so:_ZN15AnalogTVElement12resetXOffsetEv
libAnalogTV.so:_ZN15AnalogTVElement12setHueFactorEd
libAnalogTV.so:_ZN15AnalogTVElement12vsyncChangedEd
libAnalogTV.so:_ZN15AnalogTVElement14resetHueFactorEv
libAnalogTV.so:_ZN15AnalogTVElement14setHSyncFactorEd
libAnalogTV.so:_ZN15AnalogTVElement14xOffsetChangedEi
libAnalogTV.so:_ZN15AnalogTVElement16hueFactorChangedEd
libAnalogTV.so:_ZN15AnalogTVElement16resetHSyncFactorEv
libAnalogTV.so:_ZN15AnalogTVElement16staticMetaObjectE
libAnalogTV.so:_ZN15AnalogTVElement18hsyncFactorChangedEd
libAnalogTV.so:_ZN15AnalogTVElement18setHSyncSmoothnessEi
libAnalogTV.so:_ZN15AnalogTVElement20resetHSyncSmoothnessEv
libAnalogTV.so:_ZN15AnalogTVElement22hsyncSmoothnessChangedEi
libAnalogTV.so:_ZN15AnalogTVElement8setNoiseEd
libAnalogTV.so:_ZN15AnalogTVElement8setVSyncEd
libAnalogTV.so:_ZN15AnalogTVElementC1Ev
libAnalogTV.so:_ZN15AnalogTVElementC2Ev
libAnalogTV.so:_ZN15AnalogTVElementD0Ev
libAnalogTV.so:_ZN15AnalogTVElementD1Ev
libAnalogTV.so:_ZN15AnalogTVElementD2Ev
libAnalogTV.so:_ZN22AnalogTVElementPrivate10applyHSyncERK13AkVideoPacketPKii
libAnalogTV.so:_ZN22AnalogTVElementPrivate10applyVSyncERK13AkVideoPacket
libAnalogTV.so:_ZN8AnalogTV11qt_metacallEN11QMetaObject4CallEiPPv
libAnalogTV.so:_ZN8AnalogTV11qt_metacastEPKc
libAnalogTV.so:_ZN8AnalogTV16staticMetaObjectE
libAnalogTV.so:_ZN8AnalogTV6createERK7QStringS2_
libAnalogTV.so:_ZNK15AnalogTVElement10metaObjectEv
libAnalogTV.so:_ZNK15AnalogTVElement11hsyncFactorEv
libAnalogTV.so:_ZNK15AnalogTVElement15hsyncSmoothnessEv
libAnalogTV.so:_ZNK15AnalogTVElement23controlInterfaceProvideERK7QString
libAnalogTV.so:_ZNK15AnalogTVElement25controlInterfaceConfigureEP11QQmlContextRK7QString
libAnalogTV.so:_ZNK15AnalogTVElement5noiseEv
libAnalogTV.so:_ZNK15AnalogTVElement5vsyncEv
libAnalogTV.so:_ZNK15AnalogTVElement7xOffsetEv
libAnalogTV.so:_ZNK15AnalogTVElement9hueFactorEv
libAnalogTV.so:_ZNK22AnalogTVElementPrivate10applyNoiseER13AkVideoPacketd
libAnalogTV.so:_ZNK22AnalogTVElementPrivate16createLumaOffsetERK13AkVideoPacketdPi
libAnalogTV.so:_ZNK22AnalogTVElementPrivate16smoothLumaOffsetEPiii
libAnalogTV.so:_ZNK22AnalogTVElementPrivate20applyChromaDephasingER13AkVideoPacketPKid
libAnalogTV.so:_ZNK8AnalogTV10metaObjectEv
libAnalogTV.so:_ZNK8AnalogTV4keysEv
libAnalogTV.so:_ZThn16_N8AnalogTV6createERK7QStringS2_
libAnalogTV.so:_ZThn16_NK8AnalogTV4keysEv
libAnalogTV.so:qt_plugin_instance
libAnalogTV.so:qt_plugin_query_metadata_v2
libAspectRatio.so:_Z26qInitResources_AspectRatiov
libAspectRatio.so:_Z29qCleanupResources_AspectRatiov
libAspectRatio.so:_ZN11AspectRatio11qt_metacallEN11QMetaObject4CallEiPPv
libAspectRatio.so:_ZN11AspectRatio11qt_metacastEPKc
libAspectRatio.so:_ZN11AspectRatio16staticMetaObjectE
libAspectRatio.so:_ZN11AspectRatio6createERK7QStringS2_
libAspectRatio.so:_ZN18AspectRatioElement10resetWidthEv
libAspectRatio.so:_ZN18AspectRatioElement11qt_metacallEN11QMetaObject4CallEiPPv
libAspectRatio.so:_ZN18AspectRatioElement11qt_metacastEPKc
libAspectRatio.so:_ZN18AspectRatioElement11resetHeightEv
libAspectRatio.so:_ZN18AspectRatioElement12iVideoStreamERK13AkVideoPacket
libAspectRatio.so:_ZN18AspectRatioElement12widthChangedEi
libAspectRatio.so:_ZN18AspectRatioElement13heightChangedEi
libAspectRatio.so:_ZN18AspectRatioElement16staticMetaObjectE
libAspectRatio.so:_ZN18AspectRatioElement8setWidthEi
libAspectRatio.so:_ZN18AspectRatioElement9setHeightEi
libAspectRatio.so:_ZN18AspectRatioElementC1Ev
libAspectRatio.so:_ZN18AspectRatioElementC2Ev
libAspectRatio.so:_ZN18AspectRatioElementD0Ev
libAspectRatio.so:_ZN18AspectRatioElementD1Ev
libAspectRatio.so:_ZN18AspectRatioElementD2Ev
libAspectRatio.so:_ZNK11AspectRatio10metaObjectEv
libAspectRatio.so:_ZNK11AspectRatio4keysEv
libAspectRatio.so:_ZNK18AspectRatioElement10metaObjectEv
libAspectRatio.so:_ZNK18AspectRatioElement23controlInterfaceProvideERK7QString
libAspectRatio.so:_ZNK18AspectRatioElement25controlInterfaceConfigureEP11QQmlContextRK7QString
libAspectRatio.so:_ZNK18AspectRatioElement5widthEv
libAspectRatio.so:_ZNK18AspectRatioElement6heightEv
libAspectRatio.so:_ZThn16_N11AspectRatio6createERK7QStringS2_
libAspectRatio.so:_ZThn16_NK11AspectRatio4keysEv
libAspectRatio.so:qt_plugin_instance
libAspectRatio.so:qt_plugin_query_metadata_v2
libAudioDevice.so:_ZN11AudioDevice11qt_metacallEN11QMetaObject4CallEiPPv
libAudioDevice.so:_ZN11AudioDevice11qt_metacastEPKc
libAudioDevice.so:_ZN11AudioDevice16staticMetaObjectE
libAudioDevice.so:_ZN11AudioDevice6createERK7QStringS2_
libAudioDevice.so:_ZN18AudioDeviceElement10setLatencyEi
libAudioDevice.so:_ZN18AudioDeviceElement11capsChangedERK11AkAudioCaps
libAudioDevice.so:_ZN18AudioDeviceElement11descriptionERK7QString
libAudioDevice.so:_ZN18AudioDeviceElement11qt_metacallEN11QMetaObject4CallEiPPv
libAudioDevice.so:_ZN18AudioDeviceElement11qt_metacastEPKc
libAudioDevice.so:_ZN18AudioDeviceElement11resetDeviceEv
libAudioDevice.so:_ZN18AudioDeviceElement12defaultInputEv
libAudioDevice.so:_ZN18AudioDeviceElement12iAudioStreamERK13AkAudioPacket
libAudioDevice.so:_ZN18AudioDeviceElement12resetLatencyEv
libAudioDevice.so:_ZN18AudioDeviceElement13defaultOutputEv
libAudioDevice.so:_ZN18AudioDeviceElement13deviceChangedERK7QString
libAudioDevice.so:_ZN18AudioDeviceElement13inputsChangedERK5QListI7QStringE
libAudioDevice.so:_ZN18AudioDeviceElement14latencyChangedEi
libAudioDevice.so:_ZN18AudioDeviceElement14outputsChangedERK5QListI7QStringE
libAudioDevice.so:_ZN18AudioDeviceElement15preferredFormatERK7QString
libAudioDevice.so:_ZN18AudioDeviceElement16staticMetaObjectE
libAudioDevice.so:_ZN18AudioDeviceElement16supportedFormatsERK7QString
libAudioDevice.so:_ZN18AudioDeviceElement19defaultInputChangedERK7QString
libAudioDevice.so:_ZN18AudioDeviceElement20defaultOutputChangedERK7QString
libAudioDevice.so:_ZN18AudioDeviceElement20supportedSampleRatesERK7QString
libAudioDevice.so:_ZN18AudioDeviceElement23supportedChannelLayoutsERK7QString
libAudioDevice.so:_ZN18AudioDeviceElement6inputsEv
libAudioDevice.so:_ZN18AudioDeviceElement7outputsEv
libAudioDevice.so:_ZN18AudioDeviceElement7setCapsERK11AkAudioCaps
libAudioDevice.so:_ZN18AudioDeviceElement8setStateEN9AkElement12ElementStateE
libAudioDevice.so:_ZN18AudioDeviceElement9resetCapsEv
libAudioDevice.so:_ZN18AudioDeviceElement9setDeviceERK7QString
libAudioDevice.so:_ZN18AudioDeviceElementC1Ev
libAudioDevice.so:_ZN18AudioDeviceElementC2Ev
libAudioDevice.so:_ZN18AudioDeviceElementD0Ev
libAudioDevice.so:_ZN18AudioDeviceElementD1Ev
libAudioDevice.so:_ZN18AudioDeviceElementD2Ev
libAudioDevice.so:_ZN25AudioDeviceElementPrivate10setOutputsERK5QListI7QStringE
libAudioDevice.so:_ZN25AudioDeviceElementPrivate12linksChangedERK4QMapI7QStringS1_E
libAudioDevice.so:_ZN25AudioDeviceElementPrivate14readFramesLoopEv
libAudioDevice.so:_ZN25AudioDeviceElementPrivate9setInputsERK5QListI7QStringE
libAudioDevice.so:_ZN25AudioDeviceElementPrivateC1EP18AudioDeviceElement
libAudioDevice.so:_ZN25AudioDeviceElementPrivateC2EP18AudioDeviceElement
libAudioDevice.so:_ZN8AudioDev10setLatencyEi
libAudioDevice.so:_ZN8AudioDev11descriptionERK7QString
libAudioDevice.so:_ZN8AudioDev11qt_metacallEN11QMetaObject4CallEiPPv
libAudioDevice.so:_ZN8AudioDev11qt_metacastEPKc
libAudioDevice.so:_ZN8AudioDev12defaultInputEv
libAudioDevice.so:_ZN8AudioDev12errorChangedERK7QString
libAudioDevice.so:_ZN8AudioDev12resetLatencyEv
libAudioDevice.so:_ZN8AudioDev13defaultOutputEv
libAudioDevice.so:_ZN8AudioDev13inputsChangedERK5QListI7QStringE
libAudioDevice.so:_ZN8AudioDev14latencyChangedEi
libAudioDevice.so:_ZN8AudioDev14outputsChangedERK5QListI7QStringE
libAudioDevice.so:_ZN8AudioDev15preferredFormatERK7QString
libAudioDevice.so:_ZN8AudioDev16staticMetaObjectE
libAudioDevice.so:_ZN8AudioDev16supportedFormatsERK7QString
libAudioDevice.so:_ZN8AudioDev19defaultInputChangedERK7QString
libAudioDevice.so:_ZN8AudioDev20defaultOutputChangedERK7QString
libAudioDevice.so:_ZN8AudioDev20supportedSampleRatesERK7QString
libAudioDevice.so:_ZN8AudioDev23supportedChannelLayoutsERK7QString
libAudioDevice.so:_ZN8AudioDev4initERK7QStringRK11AkAudioCaps
libAudioDevice.so:_ZN8AudioDev4readEv
libAudioDevice.so:_ZN8AudioDev5writeERK13AkAudioPacket
libAudioDevice.so:_ZN8AudioDev6inputsEv
libAudioDevice.so:_ZN8AudioDev6uninitEv
libAudioDevice.so:_ZN8AudioDev7outputsEv
libAudioDevice.so:_ZN8AudioDevC1EP7QObject
libAudioDevice.so:_ZN8AudioDevC2EP7QObject
libAudioDevice.so:_ZN8AudioDevD0Ev
libAudioDevice.so:_ZN8AudioDevD1Ev
libAudioDevice.so:_ZN8AudioDevD2Ev
libAudioDevice.so:_ZNK11AudioDevice10metaObjectEv
libAudioDevice.so:_ZNK11AudioDevice4keysEv
libAudioDevice.so:_ZNK18AudioDeviceElement10metaObjectEv
libAudioDevice.so:_ZNK18AudioDeviceElement4capsEv
libAudioDevice.so:_ZNK18AudioDeviceElement6deviceEv
libAudioDevice.so:_ZNK18AudioDeviceElement7latencyEv
libAudioDevice.so:_ZNK8AudioDev10metaObjectEv
libAudioDevice.so:_ZNK8AudioDev17commonSampleRatesEv
libAudioDevice.so:_ZNK8AudioDev5errorEv
libAudioDevice.so:_ZNK8AudioDev7latencyEv
libAudioDevice.so:_ZThn16_N11AudioDevice6createERK7QStringS2_
libAudioDevice.so:_ZThn16_NK11AudioDevice4keysEv
libAudioDevice.so:qt_plugin_instance
libAudioDevice.so:qt_plugin_query_metadata_v2
libAudioDevice_alsa.so:_ZN12AudioDevAlsa11descriptionERK7QString
libAudioDevice_alsa.so:_ZN12AudioDevAlsa11qt_metacallEN11QMetaObject4CallEiPPv
libAudioDevice_alsa.so:_ZN12AudioDevAlsa11qt_metacastEPKc
libAudioDevice_alsa.so:_ZN12AudioDevAlsa12defaultInputEv
libAudioDevice_alsa.so:_ZN12AudioDevAlsa13defaultOutputEv
libAudioDevice_alsa.so:_ZN12AudioDevAlsa15preferredFormatERK7QString
libAudioDevice_alsa.so:_ZN12AudioDevAlsa16staticMetaObjectE
libAudioDevice_alsa.so:_ZN12AudioDevAlsa16supportedFormatsERK7QString
libAudioDevice_alsa.so:_ZN12AudioDevAlsa20supportedSampleRatesERK7QString
libAudioDevice_alsa.so:_ZN12AudioDevAlsa23supportedChannelLayoutsERK7QString
libAudioDevice_alsa.so:_ZN12AudioDevAlsa4initERK7QStringRK11AkAudioCaps
libAudioDevice_alsa.so:_ZN12AudioDevAlsa4readEv
libAudioDevice_alsa.so:_ZN12AudioDevAlsa5writeERK13AkAudioPacket
libAudioDevice_alsa.so:_ZN12AudioDevAlsa6inputsEv
libAudioDevice_alsa.so:_ZN12AudioDevAlsa6uninitEv
libAudioDevice_alsa.so:_ZN12AudioDevAlsa7outputsEv
libAudioDevice_alsa.so:_ZN12AudioDevAlsaC1EP7QObject
libAudioDevice_alsa.so:_ZN12AudioDevAlsaC2EP7QObject
libAudioDevice_alsa.so:_ZN12AudioDevAlsaD0Ev
libAudioDevice_alsa.so:_ZN12AudioDevAlsaD1Ev
libAudioDevice_alsa.so:_ZN12AudioDevAlsaD2Ev
libAudioDevice_alsa.so:_ZN19AudioDevAlsaPrivate13updateDevicesEv
libAudioDevice_alsa.so:_ZN19AudioDevAlsaPrivateC1EP12AudioDevAlsa
libAudioDevice_alsa.so:_ZN19AudioDevAlsaPrivateC2EP12AudioDevAlsa
libAudioDevice_alsa.so:_ZN6Plugin11qt_metacallEN11QMetaObject4CallEiPPv
libAudioDevice_alsa.so:_ZN6Plugin11qt_metacastEPKc
libAudioDevice_alsa.so:_ZN6Plugin16staticMetaObjectE
libAudioDevice_alsa.so:_ZN6Plugin6createERK7QStringS2_
libAudioDevice_alsa.so:_ZN8AudioDev10setLatencyEi
libAudioDevice_alsa.so:_ZN8AudioDev11descriptionERK7QString
libAudioDevice_alsa.so:_ZN8AudioDev11qt_metacallEN11QMetaObject4CallEiPPv
libAudioDevice_alsa.so:_ZN8AudioDev11qt_metacastEPKc
libAudioDevice_alsa.so:_ZN8AudioDev12defaultInputEv
libAudioDevice_alsa.so:_ZN8AudioDev12errorChangedERK7QString
libAudioDevice_alsa.so:_ZN8AudioDev12resetLatencyEv
libAudioDevice_alsa.so:_ZN8AudioDev13defaultOutputEv
libAudioDevice_alsa.so:_ZN8AudioDev13inputsChangedERK5QListI7QStringE
libAudioDevice_alsa.so:_ZN8AudioDev14latencyChangedEi
libAudioDevice_alsa.so:_ZN8AudioDev14outputsChangedERK5QListI7QStringE
libAudioDevice_alsa.so:_ZN8AudioDev15preferredFormatERK7QString
libAudioDevice_alsa.so:_ZN8AudioDev16staticMetaObjectE
libAudioDevice_alsa.so:_ZN8AudioDev16supportedFormatsERK7QString
libAudioDevice_alsa.so:_ZN8AudioDev19defaultInputChangedERK7QString
libAudioDevice_alsa.so:_ZN8AudioDev20defaultOutputChangedERK7QString
libAudioDevice_alsa.so:_ZN8AudioDev20supportedSampleRatesERK7QString
libAudioDevice_alsa.so:_ZN8AudioDev23supportedChannelLayoutsERK7QString
libAudioDevice_alsa.so:_ZN8AudioDev4initERK7QStringRK11AkAudioCaps
libAudioDevice_alsa.so:_ZN8AudioDev4readEv
libAudioDevice_alsa.so:_ZN8AudioDev5writeERK13AkAudioPacket
libAudioDevice_alsa.so:_ZN8AudioDev6inputsEv
libAudioDevice_alsa.so:_ZN8AudioDev6uninitEv
libAudioDevice_alsa.so:_ZN8AudioDev7outputsEv
libAudioDevice_alsa.so:_ZN8AudioDevC1EP7QObject
libAudioDevice_alsa.so:_ZN8AudioDevC2EP7QObject
libAudioDevice_alsa.so:_ZN8AudioDevD0Ev
libAudioDevice_alsa.so:_ZN8AudioDevD1Ev
libAudioDevice_alsa.so:_ZN8AudioDevD2Ev
libAudioDevice_alsa.so:_ZNK12AudioDevAlsa10metaObjectEv
libAudioDevice_alsa.so:_ZNK12AudioDevAlsa5errorEv
libAudioDevice_alsa.so:_ZNK19AudioDevAlsaPrivate10deviceNameEP8_snd_ctlj15_snd_pcm_stream
libAudioDevice_alsa.so:_ZNK19AudioDevAlsaPrivate14fillDeviceInfoERK7QString15_snd_pcm_streamP5QListIN11AkAudioCaps12SampleFormatEEPS4_INS5_13ChannelLayoutEEPS4_IiE
libAudioDevice_alsa.so:_ZNK6Plugin10metaObjectEv
libAudioDevice_alsa.so:_ZNK6Plugin4keysEv
libAudioDevice_alsa.so:_ZNK8AudioDev10metaObjectEv
libAudioDevice_alsa.so:_ZNK8AudioDev17commonSampleRatesEv
libAudioDevice_alsa.so:_ZNK8AudioDev5errorEv
libAudioDevice_alsa.so:_ZNK8AudioDev7latencyEv
libAudioDevice_alsa.so:_ZThn16_N6Plugin6createERK7QStringS2_
libAudioDevice_alsa.so:_ZThn16_NK6Plugin4keysEv
libAudioDevice_alsa.so:qt_plugin_instance
libAudioDevice_alsa.so:qt_plugin_query_metadata_v2
libAudioDevice_jack.so:_ZN12AudioDevJack11descriptionERK7QString
libAudioDevice_jack.so:_ZN12AudioDevJack11qt_metacallEN11QMetaObject4CallEiPPv
libAudioDevice_jack.so:_ZN12AudioDevJack11qt_metacastEPKc
libAudioDevice_jack.so:_ZN12AudioDevJack12defaultInputEv
libAudioDevice_jack.so:_ZN12AudioDevJack13defaultOutputEv
libAudioDevice_jack.so:_ZN12AudioDevJack15preferredFormatERK7QString
libAudioDevice_jack.so:_ZN12AudioDevJack16staticMetaObjectE
libAudioDevice_jack.so:_ZN12AudioDevJack16supportedFormatsERK7QString
libAudioDevice_jack.so:_ZN12AudioDevJack20supportedSampleRatesERK7QString
libAudioDevice_jack.so:_ZN12AudioDevJack23supportedChannelLayoutsERK7QString
libAudioDevice_jack.so:_ZN12AudioDevJack4initERK7QStringRK11AkAudioCaps
libAudioDevice_jack.so:_ZN12AudioDevJack4readEv
libAudioDevice_jack.so:_ZN12AudioDevJack5writeERK13AkAudioPacket
libAudioDevice_jack.so:_ZN12AudioDevJack6inputsEv
libAudioDevice_jack.so:_ZN12AudioDevJack6uninitEv
libAudioDevice_jack.so:_ZN12AudioDevJack7outputsEv
libAudioDevice_jack.so:_ZN12AudioDevJackC1EP7QObject
libAudioDevice_jack.so:_ZN12AudioDevJackC2EP7QObject
libAudioDevice_jack.so:_ZN12AudioDevJackD0Ev
libAudioDevice_jack.so:_ZN12AudioDevJackD1Ev
libAudioDevice_jack.so:_ZN12AudioDevJackD2Ev
libAudioDevice_jack.so:_ZN19AudioDevJackPrivate17onProcessCallbackEjPv
libAudioDevice_jack.so:_ZN19AudioDevJackPrivate18onShutdownCallbackEPv
libAudioDevice_jack.so:_ZN6Plugin11qt_metacallEN11QMetaObject4CallEiPPv
libAudioDevice_jack.so:_ZN6Plugin11qt_metacastEPKc
libAudioDevice_jack.so:_ZN6Plugin16staticMetaObjectE
libAudioDevice_jack.so:_ZN6Plugin6createERK7QStringS2_
libAudioDevice_jack.so:_ZN8AudioDev10setLatencyEi
libAudioDevice_jack.so:_ZN8AudioDev11descriptionERK7QString
libAudioDevice_jack.so:_ZN8AudioDev11qt_metacallEN11QMetaObject4CallEiPPv
libAudioDevice_jack.so:_ZN8AudioDev11qt_metacastEPKc
libAudioDevice_jack.so:_ZN8AudioDev12defaultInputEv
libAudioDevice_jack.so:_ZN8AudioDev12errorChangedERK7QString
libAudioDevice_jack.so:_ZN8AudioDev12resetLatencyEv
libAudioDevice_jack.so:_ZN8AudioDev13defaultOutputEv
libAudioDevice_jack.so:_ZN8AudioDev13inputsChangedERK5QListI7QStringE
libAudioDevice_jack.so:_ZN8AudioDev14latencyChangedEi
libAudioDevice_jack.so:_ZN8AudioDev14outputsChangedERK5QListI7QStringE
libAudioDevice_jack.so:_ZN8AudioDev15preferredFormatERK7QString
libAudioDevice_jack.so:_ZN8AudioDev16staticMetaObjectE
libAudioDevice_jack.so:_ZN8AudioDev16supportedFormatsERK7QString
libAudioDevice_jack.so:_ZN8AudioDev19defaultInputChangedERK7QString
libAudioDevice_jack.so:_ZN8AudioDev20defaultOutputChangedERK7QString
libAudioDevice_jack.so:_ZN8AudioDev20supportedSampleRatesERK7QString
libAudioDevice_jack.so:_ZN8AudioDev23supportedChannelLayoutsERK7QString
libAudioDevice_jack.so:_ZN8AudioDev4initERK7QStringRK11AkAudioCaps
libAudioDevice_jack.so:_ZN8AudioDev4readEv
libAudioDevice_jack.so:_ZN8AudioDev5writeERK13AkAudioPacket
libAudioDevice_jack.so:_ZN8AudioDev6inputsEv
libAudioDevice_jack.so:_ZN8AudioDev6uninitEv
libAudioDevice_jack.so:_ZN8AudioDev7outputsEv
libAudioDevice_jack.so:_ZN8AudioDevC1EP7QObject
libAudioDevice_jack.so:_ZN8AudioDevC2EP7QObject
libAudioDevice_jack.so:_ZN8AudioDevD0Ev
libAudioDevice_jack.so:_ZN8AudioDevD1Ev
libAudioDevice_jack.so:_ZN8AudioDevD2Ev
libAudioDevice_jack.so:_ZNK12AudioDevJack10metaObjectEv
libAudioDevice_jack.so:_ZNK12AudioDevJack5errorEv
libAudioDevice_jack.so:_ZNK6Plugin10metaObjectEv
libAudioDevice_jack.so:_ZNK6Plugin4keysEv
libAudioDevice_jack.so:_ZNK8AudioDev10metaObjectEv
libAudioDevice_jack.so:_ZNK8AudioDev17commonSampleRatesEv
libAudioDevice_jack.so:_ZNK8AudioDev5errorEv
libAudioDevice_jack.so:_ZNK8AudioDev7latencyEv
libAudioDevice_jack.so:_ZThn16_N6Plugin6createERK7QStringS2_
libAudioDevice_jack.so:_ZThn16_NK6Plugin4keysEv
libAudioDevice_jack.so:qt_plugin_instance
libAudioDevice_jack.so:qt_plugin_query_metadata_v2
libAudioDevice_pulseaudio.so:_ZN18AudioDevPulseAudio11descriptionERK7QString
libAudioDevice_pulseaudio.so:_ZN18AudioDevPulseAudio11qt_metacallEN11QMetaObject4CallEiPPv
libAudioDevice_pulseaudio.so:_ZN18AudioDevPulseAudio11qt_metacastEPKc
libAudioDevice_pulseaudio.so:_ZN18AudioDevPulseAudio12defaultInputEv
libAudioDevice_pulseaudio.so:_ZN18AudioDevPulseAudio13defaultOutputEv
libAudioDevice_pulseaudio.so:_ZN18AudioDevPulseAudio15preferredFormatERK7QString
libAudioDevice_pulseaudio.so:_ZN18AudioDevPulseAudio16staticMetaObjectE
libAudioDevice_pulseaudio.so:_ZN18AudioDevPulseAudio16supportedFormatsERK7QString
libAudioDevice_pulseaudio.so:_ZN18AudioDevPulseAudio20supportedSampleRatesERK7QString
libAudioDevice_pulseaudio.so:_ZN18AudioDevPulseAudio23supportedChannelLayoutsERK7QString
libAudioDevice_pulseaudio.so:_ZN18AudioDevPulseAudio4initERK7QStringRK11AkAudioCaps
libAudioDevice_pulseaudio.so:_ZN18AudioDevPulseAudio4readEv
libAudioDevice_pulseaudio.so:_ZN18AudioDevPulseAudio5writeERK13AkAudioPacket
libAudioDevice_pulseaudio.so:_ZN18AudioDevPulseAudio6inputsEv
libAudioDevice_pulseaudio.so:_ZN18AudioDevPulseAudio6uninitEv
libAudioDevice_pulseaudio.so:_ZN18AudioDevPulseAudio7outputsEv
libAudioDevice_pulseaudio.so:_ZN18AudioDevPulseAudioC1EP7QObject
libAudioDevice_pulseaudio.so:_ZN18AudioDevPulseAudioC2EP7QObject
libAudioDevice_pulseaudio.so:_ZN18AudioDevPulseAudioD0Ev
libAudioDevice_pulseaudio.so:_ZN18AudioDevPulseAudioD1Ev
libAudioDevice_pulseaudio.so:_ZN18AudioDevPulseAudioD2Ev
libAudioDevice_pulseaudio.so:_ZN25AudioDevPulseAudioPrivate16sinkInfoCallbackEP10pa_contextPK12pa_sink_infoiPv
libAudioDevice_pulseaudio.so:_ZN25AudioDevPulseAudioPrivate18serverInfoCallbackEP10pa_contextPK14pa_server_infoPv
libAudioDevice_pulseaudio.so:_ZN25AudioDevPulseAudioPrivate18sourceInfoCallbackEP10pa_contextPK14pa_source_infoiPv
libAudioDevice_pulseaudio.so:_ZN25AudioDevPulseAudioPrivate20deviceUpdateCallbackEP10pa_context26pa_subscription_event_typejPv
libAudioDevice_pulseaudio.so:_ZN25AudioDevPulseAudioPrivate24contextStateCallbackInitEP10pa_contextPv
libAudioDevice_pulseaudio.so:_ZN25AudioDevPulseAudioPrivateC1EP18AudioDevPulseAudio
libAudioDevice_pulseaudio.so:_ZN25AudioDevPulseAudioPrivateC2EP18AudioDevPulseAudio
libAudioDevice_pulseaudio.so:_ZN6Plugin11qt_metacallEN11QMetaObject4CallEiPPv
libAudioDevice_pulseaudio.so:_ZN6Plugin11qt_metacastEPKc
libAudioDevice_pulseaudio.so:_ZN6Plugin16staticMetaObjectE
libAudioDevice_pulseaudio.so:_ZN6Plugin6createERK7QStringS2_
libAudioDevice_pulseaudio.so:_ZN8AudioDev10setLatencyEi
libAudioDevice_pulseaudio.so:_ZN8AudioDev11descriptionERK7QString
libAudioDevice_pulseaudio.so:_ZN8AudioDev11qt_metacallEN11QMetaObject4CallEiPPv
libAudioDevice_pulseaudio.so:_ZN8AudioDev11qt_metacastEPKc
libAudioDevice_pulseaudio.so:_ZN8AudioDev12defaultInputEv
libAudioDevice_pulseaudio.so:_ZN8AudioDev12errorChangedERK7QString
libAudioDevice_pulseaudio.so:_ZN8AudioDev12resetLatencyEv
libAudioDevice_pulseaudio.so:_ZN8AudioDev13defaultOutputEv
libAudioDevice_pulseaudio.so:_ZN8AudioDev13inputsChangedERK5QListI7QStringE
libAudioDevice_pulseaudio.so:_ZN8AudioDev14latencyChangedEi
libAudioDevice_pulseaudio.so:_ZN8AudioDev14outputsChangedERK5QListI7QStringE
libAudioDevice_pulseaudio.so:_ZN8AudioDev15preferredFormatERK7QString
libAudioDevice_pulseaudio.so:_ZN8AudioDev16staticMetaObjectE
libAudioDevice_pulseaudio.so:_ZN8AudioDev16supportedFormatsERK7QString
libAudioDevice_pulseaudio.so:_ZN8AudioDev19defaultInputChangedERK7QString
libAudioDevice_pulseaudio.so:_ZN8AudioDev20defaultOutputChangedERK7QString
libAudioDevice_pulseaudio.so:_ZN8AudioDev20supportedSampleRatesERK7QString
libAudioDevice_pulseaudio.so:_ZN8AudioDev23supportedChannelLayoutsERK7QString
libAudioDevice_pulseaudio.so:_ZN8AudioDev4initERK7QStringRK11AkAudioCaps
libAudioDevice_pulseaudio.so:_ZN8AudioDev4readEv
libAudioDevice_pulseaudio.so:_ZN8AudioDev5writeERK13AkAudioPacket
libAudioDevice_pulseaudio.so:_ZN8AudioDev6inputsEv
libAudioDevice_pulseaudio.so:_ZN8AudioDev6uninitEv
libAudioDevice_pulseaudio.so:_ZN8AudioDev7outputsEv
libAudioDevice_pulseaudio.so:_ZN8AudioDevC1EP7QObject
libAudioDevice_pulseaudio.so:_ZN8AudioDevC2EP7QObject
libAudioDevice_pulseaudio.so:_ZN8AudioDevD0Ev
libAudioDevice_pulseaudio.so:_ZN8AudioDevD1Ev
libAudioDevice_pulseaudio.so:_ZN8AudioDevD2Ev
libAudioDevice_pulseaudio.so:_ZNK18AudioDevPulseAudio10metaObjectEv
libAudioDevice_pulseaudio.so:_ZNK18AudioDevPulseAudio5errorEv
libAudioDevice_pulseaudio.so:_ZNK6Plugin10metaObjectEv
libAudioDevice_pulseaudio.so:_ZNK6Plugin4keysEv
libAudioDevice_pulseaudio.so:_ZNK8AudioDev10metaObjectEv
libAudioDevice_pulseaudio.so:_ZNK8AudioDev17commonSampleRatesEv
libAudioDevice_pulseaudio.so:_ZNK8AudioDev5errorEv
libAudioDevice_pulseaudio.so:_ZNK8AudioDev7latencyEv
libAudioDevice_pulseaudio.so:_ZThn16_N6Plugin6createERK7QStringS2_
libAudioDevice_pulseaudio.so:_ZThn16_NK6Plugin4keysEv
libAudioDevice_pulseaudio.so:qt_plugin_instance
libAudioDevice_pulseaudio.so:qt_plugin_query_metadata_v2
libAudioDevice_qtaudio.so:_ZN10AudioDevQt11descriptionERK7QString
libAudioDevice_qtaudio.so:_ZN10AudioDevQt11qt_metacallEN11QMetaObject4CallEiPPv
libAudioDevice_qtaudio.so:_ZN10AudioDevQt11qt_metacastEPKc
libAudioDevice_qtaudio.so:_ZN10AudioDevQt12defaultInputEv
libAudioDevice_qtaudio.so:_ZN10AudioDevQt13defaultOutputEv
libAudioDevice_qtaudio.so:_ZN10AudioDevQt15preferredFormatERK7QString
libAudioDevice_qtaudio.so:_ZN10AudioDevQt16staticMetaObjectE
libAudioDevice_qtaudio.so:_ZN10AudioDevQt16supportedFormatsERK7QString
libAudioDevice_qtaudio.so:_ZN10AudioDevQt20supportedSampleRatesERK7QString
libAudioDevice_qtaudio.so:_ZN10AudioDevQt23supportedChannelLayoutsERK7QString
libAudioDevice_qtaudio.so:_ZN10AudioDevQt4initERK7QStringRK11AkAudioCaps
libAudioDevice_qtaudio.so:_ZN10AudioDevQt4readEv
libAudioDevice_qtaudio.so:_ZN10AudioDevQt5writeERK13AkAudioPacket
libAudioDevice_qtaudio.so:_ZN10AudioDevQt6inputsEv
libAudioDevice_qtaudio.so:_ZN10AudioDevQt6uninitEv
libAudioDevice_qtaudio.so:_ZN10AudioDevQt7outputsEv
libAudioDevice_qtaudio.so:_ZN10AudioDevQtC1EP7QObject
libAudioDevice_qtaudio.so:_ZN10AudioDevQtC2EP7QObject
libAudioDevice_qtaudio.so:_ZN10AudioDevQtD0Ev
libAudioDevice_qtaudio.so:_ZN10AudioDevQtD1Ev
libAudioDevice_qtaudio.so:_ZN10AudioDevQtD2Ev
libAudioDevice_qtaudio.so:_ZN17AudioDevQtPrivate13updateDevicesEv
libAudioDevice_qtaudio.so:_ZN17AudioDevQtPrivateC1EP10AudioDevQt
libAudioDevice_qtaudio.so:_ZN17AudioDevQtPrivateC2EP10AudioDevQt
libAudioDevice_qtaudio.so:_ZN17AudioDeviceBuffer11qt_metacallEN11QMetaObject4CallEiPPv
libAudioDevice_qtaudio.so:_ZN17AudioDeviceBuffer11qt_metacastEPKc
libAudioDevice_qtaudio.so:_ZN17AudioDeviceBuffer12setBlockSizeEx
libAudioDevice_qtaudio.so:_ZN17AudioDeviceBuffer14resetBlockSizeEv
libAudioDevice_qtaudio.so:_ZN17AudioDeviceBuffer16blockSizeChangedEx
libAudioDevice_qtaudio.so:_ZN17AudioDeviceBuffer16setMaxBufferSizeEx
libAudioDevice_qtaudio.so:_ZN17AudioDeviceBuffer16staticMetaObjectE
libAudioDevice_qtaudio.so:_ZN17AudioDeviceBuffer16waitForReadyReadEi
libAudioDevice_qtaudio.so:_ZN17AudioDeviceBuffer18resetMaxBufferSizeEv
libAudioDevice_qtaudio.so:_ZN17AudioDeviceBuffer19waitForBytesWrittenEi
libAudioDevice_qtaudio.so:_ZN17AudioDeviceBuffer20maxBufferSizeChangedEx
libAudioDevice_qtaudio.so:_ZN17AudioDeviceBuffer4openE6QFlagsIN13QIODeviceBase12OpenModeFlagEE
libAudioDevice_qtaudio.so:_ZN17AudioDeviceBuffer4seekEx
libAudioDevice_qtaudio.so:_ZN17AudioDeviceBuffer5closeEv
libAudioDevice_qtaudio.so:_ZN17AudioDeviceBuffer5resetEv
libAudioDevice_qtaudio.so:_ZN17AudioDeviceBuffer8readDataEPcx
libAudioDevice_qtaudio.so:_ZN17AudioDeviceBuffer9writeDataEPKcx
libAudioDevice_qtaudio.so:_ZN17AudioDeviceBufferC1EP7QObject
libAudioDevice_qtaudio.so:_ZN17AudioDeviceBufferC2EP7QObject
libAudioDevice_qtaudio.so:_ZN17AudioDeviceBufferD0Ev
libAudioDevice_qtaudio.so:_ZN17AudioDeviceBufferD1Ev
libAudioDevice_qtaudio.so:_ZN17AudioDeviceBufferD2Ev
libAudioDevice_qtaudio.so:_ZN6Plugin11qt_metacallEN11QMetaObject4CallEiPPv
libAudioDevice_qtaudio.so:_ZN6Plugin11qt_metacastEPKc
libAudioDevice_qtaudio.so:_ZN6Plugin16staticMetaObjectE
libAudioDevice_qtaudio.so:_ZN6Plugin6createERK7QStringS2_
libAudioDevice_qtaudio.so:_ZN8AudioDev10setLatencyEi
libAudioDevice_qtaudio.so:_ZN8AudioDev11descriptionERK7QString
libAudioDevice_qtaudio.so:_ZN8AudioDev11qt_metacallEN11QMetaObject4CallEiPPv
libAudioDevice_qtaudio.so:_ZN8AudioDev11qt_metacastEPKc
libAudioDevice_qtaudio.so:_ZN8AudioDev12defaultInputEv
libAudioDevice_qtaudio.so:_ZN8AudioDev12errorChangedERK7QString
libAudioDevice_qtaudio.so:_ZN8AudioDev12resetLatencyEv
libAudioDevice_qtaudio.so:_ZN8AudioDev13defaultOutputEv
libAudioDevice_qtaudio.so:_ZN8AudioDev13inputsChangedERK5QListI7QStringE
libAudioDevice_qtaudio.so:_ZN8AudioDev14latencyChangedEi
libAudioDevice_qtaudio.so:_ZN8AudioDev14outputsChangedERK5QListI7QStringE
libAudioDevice_qtaudio.so:_ZN8AudioDev15preferredFormatERK7QString
libAudioDevice_qtaudio.so:_ZN8AudioDev16staticMetaObjectE
libAudioDevice_qtaudio.so:_ZN8AudioDev16supportedFormatsERK7QString
libAudioDevice_qtaudio.so:_ZN8AudioDev19defaultInputChangedERK7QString
libAudioDevice_qtaudio.so:_ZN8AudioDev20defaultOutputChangedERK7QString
libAudioDevice_qtaudio.so:_ZN8AudioDev20supportedSampleRatesERK7QString
libAudioDevice_qtaudio.so:_ZN8AudioDev23supportedChannelLayoutsERK7QString
libAudioDevice_qtaudio.so:_ZN8AudioDev4initERK7QStringRK11AkAudioCaps
libAudioDevice_qtaudio.so:_ZN8AudioDev4readEv
libAudioDevice_qtaudio.so:_ZN8AudioDev5writeERK13AkAudioPacket
libAudioDevice_qtaudio.so:_ZN8AudioDev6inputsEv
libAudioDevice_qtaudio.so:_ZN8AudioDev6uninitEv
libAudioDevice_qtaudio.so:_ZN8AudioDev7outputsEv
libAudioDevice_qtaudio.so:_ZN8AudioDevC1EP7QObject
libAudioDevice_qtaudio.so:_ZN8AudioDevC2EP7QObject
libAudioDevice_qtaudio.so:_ZN8AudioDevD0Ev
libAudioDevice_qtaudio.so:_ZN8AudioDevD1Ev
libAudioDevice_qtaudio.so:_ZN8AudioDevD2Ev
libAudioDevice_qtaudio.so:_ZNK10AudioDevQt10metaObjectEv
libAudioDevice_qtaudio.so:_ZNK10AudioDevQt5errorEv
libAudioDevice_qtaudio.so:_ZNK17AudioDeviceBuffer10metaObjectEv
libAudioDevice_qtaudio.so:_ZNK17AudioDeviceBuffer11canReadLineEv
libAudioDevice_qtaudio.so:_ZNK17AudioDeviceBuffer12bytesToWriteEv
libAudioDevice_qtaudio.so:_ZNK17AudioDeviceBuffer12isSequentialEv
libAudioDevice_qtaudio.so:_ZNK17AudioDeviceBuffer13maxBufferSizeEv
libAudioDevice_qtaudio.so:_ZNK17AudioDeviceBuffer14bytesAvailableEv
libAudioDevice_qtaudio.so:_ZNK17AudioDeviceBuffer3posEv
libAudioDevice_qtaudio.so:_ZNK17AudioDeviceBuffer4sizeEv
libAudioDevice_qtaudio.so:_ZNK17AudioDeviceBuffer5atEndEv
libAudioDevice_qtaudio.so:_ZNK17AudioDeviceBuffer9blockSizeEv
libAudioDevice_qtaudio.so:_ZNK6Plugin10metaObjectEv
libAudioDevice_qtaudio.so:_ZNK6Plugin4keysEv
libAudioDevice_qtaudio.so:_ZNK8AudioDev10metaObjectEv
libAudioDevice_qtaudio.so:_ZNK8AudioDev17commonSampleRatesEv
libAudioDevice_qtaudio.so:_ZNK8AudioDev5errorEv
libAudioDevice_qtaudio.so:_ZNK8AudioDev7latencyEv
libAudioDevice_qtaudio.so:_ZThn16_N6Plugin6createERK7QStringS2_
libAudioDevice_qtaudio.so:_ZThn16_NK6Plugin4keysEv
libAudioDevice_qtaudio.so:qt_plugin_instance
libAudioDevice_qtaudio.so:qt_plugin_query_metadata_v2
libAudioGen.so:_ZN15AudioGenElement11capsChangedERK11AkAudioCaps
libAudioGen.so:_ZN15AudioGenElement11qt_metacallEN11QMetaObject4CallEiPPv
libAudioGen.so:_ZN15AudioGenElement11qt_metacastEPKc
libAudioGen.so:_ZN15AudioGenElement11resetVolumeEv
libAudioGen.so:_ZN15AudioGenElement11setWaveTypeERK7QString
libAudioGen.so:_ZN15AudioGenElement12setFrequencyEd
libAudioGen.so:_ZN15AudioGenElement13resetWaveTypeEv
libAudioGen.so:_ZN15AudioGenElement13volumeChangedEd
libAudioGen.so:_ZN15AudioGenElement14resetFrequencyEv
libAudioGen.so:_ZN15AudioGenElement15waveTypeChangedERK7QString
libAudioGen.so:_ZN15AudioGenElement16frequencyChangedEd
libAudioGen.so:_ZN15AudioGenElement16staticMetaObjectE
libAudioGen.so:_ZN15AudioGenElement17setSampleDurationEd
libAudioGen.so:_ZN15AudioGenElement19resetSampleDurationEv
libAudioGen.so:_ZN15AudioGenElement21sampleDurationChangedEd
libAudioGen.so:_ZN15AudioGenElement7setCapsERK11AkAudioCaps
libAudioGen.so:_ZN15AudioGenElement8setStateEN9AkElement12ElementStateE
libAudioGen.so:_ZN15AudioGenElement9resetCapsEv
libAudioGen.so:_ZN15AudioGenElement9setVolumeEd
libAudioGen.so:_ZN15AudioGenElementC1Ev
libAudioGen.so:_ZN15AudioGenElementC2Ev
libAudioGen.so:_ZN15AudioGenElementD0Ev
libAudioGen.so:_ZN15AudioGenElementD1Ev
libAudioGen.so:_ZN15AudioGenElementD2Ev
libAudioGen.so:_ZN22AudioGenElementPrivate14readFramesLoopEv
libAudioGen.so:_ZN22AudioGenElementPrivateC1EP15AudioGenElement
libAudioGen.so:_ZN22AudioGenElementPrivateC2EP15AudioGenElement
libAudioGen.so:_ZN8AudioGen11qt_metacallEN11QMetaObject4CallEiPPv
libAudioGen.so:_ZN8AudioGen11qt_metacastEPKc
libAudioGen.so:_ZN8AudioGen16staticMetaObjectE
libAudioGen.so:_ZN8AudioGen6createERK7QStringS2_
libAudioGen.so:_ZNK15AudioGenElement10metaObjectEv
libAudioGen.so:_ZNK15AudioGenElement14sampleDurationEv
libAudioGen.so:_ZNK15AudioGenElement4capsEv
libAudioGen.so:_ZNK15AudioGenElement6volumeEv
libAudioGen.so:_ZNK15AudioGenElement8waveTypeEv
libAudioGen.so:_ZNK15AudioGenElement9frequencyEv
libAudioGen.so:_ZNK8AudioGen10metaObjectEv
libAudioGen.so:_ZNK8AudioGen4keysEv
libAudioGen.so:_ZThn16_N8AudioGen6createERK7QStringS2_
libAudioGen.so:_ZThn16_NK8AudioGen4keysEv
libAudioGen.so:qt_plugin_instance
libAudioGen.so:qt_plugin_query_metadata_v2
libBlur.so:_Z19qInitResources_Blurv
libBlur.so:_Z22qCleanupResources_Blurv
libBlur.so:_ZN11BlurElement11qt_metacallEN11QMetaObject4CallEiPPv
libBlur.so:_ZN11BlurElement11qt_metacastEPKc
libBlur.so:_ZN11BlurElement11resetRadiusEv
libBlur.so:_ZN11BlurElement12iVideoStreamERK13AkVideoPacket
libBlur.so:_ZN11BlurElement13radiusChangedEi
libBlur.so:_ZN11BlurElement16staticMetaObjectE
libBlur.so:_ZN11BlurElement9setRadiusEi
libBlur.so:_ZN11BlurElementC1Ev
libBlur.so:_ZN11BlurElementC2Ev
libBlur.so:_ZN11BlurElementD0Ev
libBlur.so:_ZN11BlurElementD1Ev
libBlur.so:_ZN11BlurElementD2Ev
libBlur.so:_ZN18BlurElementPrivate13integralImageERK13AkVideoPacketP5PixelIjE
libBlur.so:_ZN4Blur11qt_metacallEN11QMetaObject4CallEiPPv
libBlur.so:_ZN4Blur11qt_metacastEPKc
libBlur.so:_ZN4Blur16staticMetaObjectE
libBlur.so:_ZN4Blur6createERK7QStringS2_
libBlur.so:_ZNK11BlurElement10metaObjectEv
libBlur.so:_ZNK11BlurElement23controlInterfaceProvideERK7QString
libBlur.so:_ZNK11BlurElement25controlInterfaceConfigureEP11QQmlContextRK7QString
libBlur.so:_ZNK11BlurElement6radiusEv
libBlur.so:_ZNK4Blur10metaObjectEv
libBlur.so:_ZNK4Blur4keysEv
libBlur.so:_ZThn16_N4Blur6createERK7QStringS2_
libBlur.so:_ZThn16_NK4Blur4keysEv
libBlur.so:qt_plugin_instance
libBlur.so:qt_plugin_query_metadata_v2
libCartoon.so:_Z22qInitResources_Cartoonv
libCartoon.so:_Z25qCleanupResources_Cartoonv
libCartoon.so:_ZN14CartoonElement10setNColorsEi
libCartoon.so:_ZN14CartoonElement11qt_metacallEN11QMetaObject4CallEiPPv
libCartoon.so:_ZN14CartoonElement11qt_metacastEPKc
libCartoon.so:_ZN14CartoonElement11setScanSizeERK5QSize
libCartoon.so:_ZN14CartoonElement12iVideoStreamERK13AkVideoPacket
libCartoon.so:_ZN14CartoonElement12resetNColorsEv
libCartoon.so:_ZN14CartoonElement12setColorDiffEi
libCartoon.so:_ZN14CartoonElement12setLineColorEj
libCartoon.so:_ZN14CartoonElement12setShowEdgesEb
libCartoon.so:_ZN14CartoonElement13resetScanSizeEv
libCartoon.so:_ZN14CartoonElement14ncolorsChangedEi
libCartoon.so:_ZN14CartoonElement14resetColorDiffEv
libCartoon.so:_ZN14CartoonElement14resetLineColorEv
libCartoon.so:_ZN14CartoonElement14resetShowEdgesEv
libCartoon.so:_ZN14CartoonElement14setThresholdHiEi
libCartoon.so:_ZN14CartoonElement15scanSizeChangedERK5QSize
libCartoon.so:_ZN14CartoonElement15setThresholdLowEi
libCartoon.so:_ZN14CartoonElement16colorDiffChangedEi
libCartoon.so:_ZN14CartoonElement16lineColorChangedEj
libCartoon.so:_ZN14CartoonElement16resetThresholdHiEv
libCartoon.so:_ZN14CartoonElement16showEdgesChangedEb
libCartoon.so:_ZN14CartoonElement16staticMetaObjectE
libCartoon.so:_ZN14CartoonElement17resetThresholdLowEv
libCartoon.so:_ZN14CartoonElement18thresholdHiChangedEi
libCartoon.so:_ZN14CartoonElement19thresholdLowChangedEi
libCartoon.so:_ZN14CartoonElementC1Ev
libCartoon.so:_ZN14CartoonElementC2Ev
libCartoon.so:_ZN14CartoonElementD0Ev
libCartoon.so:_ZN14CartoonElementD1Ev
libCartoon.so:_ZN14CartoonElementD2Ev
libCartoon.so:_ZN21CartoonElementPrivate13updatePaletteERK13AkVideoPacketii
libCartoon.so:_ZN7Cartoon11qt_metacallEN11QMetaObject4CallEiPPv
libCartoon.so:_ZN7Cartoon11qt_metacastEPKc
libCartoon.so:_ZN7Cartoon16staticMetaObjectE
libCartoon.so:_ZN7Cartoon6createERK7QStringS2_
libCartoon.so:_ZNK14CartoonElement10metaObjectEv
libCartoon.so:_ZNK14CartoonElement11thresholdHiEv
libCartoon.so:_ZNK14CartoonElement12thresholdLowEv
libCartoon.so:_ZNK14CartoonElement23controlInterfaceProvideERK7QString
libCartoon.so:_ZNK14CartoonElement25controlInterfaceConfigureEP11QQmlContextRK7QString
libCartoon.so:_ZNK14CartoonElement7ncolorsEv
libCartoon.so:_ZNK14CartoonElement8scanSizeEv
libCartoon.so:_ZNK14CartoonElement9colorDiffEv
libCartoon.so:_ZNK14CartoonElement9lineColorEv
libCartoon.so:_ZNK14CartoonElement9showEdgesEv
libCartoon.so:_ZNK21CartoonElementPrivate12nearestColorEPKtmt
libCartoon.so:_ZNK21CartoonElementPrivate5edgesERK13AkVideoPacketiij
libCartoon.so:_ZNK7Cartoon10metaObjectEv
libCartoon.so:_ZNK7Cartoon4keysEv
libCartoon.so:_ZThn16_N7Cartoon6createERK7QStringS2_
libCartoon.so:_ZThn16_NK7Cartoon4keysEv
libCartoon.so:qt_plugin_instance
libCartoon.so:qt_plugin_query_metadata_v2
libChangeHSL.so:_Z24qInitResources_ChangeHSLv
libChangeHSL.so:_Z27qCleanupResources_ChangeHSLv
libChangeHSL.so:_ZN16ChangeHSLElement11qt_metacallEN11QMetaObject4CallEiPPv
libChangeHSL.so:_ZN16ChangeHSLElement11qt_metacastEPKc
libChangeHSL.so:_ZN16ChangeHSLElement11resetKernelEv
libChangeHSL.so:_ZN16ChangeHSLElement12iVideoStreamERK13AkVideoPacket
libChangeHSL.so:_ZN16ChangeHSLElement13kernelChangedERK5QListI8QVariantE
libChangeHSL.so:_ZN16ChangeHSLElement16staticMetaObjectE
libChangeHSL.so:_ZN16ChangeHSLElement9setKernelERK5QListI8QVariantE
libChangeHSL.so:_ZN16ChangeHSLElementC1Ev
libChangeHSL.so:_ZN16ChangeHSLElementC2Ev
libChangeHSL.so:_ZN16ChangeHSLElementD0Ev
libChangeHSL.so:_ZN16ChangeHSLElementD1Ev
libChangeHSL.so:_ZN16ChangeHSLElementD2Ev
libChangeHSL.so:_ZN9ChangeHSL11qt_metacallEN11QMetaObject4CallEiPPv
libChangeHSL.so:_ZN9ChangeHSL11qt_metacastEPKc
libChangeHSL.so:_ZN9ChangeHSL16staticMetaObjectE
libChangeHSL.so:_ZN9ChangeHSL6createERK7QStringS2_
libChangeHSL.so:_ZNK16ChangeHSLElement10metaObjectEv
libChangeHSL.so:_ZNK16ChangeHSLElement23controlInterfaceProvideERK7QString
libChangeHSL.so:_ZNK16ChangeHSLElement25controlInterfaceConfigureEP11QQmlContextRK7QString
libChangeHSL.so:_ZNK16ChangeHSLElement6kernelEv
libChangeHSL.so:_ZNK9ChangeHSL10metaObjectEv
libChangeHSL.so:_ZNK9ChangeHSL4keysEv
libChangeHSL.so:_ZThn16_N9ChangeHSL6createERK7QStringS2_
libChangeHSL.so:_ZThn16_NK9ChangeHSL4keysEv
libChangeHSL.so:qt_plugin_instance
libChangeHSL.so:qt_plugin_query_metadata_v2
libCharify.so:_Z22qInitResources_Charifyv
libCharify.so:_Z25qCleanupResources_Charifyv
libCharify.so:_ZN14CharifyElement11fontChangedERK5QFont
libCharify.so:_ZN14CharifyElement11modeChangedENS_9ColorModeE
libCharify.so:_ZN14CharifyElement11qt_metacallEN11QMetaObject4CallEiPPv
libCharify.so:_ZN14CharifyElement11qt_metacastEPKc
libCharify.so:_ZN14CharifyElement11resetSmoothEv
libCharify.so:_ZN14CharifyElement11setReversedEb
libCharify.so:_ZN14CharifyElement12iVideoStreamERK13AkVideoPacket
libCharify.so:_ZN14CharifyElement12setCharTableERK7QString
libCharify.so:_ZN14CharifyElement13resetReversedEv
libCharify.so:_ZN14CharifyElement13smoothChangedEb
libCharify.so:_ZN14CharifyElement14resetCharTableEv
libCharify.so:_ZN14CharifyElement15reversedChangedEb
libCharify.so:_ZN14CharifyElement16charTableChangedERK7QString
libCharify.so:_ZN14CharifyElement16setStyleStrategyERK7QString
libCharify.so:_ZN14CharifyElement16staticMetaObjectE
libCharify.so:_ZN14CharifyElement18resetStyleStrategyEv
libCharify.so:_ZN14CharifyElement18setBackgroundColorEj
libCharify.so:_ZN14CharifyElement18setForegroundColorEj
libCharify.so:_ZN14CharifyElement20resetBackgroundColorEv
libCharify.so:_ZN14CharifyElement20resetForegroundColorEv
libCharify.so:_ZN14CharifyElement20setHintingPreferenceERK7QString
libCharify.so:_ZN14CharifyElement20styleStrategyChangedERK7QString
libCharify.so:_ZN14CharifyElement22backgroundColorChangedEj
libCharify.so:_ZN14CharifyElement22foregroundColorChangedEj
libCharify.so:_ZN14CharifyElement22resetHintingPreferenceEv
libCharify.so:_ZN14CharifyElement24hintingPreferenceChangedERK7QString
libCharify.so:_ZN14CharifyElement7setFontERK5QFont
libCharify.so:_ZN14CharifyElement7setModeENS_9ColorModeE
libCharify.so:_ZN14CharifyElement9resetFontEv
libCharify.so:_ZN14CharifyElement9resetModeEv
libCharify.so:_ZN14CharifyElement9setSmoothEb
libCharify.so:_ZN14CharifyElementC1Ev
libCharify.so:_ZN14CharifyElementC2Ev
libCharify.so:_ZN14CharifyElementD0Ev
libCharify.so:_ZN14CharifyElementD1Ev
libCharify.so:_ZN14CharifyElementD2Ev
libCharify.so:_ZN21CharifyElementPrivate10createMaskERK13AkVideoPacketRK5QSizePK9Character
libCharify.so:_ZN21CharifyElementPrivate13updatePaletteEv
libCharify.so:_ZN21CharifyElementPrivate15updateCharTableEv
libCharify.so:_ZN7Charify11qt_metacallEN11QMetaObject4CallEiPPv
libCharify.so:_ZN7Charify11qt_metacastEPKc
libCharify.so:_ZN7Charify16staticMetaObjectE
libCharify.so:_ZN7Charify6createERK7QStringS2_
libCharify.so:_ZN9CharacterC1ERK5QCharRK5QFontRK5QSizeb
libCharify.so:_ZN9CharacterC1ERKS_
libCharify.so:_ZN9CharacterC1Ev
libCharify.so:_ZN9CharacterC2ERK5QCharRK5QFontRK5QSizeb
libCharify.so:_ZN9CharacterC2ERKS_
libCharify.so:_ZN9CharacterC2Ev
libCharify.so:_ZN9CharacterD1Ev
libCharify.so:_ZN9CharacterD2Ev
libCharify.so:_ZN9CharacteraSERKS_
libCharify.so:_ZNK14CharifyElement10metaObjectEv
libCharify.so:_ZNK14CharifyElement13styleStrategyEv
libCharify.so:_ZNK14CharifyElement15backgroundColorEv
libCharify.so:_ZNK14CharifyElement15foregroundColorEv
libCharify.so:_ZNK14CharifyElement17hintingPreferenceEv
libCharify.so:_ZNK14CharifyElement23controlInterfaceProvideERK7QString
libCharify.so:_ZNK14CharifyElement25controlInterfaceConfigureEP11QQmlContextRK7QString
libCharify.so:_ZNK14CharifyElement4fontEv
libCharify.so:_ZNK14CharifyElement4modeEv
libCharify.so:_ZNK14CharifyElement6smoothEv
libCharify.so:_ZNK14CharifyElement8reversedEv
libCharify.so:_ZNK14CharifyElement9charTableEv
libCharify.so:_ZNK16CharacterPrivate11imageWeightERK13AkVideoPacketb
libCharify.so:_ZNK16CharacterPrivate8drawCharERK5QCharRK5QFontRK5QSize
libCharify.so:_ZNK21CharifyElementPrivate8fontSizeERK5QCharRK5QFont
libCharify.so:_ZNK21CharifyElementPrivate8fontSizeERK7QStringRK5QFont
libCharify.so:_ZNK7Charify10metaObjectEv
libCharify.so:_ZNK7Charify4keysEv
libCharify.so:_ZNK9Character3chrEv
libCharify.so:_ZNK9Character5imageEv
libCharify.so:_ZNK9Character6weightEv
libCharify.so:_ZThn16_N7Charify6createERK7QStringS2_
libCharify.so:_ZThn16_NK7Charify4keysEv
libCharify.so:_ZlsR11QDataStreamN14CharifyElement9ColorModeE
libCharify.so:_ZrsR11QDataStreamRN14CharifyElement9ColorModeE
libCharify.so:qt_plugin_instance
libCharify.so:qt_plugin_query_metadata_v2
libCinema.so:_Z21qInitResources_Cinemav
libCinema.so:_Z24qCleanupResources_Cinemav
libCinema.so:_ZN13CinemaElement11qt_metacallEN11QMetaObject4CallEiPPv
libCinema.so:_ZN13CinemaElement11qt_metacastEPKc
libCinema.so:_ZN13CinemaElement12iVideoStreamERK13AkVideoPacket
libCinema.so:_ZN13CinemaElement12setStripSizeEd
libCinema.so:_ZN13CinemaElement13setStripColorEj
libCinema.so:_ZN13CinemaElement14resetStripSizeEv
libCinema.so:_ZN13CinemaElement15resetStripColorEv
libCinema.so:_ZN13CinemaElement16staticMetaObjectE
libCinema.so:_ZN13CinemaElement16stripSizeChangedEd
libCinema.so:_ZN13CinemaElement17stripColorChangedEj
libCinema.so:_ZN13CinemaElementC1Ev
libCinema.so:_ZN13CinemaElementC2Ev
libCinema.so:_ZN13CinemaElementD0Ev
libCinema.so:_ZN13CinemaElementD1Ev
libCinema.so:_ZN13CinemaElementD2Ev
libCinema.so:_ZN6Cinema11qt_metacallEN11QMetaObject4CallEiPPv
libCinema.so:_ZN6Cinema11qt_metacastEPKc
libCinema.so:_ZN6Cinema16staticMetaObjectE
libCinema.so:_ZN6Cinema6createERK7QStringS2_
libCinema.so:_ZNK13CinemaElement10metaObjectEv
libCinema.so:_ZNK13CinemaElement10stripColorEv
libCinema.so:_ZNK13CinemaElement23controlInterfaceProvideERK7QString
libCinema.so:_ZNK13CinemaElement25controlInterfaceConfigureEP11QQmlContextRK7QString
libCinema.so:_ZNK13CinemaElement9stripSizeEv
libCinema.so:_ZNK6Cinema10metaObjectEv
libCinema.so:_ZNK6Cinema4keysEv
libCinema.so:_ZThn16_N6Cinema6createERK7QStringS2_
libCinema.so:_ZThn16_NK6Cinema4keysEv
libCinema.so:qt_plugin_instance
libCinema.so:qt_plugin_query_metadata_v2
libColorFilter.so:_Z26qInitResources_ColorFilterv
libColorFilter.so:_Z29qCleanupResources_ColorFilterv
libColorFilter.so:_ZN11ColorFilter11qt_metacallEN11QMetaObject4CallEiPPv
libColorFilter.so:_ZN11ColorFilter11qt_metacastEPKc
libColorFilter.so:_ZN11ColorFilter16staticMetaObjectE
libColorFilter.so:_ZN11ColorFilter6createERK7QStringS2_
libColorFilter.so:_ZN18ColorFilterElement10resetColorEv
libColorFilter.so:_ZN18ColorFilterElement10setDisableEb
libColorFilter.so:_ZN18ColorFilterElement11qt_metacallEN11QMetaObject4CallEiPPv
libColorFilter.so:_ZN18ColorFilterElement11qt_metacastEPKc
libColorFilter.so:_ZN18ColorFilterElement11resetRadiusEv
libColorFilter.so:_ZN18ColorFilterElement11softChangedEb
libColorFilter.so:_ZN18ColorFilterElement12colorChangedEj
libColorFilter.so:_ZN18ColorFilterElement12iVideoStreamERK13AkVideoPacket
libColorFilter.so:_ZN18ColorFilterElement12resetDisableEv
libColorFilter.so:_ZN18ColorFilterElement13radiusChangedEi
libColorFilter.so:_ZN18ColorFilterElement14disableChangedEb
libColorFilter.so:_ZN18ColorFilterElement16staticMetaObjectE
libColorFilter.so:_ZN18ColorFilterElement7setSoftEb
libColorFilter.so:_ZN18ColorFilterElement8setColorEj
libColorFilter.so:_ZN18ColorFilterElement9resetSoftEv
libColorFilter.so:_ZN18ColorFilterElement9setRadiusEi
libColorFilter.so:_ZN18ColorFilterElementC1Ev
libColorFilter.so:_ZN18ColorFilterElementC2Ev
libColorFilter.so:_ZN18ColorFilterElementD0Ev
libColorFilter.so:_ZN18ColorFilterElementD1Ev
libColorFilter.so:_ZN18ColorFilterElementD2Ev
libColorFilter.so:_ZNK11ColorFilter10metaObjectEv
libColorFilter.so:_ZNK11ColorFilter4keysEv
libColorFilter.so:_ZNK18ColorFilterElement10metaObjectEv
libColorFilter.so:_ZNK18ColorFilterElement23controlInterfaceProvideERK7QString
libColorFilter.so:_ZNK18ColorFilterElement25controlInterfaceConfigureEP11QQmlContextRK7QString
libColorFilter.so:_ZNK18ColorFilterElement4softEv
libColorFilter.so:_ZNK18ColorFilterElement5colorEv
libColorFilter.so:_ZNK18ColorFilterElement6radiusEv
libColorFilter.so:_ZNK18ColorFilterElement7disableEv
libColorFilter.so:_ZThn16_N11ColorFilter6createERK7QStringS2_
libColorFilter.so:_ZThn16_NK11ColorFilter4keysEv
libColorFilter.so:qt_plugin_instance
libColorFilter.so:qt_plugin_query_metadata_v2
libColorKey.so:_Z23qInitResources_ColorKeyv
libColorKey.so:_Z26qCleanupResources_ColorKeyv
libColorKey.so:_ZN15ColorKeyElement11qt_metacallEN11QMetaObject4CallEiPPv
libColorKey.so:_ZN15ColorKeyElement11qt_metacastEPKc
libColorKey.so:_ZN15ColorKeyElement11setColorKeyEj
libColorKey.so:_ZN15ColorKeyElement12iVideoStreamERK13AkVideoPacket
libColorKey.so:_ZN15ColorKeyElement12setColorDiffEi
libColorKey.so:_ZN15ColorKeyElement12setNormalizeEb
libColorKey.so:_ZN15ColorKeyElement13resetColorKeyEv
libColorKey.so:_ZN15ColorKeyElement13setBackgroundERK7QString
libColorKey.so:_ZN15ColorKeyElement13setSmoothnessEi
libColorKey.so:_ZN15ColorKeyElement14resetColorDiffEv
libColorKey.so:_ZN15ColorKeyElement14resetNormalizeEv
libColorKey.so:_ZN15ColorKeyElement15colorKeyChangedEj
libColorKey.so:_ZN15ColorKeyElement15resetBackgroundEv
libColorKey.so:_ZN15ColorKeyElement15resetSmoothnessEv
libColorKey.so:_ZN15ColorKeyElement16colorDiffChangedEi
libColorKey.so:_ZN15ColorKeyElement16normalizeChangedEb
libColorKey.so:_ZN15ColorKeyElement16staticMetaObjectE
libColorKey.so:_ZN15ColorKeyElement17backgroundChangedERK7QString
libColorKey.so:_ZN15ColorKeyElement17setBackgroundTypeENS_14BackgroundTypeE
libColorKey.so:_ZN15ColorKeyElement17smoothnessChangedEi
libColorKey.so:_ZN15ColorKeyElement18setBackgroundColorEj
libColorKey.so:_ZN15ColorKeyElement19resetBackgroundTypeEv
libColorKey.so:_ZN15ColorKeyElement20resetBackgroundColorEv
libColorKey.so:_ZN15ColorKeyElement21backgroundTypeChangedENS_14BackgroundTypeE
libColorKey.so:_ZN15ColorKeyElement22backgroundColorChangedEj
libColorKey.so:_ZN15ColorKeyElementC1Ev
libColorKey.so:_ZN15ColorKeyElementC2Ev
libColorKey.so:_ZN15ColorKeyElementD0Ev
libColorKey.so:_ZN15ColorKeyElementD1Ev
libColorKey.so:_ZN15ColorKeyElementD2Ev
libColorKey.so:_ZN8ColorKey11qt_metacallEN11QMetaObject4CallEiPPv
libColorKey.so:_ZN8ColorKey11qt_metacastEPKc
libColorKey.so:_ZN8ColorKey16staticMetaObjectE
libColorKey.so:_ZN8ColorKey6createERK7QStringS2_
libColorKey.so:_ZNK15ColorKeyElement10backgroundEv
libColorKey.so:_ZNK15ColorKeyElement10metaObjectEv
libColorKey.so:_ZNK15ColorKeyElement10smoothnessEv
libColorKey.so:_ZNK15ColorKeyElement14backgroundTypeEv
libColorKey.so:_ZNK15ColorKeyElement15backgroundColorEv
libColorKey.so:_ZNK15ColorKeyElement23controlInterfaceProvideERK7QString
libColorKey.so:_ZNK15ColorKeyElement25controlInterfaceConfigureEP11QQmlContextRK7QString
libColorKey.so:_ZNK15ColorKeyElement8colorKeyEv
libColorKey.so:_ZNK15ColorKeyElement9colorDiffEv
libColorKey.so:_ZNK15ColorKeyElement9normalizeEv
libColorKey.so:_ZNK8ColorKey10metaObjectEv
libColorKey.so:_ZNK8ColorKey4keysEv
libColorKey.so:_ZThn16_N8ColorKey6createERK7QStringS2_
libColorKey.so:_ZThn16_NK8ColorKey4keysEv
libColorKey.so:_ZlsR11QDataStreamN15ColorKeyElement14BackgroundTypeE
libColorKey.so:_ZrsR11QDataStreamRN15ColorKeyElement14BackgroundTypeE
libColorKey.so:qt_plugin_instance
libColorKey.so:qt_plugin_query_metadata_v2
libColorReplace.so:_Z27qInitResources_ColorReplacev
libColorReplace.so:_Z30qCleanupResources_ColorReplacev
libColorReplace.so:_ZN12ColorReplace11qt_metacallEN11QMetaObject4CallEiPPv
libColorReplace.so:_ZN12ColorReplace11qt_metacastEPKc
libColorReplace.so:_ZN12ColorReplace16staticMetaObjectE
libColorReplace.so:_ZN12ColorReplace6createERK7QStringS2_
libColorReplace.so:_ZN19ColorReplaceElement10setDisableEb
libColorReplace.so:_ZN19ColorReplaceElement11fromChangedEj
libColorReplace.so:_ZN19ColorReplaceElement11qt_metacallEN11QMetaObject4CallEiPPv
libColorReplace.so:_ZN19ColorReplaceElement11qt_metacastEPKc
libColorReplace.so:_ZN19ColorReplaceElement11resetRadiusEv
libColorReplace.so:_ZN19ColorReplaceElement11softChangedEb
libColorReplace.so:_ZN19ColorReplaceElement12iVideoStreamERK13AkVideoPacket
libColorReplace.so:_ZN19ColorReplaceElement12resetDisableEv
libColorReplace.so:_ZN19ColorReplaceElement13radiusChangedEi
libColorReplace.so:_ZN19ColorReplaceElement14disableChangedEb
libColorReplace.so:_ZN19ColorReplaceElement16staticMetaObjectE
libColorReplace.so:_ZN19ColorReplaceElement5setToEj
libColorReplace.so:_ZN19ColorReplaceElement7resetToEv
libColorReplace.so:_ZN19ColorReplaceElement7setFromEj
libColorReplace.so:_ZN19ColorReplaceElement7setSoftEb
libColorReplace.so:_ZN19ColorReplaceElement9resetFromEv
libColorReplace.so:_ZN19ColorReplaceElement9resetSoftEv
libColorReplace.so:_ZN19ColorReplaceElement9setRadiusEi
libColorReplace.so:_ZN19ColorReplaceElement9toChangedEj
libColorReplace.so:_ZN19ColorReplaceElementC1Ev
libColorReplace.so:_ZN19ColorReplaceElementC2Ev
libColorReplace.so:_ZN19ColorReplaceElementD0Ev
libColorReplace.so:_ZN19ColorReplaceElementD1Ev
libColorReplace.so:_ZN19ColorReplaceElementD2Ev
libColorReplace.so:_ZNK12ColorReplace10metaObjectEv
libColorReplace.so:_ZNK12ColorReplace4keysEv
libColorReplace.so:_ZNK19ColorReplaceElement10metaObjectEv
libColorReplace.so:_ZNK19ColorReplaceElement23controlInterfaceProvideERK7QString
libColorReplace.so:_ZNK19ColorReplaceElement25controlInterfaceConfigureEP11QQmlContextRK7QString
libColorReplace.so:_ZNK19ColorReplaceElement2toEv
libColorReplace.so:_ZNK19ColorReplaceElement4fromEv
libColorReplace.so:_ZNK19ColorReplaceElement4softEv
libColorReplace.so:_ZNK19ColorReplaceElement6radiusEv
libColorReplace.so:_ZNK19ColorReplaceElement7disableEv
libColorReplace.so:_ZThn16_N12ColorReplace6createERK7QStringS2_
libColorReplace.so:_ZThn16_NK12ColorReplace4keysEv
libColorReplace.so:qt_plugin_instance
libColorReplace.so:qt_plugin_query_metadata_v2
libColorTap.so:_Z23qInitResources_ColorTapv
libColorTap.so:_Z26qCleanupResources_ColorTapv
libColorTap.so:_ZN15ColorTapElement10resetTableEv
libColorTap.so:_ZN15ColorTapElement11qt_metacallEN11QMetaObject4CallEiPPv
libColorTap.so:_ZN15ColorTapElement11qt_metacastEPKc
libColorTap.so:_ZN15ColorTapElement12iVideoStreamERK13AkVideoPacket
libColorTap.so:_ZN15ColorTapElement12tableChangedERK7QString
libColorTap.so:_ZN15ColorTapElement16staticMetaObjectE
libColorTap.so:_ZN15ColorTapElement8setTableERK7QString
libColorTap.so:_ZN15ColorTapElementC1Ev
libColorTap.so:_ZN15ColorTapElementC2Ev
libColorTap.so:_ZN15ColorTapElementD0Ev
libColorTap.so:_ZN15ColorTapElementD1Ev
libColorTap.so:_ZN15ColorTapElementD2Ev
libColorTap.so:_ZN8ColorTap11qt_metacallEN11QMetaObject4CallEiPPv
libColorTap.so:_ZN8ColorTap11qt_metacastEPKc
libColorTap.so:_ZN8ColorTap16staticMetaObjectE
libColorTap.so:_ZN8ColorTap6createERK7QStringS2_
libColorTap.so:_ZNK15ColorTapElement10metaObjectEv
libColorTap.so:_ZNK15ColorTapElement23controlInterfaceProvideERK7QString
libColorTap.so:_ZNK15ColorTapElement25controlInterfaceConfigureEP11QQmlContextRK7QString
libColorTap.so:_ZNK15ColorTapElement5tableEv
libColorTap.so:_ZNK8ColorTap10metaObjectEv
libColorTap.so:_ZNK8ColorTap4keysEv
libColorTap.so:_ZThn16_N8ColorTap6createERK7QStringS2_
libColorTap.so:_ZThn16_NK8ColorTap4keysEv
libColorTap.so:qt_plugin_instance
libColorTap.so:qt_plugin_query_metadata_v2
libColorTransform.so:_Z29qInitResources_ColorTransformv
libColorTransform.so:_Z32qCleanupResources_ColorTransformv
libColorTransform.so:_ZN14ColorTransform11qt_metacallEN11QMetaObject4CallEiPPv
libColorTransform.so:_ZN14ColorTransform11qt_metacastEPKc
libColorTransform.so:_ZN14ColorTransform16staticMetaObjectE
libColorTransform.so:_ZN14ColorTransform6createERK7QStringS2_
libColorTransform.so:_ZN21ColorTransformElement11qt_metacallEN11QMetaObject4CallEiPPv
libColorTransform.so:_ZN21ColorTransformElement11qt_metacastEPKc
libColorTransform.so:_ZN21ColorTransformElement11resetKernelEv
libColorTransform.so:_ZN21ColorTransformElement12iVideoStreamERK13AkVideoPacket
libColorTransform.so:_ZN21ColorTransformElement13kernelChangedERK5QListI8QVariantE
libColorTransform.so:_ZN21ColorTransformElement16staticMetaObjectE
libColorTransform.so:_ZN21ColorTransformElement9setKernelERK5QListI8QVariantE
libColorTransform.so:_ZN21ColorTransformElementC1Ev
libColorTransform.so:_ZN21ColorTransformElementC2Ev
libColorTransform.so:_ZN21ColorTransformElementD0Ev
libColorTransform.so:_ZN21ColorTransformElementD1Ev
libColorTransform.so:_ZN21ColorTransformElementD2Ev
libColorTransform.so:_ZNK14ColorTransform10metaObjectEv
libColorTransform.so:_ZNK14ColorTransform4keysEv
libColorTransform.so:_ZNK21ColorTransformElement10metaObjectEv
libColorTransform.so:_ZNK21ColorTransformElement23controlInterfaceProvideERK7QString
libColorTransform.so:_ZNK21ColorTransformElement25controlInterfaceConfigureEP11QQmlContextRK7QString
libColorTransform.so:_ZNK21ColorTransformElement6kernelEv
libColorTransform.so:_ZThn16_N14ColorTransform6createERK7QStringS2_
libColorTransform.so:_ZThn16_NK14ColorTransform4keysEv
libColorTransform.so:qt_plugin_instance
libColorTransform.so:qt_plugin_query_metadata_v2
libContrast.so:_Z23qInitResources_Contrastv
libContrast.so:_Z26qCleanupResources_Contrastv
libContrast.so:_ZN15ContrastElement11qt_metacallEN11QMetaObject4CallEiPPv
libContrast.so:_ZN15ContrastElement11qt_metacastEPKc
libContrast.so:_ZN15ContrastElement11setContrastEi
libContrast.so:_ZN15ContrastElement12iVideoStreamERK13AkVideoPacket
libContrast.so:_ZN15ContrastElement13resetContrastEv
libContrast.so:_ZN15ContrastElement15contrastChangedEi
libContrast.so:_ZN15ContrastElement16staticMetaObjectE
libContrast.so:_ZN15ContrastElementC1Ev
libContrast.so:_ZN15ContrastElementC2Ev
libContrast.so:_ZN15ContrastElementD0Ev
libContrast.so:_ZN15ContrastElementD1Ev
libContrast.so:_ZN15ContrastElementD2Ev
libContrast.so:_ZN8Contrast11qt_metacallEN11QMetaObject4CallEiPPv
libContrast.so:_ZN8Contrast11qt_metacastEPKc
libContrast.so:_ZN8Contrast16staticMetaObjectE
libContrast.so:_ZN8Contrast6createERK7QStringS2_
libContrast.so:_ZNK15ContrastElement10metaObjectEv
libContrast.so:_ZNK15ContrastElement23controlInterfaceProvideERK7QString
libContrast.so:_ZNK15ContrastElement25controlInterfaceConfigureEP11QQmlContextRK7QString
libContrast.so:_ZNK15ContrastElement8contrastEv
libContrast.so:_ZNK22ContrastElementPrivate13contrastTableEv
libContrast.so:_ZNK22ContrastElementPrivate17initContrastTableEv
libContrast.so:_ZNK8Contrast10metaObjectEv
libContrast.so:_ZNK8Contrast4keysEv
libContrast.so:_ZThn16_N8Contrast6createERK7QStringS2_
libContrast.so:_ZThn16_NK8Contrast4keysEv
libContrast.so:qt_plugin_instance
libContrast.so:qt_plugin_query_metadata_v2
libConvolve.so:_Z23qInitResources_Convolvev
libConvolve.so:_Z26qCleanupResources_Convolvev
libConvolve.so:_ZN15ConvolveElement11biasChangedEi
libConvolve.so:_ZN15ConvolveElement11qt_metacallEN11QMetaObject4CallEiPPv
libConvolve.so:_ZN15ConvolveElement11qt_metacastEPKc
libConvolve.so:_ZN15ConvolveElement11resetFactorEv
libConvolve.so:_ZN15ConvolveElement11resetKernelEv
libConvolve.so:_ZN15ConvolveElement12iVideoStreamERK13AkVideoPacket
libConvolve.so:_ZN15ConvolveElement13factorChangedERK6AkFrac
libConvolve.so:_ZN15ConvolveElement13kernelChangedERK5QListI8QVariantE
libConvolve.so:_ZN15ConvolveElement13setKernelSizeERK5QSize
libConvolve.so:_ZN15ConvolveElement15resetKernelSizeEv
libConvolve.so:_ZN15ConvolveElement16staticMetaObjectE
libConvolve.so:_ZN15ConvolveElement17kernelSizeChangedERK5QSize
libConvolve.so:_ZN15ConvolveElement7setBiasEi
libConvolve.so:_ZN15ConvolveElement9resetBiasEv
libConvolve.so:_ZN15ConvolveElement9setFactorERK6AkFrac
libConvolve.so:_ZN15ConvolveElement9setKernelERK5QListI8QVariantE
libConvolve.so:_ZN15ConvolveElementC1Ev
libConvolve.so:_ZN15ConvolveElementC2Ev
libConvolve.so:_ZN15ConvolveElementD0Ev
libConvolve.so:_ZN15ConvolveElementD1Ev
libConvolve.so:_ZN15ConvolveElementD2Ev
libConvolve.so:_ZN8Convolve11qt_metacallEN11QMetaObject4CallEiPPv
libConvolve.so:_ZN8Convolve11qt_metacastEPKc
libConvolve.so:_ZN8Convolve16staticMetaObjectE
libConvolve.so:_ZN8Convolve6createERK7QStringS2_
libConvolve.so:_ZNK15ConvolveElement10kernelSizeEv
libConvolve.so:_ZNK15ConvolveElement10metaObjectEv
libConvolve.so:_ZNK15ConvolveElement23controlInterfaceProvideERK7QString
libConvolve.so:_ZNK15ConvolveElement25controlInterfaceConfigureEP11QQmlContextRK7QString
libConvolve.so:_ZNK15ConvolveElement4biasEv
libConvolve.so:_ZNK15ConvolveElement6factorEv
libConvolve.so:_ZNK15ConvolveElement6kernelEv
libConvolve.so:_ZNK8Convolve10metaObjectEv
libConvolve.so:_ZNK8Convolve4keysEv
libConvolve.so:_ZThn16_N8Convolve6createERK7QStringS2_
libConvolve.so:_ZThn16_NK8Convolve4keysEv
libConvolve.so:qt_plugin_instance
libConvolve.so:qt_plugin_query_metadata_v2
libCrop.so:_Z19qInitResources_Cropv
libCrop.so:_Z22qCleanupResources_Cropv
libCrop.so:_ZN11CropElement10resetRightEv
libCrop.so:_ZN11CropElement10topChangedEd
libCrop.so:_ZN11CropElement11leftChangedEd
libCrop.so:_ZN11CropElement11qt_metacallEN11QMetaObject4CallEiPPv
libCrop.so:_ZN11CropElement11qt_metacastEPKc
libCrop.so:_ZN11CropElement11resetBottomEv
libCrop.so:_ZN11CropElement11setEditModeEb
libCrop.so:_ZN11CropElement11setRelativeEb
libCrop.so:_ZN11CropElement12iVideoStreamERK13AkVideoPacket
libCrop.so:_ZN11CropElement12rightChangedEd
libCrop.so:_ZN11CropElement12setFillColorEj
libCrop.so:_ZN11CropElement13bottomChangedEd
libCrop.so:_ZN11CropElement13resetEditModeEv
libCrop.so:_ZN11CropElement13resetRelativeEv
libCrop.so:_ZN11CropElement14resetFillColorEv
libCrop.so:_ZN11CropElement15editModeChangedEb
libCrop.so:_ZN11CropElement15relativeChangedEb
libCrop.so:_ZN11CropElement16fillColorChangedEj
libCrop.so:_ZN11CropElement16staticMetaObjectE
libCrop.so:_ZN11CropElement17frameWidthChangedEi
libCrop.so:_ZN11CropElement17setKeepResolutionEb
libCrop.so:_ZN11CropElement18frameHeightChangedEi
libCrop.so:_ZN11CropElement19resetKeepResolutionEv
libCrop.so:_ZN11CropElement21keepResolutionChangedEb
libCrop.so:_ZN11CropElement5resetEv
libCrop.so:_ZN11CropElement6setTopEd
libCrop.so:_ZN11CropElement7setLeftEd
libCrop.so:_ZN11CropElement8resetTopEv
libCrop.so:_ZN11CropElement8setRightEd
libCrop.so:_ZN11CropElement9resetLeftEv
libCrop.so:_ZN11CropElement9setBottomEd
libCrop.so:_ZN11CropElementC1Ev
libCrop.so:_ZN11CropElementC2Ev
libCrop.so:_ZN11CropElementD0Ev
libCrop.so:_ZN11CropElementD1Ev
libCrop.so:_ZN11CropElementD2Ev
libCrop.so:_ZN4Crop11qt_metacallEN11QMetaObject4CallEiPPv
libCrop.so:_ZN4Crop11qt_metacastEPKc
libCrop.so:_ZN4Crop16staticMetaObjectE
libCrop.so:_ZN4Crop6createERK7QStringS2_
libCrop.so:_ZNK11CropElement10frameWidthEv
libCrop.so:_ZNK11CropElement10metaObjectEv
libCrop.so:_ZNK11CropElement11frameHeightEv
libCrop.so:_ZNK11CropElement14keepResolutionEv
libCrop.so:_ZNK11CropElement23controlInterfaceProvideERK7QString
libCrop.so:_ZNK11CropElement25controlInterfaceConfigureEP11QQmlContextRK7QString
libCrop.so:_ZNK11CropElement3topEv
libCrop.so:_ZNK11CropElement4leftEv
libCrop.so:_ZNK11CropElement5rightEv
libCrop.so:_ZNK11CropElement6bottomEv
libCrop.so:_ZNK11CropElement8editModeEv
libCrop.so:_ZNK11CropElement8relativeEv
libCrop.so:_ZNK11CropElement9fillColorEv
libCrop.so:_ZNK4Crop10metaObjectEv
libCrop.so:_ZNK4Crop4keysEv
libCrop.so:_ZThn16_N4Crop6createERK7QStringS2_
libCrop.so:_ZThn16_NK4Crop4keysEv
libCrop.so:qt_plugin_instance
libCrop.so:qt_plugin_query_metadata_v2
libDelayGrab.so:_Z24qInitResources_DelayGrabv
libDelayGrab.so:_Z27qCleanupResources_DelayGrabv
libDelayGrab.so:_ZN16DelayGrabElement10setNFramesEi
libDelayGrab.so:_ZN16DelayGrabElement11modeChangedENS_13DelayGrabModeE
libDelayGrab.so:_ZN16DelayGrabElement11qt_metacallEN11QMetaObject4CallEiPPv
libDelayGrab.so:_ZN16DelayGrabElement11qt_metacastEPKc
libDelayGrab.so:_ZN16DelayGrabElement12iVideoStreamERK13AkVideoPacket
libDelayGrab.so:_ZN16DelayGrabElement12resetNFramesEv
libDelayGrab.so:_ZN16DelayGrabElement12setBlockSizeEi
libDelayGrab.so:_ZN16DelayGrabElement14nFramesChangedEi
libDelayGrab.so:_ZN16DelayGrabElement14resetBlockSizeEv
libDelayGrab.so:_ZN16DelayGrabElement16blockSizeChangedEi
libDelayGrab.so:_ZN16DelayGrabElement16frameSizeChangedERK5QSize
libDelayGrab.so:_ZN16DelayGrabElement16staticMetaObjectE
libDelayGrab.so:_ZN16DelayGrabElement7setModeENS_13DelayGrabModeE
libDelayGrab.so:_ZN16DelayGrabElement9resetModeEv
libDelayGrab.so:_ZN16DelayGrabElementC1Ev
libDelayGrab.so:_ZN16DelayGrabElementC2Ev
libDelayGrab.so:_ZN16DelayGrabElementD0Ev
libDelayGrab.so:_ZN16DelayGrabElementD1Ev
libDelayGrab.so:_ZN16DelayGrabElementD2Ev
libDelayGrab.so:_ZN23DelayGrabElementPrivate14updateDelaymapEv
libDelayGrab.so:_ZN9DelayGrab11qt_metacallEN11QMetaObject4CallEiPPv
libDelayGrab.so:_ZN9DelayGrab11qt_metacastEPKc
libDelayGrab.so:_ZN9DelayGrab16staticMetaObjectE
libDelayGrab.so:_ZN9DelayGrab6createERK7QStringS2_
libDelayGrab.so:_ZNK16DelayGrabElement10metaObjectEv
libDelayGrab.so:_ZNK16DelayGrabElement23controlInterfaceProvideERK7QString
libDelayGrab.so:_ZNK16DelayGrabElement25controlInterfaceConfigureEP11QQmlContextRK7QString
libDelayGrab.so:_ZNK16DelayGrabElement4modeEv
libDelayGrab.so:_ZNK16DelayGrabElement7nFramesEv
libDelayGrab.so:_ZNK16DelayGrabElement9blockSizeEv
libDelayGrab.so:_ZNK9DelayGrab10metaObjectEv
libDelayGrab.so:_ZNK9DelayGrab4keysEv
libDelayGrab.so:_ZThn16_N9DelayGrab6createERK7QStringS2_
libDelayGrab.so:_ZThn16_NK9DelayGrab4keysEv
libDelayGrab.so:_ZlsR11QDataStreamN16DelayGrabElement13DelayGrabModeE
libDelayGrab.so:_ZrsR11QDataStreamRN16DelayGrabElement13DelayGrabModeE
libDelayGrab.so:qt_plugin_instance
libDelayGrab.so:qt_plugin_query_metadata_v2
libDenoise.so:_Z22qInitResources_Denoisev
libDenoise.so:_Z25qCleanupResources_Denoisev
libDenoise.so:_ZN14DenoiseElement10resetSigmaEv
libDenoise.so:_ZN14DenoiseElement11qt_metacallEN11QMetaObject4CallEiPPv
libDenoise.so:_ZN14DenoiseElement11qt_metacastEPKc
libDenoise.so:_ZN14DenoiseElement11resetFactorEv
libDenoise.so:_ZN14DenoiseElement11resetRadiusEv
libDenoise.so:_ZN14DenoiseElement12iVideoStreamERK13AkVideoPacket
libDenoise.so:_ZN14DenoiseElement12sigmaChangedEd
libDenoise.so:_ZN14DenoiseElement13factorChangedEi
libDenoise.so:_ZN14DenoiseElement13radiusChangedEi
libDenoise.so:_ZN14DenoiseElement16staticMetaObjectE
libDenoise.so:_ZN14DenoiseElement5setMuEi
libDenoise.so:_ZN14DenoiseElement7resetMuEv
libDenoise.so:_ZN14DenoiseElement8setSigmaEd
libDenoise.so:_ZN14DenoiseElement9muChangedEi
libDenoise.so:_ZN14DenoiseElement9setFactorEi
libDenoise.so:_ZN14DenoiseElement9setRadiusEi
libDenoise.so:_ZN14DenoiseElementC1Ev
libDenoise.so:_ZN14DenoiseElementC2Ev
libDenoise.so:_ZN14DenoiseElementD0Ev
libDenoise.so:_ZN14DenoiseElementD1Ev
libDenoise.so:_ZN14DenoiseElementD2Ev
libDenoise.so:_ZN21DenoiseElementPrivate13integralImageERK13AkVideoPacketiiP5PixelIhEPS3_IjEPS3_IyE
libDenoise.so:_ZN21DenoiseElementPrivate7denoiseERK19DenoiseStaticParamsPK13DenoiseParams
libDenoise.so:_ZN21DenoiseElementPrivate9makeTableEi
libDenoise.so:_ZN7Denoise11qt_metacallEN11QMetaObject4CallEiPPv
libDenoise.so:_ZN7Denoise11qt_metacastEPKc
libDenoise.so:_ZN7Denoise16staticMetaObjectE
libDenoise.so:_ZN7Denoise6createERK7QStringS2_
libDenoise.so:_ZNK14DenoiseElement10metaObjectEv
libDenoise.so:_ZNK14DenoiseElement23controlInterfaceProvideERK7QString
libDenoise.so:_ZNK14DenoiseElement25controlInterfaceConfigureEP11QQmlContextRK7QString
libDenoise.so:_ZNK14DenoiseElement2muEv
libDenoise.so:_ZNK14DenoiseElement5sigmaEv
libDenoise.so:_ZNK14DenoiseElement6factorEv
libDenoise.so:_ZNK14DenoiseElement6radiusEv
libDenoise.so:_ZNK7Denoise10metaObjectEv
libDenoise.so:_ZNK7Denoise4keysEv
libDenoise.so:_ZThn16_N7Denoise6createERK7QStringS2_
libDenoise.so:_ZThn16_NK7Denoise4keysEv
libDenoise.so:qt_plugin_instance
libDenoise.so:qt_plugin_query_metadata_v2
libDesktopCapture.so:_Z29qInitResources_DesktopCapturev
libDesktopCapture.so:_Z32qCleanupResources_DesktopCapturev
libDesktopCapture.so:_ZN14DesktopCapture11qt_metacallEN11QMetaObject4CallEiPPv
libDesktopCapture.so:_ZN14DesktopCapture11qt_metacastEPKc
libDesktopCapture.so:_ZN14DesktopCapture16staticMetaObjectE
libDesktopCapture.so:_ZN14DesktopCapture6createERK7QStringS2_
libDesktopCapture.so:_ZN21DesktopCaptureElement10fpsChangedERK6AkFrac
libDesktopCapture.so:_ZN21DesktopCaptureElement10resetMediaEv
libDesktopCapture.so:_ZN21DesktopCaptureElement11descriptionERK7QString
libDesktopCapture.so:_ZN21DesktopCaptureElement11loopChangedEb
libDesktopCapture.so:_ZN21DesktopCaptureElement11qt_metacallEN11QMetaObject4CallEiPPv
libDesktopCapture.so:_ZN21DesktopCaptureElement11qt_metacastEPKc
libDesktopCapture.so:_ZN21DesktopCaptureElement11sizeChangedERK7QStringRK5QSize
libDesktopCapture.so:_ZN21DesktopCaptureElement12mediaChangedERK7QString
libDesktopCapture.so:_ZN21DesktopCaptureElement13defaultStreamEN6AkCaps8CapsTypeE
libDesktopCapture.so:_ZN21DesktopCaptureElement13mediasChangedERK5QListI7QStringE
libDesktopCapture.so:_ZN21DesktopCaptureElement13setCursorSizeEi
libDesktopCapture.so:_ZN21DesktopCaptureElement13setShowCursorEb
libDesktopCapture.so:_ZN21DesktopCaptureElement14streamsChangedERK5QListIiE
libDesktopCapture.so:_ZN21DesktopCaptureElement15resetCursorSizeEv
libDesktopCapture.so:_ZN21DesktopCaptureElement15resetShowCursorEv
libDesktopCapture.so:_ZN21DesktopCaptureElement16staticMetaObjectE
libDesktopCapture.so:_ZN21DesktopCaptureElement17cursorSizeChangedEi
libDesktopCapture.so:_ZN21DesktopCaptureElement17showCursorChangedEb
libDesktopCapture.so:_ZN21DesktopCaptureElement4capsEi
libDesktopCapture.so:_ZN21DesktopCaptureElement5errorERK7QString
libDesktopCapture.so:_ZN21DesktopCaptureElement6mediasEv
libDesktopCapture.so:_ZN21DesktopCaptureElement6setFpsERK6AkFrac
libDesktopCapture.so:_ZN21DesktopCaptureElement7streamsEv
libDesktopCapture.so:_ZN21DesktopCaptureElement8resetFpsEv
libDesktopCapture.so:_ZN21DesktopCaptureElement8setMediaERK7QString
libDesktopCapture.so:_ZN21DesktopCaptureElement8setStateEN9AkElement12ElementStateE
libDesktopCapture.so:_ZN21DesktopCaptureElementC1Ev
libDesktopCapture.so:_ZN21DesktopCaptureElementC2Ev
libDesktopCapture.so:_ZN21DesktopCaptureElementD0Ev
libDesktopCapture.so:_ZN21DesktopCaptureElementD1Ev
libDesktopCapture.so:_ZN21DesktopCaptureElementD2Ev
libDesktopCapture.so:_ZN28DesktopCaptureElementPrivate12linksChangedERK4QMapI7QStringS1_E
libDesktopCapture.so:_ZN28DesktopCaptureElementPrivateC1EP21DesktopCaptureElement
libDesktopCapture.so:_ZN28DesktopCaptureElementPrivateC2EP21DesktopCaptureElement
libDesktopCapture.so:_ZN9ScreenDev10fpsChangedERK6AkFrac
libDesktopCapture.so:_ZN9ScreenDev11qt_metacallEN11QMetaObject4CallEiPPv
libDesktopCapture.so:_ZN9ScreenDev11qt_metacastEPKc
libDesktopCapture.so:_ZN9ScreenDev11sizeChangedERK7QStringRK5QSize
libDesktopCapture.so:_ZN9ScreenDev12mediaChangedERK7QString
libDesktopCapture.so:_ZN9ScreenDev13mediasChangedERK5QListI7QStringE
libDesktopCapture.so:_ZN9ScreenDev14streamsChangedERK5QListIiE
libDesktopCapture.so:_ZN9ScreenDev16staticMetaObjectE
libDesktopCapture.so:_ZN9ScreenDev17cursorSizeChangedEi
libDesktopCapture.so:_ZN9ScreenDev17showCursorChangedEb
libDesktopCapture.so:_ZN9ScreenDev7oStreamERK8AkPacket
libDesktopCapture.so:_ZN9ScreenDevC1EP7QObject
libDesktopCapture.so:_ZN9ScreenDevC2EP7QObject
libDesktopCapture.so:_ZNK14DesktopCapture10metaObjectEv
libDesktopCapture.so:_ZNK14DesktopCapture4keysEv
libDesktopCapture.so:_ZNK21DesktopCaptureElement10cursorSizeEv
libDesktopCapture.so:_ZNK21DesktopCaptureElement10metaObjectEv
libDesktopCapture.so:_ZNK21DesktopCaptureElement10showCursorEv
libDesktopCapture.so:_ZNK21DesktopCaptureElement16canCaptureCursorEv
libDesktopCapture.so:_ZNK21DesktopCaptureElement19canChangeCursorSizeEv
libDesktopCapture.so:_ZNK21DesktopCaptureElement23controlInterfaceProvideERK7QString
libDesktopCapture.so:_ZNK21DesktopCaptureElement25controlInterfaceConfigureEP11QQmlContextRK7QString
libDesktopCapture.so:_ZNK21DesktopCaptureElement3fpsEv
libDesktopCapture.so:_ZNK21DesktopCaptureElement5mediaEv
libDesktopCapture.so:_ZNK9ScreenDev10metaObjectEv
libDesktopCapture.so:_ZThn16_N14DesktopCapture6createERK7QStringS2_
libDesktopCapture.so:_ZThn16_NK14DesktopCapture4keysEv
libDesktopCapture.so:qt_plugin_instance
libDesktopCapture.so:qt_plugin_query_metadata_v2
libDesktopCapture_ffmpeg.so:_ZN16FFmpegDevPrivate10readPacketEv
libDesktopCapture_ffmpeg.so:_ZN16FFmpegDevPrivate10sendPacketERK8AkPacket
libDesktopCapture_ffmpeg.so:_ZN16FFmpegDevPrivate11readPacketsEv
libDesktopCapture_ffmpeg.so:_ZN16FFmpegDevPrivate13updateDevicesEv
libDesktopCapture_ffmpeg.so:_ZN16FFmpegDevPrivate20setupGeometrySignalsEv
libDesktopCapture_ffmpeg.so:_ZN16FFmpegDevPrivate7convertEP7AVFrame
libDesktopCapture_ffmpeg.so:_ZN16FFmpegDevPrivateC1EP9FFmpegDev
libDesktopCapture_ffmpeg.so:_ZN16FFmpegDevPrivateC2EP9FFmpegDev
libDesktopCapture_ffmpeg.so:_ZN6Plugin11qt_metacallEN11QMetaObject4CallEiPPv
libDesktopCapture_ffmpeg.so:_ZN6Plugin11qt_metacastEPKc
libDesktopCapture_ffmpeg.so:_ZN6Plugin16staticMetaObjectE
libDesktopCapture_ffmpeg.so:_ZN6Plugin6createERK7QStringS2_
libDesktopCapture_ffmpeg.so:_ZN9FFmpegDev10fpsChangedERK6AkFrac
libDesktopCapture_ffmpeg.so:_ZN9FFmpegDev10resetMediaEv
libDesktopCapture_ffmpeg.so:_ZN9FFmpegDev10setStreamsERK5QListIiE
libDesktopCapture_ffmpeg.so:_ZN9FFmpegDev11descriptionERK7QString
libDesktopCapture_ffmpeg.so:_ZN9FFmpegDev11loopChangedEb
libDesktopCapture_ffmpeg.so:_ZN9FFmpegDev11qt_metacallEN11QMetaObject4CallEiPPv
libDesktopCapture_ffmpeg.so:_ZN9FFmpegDev11qt_metacastEPKc
libDesktopCapture_ffmpeg.so:_ZN9FFmpegDev11sizeChangedERK7QStringRK5QSize
libDesktopCapture_ffmpeg.so:_ZN9FFmpegDev12mediaChangedERK7QString
libDesktopCapture_ffmpeg.so:_ZN9FFmpegDev12resetStreamsEv
libDesktopCapture_ffmpeg.so:_ZN9FFmpegDev13defaultStreamEN6AkCaps8CapsTypeE
libDesktopCapture_ffmpeg.so:_ZN9FFmpegDev13mediasChangedERK5QListI7QStringE
libDesktopCapture_ffmpeg.so:_ZN9FFmpegDev13setCursorSizeEi
libDesktopCapture_ffmpeg.so:_ZN9FFmpegDev13setShowCursorEb
libDesktopCapture_ffmpeg.so:_ZN9FFmpegDev14streamsChangedERK5QListIiE
libDesktopCapture_ffmpeg.so:_ZN9FFmpegDev15resetCursorSizeEv
libDesktopCapture_ffmpeg.so:_ZN9FFmpegDev15resetShowCursorEv
libDesktopCapture_ffmpeg.so:_ZN9FFmpegDev16staticMetaObjectE
libDesktopCapture_ffmpeg.so:_ZN9FFmpegDev17cursorSizeChangedEi
libDesktopCapture_ffmpeg.so:_ZN9FFmpegDev17showCursorChangedEb
libDesktopCapture_ffmpeg.so:_ZN9FFmpegDev4capsEi
libDesktopCapture_ffmpeg.so:_ZN9FFmpegDev4initEv
libDesktopCapture_ffmpeg.so:_ZN9FFmpegDev5errorERK7QString
libDesktopCapture_ffmpeg.so:_ZN9FFmpegDev6mediasEv
libDesktopCapture_ffmpeg.so:_ZN9FFmpegDev6setFpsERK6AkFrac
libDesktopCapture_ffmpeg.so:_ZN9FFmpegDev6uninitEv
libDesktopCapture_ffmpeg.so:_ZN9FFmpegDev8resetFpsEv
libDesktopCapture_ffmpeg.so:_ZN9FFmpegDev8setMediaERK7QString
libDesktopCapture_ffmpeg.so:_ZN9FFmpegDevC1Ev
libDesktopCapture_ffmpeg.so:_ZN9FFmpegDevC2Ev
libDesktopCapture_ffmpeg.so:_ZN9FFmpegDevD0Ev
libDesktopCapture_ffmpeg.so:_ZN9FFmpegDevD1Ev
libDesktopCapture_ffmpeg.so:_ZN9FFmpegDevD2Ev
libDesktopCapture_ffmpeg.so:_ZN9ScreenDev10fpsChangedERK6AkFrac
libDesktopCapture_ffmpeg.so:_ZN9ScreenDev11qt_metacallEN11QMetaObject4CallEiPPv
libDesktopCapture_ffmpeg.so:_ZN9ScreenDev11qt_metacastEPKc
libDesktopCapture_ffmpeg.so:_ZN9ScreenDev11sizeChangedERK7QStringRK5QSize
libDesktopCapture_ffmpeg.so:_ZN9ScreenDev12mediaChangedERK7QString
libDesktopCapture_ffmpeg.so:_ZN9ScreenDev13mediasChangedERK5QListI7QStringE
libDesktopCapture_ffmpeg.so:_ZN9ScreenDev14streamsChangedERK5QListIiE
libDesktopCapture_ffmpeg.so:_ZN9ScreenDev16staticMetaObjectE
libDesktopCapture_ffmpeg.so:_ZN9ScreenDev17cursorSizeChangedEi
libDesktopCapture_ffmpeg.so:_ZN9ScreenDev17showCursorChangedEb
libDesktopCapture_ffmpeg.so:_ZN9ScreenDev7oStreamERK8AkPacket
libDesktopCapture_ffmpeg.so:_ZN9ScreenDevC1EP7QObject
libDesktopCapture_ffmpeg.so:_ZN9ScreenDevC2EP7QObject
libDesktopCapture_ffmpeg.so:_ZNK16FFmpegDevPrivate10screenSizeERK7QStringS2_
libDesktopCapture_ffmpeg.so:_ZNK16FFmpegDevPrivate23listAVFoundationDevicesEv
libDesktopCapture_ffmpeg.so:_ZNK16FFmpegDevPrivate3fpsEv
libDesktopCapture_ffmpeg.so:_ZNK16FFmpegDevPrivate8timeBaseEv
libDesktopCapture_ffmpeg.so:_ZNK6Plugin10metaObjectEv
libDesktopCapture_ffmpeg.so:_ZNK6Plugin4keysEv
libDesktopCapture_ffmpeg.so:_ZNK9FFmpegDev10cursorSizeEv
libDesktopCapture_ffmpeg.so:_ZNK9FFmpegDev10metaObjectEv
libDesktopCapture_ffmpeg.so:_ZNK9FFmpegDev10showCursorEv
libDesktopCapture_ffmpeg.so:_ZNK9FFmpegDev16canCaptureCursorEv
libDesktopCapture_ffmpeg.so:_ZNK9FFmpegDev19canChangeCursorSizeEv
libDesktopCapture_ffmpeg.so:_ZNK9FFmpegDev3fpsEv
libDesktopCapture_ffmpeg.so:_ZNK9FFmpegDev5mediaEv
libDesktopCapture_ffmpeg.so:_ZNK9FFmpegDev7streamsEv
libDesktopCapture_ffmpeg.so:_ZNK9ScreenDev10metaObjectEv
libDesktopCapture_ffmpeg.so:_ZThn16_N6Plugin6createERK7QStringS2_
libDesktopCapture_ffmpeg.so:_ZThn16_NK6Plugin4keysEv
libDesktopCapture_ffmpeg.so:qt_plugin_instance
libDesktopCapture_ffmpeg.so:qt_plugin_query_metadata_v2
libDesktopCapture_pipewire.so:_ZN17PipewireScreenDev10fpsChangedERK6AkFrac
libDesktopCapture_pipewire.so:_ZN17PipewireScreenDev10resetMediaEv
libDesktopCapture_pipewire.so:_ZN17PipewireScreenDev10setStreamsERK5QListIiE
libDesktopCapture_pipewire.so:_ZN17PipewireScreenDev11descriptionERK7QString
libDesktopCapture_pipewire.so:_ZN17PipewireScreenDev11loopChangedEb
libDesktopCapture_pipewire.so:_ZN17PipewireScreenDev11qt_metacallEN11QMetaObject4CallEiPPv
libDesktopCapture_pipewire.so:_ZN17PipewireScreenDev11qt_metacastEPKc
libDesktopCapture_pipewire.so:_ZN17PipewireScreenDev11screenAddedEP7QScreen
libDesktopCapture_pipewire.so:_ZN17PipewireScreenDev11sizeChangedERK7QStringRK5QSize
libDesktopCapture_pipewire.so:_ZN17PipewireScreenDev12mediaChangedERK7QString
libDesktopCapture_pipewire.so:_ZN17PipewireScreenDev12resetStreamsEv
libDesktopCapture_pipewire.so:_ZN17PipewireScreenDev13defaultStreamEN6AkCaps8CapsTypeE
libDesktopCapture_pipewire.so:_ZN17PipewireScreenDev13mediasChangedERK5QListI7QStringE
libDesktopCapture_pipewire.so:_ZN17PipewireScreenDev13screenRemovedEP7QScreen
libDesktopCapture_pipewire.so:_ZN17PipewireScreenDev13setCursorSizeEi
libDesktopCapture_pipewire.so:_ZN17PipewireScreenDev13setShowCursorEb
libDesktopCapture_pipewire.so:_ZN17PipewireScreenDev13srceenResizedEi
libDesktopCapture_pipewire.so:_ZN17PipewireScreenDev14streamsChangedERK5QListIiE
libDesktopCapture_pipewire.so:_ZN17PipewireScreenDev15resetCursorSizeEv
libDesktopCapture_pipewire.so:_ZN17PipewireScreenDev15resetShowCursorEv
libDesktopCapture_pipewire.so:_ZN17PipewireScreenDev16responseReceivedEjRK4QMapI7QString8QVariantE
libDesktopCapture_pipewire.so:_ZN17PipewireScreenDev16staticMetaObjectE
libDesktopCapture_pipewire.so:_ZN17PipewireScreenDev17cursorSizeChangedEi
libDesktopCapture_pipewire.so:_ZN17PipewireScreenDev17showCursorChangedEb
libDesktopCapture_pipewire.so:_ZN17PipewireScreenDev4capsEi
libDesktopCapture_pipewire.so:_ZN17PipewireScreenDev4initEv
libDesktopCapture_pipewire.so:_ZN17PipewireScreenDev5errorERK7QString
libDesktopCapture_pipewire.so:_ZN17PipewireScreenDev6mediasEv
libDesktopCapture_pipewire.so:_ZN17PipewireScreenDev6setFpsERK6AkFrac
libDesktopCapture_pipewire.so:_ZN17PipewireScreenDev6uninitEv
libDesktopCapture_pipewire.so:_ZN17PipewireScreenDev8resetFpsEv
libDesktopCapture_pipewire.so:_ZN17PipewireScreenDev8setMediaERK7QString
libDesktopCapture_pipewire.so:_ZN17PipewireScreenDevC1Ev
libDesktopCapture_pipewire.so:_ZN17PipewireScreenDevC2Ev
libDesktopCapture_pipewire.so:_ZN17PipewireScreenDevD0Ev
libDesktopCapture_pipewire.so:_ZN17PipewireScreenDevD1Ev
libDesktopCapture_pipewire.so:_ZN17PipewireScreenDevD2Ev
libDesktopCapture_pipewire.so:_ZN24PipewireScreenDevPrivate10sendPacketERK8AkPacket
libDesktopCapture_pipewire.so:_ZN24PipewireScreenDevPrivate11startStreamEv
libDesktopCapture_pipewire.so:_ZN24PipewireScreenDevPrivate12initPipewireEi
libDesktopCapture_pipewire.so:_ZN24PipewireScreenDevPrivate13createSessionEv
libDesktopCapture_pipewire.so:_ZN24PipewireScreenDevPrivate13selectSourcesERK7QString
libDesktopCapture_pipewire.so:_ZN24PipewireScreenDevPrivate13updateStreamsERK13QDBusArgument
libDesktopCapture_pipewire.so:_ZN24PipewireScreenDevPrivate14uninitPipewireEv
libDesktopCapture_pipewire.so:_ZN24PipewireScreenDevPrivate18openPipeWireRemoteEv
libDesktopCapture_pipewire.so:_ZN24PipewireScreenDevPrivate18streamProcessEventEPv
libDesktopCapture_pipewire.so:_ZN24PipewireScreenDevPrivate23streamParamChangedEventEPvjPK7spa_pod
libDesktopCapture_pipewire.so:_ZN24PipewireScreenDevPrivateC1EP17PipewireScreenDev
libDesktopCapture_pipewire.so:_ZN24PipewireScreenDevPrivateC2EP17PipewireScreenDev
libDesktopCapture_pipewire.so:_ZN6Plugin11qt_metacallEN11QMetaObject4CallEiPPv
libDesktopCapture_pipewire.so:_ZN6Plugin11qt_metacastEPKc
libDesktopCapture_pipewire.so:_ZN6Plugin16staticMetaObjectE
libDesktopCapture_pipewire.so:_ZN6Plugin6createERK7QStringS2_
libDesktopCapture_pipewire.so:_ZN9ScreenDev10fpsChangedERK6AkFrac
libDesktopCapture_pipewire.so:_ZN9ScreenDev11qt_metacallEN11QMetaObject4CallEiPPv
libDesktopCapture_pipewire.so:_ZN9ScreenDev11qt_metacastEPKc
libDesktopCapture_pipewire.so:_ZN9ScreenDev11sizeChangedERK7QStringRK5QSize
libDesktopCapture_pipewire.so:_ZN9ScreenDev12mediaChangedERK7QString
libDesktopCapture_pipewire.so:_ZN9ScreenDev13mediasChangedERK5QListI7QStringE
libDesktopCapture_pipewire.so:_ZN9ScreenDev14streamsChangedERK5QListIiE
libDesktopCapture_pipewire.so:_ZN9ScreenDev16staticMetaObjectE
libDesktopCapture_pipewire.so:_ZN9ScreenDev17cursorSizeChangedEi
libDesktopCapture_pipewire.so:_ZN9ScreenDev17showCursorChangedEb
libDesktopCapture_pipewire.so:_ZN9ScreenDev7oStreamERK8AkPacket
libDesktopCapture_pipewire.so:_ZN9ScreenDevC1EP7QObject
libDesktopCapture_pipewire.so:_ZN9ScreenDevC2EP7QObject
libDesktopCapture_pipewire.so:_ZNK17PipewireScreenDev10cursorSizeEv
libDesktopCapture_pipewire.so:_ZNK17PipewireScreenDev10metaObjectEv
libDesktopCapture_pipewire.so:_ZNK17PipewireScreenDev10showCursorEv
libDesktopCapture_pipewire.so:_ZNK17PipewireScreenDev16canCaptureCursorEv
libDesktopCapture_pipewire.so:_ZNK17PipewireScreenDev19canChangeCursorSizeEv
libDesktopCapture_pipewire.so:_ZNK17PipewireScreenDev3fpsEv
libDesktopCapture_pipewire.so:_ZNK17PipewireScreenDev5mediaEv
libDesktopCapture_pipewire.so:_ZNK17PipewireScreenDev7streamsEv
libDesktopCapture_pipewire.so:_ZNK6Plugin10metaObjectEv
libDesktopCapture_pipewire.so:_ZNK6Plugin4keysEv
libDesktopCapture_pipewire.so:_ZNK9ScreenDev10metaObjectEv
libDesktopCapture_pipewire.so:_ZThn16_N6Plugin6createERK7QStringS2_
libDesktopCapture_pipewire.so:_ZThn16_NK6Plugin4keysEv
libDesktopCapture_pipewire.so:qt_plugin_instance
libDesktopCapture_pipewire.so:qt_plugin_query_metadata_v2
libDesktopCapture_qtscreen.so:_ZN11QtScreenDev10fpsChangedERK6AkFrac
libDesktopCapture_qtscreen.so:_ZN11QtScreenDev10resetMediaEv
libDesktopCapture_qtscreen.so:_ZN11QtScreenDev10setStreamsERK5QListIiE
libDesktopCapture_qtscreen.so:_ZN11QtScreenDev11descriptionERK7QString
libDesktopCapture_qtscreen.so:_ZN11QtScreenDev11loopChangedEb
libDesktopCapture_qtscreen.so:_ZN11QtScreenDev11qt_metacallEN11QMetaObject4CallEiPPv
libDesktopCapture_qtscreen.so:_ZN11QtScreenDev11qt_metacastEPKc
libDesktopCapture_qtscreen.so:_ZN11QtScreenDev11sizeChangedERK7QStringRK5QSize
libDesktopCapture_qtscreen.so:_ZN11QtScreenDev12mediaChangedERK7QString
libDesktopCapture_qtscreen.so:_ZN11QtScreenDev12resetStreamsEv
libDesktopCapture_qtscreen.so:_ZN11QtScreenDev13defaultStreamEN6AkCaps8CapsTypeE
libDesktopCapture_qtscreen.so:_ZN11QtScreenDev13mediasChangedERK5QListI7QStringE
libDesktopCapture_qtscreen.so:_ZN11QtScreenDev13setCursorSizeEi
libDesktopCapture_qtscreen.so:_ZN11QtScreenDev13setShowCursorEb
libDesktopCapture_qtscreen.so:_ZN11QtScreenDev14streamsChangedERK5QListIiE
libDesktopCapture_qtscreen.so:_ZN11QtScreenDev15resetCursorSizeEv
libDesktopCapture_qtscreen.so:_ZN11QtScreenDev15resetShowCursorEv
libDesktopCapture_qtscreen.so:_ZN11QtScreenDev16staticMetaObjectE
libDesktopCapture_qtscreen.so:_ZN11QtScreenDev17cursorSizeChangedEi
libDesktopCapture_qtscreen.so:_ZN11QtScreenDev17showCursorChangedEb
libDesktopCapture_qtscreen.so:_ZN11QtScreenDev4capsEi
libDesktopCapture_qtscreen.so:_ZN11QtScreenDev4initEv
libDesktopCapture_qtscreen.so:_ZN11QtScreenDev5errorERK7QString
libDesktopCapture_qtscreen.so:_ZN11QtScreenDev6mediasEv
libDesktopCapture_qtscreen.so:_ZN11QtScreenDev6setFpsERK6AkFrac
libDesktopCapture_qtscreen.so:_ZN11QtScreenDev6uninitEv
libDesktopCapture_qtscreen.so:_ZN11QtScreenDev8resetFpsEv
libDesktopCapture_qtscreen.so:_ZN11QtScreenDev8setMediaERK7QString
libDesktopCapture_qtscreen.so:_ZN11QtScreenDevC1Ev
libDesktopCapture_qtscreen.so:_ZN11QtScreenDevC2Ev
libDesktopCapture_qtscreen.so:_ZN11QtScreenDevD0Ev
libDesktopCapture_qtscreen.so:_ZN11QtScreenDevD1Ev
libDesktopCapture_qtscreen.so:_ZN11QtScreenDevD2Ev
libDesktopCapture_qtscreen.so:_ZN18QtScreenDevPrivate10frameReadyERK11QVideoFrame
libDesktopCapture_qtscreen.so:_ZN18QtScreenDevPrivate13updateDevicesEv
libDesktopCapture_qtscreen.so:_ZN18QtScreenDevPrivate20setupGeometrySignalsEv
libDesktopCapture_qtscreen.so:_ZN18QtScreenDevPrivate9sendFrameERK11QVideoFrame
libDesktopCapture_qtscreen.so:_ZN18QtScreenDevPrivateC1EP11QtScreenDev
libDesktopCapture_qtscreen.so:_ZN18QtScreenDevPrivateC2EP11QtScreenDev
libDesktopCapture_qtscreen.so:_ZN6Plugin11qt_metacallEN11QMetaObject4CallEiPPv
libDesktopCapture_qtscreen.so:_ZN6Plugin11qt_metacastEPKc
libDesktopCapture_qtscreen.so:_ZN6Plugin16staticMetaObjectE
libDesktopCapture_qtscreen.so:_ZN6Plugin6createERK7QStringS2_
libDesktopCapture_qtscreen.so:_ZN9ScreenDev10fpsChangedERK6AkFrac
libDesktopCapture_qtscreen.so:_ZN9ScreenDev11qt_metacallEN11QMetaObject4CallEiPPv
libDesktopCapture_qtscreen.so:_ZN9ScreenDev11qt_metacastEPKc
libDesktopCapture_qtscreen.so:_ZN9ScreenDev11sizeChangedERK7QStringRK5QSize
libDesktopCapture_qtscreen.so:_ZN9ScreenDev12mediaChangedERK7QString
libDesktopCapture_qtscreen.so:_ZN9ScreenDev13mediasChangedERK5QListI7QStringE
libDesktopCapture_qtscreen.so:_ZN9ScreenDev14streamsChangedERK5QListIiE
libDesktopCapture_qtscreen.so:_ZN9ScreenDev16staticMetaObjectE
libDesktopCapture_qtscreen.so:_ZN9ScreenDev17cursorSizeChangedEi
libDesktopCapture_qtscreen.so:_ZN9ScreenDev17showCursorChangedEb
libDesktopCapture_qtscreen.so:_ZN9ScreenDev7oStreamERK8AkPacket
libDesktopCapture_qtscreen.so:_ZN9ScreenDevC1EP7QObject
libDesktopCapture_qtscreen.so:_ZN9ScreenDevC2EP7QObject
libDesktopCapture_qtscreen.so:_ZNK11QtScreenDev10cursorSizeEv
libDesktopCapture_qtscreen.so:_ZNK11QtScreenDev10metaObjectEv
libDesktopCapture_qtscreen.so:_ZNK11QtScreenDev10showCursorEv
libDesktopCapture_qtscreen.so:_ZNK11QtScreenDev16canCaptureCursorEv
libDesktopCapture_qtscreen.so:_ZNK11QtScreenDev19canChangeCursorSizeEv
libDesktopCapture_qtscreen.so:_ZNK11QtScreenDev3fpsEv
libDesktopCapture_qtscreen.so:_ZNK11QtScreenDev5mediaEv
libDesktopCapture_qtscreen.so:_ZNK11QtScreenDev7streamsEv
libDesktopCapture_qtscreen.so:_ZNK18QtScreenDevPrivate11cursorImageEP5QSizeRKS0_
libDesktopCapture_qtscreen.so:_ZNK18QtScreenDevPrivate11cursorImageERK5QSize
libDesktopCapture_qtscreen.so:_ZNK18QtScreenDevPrivate11nearestSizeERK5QListI5QSizeERKS1_
libDesktopCapture_qtscreen.so:_ZNK18QtScreenDevPrivate11nearestSizeERK5QSize
libDesktopCapture_qtscreen.so:_ZNK18QtScreenDevPrivate14availableSizesERK7QStringS2_
libDesktopCapture_qtscreen.so:_ZNK18QtScreenDevPrivate14screenRotationEv
libDesktopCapture_qtscreen.so:_ZNK6Plugin10metaObjectEv
libDesktopCapture_qtscreen.so:_ZNK6Plugin4keysEv
libDesktopCapture_qtscreen.so:_ZNK9ScreenDev10metaObjectEv
libDesktopCapture_qtscreen.so:_ZThn16_N6Plugin6createERK7QStringS2_
libDesktopCapture_qtscreen.so:_ZThn16_NK6Plugin4keysEv
libDesktopCapture_qtscreen.so:qt_plugin_instance
libDesktopCapture_qtscreen.so:qt_plugin_query_metadata_v2
libDesktopCapture_xlib.so:_ZN14XlibDevPrivate13updateDevicesEv
libDesktopCapture_xlib.so:_ZN14XlibDevPrivate9readFrameEv
libDesktopCapture_xlib.so:_ZN14XlibDevPrivateC1EP7XlibDev
libDesktopCapture_xlib.so:_ZN14XlibDevPrivateC2EP7XlibDev
libDesktopCapture_xlib.so:_ZN6Plugin11qt_metacallEN11QMetaObject4CallEiPPv
libDesktopCapture_xlib.so:_ZN6Plugin11qt_metacastEPKc
libDesktopCapture_xlib.so:_ZN6Plugin16staticMetaObjectE
libDesktopCapture_xlib.so:_ZN6Plugin6createERK7QStringS2_
libDesktopCapture_xlib.so:_ZN7XlibDev10fpsChangedERK6AkFrac
libDesktopCapture_xlib.so:_ZN7XlibDev10resetMediaEv
libDesktopCapture_xlib.so:_ZN7XlibDev10setStreamsERK5QListIiE
libDesktopCapture_xlib.so:_ZN7XlibDev11descriptionERK7QString
libDesktopCapture_xlib.so:_ZN7XlibDev11loopChangedEb
libDesktopCapture_xlib.so:_ZN7XlibDev11qt_metacallEN11QMetaObject4CallEiPPv
libDesktopCapture_xlib.so:_ZN7XlibDev11qt_metacastEPKc
libDesktopCapture_xlib.so:_ZN7XlibDev11sizeChangedERK7QStringRK5QSize
libDesktopCapture_xlib.so:_ZN7XlibDev12mediaChangedERK7QString
libDesktopCapture_xlib.so:_ZN7XlibDev12resetStreamsEv
libDesktopCapture_xlib.so:_ZN7XlibDev13defaultStreamEN6AkCaps8CapsTypeE
libDesktopCapture_xlib.so:_ZN7XlibDev13mediasChangedERK5QListI7QStringE
libDesktopCapture_xlib.so:_ZN7XlibDev13setCursorSizeEi
libDesktopCapture_xlib.so:_ZN7XlibDev13setShowCursorEb
libDesktopCapture_xlib.so:_ZN7XlibDev14streamsChangedERK5QListIiE
libDesktopCapture_xlib.so:_ZN7XlibDev15resetCursorSizeEv
libDesktopCapture_xlib.so:_ZN7XlibDev15resetShowCursorEv
libDesktopCapture_xlib.so:_ZN7XlibDev16staticMetaObjectE
libDesktopCapture_xlib.so:_ZN7XlibDev17cursorSizeChangedEi
libDesktopCapture_xlib.so:_ZN7XlibDev17showCursorChangedEb
libDesktopCapture_xlib.so:_ZN7XlibDev4capsEi
libDesktopCapture_xlib.so:_ZN7XlibDev4initEv
libDesktopCapture_xlib.so:_ZN7XlibDev5errorERK7QString
libDesktopCapture_xlib.so:_ZN7XlibDev6mediasEv
libDesktopCapture_xlib.so:_ZN7XlibDev6setFpsERK6AkFrac
libDesktopCapture_xlib.so:_ZN7XlibDev6uninitEv
libDesktopCapture_xlib.so:_ZN7XlibDev8resetFpsEv
libDesktopCapture_xlib.so:_ZN7XlibDev8setMediaERK7QString
libDesktopCapture_xlib.so:_ZN7XlibDevC1Ev
libDesktopCapture_xlib.so:_ZN7XlibDevC2Ev
libDesktopCapture_xlib.so:_ZN7XlibDevD0Ev
libDesktopCapture_xlib.so:_ZN7XlibDevD1Ev
libDesktopCapture_xlib.so:_ZN7XlibDevD2Ev
libDesktopCapture_xlib.so:_ZN9ScreenDev10fpsChangedERK6AkFrac
libDesktopCapture_xlib.so:_ZN9ScreenDev11qt_metacallEN11QMetaObject4CallEiPPv
libDesktopCapture_xlib.so:_ZN9ScreenDev11qt_metacastEPKc
libDesktopCapture_xlib.so:_ZN9ScreenDev11sizeChangedERK7QStringRK5QSize
libDesktopCapture_xlib.so:_ZN9ScreenDev12mediaChangedERK7QString
libDesktopCapture_xlib.so:_ZN9ScreenDev13mediasChangedERK5QListI7QStringE
libDesktopCapture_xlib.so:_ZN9ScreenDev14streamsChangedERK5QListIiE
libDesktopCapture_xlib.so:_ZN9ScreenDev16staticMetaObjectE
libDesktopCapture_xlib.so:_ZN9ScreenDev17cursorSizeChangedEi
libDesktopCapture_xlib.so:_ZN9ScreenDev17showCursorChangedEb
libDesktopCapture_xlib.so:_ZN9ScreenDev7oStreamERK8AkPacket
libDesktopCapture_xlib.so:_ZN9ScreenDevC1EP7QObject
libDesktopCapture_xlib.so:_ZN9ScreenDevC2EP7QObject
libDesktopCapture_xlib.so:_ZNK14XlibDevPrivate11pixelFormatEii
libDesktopCapture_xlib.so:_ZNK14XlibDevPrivate14screenRotationEv
libDesktopCapture_xlib.so:_ZNK6Plugin10metaObjectEv
libDesktopCapture_xlib.so:_ZNK6Plugin4keysEv
libDesktopCapture_xlib.so:_ZNK7XlibDev10cursorSizeEv
libDesktopCapture_xlib.so:_ZNK7XlibDev10metaObjectEv
libDesktopCapture_xlib.so:_ZNK7XlibDev10showCursorEv
libDesktopCapture_xlib.so:_ZNK7XlibDev16canCaptureCursorEv
libDesktopCapture_xlib.so:_ZNK7XlibDev19canChangeCursorSizeEv
libDesktopCapture_xlib.so:_ZNK7XlibDev3fpsEv
libDesktopCapture_xlib.so:_ZNK7XlibDev5mediaEv
libDesktopCapture_xlib.so:_ZNK7XlibDev7streamsEv
libDesktopCapture_xlib.so:_ZNK9ScreenDev10metaObjectEv
libDesktopCapture_xlib.so:_ZThn16_N6Plugin6createERK7QStringS2_
libDesktopCapture_xlib.so:_ZThn16_NK6Plugin4keysEv
libDesktopCapture_xlib.so:qt_plugin_instance
libDesktopCapture_xlib.so:qt_plugin_query_metadata_v2
libDice.so:_Z19qInitResources_Dicev
libDice.so:_Z22qCleanupResources_Dicev
libDice.so:_ZN11DiceElement11qt_metacallEN11QMetaObject4CallEiPPv
libDice.so:_ZN11DiceElement11qt_metacastEPKc
libDice.so:_ZN11DiceElement11setDiceSizeEi
libDice.so:_ZN11DiceElement12iVideoStreamERK13AkVideoPacket
libDice.so:_ZN11DiceElement13resetDiceSizeEv
libDice.so:_ZN11DiceElement15diceSizeChangedEi
libDice.so:_ZN11DiceElement16staticMetaObjectE
libDice.so:_ZN11DiceElementC1Ev
libDice.so:_ZN11DiceElementC2Ev
libDice.so:_ZN11DiceElementD0Ev
libDice.so:_ZN11DiceElementD1Ev
libDice.so:_ZN11DiceElementD2Ev
libDice.so:_ZN18DiceElementPrivate13updateDiceMapERK5QSizei
libDice.so:_ZN4Dice11qt_metacallEN11QMetaObject4CallEiPPv
libDice.so:_ZN4Dice11qt_metacastEPKc
libDice.so:_ZN4Dice16staticMetaObjectE
libDice.so:_ZN4Dice6createERK7QStringS2_
libDice.so:_ZNK11DiceElement10metaObjectEv
libDice.so:_ZNK11DiceElement23controlInterfaceProvideERK7QString
libDice.so:_ZNK11DiceElement25controlInterfaceConfigureEP11QQmlContextRK7QString
libDice.so:_ZNK11DiceElement8diceSizeEv
libDice.so:_ZNK4Dice10metaObjectEv
libDice.so:_ZNK4Dice4keysEv
libDice.so:_ZThn16_N4Dice6createERK7QStringS2_
libDice.so:_ZThn16_NK4Dice4keysEv
libDice.so:qt_plugin_instance
libDice.so:qt_plugin_query_metadata_v2
libDistort.so:_Z22qInitResources_Distortv
libDistort.so:_Z25qCleanupResources_Distortv
libDistort.so:_ZN14DistortElement11qt_metacallEN11QMetaObject4CallEiPPv
libDistort.so:_ZN14DistortElement11qt_metacastEPKc
libDistort.so:_ZN14DistortElement12iVideoStreamERK13AkVideoPacket
libDistort.so:_ZN14DistortElement12setAmplitudeEd
libDistort.so:_ZN14DistortElement12setFrequencyEd
libDistort.so:_ZN14DistortElement14resetAmplitudeEv
libDistort.so:_ZN14DistortElement14resetFrequencyEv
libDistort.so:_ZN14DistortElement14setGridSizeLogEi
libDistort.so:_ZN14DistortElement16amplitudeChangedEd
libDistort.so:_ZN14DistortElement16frequencyChangedEd
libDistort.so:_ZN14DistortElement16resetGridSizeLogEv
libDistort.so:_ZN14DistortElement16staticMetaObjectE
libDistort.so:_ZN14DistortElement18gridSizeLogChangedEi
libDistort.so:_ZN14DistortElementC1Ev
libDistort.so:_ZN14DistortElementC2Ev
libDistort.so:_ZN14DistortElementD0Ev
libDistort.so:_ZN14DistortElementD1Ev
libDistort.so:_ZN14DistortElementD2Ev
libDistort.so:_ZN21DistortElementPrivate10createGridEiiid
libDistort.so:_ZN21DistortElementPrivate14plasmaFunctionERK6QPointRK5QSizeddd
libDistort.so:_ZN7Distort11qt_metacallEN11QMetaObject4CallEiPPv
libDistort.so:_ZN7Distort11qt_metacastEPKc
libDistort.so:_ZN7Distort16staticMetaObjectE
libDistort.so:_ZN7Distort6createERK7QStringS2_
libDistort.so:_ZNK14DistortElement10metaObjectEv
libDistort.so:_ZNK14DistortElement11gridSizeLogEv
libDistort.so:_ZNK14DistortElement23controlInterfaceProvideERK7QString
libDistort.so:_ZNK14DistortElement25controlInterfaceConfigureEP11QQmlContextRK7QString
libDistort.so:_ZNK14DistortElement9amplitudeEv
libDistort.so:_ZNK14DistortElement9frequencyEv
libDistort.so:_ZNK7Distort10metaObjectEv
libDistort.so:_ZNK7Distort4keysEv
libDistort.so:_ZThn16_N7Distort6createERK7QStringS2_
libDistort.so:_ZThn16_NK7Distort4keysEv
libDistort.so:qt_plugin_instance
libDistort.so:qt_plugin_query_metadata_v2
libDizzy.so:_Z20qInitResources_Dizzyv
libDizzy.so:_Z23qCleanupResources_Dizzyv
libDizzy.so:_ZN12DizzyElement10resetSpeedEv
libDizzy.so:_ZN12DizzyElement11qt_metacallEN11QMetaObject4CallEiPPv
libDizzy.so:_ZN12DizzyElement11qt_metacastEPKc
libDizzy.so:_ZN12DizzyElement11setStrengthEd
libDizzy.so:_ZN12DizzyElement11setZoomRateEd
libDizzy.so:_ZN12DizzyElement12iVideoStreamERK13AkVideoPacket
libDizzy.so:_ZN12DizzyElement12speedChangedEd
libDizzy.so:_ZN12DizzyElement13resetStrengthEv
libDizzy.so:_ZN12DizzyElement13resetZoomRateEv
libDizzy.so:_ZN12DizzyElement15strengthChangedEd
libDizzy.so:_ZN12DizzyElement15zoomRateChangedEd
libDizzy.so:_ZN12DizzyElement16staticMetaObjectE
libDizzy.so:_ZN12DizzyElement8setSpeedEd
libDizzy.so:_ZN12DizzyElementC1Ev
libDizzy.so:_ZN12DizzyElementC2Ev
libDizzy.so:_ZN12DizzyElementD0Ev
libDizzy.so:_ZN12DizzyElementD1Ev
libDizzy.so:_ZN12DizzyElementD2Ev
libDizzy.so:_ZN5Dizzy11qt_metacallEN11QMetaObject4CallEiPPv
libDizzy.so:_ZN5Dizzy11qt_metacastEPKc
libDizzy.so:_ZN5Dizzy16staticMetaObjectE
libDizzy.so:_ZN5Dizzy6createERK7QStringS2_
libDizzy.so:_ZNK12DizzyElement10metaObjectEv
libDizzy.so:_ZNK12DizzyElement23controlInterfaceProvideERK7QString
libDizzy.so:_ZNK12DizzyElement25controlInterfaceConfigureEP11QQmlContextRK7QString
libDizzy.so:_ZNK12DizzyElement5speedEv
libDizzy.so:_ZNK12DizzyElement8strengthEv
libDizzy.so:_ZNK12DizzyElement8zoomRateEv
libDizzy.so:_ZNK5Dizzy10metaObjectEv
libDizzy.so:_ZNK5Dizzy4keysEv
libDizzy.so:_ZThn16_N5Dizzy6createERK7QStringS2_
libDizzy.so:_ZThn16_NK5Dizzy4keysEv
libDizzy.so:qt_plugin_instance
libDizzy.so:qt_plugin_query_metadata_v2
libEdge.so:_Z19qInitResources_Edgev
libEdge.so:_Z22qCleanupResources_Edgev
libEdge.so:_ZN11EdgeElement10resetCannyEv
libEdge.so:_ZN11EdgeElement10resetThLowEv
libEdge.so:_ZN11EdgeElement11qt_metacallEN11QMetaObject4CallEiPPv
libEdge.so:_ZN11EdgeElement11qt_metacastEPKc
libEdge.so:_ZN11EdgeElement11resetInvertEv
libEdge.so:_ZN11EdgeElement11setEqualizeEb
libEdge.so:_ZN11EdgeElement11thHiChangedEi
libEdge.so:_ZN11EdgeElement12cannyChangedEb
libEdge.so:_ZN11EdgeElement12iVideoStreamERK13AkVideoPacket
libEdge.so:_ZN11EdgeElement12thLowChangedEi
libEdge.so:_ZN11EdgeElement13invertChangedEb
libEdge.so:_ZN11EdgeElement13resetEqualizeEv
libEdge.so:_ZN11EdgeElement15equalizeChangedEb
libEdge.so:_ZN11EdgeElement16staticMetaObjectE
libEdge.so:_ZN11EdgeElement7setThHiEi
libEdge.so:_ZN11EdgeElement8setCannyEb
libEdge.so:_ZN11EdgeElement8setThLowEi
libEdge.so:_ZN11EdgeElement9resetThHiEv
libEdge.so:_ZN11EdgeElement9setInvertEb
libEdge.so:_ZN11EdgeElementC1Ev
libEdge.so:_ZN11EdgeElementC2Ev
libEdge.so:_ZN11EdgeElementD0Ev
libEdge.so:_ZN11EdgeElementD1Ev
libEdge.so:_ZN11EdgeElementD2Ev
libEdge.so:_ZN18EdgeElementPrivate8equalizeERK13AkVideoPacket
libEdge.so:_ZN4Edge11qt_metacallEN11QMetaObject4CallEiPPv
libEdge.so:_ZN4Edge11qt_metacastEPKc
libEdge.so:_ZN4Edge16staticMetaObjectE
libEdge.so:_ZN4Edge6createERK7QStringS2_
libEdge.so:_ZNK11EdgeElement10metaObjectEv
libEdge.so:_ZNK11EdgeElement23controlInterfaceProvideERK7QString
libEdge.so:_ZNK11EdgeElement25controlInterfaceConfigureEP11QQmlContextRK7QString
libEdge.so:_ZNK11EdgeElement4thHiEv
libEdge.so:_ZNK11EdgeElement5cannyEv
libEdge.so:_ZNK11EdgeElement5thLowEv
libEdge.so:_ZNK11EdgeElement6invertEv
libEdge.so:_ZNK11EdgeElement8equalizeEv
libEdge.so:_ZNK18EdgeElementPrivate22hysteresisThresholdingERK13AkVideoPacket
libEdge.so:_ZNK18EdgeElementPrivate5sobelERK13AkVideoPacketRS0_S3_
libEdge.so:_ZNK18EdgeElementPrivate5traceER13AkVideoPacketii
libEdge.so:_ZNK18EdgeElementPrivate8thinningERK13AkVideoPacketS2_
libEdge.so:_ZNK18EdgeElementPrivate9thresholdERK13AkVideoPacketRK5QListIiES6_
libEdge.so:_ZNK4Edge10metaObjectEv
libEdge.so:_ZNK4Edge4keysEv
libEdge.so:_ZThn16_N4Edge6createERK7QStringS2_
libEdge.so:_ZThn16_NK4Edge4keysEv
libEdge.so:qt_plugin_instance
libEdge.so:qt_plugin_query_metadata_v2
libEmboss.so:_Z21qInitResources_Embossv
libEmboss.so:_Z24qCleanupResources_Embossv
libEmboss.so:_ZN13EmbossElement11biasChangedEd
libEmboss.so:_ZN13EmbossElement11qt_metacallEN11QMetaObject4CallEiPPv
libEmboss.so:_ZN13EmbossElement11qt_metacastEPKc
libEmboss.so:_ZN13EmbossElement11resetFactorEv
libEmboss.so:_ZN13EmbossElement12iVideoStreamERK13AkVideoPacket
libEmboss.so:_ZN13EmbossElement13factorChangedEd
libEmboss.so:_ZN13EmbossElement16staticMetaObjectE
libEmboss.so:_ZN13EmbossElement7setBiasEd
libEmboss.so:_ZN13EmbossElement9resetBiasEv
libEmboss.so:_ZN13EmbossElement9setFactorEd
libEmboss.so:_ZN13EmbossElementC1Ev
libEmboss.so:_ZN13EmbossElementC2Ev
libEmboss.so:_ZN13EmbossElementD0Ev
libEmboss.so:_ZN13EmbossElementD1Ev
libEmboss.so:_ZN13EmbossElementD2Ev
libEmboss.so:_ZN6Emboss11qt_metacallEN11QMetaObject4CallEiPPv
libEmboss.so:_ZN6Emboss11qt_metacastEPKc
libEmboss.so:_ZN6Emboss16staticMetaObjectE
libEmboss.so:_ZN6Emboss6createERK7QStringS2_
libEmboss.so:_ZNK13EmbossElement10metaObjectEv
libEmboss.so:_ZNK13EmbossElement23controlInterfaceProvideERK7QString
libEmboss.so:_ZNK13EmbossElement25controlInterfaceConfigureEP11QQmlContextRK7QString
libEmboss.so:_ZNK13EmbossElement4biasEv
libEmboss.so:_ZNK13EmbossElement6factorEv
libEmboss.so:_ZNK6Emboss10metaObjectEv
libEmboss.so:_ZNK6Emboss4keysEv
libEmboss.so:_ZThn16_N6Emboss6createERK7QStringS2_
libEmboss.so:_ZThn16_NK6Emboss4keysEv
libEmboss.so:qt_plugin_instance
libEmboss.so:qt_plugin_query_metadata_v2
libEqualize.so:_ZN15EqualizeElement11qt_metacallEN11QMetaObject4CallEiPPv
libEqualize.so:_ZN15EqualizeElement11qt_metacastEPKc
libEqualize.so:_ZN15EqualizeElement12iVideoStreamERK13AkVideoPacket
libEqualize.so:_ZN15EqualizeElement16staticMetaObjectE
libEqualize.so:_ZN15EqualizeElementC1Ev
libEqualize.so:_ZN15EqualizeElementC2Ev
libEqualize.so:_ZN15EqualizeElementD0Ev
libEqualize.so:_ZN15EqualizeElementD1Ev
libEqualize.so:_ZN15EqualizeElementD2Ev
libEqualize.so:_ZN22EqualizeElementPrivate17equalizationTableERK13AkVideoPacketPh
libEqualize.so:_ZN22EqualizeElementPrivate19cumulativeHistogramEPKyPd
libEqualize.so:_ZN22EqualizeElementPrivate9histogramERK13AkVideoPacketPy
libEqualize.so:_ZN8Equalize11qt_metacallEN11QMetaObject4CallEiPPv
libEqualize.so:_ZN8Equalize11qt_metacastEPKc
libEqualize.so:_ZN8Equalize16staticMetaObjectE
libEqualize.so:_ZN8Equalize6createERK7QStringS2_
libEqualize.so:_ZNK15EqualizeElement10metaObjectEv
libEqualize.so:_ZNK8Equalize10metaObjectEv
libEqualize.so:_ZNK8Equalize4keysEv
libEqualize.so:_ZThn16_N8Equalize6createERK7QStringS2_
libEqualize.so:_ZThn16_NK8Equalize4keysEv
libEqualize.so:qt_plugin_instance
libEqualize.so:qt_plugin_query_metadata_v2
libFaceDetect.so:_Z20qInitResources_masksv
libFaceDetect.so:_Z23qCleanupResources_masksv
libFaceDetect.so:_Z25qInitResources_FaceDetectv
libFaceDetect.so:_Z27qInitResources_haarcascadesv
libFaceDetect.so:_Z28qCleanupResources_FaceDetectv
libFaceDetect.so:_Z30qCleanupResources_haarcascadesv
libFaceDetect.so:_ZN10FaceDetect11qt_metacallEN11QMetaObject4CallEiPPv
libFaceDetect.so:_ZN10FaceDetect11qt_metacastEPKc
libFaceDetect.so:_ZN10FaceDetect16staticMetaObjectE
libFaceDetect.so:_ZN10FaceDetect6createERK7QStringS2_
libFaceDetect.so:_ZN11HaarCascade10windowSizeEv
libFaceDetect.so:_ZN11HaarCascade11nameChangedERK7QString
libFaceDetect.so:_ZN11HaarCascade11qt_metacallEN11QMetaObject4CallEiPPv
libFaceDetect.so:_ZN11HaarCascade11qt_metacastEPKc
libFaceDetect.so:_ZN11HaarCascade11resetStagesEv
libFaceDetect.so:_ZN11HaarCascade13setWindowSizeERK5QSize
libFaceDetect.so:_ZN11HaarCascade13stagesChangedERK5QListI9HaarStageE
libFaceDetect.so:_ZN11HaarCascade15resetWindowSizeEv
libFaceDetect.so:_ZN11HaarCascade16staticMetaObjectE
libFaceDetect.so:_ZN11HaarCascade17windowSizeChangedERK5QSize
libFaceDetect.so:_ZN11HaarCascade18errorStringChangedERK7QString
libFaceDetect.so:_ZN11HaarCascade4loadERK7QString
libFaceDetect.so:_ZN11HaarCascade4nameEv
libFaceDetect.so:_ZN11HaarCascade6stagesEv
libFaceDetect.so:_ZN11HaarCascade7setNameERK7QString
libFaceDetect.so:_ZN11HaarCascade9resetNameEv
libFaceDetect.so:_ZN11HaarCascade9setStagesERK5QListI9HaarStageE
libFaceDetect.so:_ZN11HaarCascadeC1EP7QObject
libFaceDetect.so:_ZN11HaarCascadeC1ERKS_
libFaceDetect.so:_ZN11HaarCascadeC2EP7QObject
libFaceDetect.so:_ZN11HaarCascadeC2ERKS_
libFaceDetect.so:_ZN11HaarCascadeaSERKS_
libFaceDetect.so:_ZN11HaarFeature10resetRectsEv
libFaceDetect.so:_ZN11HaarFeature10setLeftValEd
libFaceDetect.so:_ZN11HaarFeature11qt_metacallEN11QMetaObject4CallEiPPv
libFaceDetect.so:_ZN11HaarFeature11qt_metacastEPKc
libFaceDetect.so:_ZN11HaarFeature11resetTiltedEv
libFaceDetect.so:_ZN11HaarFeature11resetWeightEv
libFaceDetect.so:_ZN11HaarFeature11setLeftNodeEi
libFaceDetect.so:_ZN11HaarFeature11setRightValEd
libFaceDetect.so:_ZN11HaarFeature12rectsChangedERK5QListI5QRectE
libFaceDetect.so:_ZN11HaarFeature12resetLeftValEv
libFaceDetect.so:_ZN11HaarFeature12setRightNodeEi
libFaceDetect.so:_ZN11HaarFeature12setThresholdEd
libFaceDetect.so:_ZN11HaarFeature13resetLeftNodeEv
libFaceDetect.so:_ZN11HaarFeature13resetRightValEv
libFaceDetect.so:_ZN11HaarFeature13tiltedChangedEb
libFaceDetect.so:_ZN11HaarFeature13weightChangedERK5QListIdE
libFaceDetect.so:_ZN11HaarFeature14leftValChangedEd
libFaceDetect.so:_ZN11HaarFeature14resetRightNodeEv
libFaceDetect.so:_ZN11HaarFeature14resetThresholdEv
libFaceDetect.so:_ZN11HaarFeature15leftNodeChangedEi
libFaceDetect.so:_ZN11HaarFeature15rightValChangedEd
libFaceDetect.so:_ZN11HaarFeature16rightNodeChangedEi
libFaceDetect.so:_ZN11HaarFeature16staticMetaObjectE
libFaceDetect.so:_ZN11HaarFeature16thresholdChangedEd
libFaceDetect.so:_ZN11HaarFeature6tiltedEv
libFaceDetect.so:_ZN11HaarFeature7leftValEv
libFaceDetect.so:_ZN11HaarFeature8leftNodeEv
libFaceDetect.so:_ZN11HaarFeature8rightValEv
libFaceDetect.so:_ZN11HaarFeature8setRectsERK5QListI5QRectE
libFaceDetect.so:_ZN11HaarFeature9rightNodeEv
libFaceDetect.so:_ZN11HaarFeature9setTiltedEb
libFaceDetect.so:_ZN11HaarFeature9setWeightERK5QListIdE
libFaceDetect.so:_ZN11HaarFeature9thresholdEv
libFaceDetect.so:_ZN11HaarFeatureC1EP7QObject
libFaceDetect.so:_ZN11HaarFeatureC1ERKS_
libFaceDetect.so:_ZN11HaarFeatureC2EP7QObject
libFaceDetect.so:_ZN11HaarFeatureC2ERKS_
libFaceDetect.so:_ZN11HaarFeatureaSERKS_
libFaceDetect.so:_ZN11HaarTreeHIDC1ERK8HaarTreeiPKjS4_dd
libFaceDetect.so:_ZN11HaarTreeHIDC2ERK8HaarTreeiPKjS4_dd
libFaceDetect.so:_ZN11HaarTreeHIDD1Ev
libFaceDetect.so:_ZN11HaarTreeHIDD2Ev
libFaceDetect.so:_ZN12HaarDetector11loadCascadeERK7QString
libFaceDetect.so:_ZN12HaarDetector11qt_metacallEN11QMetaObject4CallEiPPv
libFaceDetect.so:_ZN12HaarDetector11qt_metacastEPKc
libFaceDetect.so:_ZN12HaarDetector11setEqualizeEb
libFaceDetect.so:_ZN12HaarDetector12cannyPruningEv
libFaceDetect.so:_ZN12HaarDetector12denoiseSigmaEv
libFaceDetect.so:_ZN12HaarDetector12minNeighborsEv
libFaceDetect.so:_ZN12HaarDetector12setDenoiseMuEi
libFaceDetect.so:_ZN12HaarDetector13denoiseRadiusEv
libFaceDetect.so:_ZN12HaarDetector13resetEqualizeEv
libFaceDetect.so:_ZN12HaarDetector14resetDenoiseMuEv
libFaceDetect.so:_ZN12HaarDetector15equalizeChangedEb
libFaceDetect.so:_ZN12HaarDetector15setCannyPruningEb
libFaceDetect.so:_ZN12HaarDetector15setDenoiseSigmaEi
libFaceDetect.so:_ZN12HaarDetector15setMinNeighborsEi
libFaceDetect.so:_ZN12HaarDetector16denoiseMuChangedEi
libFaceDetect.so:_ZN12HaarDetector16setDenoiseRadiusEi
libFaceDetect.so:_ZN12HaarDetector16staticMetaObjectE
libFaceDetect.so:_ZN12HaarDetector17lowCannyThresholdEv
libFaceDetect.so:_ZN12HaarDetector17resetCannyPruningEv
libFaceDetect.so:_ZN12HaarDetector17resetDenoiseSigmaEv
libFaceDetect.so:_ZN12HaarDetector17resetMinNeighborsEv
libFaceDetect.so:_ZN12HaarDetector18highCannyThresholdEv
libFaceDetect.so:_ZN12HaarDetector18resetDenoiseRadiusEv
libFaceDetect.so:_ZN12HaarDetector19cannyPruningChangedEb
libFaceDetect.so:_ZN12HaarDetector19denoiseSigmaChangedEi
libFaceDetect.so:_ZN12HaarDetector19minNeighborsChangedEi
libFaceDetect.so:_ZN12HaarDetector20denoiseRadiusChangedEi
libFaceDetect.so:_ZN12HaarDetector20setLowCannyThresholdEd
libFaceDetect.so:_ZN12HaarDetector21setHighCannyThresholdEd
libFaceDetect.so:_ZN12HaarDetector22resetLowCannyThresholdEv
libFaceDetect.so:_ZN12HaarDetector23resetHighCannyThresholdEv
libFaceDetect.so:_ZN12HaarDetector24lowCannyThresholdChangedEd
libFaceDetect.so:_ZN12HaarDetector25highCannyThresholdChangedEd
libFaceDetect.so:_ZN12HaarDetector8equalizeEv
libFaceDetect.so:_ZN12HaarDetector9denoiseMuEv
libFaceDetect.so:_ZN12HaarDetectorC1EP7QObject
libFaceDetect.so:_ZN12HaarDetectorC2EP7QObject
libFaceDetect.so:_ZN12HaarDetectorD0Ev
libFaceDetect.so:_ZN12HaarDetectorD1Ev
libFaceDetect.so:_ZN12HaarDetectorD2Ev
libFaceDetect.so:_ZN12HaarStageHIDC1ERK9HaarStageiPKjS4_dd
libFaceDetect.so:_ZN12HaarStageHIDC2ERK9HaarStageiPKjS4_dd
libFaceDetect.so:_ZN12HaarStageHIDD1Ev
libFaceDetect.so:_ZN12HaarStageHIDD2Ev
libFaceDetect.so:_ZN14HaarCascadeHID3runEPS_
libFaceDetect.so:_ZN14HaarCascadeHIDC1ERK11HaarCascadeiiiiiiiPKjS4_dddbPS4_PPKyS5_S5_P5QListI5QRectEP6QMutex
libFaceDetect.so:_ZN14HaarCascadeHIDC2ERK11HaarCascadeiiiiiiiPKjS4_dddbPS4_PPKyS5_S5_P5QListI5QRectEP6QMutex
libFaceDetect.so:_ZN14HaarCascadeHIDD1Ev
libFaceDetect.so:_ZN14HaarCascadeHIDD2Ev
libFaceDetect.so:_ZN14HaarFeatureHIDC1ERK11HaarFeatureiPKjS4_dd
libFaceDetect.so:_ZN14HaarFeatureHIDC2ERK11HaarFeatureiPKjS4_dd
libFaceDetect.so:_ZN17FaceDetectElement10resetScaleEv
libFaceDetect.so:_ZN17FaceDetectElement10setHAdjustEi
libFaceDetect.so:_ZN17FaceDetectElement10setHOffsetEi
libFaceDetect.so:_ZN17FaceDetectElement10setVOffsetEi
libFaceDetect.so:_ZN17FaceDetectElement10setWAdjustEi
libFaceDetect.so:_ZN17FaceDetectElement11detectFacesERK13AkVideoPacket
libFaceDetect.so:_ZN17FaceDetectElement11qt_metacallEN11QMetaObject4CallEiPPv
libFaceDetect.so:_ZN17FaceDetectElement11qt_metacastEPKc
libFaceDetect.so:_ZN17FaceDetectElement11resetRScaleEv
libFaceDetect.so:_ZN17FaceDetectElement11setHaarFileERK7QString
libFaceDetect.so:_ZN17FaceDetectElement11setRHAdjustEi
libFaceDetect.so:_ZN17FaceDetectElement11setRHRadiusEi
libFaceDetect.so:_ZN17FaceDetectElement11setRVRadiusEi
libFaceDetect.so:_ZN17FaceDetectElement11setRWAdjustEi
libFaceDetect.so:_ZN17FaceDetectElement11setScanSizeERK5QSize
libFaceDetect.so:_ZN17FaceDetectElement12iVideoStreamERK13AkVideoPacket
libFaceDetect.so:_ZN17FaceDetectElement12resetHAdjustEv
libFaceDetect.so:_ZN17FaceDetectElement12resetHOffsetEv
libFaceDetect.so:_ZN17FaceDetectElement12resetVOffsetEv
libFaceDetect.so:_ZN17FaceDetectElement12resetWAdjustEv
libFaceDetect.so:_ZN17FaceDetectElement12scaleChangedEd
libFaceDetect.so:_ZN17FaceDetectElement13rScaleChangedEd
libFaceDetect.so:_ZN17FaceDetectElement13resetHaarFileEv
libFaceDetect.so:_ZN17FaceDetectElement13resetRHAdjustEv
libFaceDetect.so:_ZN17FaceDetectElement13resetRHRadiusEv
libFaceDetect.so:_ZN17FaceDetectElement13resetRVRadiusEv
libFaceDetect.so:_ZN17FaceDetectElement13resetRWAdjustEv
libFaceDetect.so:_ZN17FaceDetectElement13resetScanSizeEv
libFaceDetect.so:_ZN17FaceDetectElement13setBlurRadiusEi
libFaceDetect.so:_ZN17FaceDetectElement13setMarkerTypeENS_10MarkerTypeE
libFaceDetect.so:_ZN17FaceDetectElement14hAdjustChangedEi
libFaceDetect.so:_ZN17FaceDetectElement14hOffsetChangedEi
libFaceDetect.so:_ZN17FaceDetectElement14setMarkerColorEj
libFaceDetect.so:_ZN17FaceDetectElement14setMarkerImageERK7QString
libFaceDetect.so:_ZN17FaceDetectElement14setMarkerStyleERK7QString
libFaceDetect.so:_ZN17FaceDetectElement14setMarkerWidthEi
libFaceDetect.so:_ZN17FaceDetectElement14vOffsetChangedEi
libFaceDetect.so:_ZN17FaceDetectElement14wAdjustChangedEi
libFaceDetect.so:_ZN17FaceDetectElement15haarFileChangedERK7QString
libFaceDetect.so:_ZN17FaceDetectElement15rHAdjustChangedEi
libFaceDetect.so:_ZN17FaceDetectElement15rHRadiusChangedEi
libFaceDetect.so:_ZN17FaceDetectElement15rVRadiusChangedEi
libFaceDetect.so:_ZN17FaceDetectElement15rWAdjustChangedEi
libFaceDetect.so:_ZN17FaceDetectElement15resetBlurRadiusEv
libFaceDetect.so:_ZN17FaceDetectElement15resetMarkerTypeEv
libFaceDetect.so:_ZN17FaceDetectElement15scanSizeChangedERK5QSize
libFaceDetect.so:_ZN17FaceDetectElement15setSmootheEdgesEb
libFaceDetect.so:_ZN17FaceDetectElement16resetMarkerColorEv
libFaceDetect.so:_ZN17FaceDetectElement16resetMarkerImageEv
libFaceDetect.so:_ZN17FaceDetectElement16resetMarkerStyleEv
libFaceDetect.so:_ZN17FaceDetectElement16resetMarkerWidthEv
libFaceDetect.so:_ZN17FaceDetectElement16setPixelGridSizeERK5QSize
libFaceDetect.so:_ZN17FaceDetectElement16staticMetaObjectE
libFaceDetect.so:_ZN17FaceDetectElement17blurRadiusChangedEi
libFaceDetect.so:_ZN17FaceDetectElement17markerTypeChangedENS_10MarkerTypeE
libFaceDetect.so:_ZN17FaceDetectElement17resetSmootheEdgesEv
libFaceDetect.so:_ZN17FaceDetectElement18markerColorChangedEj
libFaceDetect.so:_ZN17FaceDetectElement18markerImageChangedERK7QString
libFaceDetect.so:_ZN17FaceDetectElement18markerStyleChangedERK7QString
libFaceDetect.so:_ZN17FaceDetectElement18markerWidthChangedEi
libFaceDetect.so:_ZN17FaceDetectElement18resetPixelGridSizeEv
libFaceDetect.so:_ZN17FaceDetectElement18setBackgroundImageERK7QString
libFaceDetect.so:_ZN17FaceDetectElement19smootheEdgesChangedEb
libFaceDetect.so:_ZN17FaceDetectElement20pixelGridSizeChangedERK5QSize
libFaceDetect.so:_ZN17FaceDetectElement20resetBackgroundImageEv
libFaceDetect.so:_ZN17FaceDetectElement22backgroundImageChangedERK7QString
libFaceDetect.so:_ZN17FaceDetectElement8setScaleEd
libFaceDetect.so:_ZN17FaceDetectElement9setRScaleEd
libFaceDetect.so:_ZN17FaceDetectElementC1Ev
libFaceDetect.so:_ZN17FaceDetectElementC2Ev
libFaceDetect.so:_ZN17FaceDetectElementD0Ev
libFaceDetect.so:_ZN17FaceDetectElementD1Ev
libFaceDetect.so:_ZN17FaceDetectElementD2Ev
libFaceDetect.so:_ZN8HaarTree11qt_metacallEN11QMetaObject4CallEiPPv
libFaceDetect.so:_ZN8HaarTree11qt_metacastEPKc
libFaceDetect.so:_ZN8HaarTree11setFeaturesERK5QListI11HaarFeatureE
libFaceDetect.so:_ZN8HaarTree13resetFeaturesEv
libFaceDetect.so:_ZN8HaarTree15featuresChangedERK5QListI11HaarFeatureE
libFaceDetect.so:_ZN8HaarTree16staticMetaObjectE
libFaceDetect.so:_ZN8HaarTree8featuresEv
libFaceDetect.so:_ZN8HaarTreeC1EP7QObject
libFaceDetect.so:_ZN8HaarTreeC1ERKS_
libFaceDetect.so:_ZN8HaarTreeC2EP7QObject
libFaceDetect.so:_ZN8HaarTreeC2ERKS_
libFaceDetect.so:_ZN8HaarTreeaSERKS_
libFaceDetect.so:_ZN9HaarStage10childStageEv
libFaceDetect.so:_ZN9HaarStage10resetTreesEv
libFaceDetect.so:_ZN9HaarStage11parentStageEv
libFaceDetect.so:_ZN9HaarStage11qt_metacallEN11QMetaObject4CallEiPPv
libFaceDetect.so:_ZN9HaarStage11qt_metacastEPKc
libFaceDetect.so:_ZN9HaarStage12setNextStageEi
libFaceDetect.so:_ZN9HaarStage12setThresholdEd
libFaceDetect.so:_ZN9HaarStage12treesChangedERK5QListI8HaarTreeE
libFaceDetect.so:_ZN9HaarStage13setChildStageEi
libFaceDetect.so:_ZN9HaarStage14resetNextStageEv
libFaceDetect.so:_ZN9HaarStage14resetThresholdEv
libFaceDetect.so:_ZN9HaarStage14setParentStageEi
libFaceDetect.so:_ZN9HaarStage15resetChildStageEv
libFaceDetect.so:_ZN9HaarStage16nextStageChangedEi
libFaceDetect.so:_ZN9HaarStage16resetParentStageEv
libFaceDetect.so:_ZN9HaarStage16staticMetaObjectE
libFaceDetect.so:_ZN9HaarStage16thresholdChangedEd
libFaceDetect.so:_ZN9HaarStage17childStageChangedEi
libFaceDetect.so:_ZN9HaarStage18parentStageChangedEi
libFaceDetect.so:_ZN9HaarStage5treesEv
libFaceDetect.so:_ZN9HaarStage8setTreesERK5QListI8HaarTreeE
libFaceDetect.so:_ZN9HaarStage9nextStageEv
libFaceDetect.so:_ZN9HaarStage9thresholdEv
libFaceDetect.so:_ZN9HaarStageC1EP7QObject
libFaceDetect.so:_ZN9HaarStageC1ERKS_
libFaceDetect.so:_ZN9HaarStageC2EP7QObject
libFaceDetect.so:_ZN9HaarStageC2ERKS_
libFaceDetect.so:_ZN9HaarStageD0Ev
libFaceDetect.so:_ZN9HaarStageD1Ev
libFaceDetect.so:_ZN9HaarStageD2Ev
libFaceDetect.so:_ZN9HaarStageaSERKS_
libFaceDetect.so:_ZNK10FaceDetect10metaObjectEv
libFaceDetect.so:_ZNK10FaceDetect4keysEv
libFaceDetect.so:_ZNK11HaarCascade10metaObjectEv
libFaceDetect.so:_ZNK11HaarCascade10windowSizeEv
libFaceDetect.so:_ZNK11HaarCascade11errorStringEv
libFaceDetect.so:_ZNK11HaarCascade4nameEv
libFaceDetect.so:_ZNK11HaarCascade6stagesEv
libFaceDetect.so:_ZNK11HaarCascadeeqERKS_
libFaceDetect.so:_ZNK11HaarCascadeneERKS_
libFaceDetect.so:_ZNK11HaarFeature10metaObjectEv
libFaceDetect.so:_ZNK11HaarFeature5rectsEv
libFaceDetect.so:_ZNK11HaarFeature6tiltedEv
libFaceDetect.so:_ZNK11HaarFeature6weightEv
libFaceDetect.so:_ZNK11HaarFeature7leftValEv
libFaceDetect.so:_ZNK11HaarFeature8leftNodeEv
libFaceDetect.so:_ZNK11HaarFeature8rightValEv
libFaceDetect.so:_ZNK11HaarFeature9rightNodeEv
libFaceDetect.so:_ZNK11HaarFeature9thresholdEv
libFaceDetect.so:_ZNK11HaarFeatureeqERKS_
libFaceDetect.so:_ZNK11HaarFeatureneERKS_
libFaceDetect.so:_ZNK12HaarDetector10metaObjectEv
libFaceDetect.so:_ZNK12HaarDetector12cannyPruningEv
libFaceDetect.so:_ZNK12HaarDetector12denoiseSigmaEv
libFaceDetect.so:_ZNK12HaarDetector12minNeighborsEv
libFaceDetect.so:_ZNK12HaarDetector13denoiseRadiusEv
libFaceDetect.so:_ZNK12HaarDetector17lowCannyThresholdEv
libFaceDetect.so:_ZNK12HaarDetector18highCannyThresholdEv
libFaceDetect.so:_ZNK12HaarDetector6detectERK6QImaged5QSizeS3_
libFaceDetect.so:_ZNK12HaarDetector8equalizeEv
libFaceDetect.so:_ZNK12HaarDetector9denoiseMuEv
libFaceDetect.so:_ZNK17FaceDetectElement10blurRadiusEv
libFaceDetect.so:_ZNK17FaceDetectElement10markerTypeEv
libFaceDetect.so:_ZNK17FaceDetectElement10metaObjectEv
libFaceDetect.so:_ZNK17FaceDetectElement11markerColorEv
libFaceDetect.so:_ZNK17FaceDetectElement11markerImageEv
libFaceDetect.so:_ZNK17FaceDetectElement11markerStyleEv
libFaceDetect.so:_ZNK17FaceDetectElement11markerWidthEv
libFaceDetect.so:_ZNK17FaceDetectElement12smootheEdgesEv
libFaceDetect.so:_ZNK17FaceDetectElement13pixelGridSizeEv
libFaceDetect.so:_ZNK17FaceDetectElement15backgroundImageEv
libFaceDetect.so:_ZNK17FaceDetectElement23controlInterfaceProvideERK7QString
libFaceDetect.so:_ZNK17FaceDetectElement25controlInterfaceConfigureEP11QQmlContextRK7QString
libFaceDetect.so:_ZNK17FaceDetectElement5scaleEv
libFaceDetect.so:_ZNK17FaceDetectElement6rScaleEv
libFaceDetect.so:_ZNK17FaceDetectElement7hAdjustEv
libFaceDetect.so:_ZNK17FaceDetectElement7hOffsetEv
libFaceDetect.so:_ZNK17FaceDetectElement7vOffsetEv
libFaceDetect.so:_ZNK17FaceDetectElement7wAdjustEv
libFaceDetect.so:_ZNK17FaceDetectElement8haarFileEv
libFaceDetect.so:_ZNK17FaceDetectElement8rHAdjustEv
libFaceDetect.so:_ZNK17FaceDetectElement8rHRadiusEv
libFaceDetect.so:_ZNK17FaceDetectElement8rVRadiusEv
libFaceDetect.so:_ZNK17FaceDetectElement8rWAdjustEv
libFaceDetect.so:_ZNK17FaceDetectElement8scanSizeEv
libFaceDetect.so:_ZNK19HaarDetectorPrivate10areSimilarERK5QRectS2_d
libFaceDetect.so:_ZNK19HaarDetectorPrivate11buildTablesERK5QListIiE
libFaceDetect.so:_ZNK19HaarDetectorPrivate11computeGrayERK6QImagebR5QListIhE
libFaceDetect.so:_ZNK19HaarDetectorPrivate12imagePaddingEiiRK5QListIhEiiRS1_
libFaceDetect.so:_ZNK19HaarDetectorPrivate13markRectangleERK5QListI5QRectERS0_IiEiid
libFaceDetect.so:_ZNK19HaarDetectorPrivate15computeIntegralEiiRK5QListIhERS0_IjE
libFaceDetect.so:_ZNK19HaarDetectorPrivate15computeIntegralEiiRK5QListIhERS0_IjERS0_IyE
libFaceDetect.so:_ZNK19HaarDetectorPrivate15computeIntegralEiiRK5QListIhERS0_IjERS0_IyES5_
libFaceDetect.so:_ZNK19HaarDetectorPrivate15computeIntegralEiiRK5QListIhEiRS0_IjE
libFaceDetect.so:_ZNK19HaarDetectorPrivate15groupRectanglesERK5QListI5QRectEid
libFaceDetect.so:_ZNK19HaarDetectorPrivate15makeWeightTableEi
libFaceDetect.so:_ZNK19HaarDetectorPrivate18calculateHistogramEiiRK5QListItEi
libFaceDetect.so:_ZNK19HaarDetectorPrivate18classifyRectanglesERK5QListI5QRectEdPi
libFaceDetect.so:_ZNK19HaarDetectorPrivate22hysteresisThresholdingEiiRK5QListIhE
libFaceDetect.so:_ZNK19HaarDetectorPrivate4otsuE5QListIiEi
libFaceDetect.so:_ZNK19HaarDetectorPrivate5cannyEiiRK5QListIhE
libFaceDetect.so:_ZNK19HaarDetectorPrivate5sobelEiiRK5QListIhERS0_ItERS1_
libFaceDetect.so:_ZNK19HaarDetectorPrivate5traceEiiR5QListIhEii
libFaceDetect.so:_ZNK19HaarDetectorPrivate7denoiseEiiRK5QListIhEiiiRS1_
libFaceDetect.so:_ZNK19HaarDetectorPrivate7forLoopEPdP5QListIiERKS1_IdEiiiiS3_
libFaceDetect.so:_ZNK19HaarDetectorPrivate8thinningEiiRK5QListItERKS0_IhE
libFaceDetect.so:_ZNK19HaarDetectorPrivate9thresholdEiiRK5QListItERKS0_IiES6_
libFaceDetect.so:_ZNK8HaarTree10metaObjectEv
libFaceDetect.so:_ZNK8HaarTree8featuresEv
libFaceDetect.so:_ZNK8HaarTreeeqERKS_
libFaceDetect.so:_ZNK8HaarTreeneERKS_
libFaceDetect.so:_ZNK9HaarStage10childStageEv
libFaceDetect.so:_ZNK9HaarStage10metaObjectEv
libFaceDetect.so:_ZNK9HaarStage11parentStageEv
libFaceDetect.so:_ZNK9HaarStage5treesEv
libFaceDetect.so:_ZNK9HaarStage9nextStageEv
libFaceDetect.so:_ZNK9HaarStage9thresholdEv
libFaceDetect.so:_ZNK9HaarStageeqERKS_
libFaceDetect.so:_ZNK9HaarStageneERKS_
libFaceDetect.so:_ZThn16_N10FaceDetect6createERK7QStringS2_
libFaceDetect.so:_ZThn16_NK10FaceDetect4keysEv
libFaceDetect.so:_ZlsR11QDataStreamN17FaceDetectElement10MarkerTypeE
libFaceDetect.so:_ZrsR11QDataStreamRN17FaceDetectElement10MarkerTypeE
libFaceDetect.so:qt_plugin_instance
libFaceDetect.so:qt_plugin_query_metadata_v2
libFaceTrack.so:_Z24qInitResources_FaceTrackv
libFaceTrack.so:_Z27qCleanupResources_FaceTrackv
libFaceTrack.so:_ZN16FaceTrackElement11qt_metacallEN11QMetaObject4CallEiPPv
libFaceTrack.so:_ZN16FaceTrackElement11qt_metacastEPKc
libFaceTrack.so:_ZN16FaceTrackElement11setHaarFileERK7QString
libFaceTrack.so:_ZN16FaceTrackElement11setScanSizeERK5QSize
libFaceTrack.so:_ZN16FaceTrackElement12iVideoStreamERK13AkVideoPacket
libFaceTrack.so:_ZN16FaceTrackElement13resetHaarFileEv
libFaceTrack.so:_ZN16FaceTrackElement13resetScanSizeEv
libFaceTrack.so:_ZN16FaceTrackElement13setExpandRateEi
libFaceTrack.so:_ZN16FaceTrackElement13setFaceMarginERK5QRect
libFaceTrack.so:_ZN16FaceTrackElement14setAspectRatioERK6AkFrac
libFaceTrack.so:_ZN16FaceTrackElement14setFacePaddingERK5QRect
libFaceTrack.so:_ZN16FaceTrackElement15haarFileChangedERK7QString
libFaceTrack.so:_ZN16FaceTrackElement15resetExpandRateEv
libFaceTrack.so:_ZN16FaceTrackElement15resetFaceMarginEv
libFaceTrack.so:_ZN16FaceTrackElement15scanSizeChangedERK5QSize
libFaceTrack.so:_ZN16FaceTrackElement15setContractRateEi
libFaceTrack.so:_ZN16FaceTrackElement16resetAspectRatioEv
libFaceTrack.so:_ZN16FaceTrackElement16resetFacePaddingEv
libFaceTrack.so:_ZN16FaceTrackElement16staticMetaObjectE
libFaceTrack.so:_ZN16FaceTrackElement17expandRateChangedEi
libFaceTrack.so:_ZN16FaceTrackElement17faceMarginChangedERK5QRect
libFaceTrack.so:_ZN16FaceTrackElement17resetContractRateEv
libFaceTrack.so:_ZN16FaceTrackElement17setFaceBucketSizeEi
libFaceTrack.so:_ZN16FaceTrackElement17setLockedViewportEb
libFaceTrack.so:_ZN16FaceTrackElement18aspectRatioChangedERK6AkFrac
libFaceTrack.so:_ZN16FaceTrackElement18facePaddingChangedERK5QRect
libFaceTrack.so:_ZN16FaceTrackElement18setFaceBucketCountEi
libFaceTrack.so:_ZN16FaceTrackElement19contractRateChangedEi
libFaceTrack.so:_ZN16FaceTrackElement19resetFaceBucketSizeEv
libFaceTrack.so:_ZN16FaceTrackElement19resetLockedViewportEv
libFaceTrack.so:_ZN16FaceTrackElement19setDebugModeEnabledEb
libFaceTrack.so:_ZN16FaceTrackElement20resetFaceBucketCountEv
libFaceTrack.so:_ZN16FaceTrackElement21faceBucketSizeChangedEi
libFaceTrack.so:_ZN16FaceTrackElement21lockedViewportChangedEb
libFaceTrack.so:_ZN16FaceTrackElement21resetDebugModeEnabledEv
libFaceTrack.so:_ZN16FaceTrackElement22faceBucketCountChangedEi
libFaceTrack.so:_ZN16FaceTrackElement22setOverrideAspectRatioEb
libFaceTrack.so:_ZN16FaceTrackElement23debugModeEnabledChangedEb
libFaceTrack.so:_ZN16FaceTrackElement24resetOverrideAspectRatioEv
libFaceTrack.so:_ZN16FaceTrackElement26overrideAspectRatioChangedEb
libFaceTrack.so:_ZN16FaceTrackElementC1Ev
libFaceTrack.so:_ZN16FaceTrackElementC2Ev
libFaceTrack.so:_ZN16FaceTrackElementD0Ev
libFaceTrack.so:_ZN16FaceTrackElementD1Ev
libFaceTrack.so:_ZN16FaceTrackElementD2Ev
libFaceTrack.so:_ZN23FaceTrackElementPrivate12collectFacesERK5QListI5QRectE
libFaceTrack.so:_ZN23FaceTrackElementPrivate18calculateNewBoundsERK5QRectRK5QSizeS5_
libFaceTrack.so:_ZN9FaceTrack11qt_metacallEN11QMetaObject4CallEiPPv
libFaceTrack.so:_ZN9FaceTrack11qt_metacastEPKc
libFaceTrack.so:_ZN9FaceTrack16staticMetaObjectE
libFaceTrack.so:_ZN9FaceTrack6createERK7QStringS2_
libFaceTrack.so:_ZNK16FaceTrackElement10expandRateEv
libFaceTrack.so:_ZNK16FaceTrackElement10faceMarginEv
libFaceTrack.so:_ZNK16FaceTrackElement10metaObjectEv
libFaceTrack.so:_ZNK16FaceTrackElement11aspectRatioEv
libFaceTrack.so:_ZNK16FaceTrackElement11facePaddingEv
libFaceTrack.so:_ZNK16FaceTrackElement12contractRateEv
libFaceTrack.so:_ZNK16FaceTrackElement14faceBucketSizeEv
libFaceTrack.so:_ZNK16FaceTrackElement14lockedViewportEv
libFaceTrack.so:_ZNK16FaceTrackElement15faceBucketCountEv
libFaceTrack.so:_ZNK16FaceTrackElement16debugModeEnabledEv
libFaceTrack.so:_ZNK16FaceTrackElement19overrideAspectRatioEv
libFaceTrack.so:_ZNK16FaceTrackElement23controlInterfaceProvideERK7QString
libFaceTrack.so:_ZNK16FaceTrackElement25controlInterfaceConfigureEP11QQmlContextRK7QString
libFaceTrack.so:_ZNK16FaceTrackElement8haarFileEv
libFaceTrack.so:_ZNK16FaceTrackElement8scanSizeEv
libFaceTrack.so:_ZNK9FaceTrack10metaObjectEv
libFaceTrack.so:_ZNK9FaceTrack4keysEv
libFaceTrack.so:_ZThn16_N9FaceTrack6createERK7QStringS2_
libFaceTrack.so:_ZThn16_NK9FaceTrack4keysEv
libFaceTrack.so:qt_plugin_instance
libFaceTrack.so:qt_plugin_query_metadata_v2
libFalseColor.so:_Z25qInitResources_FalseColorv
libFalseColor.so:_Z28qCleanupResources_FalseColorv
libFalseColor.so:_ZN10FalseColor11qt_metacallEN11QMetaObject4CallEiPPv
libFalseColor.so:_ZN10FalseColor11qt_metacastEPKc
libFalseColor.so:_ZN10FalseColor16staticMetaObjectE
libFalseColor.so:_ZN10FalseColor6createERK7QStringS2_
libFalseColor.so:_ZN17FalseColorElement10clearTableEv
libFalseColor.so:_ZN17FalseColorElement10resetTableEv
libFalseColor.so:_ZN17FalseColorElement11qt_metacallEN11QMetaObject4CallEiPPv
libFalseColor.so:_ZN17FalseColorElement11qt_metacastEPKc
libFalseColor.so:_ZN17FalseColorElement11removeColorEi
libFalseColor.so:_ZN17FalseColorElement11softChangedEb
libFalseColor.so:_ZN17FalseColorElement12iVideoStreamERK13AkVideoPacket
libFalseColor.so:_ZN17FalseColorElement12tableChangedERK5QListI8QVariantE
libFalseColor.so:_ZN17FalseColorElement16staticMetaObjectE
libFalseColor.so:_ZN17FalseColorElement7colorAtEi
libFalseColor.so:_ZN17FalseColorElement7setSoftEb
libFalseColor.so:_ZN17FalseColorElement8addColorEj
libFalseColor.so:_ZN17FalseColorElement8setColorEij
libFalseColor.so:_ZN17FalseColorElement8setTableERK5QListI8QVariantE
libFalseColor.so:_ZN17FalseColorElement9resetSoftEv
libFalseColor.so:_ZN17FalseColorElementC1Ev
libFalseColor.so:_ZN17FalseColorElementC2Ev
libFalseColor.so:_ZN17FalseColorElementD0Ev
libFalseColor.so:_ZN17FalseColorElementD1Ev
libFalseColor.so:_ZN17FalseColorElementD2Ev
libFalseColor.so:_ZNK10FalseColor10metaObjectEv
libFalseColor.so:_ZNK10FalseColor4keysEv
libFalseColor.so:_ZNK17FalseColorElement10metaObjectEv
libFalseColor.so:_ZNK17FalseColorElement23controlInterfaceProvideERK7QString
libFalseColor.so:_ZNK17FalseColorElement25controlInterfaceConfigureEP11QQmlContextRK7QString
libFalseColor.so:_ZNK17FalseColorElement4softEv
libFalseColor.so:_ZNK17FalseColorElement5tableEv
libFalseColor.so:_ZThn16_N10FalseColor6createERK7QStringS2_
libFalseColor.so:_ZThn16_NK10FalseColor4keysEv
libFalseColor.so:qt_plugin_instance
libFalseColor.so:qt_plugin_query_metadata_v2
libFire.so:_Z19qInitResources_Firev
libFire.so:_Z22qCleanupResources_Firev
libFire.so:_ZN11FireElement10setNColorsEi
libFire.so:_ZN11FireElement11blurChangedEi
libFire.so:_ZN11FireElement11coolChangedEi
libFire.so:_ZN11FireElement11modeChangedENS_8FireModeE
libFire.so:_ZN11FireElement11qt_metacallEN11QMetaObject4CallEiPPv
libFire.so:_ZN11FireElement11qt_metacastEPKc
libFire.so:_ZN11FireElement11setDissolveEd
libFire.so:_ZN11FireElement11zoomChangedEd
libFire.so:_ZN11FireElement12iVideoStreamERK13AkVideoPacket
libFire.so:_ZN11FireElement12resetNColorsEv
libFire.so:_ZN11FireElement12setAlphaDiffEi
libFire.so:_ZN11FireElement12setThresholdEi
libFire.so:_ZN11FireElement13resetDissolveEv
libFire.so:_ZN11FireElement14nColorsChangedEi
libFire.so:_ZN11FireElement14resetAlphaDiffEv
libFire.so:_ZN11FireElement14resetThresholdEv
libFire.so:_ZN11FireElement15dissolveChangedEd
libFire.so:_ZN11FireElement16alphaDiffChangedEi
libFire.so:_ZN11FireElement16setLumaThresholdEi
libFire.so:_ZN11FireElement16staticMetaObjectE
libFire.so:_ZN11FireElement16thresholdChangedEi
libFire.so:_ZN11FireElement17setAlphaVariationEi
libFire.so:_ZN11FireElement18resetLumaThresholdEv
libFire.so:_ZN11FireElement19resetAlphaVariationEv
libFire.so:_ZN11FireElement20lumaThresholdChangedEi
libFire.so:_ZN11FireElement21alphaVariationChangedEi
libFire.so:_ZN11FireElement7setBlurEi
libFire.so:_ZN11FireElement7setCoolEi
libFire.so:_ZN11FireElement7setModeERKNS_8FireModeE
libFire.so:_ZN11FireElement7setZoomEd
libFire.so:_ZN11FireElement9resetBlurEv
libFire.so:_ZN11FireElement9resetCoolEv
libFire.so:_ZN11FireElement9resetModeEv
libFire.so:_ZN11FireElement9resetZoomEv
libFire.so:_ZN11FireElementC1Ev
libFire.so:_ZN11FireElementC2Ev
libFire.so:_ZN11FireElementD0Ev
libFire.so:_ZN11FireElementD1Ev
libFire.so:_ZN11FireElementD2Ev
libFire.so:_ZN18FireElementPrivate13createPaletteEv
libFire.so:_ZN18FireElementPrivate13dissolveImageER13AkVideoPacketd
libFire.so:_ZN18FireElementPrivate14imageAlphaDiffER13AkVideoPacketi
libFire.so:_ZN18FireElementPrivate4burnERK13AkVideoPacketPKj
libFire.so:_ZN18FireElementPrivate9coolImageER13AkVideoPacketi
libFire.so:_ZN18FireElementPrivate9imageDiffERK13AkVideoPacketS2_iiiiN11FireElement8FireModeE
libFire.so:_ZN18FireElementPrivate9zoomImageERK13AkVideoPacketd
libFire.so:_ZN4Fire11qt_metacallEN11QMetaObject4CallEiPPv
libFire.so:_ZN4Fire11qt_metacastEPKc
libFire.so:_ZN4Fire16staticMetaObjectE
libFire.so:_ZN4Fire6createERK7QStringS2_
libFire.so:_ZNK11FireElement10metaObjectEv
libFire.so:_ZNK11FireElement13lumaThresholdEv
libFire.so:_ZNK11FireElement14alphaVariationEv
libFire.so:_ZNK11FireElement23controlInterfaceProvideERK7QString
libFire.so:_ZNK11FireElement25controlInterfaceConfigureEP11QQmlContextRK7QString
libFire.so:_ZNK11FireElement4blurEv
libFire.so:_ZNK11FireElement4coolEv
libFire.so:_ZNK11FireElement4modeEv
libFire.so:_ZNK11FireElement4zoomEv
libFire.so:_ZNK11FireElement7nColorsEv
libFire.so:_ZNK11FireElement8dissolveEv
libFire.so:_ZNK11FireElement9alphaDiffEv
libFire.so:_ZNK11FireElement9thresholdEv
libFire.so:_ZNK4Fire10metaObjectEv
libFire.so:_ZNK4Fire4keysEv
libFire.so:_ZThn16_N4Fire6createERK7QStringS2_
libFire.so:_ZThn16_NK4Fire4keysEv
libFire.so:_ZlsR11QDataStreamN11FireElement8FireModeE
libFire.so:_ZrsR11QDataStreamRN11FireElement8FireModeE
libFire.so:qt_plugin_instance
libFire.so:qt_plugin_query_metadata_v2
libFlip.so:_Z19qInitResources_Flipv
libFlip.so:_Z22qCleanupResources_Flipv
libFlip.so:_ZN11FlipElement11qt_metacallEN11QMetaObject4CallEiPPv
libFlip.so:_ZN11FlipElement11qt_metacastEPKc
libFlip.so:_ZN11FlipElement12iVideoStreamERK13AkVideoPacket
libFlip.so:_ZN11FlipElement15setVerticalFlipEb
libFlip.so:_ZN11FlipElement16staticMetaObjectE
libFlip.so:_ZN11FlipElement17resetVerticalFlipEv
libFlip.so:_ZN11FlipElement17setHorizontalFlipEb
libFlip.so:_ZN11FlipElement19resetHorizontalFlipEv
libFlip.so:_ZN11FlipElement19verticalFlipChangedEb
libFlip.so:_ZN11FlipElement21horizontalFlipChangedEb
libFlip.so:_ZN11FlipElementC1Ev
libFlip.so:_ZN11FlipElementC2Ev
libFlip.so:_ZN11FlipElementD0Ev
libFlip.so:_ZN11FlipElementD1Ev
libFlip.so:_ZN11FlipElementD2Ev
libFlip.so:_ZN4Flip11qt_metacallEN11QMetaObject4CallEiPPv
libFlip.so:_ZN4Flip11qt_metacastEPKc
libFlip.so:_ZN4Flip16staticMetaObjectE
libFlip.so:_ZN4Flip6createERK7QStringS2_
libFlip.so:_ZNK11FlipElement10metaObjectEv
libFlip.so:_ZNK11FlipElement12verticalFlipEv
libFlip.so:_ZNK11FlipElement14horizontalFlipEv
libFlip.so:_ZNK11FlipElement23controlInterfaceProvideERK7QString
libFlip.so:_ZNK11FlipElement25controlInterfaceConfigureEP11QQmlContextRK7QString
libFlip.so:_ZNK4Flip10metaObjectEv
libFlip.so:_ZNK4Flip4keysEv
libFlip.so:_ZThn16_N4Flip6createERK7QStringS2_
libFlip.so:_ZThn16_NK4Flip4keysEv
libFlip.so:qt_plugin_instance
libFlip.so:qt_plugin_query_metadata_v2
libFrameOverlap.so:_Z27qInitResources_FrameOverlapv
libFrameOverlap.so:_Z30qCleanupResources_FrameOverlapv
libFrameOverlap.so:_ZN12FrameOverlap11qt_metacallEN11QMetaObject4CallEiPPv
libFrameOverlap.so:_ZN12FrameOverlap11qt_metacastEPKc
libFrameOverlap.so:_ZN12FrameOverlap16staticMetaObjectE
libFrameOverlap.so:_ZN12FrameOverlap6createERK7QStringS2_
libFrameOverlap.so:_ZN19FrameOverlapElement10setNFramesEi
libFrameOverlap.so:_ZN19FrameOverlapElement11qt_metacallEN11QMetaObject4CallEiPPv
libFrameOverlap.so:_ZN19FrameOverlapElement11qt_metacastEPKc
libFrameOverlap.so:_ZN19FrameOverlapElement11resetStrideEv
libFrameOverlap.so:_ZN19FrameOverlapElement12iVideoStreamERK13AkVideoPacket
libFrameOverlap.so:_ZN19FrameOverlapElement12resetNFramesEv
libFrameOverlap.so:_ZN19FrameOverlapElement13strideChangedEi
libFrameOverlap.so:_ZN19FrameOverlapElement14nFramesChangedEi
libFrameOverlap.so:_ZN19FrameOverlapElement16staticMetaObjectE
libFrameOverlap.so:_ZN19FrameOverlapElement9setStrideEi
libFrameOverlap.so:_ZN19FrameOverlapElementC1Ev
libFrameOverlap.so:_ZN19FrameOverlapElementC2Ev
libFrameOverlap.so:_ZN19FrameOverlapElementD0Ev
libFrameOverlap.so:_ZN19FrameOverlapElementD1Ev
libFrameOverlap.so:_ZN19FrameOverlapElementD2Ev
libFrameOverlap.so:_ZNK12FrameOverlap10metaObjectEv
libFrameOverlap.so:_ZNK12FrameOverlap4keysEv
libFrameOverlap.so:_ZNK19FrameOverlapElement10metaObjectEv
libFrameOverlap.so:_ZNK19FrameOverlapElement23controlInterfaceProvideERK7QString
libFrameOverlap.so:_ZNK19FrameOverlapElement25controlInterfaceConfigureEP11QQmlContextRK7QString
libFrameOverlap.so:_ZNK19FrameOverlapElement6strideEv
libFrameOverlap.so:_ZNK19FrameOverlapElement7nFramesEv
libFrameOverlap.so:_ZThn16_N12FrameOverlap6createERK7QStringS2_
libFrameOverlap.so:_ZThn16_NK12FrameOverlap4keysEv
libFrameOverlap.so:qt_plugin_instance
libFrameOverlap.so:qt_plugin_query_metadata_v2
libGamma.so:_Z20qInitResources_Gammav
libGamma.so:_Z23qCleanupResources_Gammav
libGamma.so:_ZN12GammaElement10resetGammaEv
libGamma.so:_ZN12GammaElement11qt_metacallEN11QMetaObject4CallEiPPv
libGamma.so:_ZN12GammaElement11qt_metacastEPKc
libGamma.so:_ZN12GammaElement12gammaChangedEi
libGamma.so:_ZN12GammaElement12iVideoStreamERK13AkVideoPacket
libGamma.so:_ZN12GammaElement16staticMetaObjectE
libGamma.so:_ZN12GammaElement8setGammaEi
libGamma.so:_ZN12GammaElementC1Ev
libGamma.so:_ZN12GammaElementC2Ev
libGamma.so:_ZN12GammaElementD0Ev
libGamma.so:_ZN12GammaElementD1Ev
libGamma.so:_ZN12GammaElementD2Ev
libGamma.so:_ZN5Gamma11qt_metacallEN11QMetaObject4CallEiPPv
libGamma.so:_ZN5Gamma11qt_metacastEPKc
libGamma.so:_ZN5Gamma16staticMetaObjectE
libGamma.so:_ZN5Gamma6createERK7QStringS2_
libGamma.so:_ZNK12GammaElement10metaObjectEv
libGamma.so:_ZNK12GammaElement23controlInterfaceProvideERK7QString
libGamma.so:_ZNK12GammaElement25controlInterfaceConfigureEP11QQmlContextRK7QString
libGamma.so:_ZNK12GammaElement5gammaEv
libGamma.so:_ZNK5Gamma10metaObjectEv
libGamma.so:_ZNK5Gamma4keysEv
libGamma.so:_ZThn16_N5Gamma6createERK7QStringS2_
libGamma.so:_ZThn16_NK5Gamma4keysEv
libGamma.so:qt_plugin_instance
libGamma.so:qt_plugin_query_metadata_v2
libGrayScale.so:_ZN16GrayScaleElement11qt_metacallEN11QMetaObject4CallEiPPv
libGrayScale.so:_ZN16GrayScaleElement11qt_metacastEPKc
libGrayScale.so:_ZN16GrayScaleElement12iVideoStreamERK13AkVideoPacket
libGrayScale.so:_ZN16GrayScaleElement16staticMetaObjectE
libGrayScale.so:_ZN16GrayScaleElementC1Ev
libGrayScale.so:_ZN16GrayScaleElementC2Ev
libGrayScale.so:_ZN16GrayScaleElementD0Ev
libGrayScale.so:_ZN16GrayScaleElementD1Ev
libGrayScale.so:_ZN16GrayScaleElementD2Ev
libGrayScale.so:_ZN9GrayScale11qt_metacallEN11QMetaObject4CallEiPPv
libGrayScale.so:_ZN9GrayScale11qt_metacastEPKc
libGrayScale.so:_ZN9GrayScale16staticMetaObjectE
libGrayScale.so:_ZN9GrayScale6createERK7QStringS2_
libGrayScale.so:_ZNK16GrayScaleElement10metaObjectEv
libGrayScale.so:_ZNK9GrayScale10metaObjectEv
libGrayScale.so:_ZNK9GrayScale4keysEv
libGrayScale.so:_ZThn16_N9GrayScale6createERK7QStringS2_
libGrayScale.so:_ZThn16_NK9GrayScale4keysEv
libGrayScale.so:qt_plugin_instance
libGrayScale.so:qt_plugin_query_metadata_v2
libHalftone.so:_Z23qInitResources_Halftonev
libHalftone.so:_Z26qCleanupResources_Halftonev
libHalftone.so:_ZN15HalftoneElement10resetSlopeEv
libHalftone.so:_ZN15HalftoneElement10setPatternERK7QString
libHalftone.so:_ZN15HalftoneElement11qt_metacallEN11QMetaObject4CallEiPPv
libHalftone.so:_ZN15HalftoneElement11qt_metacastEPKc
libHalftone.so:_ZN15HalftoneElement12iVideoStreamERK13AkVideoPacket
libHalftone.so:_ZN15HalftoneElement12resetPatternEv
libHalftone.so:_ZN15HalftoneElement12setLightningEi
libHalftone.so:_ZN15HalftoneElement12slopeChangedEd
libHalftone.so:_ZN15HalftoneElement14patternChangedERK7QString
libHalftone.so:_ZN15HalftoneElement14resetLightningEv
libHalftone.so:_ZN15HalftoneElement14setPatternSizeERK5QSize
libHalftone.so:_ZN15HalftoneElement15setInterceptionEd
libHalftone.so:_ZN15HalftoneElement16lightningChangedEi
libHalftone.so:_ZN15HalftoneElement16resetPatternSizeEv
libHalftone.so:_ZN15HalftoneElement16staticMetaObjectE
libHalftone.so:_ZN15HalftoneElement17resetInterceptionEv
libHalftone.so:_ZN15HalftoneElement18patternSizeChangedERK5QSize
libHalftone.so:_ZN15HalftoneElement19interceptionChangedEd
libHalftone.so:_ZN15HalftoneElement8setSlopeEd
libHalftone.so:_ZN15HalftoneElementC1Ev
libHalftone.so:_ZN15HalftoneElementC2Ev
libHalftone.so:_ZN15HalftoneElementD0Ev
libHalftone.so:_ZN15HalftoneElementD1Ev
libHalftone.so:_ZN15HalftoneElementD2Ev
libHalftone.so:_ZN22HalftoneElementPrivate13updatePatternEv
libHalftone.so:_ZN8Halftone11qt_metacallEN11QMetaObject4CallEiPPv
libHalftone.so:_ZN8Halftone11qt_metacastEPKc
libHalftone.so:_ZN8Halftone16staticMetaObjectE
libHalftone.so:_ZN8Halftone6createERK7QStringS2_
libHalftone.so:_ZNK15HalftoneElement10metaObjectEv
libHalftone.so:_ZNK15HalftoneElement11patternSizeEv
libHalftone.so:_ZNK15HalftoneElement12interceptionEv
libHalftone.so:_ZNK15HalftoneElement23controlInterfaceProvideERK7QString
libHalftone.so:_ZNK15HalftoneElement25controlInterfaceConfigureEP11QQmlContextRK7QString
libHalftone.so:_ZNK15HalftoneElement5slopeEv
libHalftone.so:_ZNK15HalftoneElement7patternEv
libHalftone.so:_ZNK15HalftoneElement9lightningEv
libHalftone.so:_ZNK8Halftone10metaObjectEv
libHalftone.so:_ZNK8Halftone4keysEv
libHalftone.so:_ZThn16_N8Halftone6createERK7QStringS2_
libHalftone.so:_ZThn16_NK8Halftone4keysEv
libHalftone.so:qt_plugin_instance
libHalftone.so:qt_plugin_query_metadata_v2
libHypnotic.so:_Z23qInitResources_Hypnoticv
libHypnotic.so:_Z26qCleanupResources_Hypnoticv
libHypnotic.so:_ZN15HypnoticElement11modeChangedENS_9OpticModeE
libHypnotic.so:_ZN15HypnoticElement11qt_metacallEN11QMetaObject4CallEiPPv
libHypnotic.so:_ZN15HypnoticElement11qt_metacastEPKc
libHypnotic.so:_ZN15HypnoticElement11setSpeedIncEi
libHypnotic.so:_ZN15HypnoticElement12iVideoStreamERK13AkVideoPacket
libHypnotic.so:_ZN15HypnoticElement12setThresholdEi
libHypnotic.so:_ZN15HypnoticElement13resetSpeedIncEv
libHypnotic.so:_ZN15HypnoticElement14resetThresholdEv
libHypnotic.so:_ZN15HypnoticElement15speedIncChangedEi
libHypnotic.so:_ZN15HypnoticElement16staticMetaObjectE
libHypnotic.so:_ZN15HypnoticElement16thresholdChangedEi
libHypnotic.so:_ZN15HypnoticElement7setModeENS_9OpticModeE
libHypnotic.so:_ZN15HypnoticElement9resetModeEv
libHypnotic.so:_ZN15HypnoticElementC1Ev
libHypnotic.so:_ZN15HypnoticElementC2Ev
libHypnotic.so:_ZN15HypnoticElementD0Ev
libHypnotic.so:_ZN15HypnoticElementD1Ev
libHypnotic.so:_ZN15HypnoticElementD2Ev
libHypnotic.so:_ZN8Hypnotic11qt_metacallEN11QMetaObject4CallEiPPv
libHypnotic.so:_ZN8Hypnotic11qt_metacastEPKc
libHypnotic.so:_ZN8Hypnotic16staticMetaObjectE
libHypnotic.so:_ZN8Hypnotic6createERK7QStringS2_
libHypnotic.so:_ZNK15HypnoticElement10metaObjectEv
libHypnotic.so:_ZNK15HypnoticElement23controlInterfaceProvideERK7QString
libHypnotic.so:_ZNK15HypnoticElement25controlInterfaceConfigureEP11QQmlContextRK7QString
libHypnotic.so:_ZNK15HypnoticElement4modeEv
libHypnotic.so:_ZNK15HypnoticElement8speedIncEv
libHypnotic.so:_ZNK15HypnoticElement9thresholdEv
libHypnotic.so:_ZNK8Hypnotic10metaObjectEv
libHypnotic.so:_ZNK8Hypnotic4keysEv
libHypnotic.so:_ZThn16_N8Hypnotic6createERK7QStringS2_
libHypnotic.so:_ZThn16_NK8Hypnotic4keysEv
libHypnotic.so:_ZlsR11QDataStreamN15HypnoticElement9OpticModeE
libHypnotic.so:_ZrsR11QDataStreamRN15HypnoticElement9OpticModeE
libHypnotic.so:qt_plugin_instance
libHypnotic.so:qt_plugin_query_metadata_v2
libImageSrc.so:_Z23qInitResources_ImageSrcv
libImageSrc.so:_Z26qCleanupResources_ImageSrcv
libImageSrc.so:_ZN15ImageSrcElement10fpsChangedERK6AkFrac
libImageSrc.so:_ZN15ImageSrcElement10resetMediaEv
libImageSrc.so:_ZN15ImageSrcElement11descriptionERK7QString
libImageSrc.so:_ZN15ImageSrcElement11loopChangedEb
libImageSrc.so:_ZN15ImageSrcElement11qt_metacallEN11QMetaObject4CallEiPPv
libImageSrc.so:_ZN15ImageSrcElement11qt_metacastEPKc
libImageSrc.so:_ZN15ImageSrcElement11setForceFpsEb
libImageSrc.so:_ZN15ImageSrcElement11sizeChangedERK5QSize
libImageSrc.so:_ZN15ImageSrcElement12mediaChangedERK7QString
libImageSrc.so:_ZN15ImageSrcElement13defaultStreamEN6AkCaps8CapsTypeE
libImageSrc.so:_ZN15ImageSrcElement13mediasChangedERK5QListI7QStringE
libImageSrc.so:_ZN15ImageSrcElement13resetForceFpsEv
libImageSrc.so:_ZN15ImageSrcElement14streamsChangedERK5QListIiE
libImageSrc.so:_ZN15ImageSrcElement15forceFpsChangedEb
libImageSrc.so:_ZN15ImageSrcElement16staticMetaObjectE
libImageSrc.so:_ZN15ImageSrcElement17isAnimatedChangedEb
libImageSrc.so:_ZN15ImageSrcElement4capsEi
libImageSrc.so:_ZN15ImageSrcElement5errorERK7QString
libImageSrc.so:_ZN15ImageSrcElement6mediasEv
libImageSrc.so:_ZN15ImageSrcElement6setFpsERK6AkFrac
libImageSrc.so:_ZN15ImageSrcElement7streamsEv
libImageSrc.so:_ZN15ImageSrcElement8resetFpsEv
libImageSrc.so:_ZN15ImageSrcElement8setMediaERK7QString
libImageSrc.so:_ZN15ImageSrcElement8setStateEN9AkElement12ElementStateE
libImageSrc.so:_ZN15ImageSrcElementC1Ev
libImageSrc.so:_ZN15ImageSrcElementC2Ev
libImageSrc.so:_ZN15ImageSrcElementD0Ev
libImageSrc.so:_ZN15ImageSrcElementD1Ev
libImageSrc.so:_ZN15ImageSrcElementD2Ev
libImageSrc.so:_ZN22ImageSrcElementPrivate10sendPacketERK8AkPacket
libImageSrc.so:_ZN22ImageSrcElementPrivate9readFrameEv
libImageSrc.so:_ZN22ImageSrcElementPrivateC1EP15ImageSrcElement
libImageSrc.so:_ZN22ImageSrcElementPrivateC2EP15ImageSrcElement
libImageSrc.so:_ZN8ImageSrc11qt_metacallEN11QMetaObject4CallEiPPv
libImageSrc.so:_ZN8ImageSrc11qt_metacastEPKc
libImageSrc.so:_ZN8ImageSrc16staticMetaObjectE
libImageSrc.so:_ZN8ImageSrc6createERK7QStringS2_
libImageSrc.so:_ZNK15ImageSrcElement10isAnimatedEv
libImageSrc.so:_ZNK15ImageSrcElement10metaObjectEv
libImageSrc.so:_ZNK15ImageSrcElement16supportedFormatsEv
libImageSrc.so:_ZNK15ImageSrcElement23controlInterfaceProvideERK7QString
libImageSrc.so:_ZNK15ImageSrcElement25controlInterfaceConfigureEP11QQmlContextRK7QString
libImageSrc.so:_ZNK15ImageSrcElement3fpsEv
libImageSrc.so:_ZNK15ImageSrcElement5mediaEv
libImageSrc.so:_ZNK15ImageSrcElement8forceFpsEv
libImageSrc.so:_ZNK8ImageSrc10metaObjectEv
libImageSrc.so:_ZNK8ImageSrc4keysEv
libImageSrc.so:_ZThn16_N8ImageSrc6createERK7QStringS2_
libImageSrc.so:_ZThn16_NK8ImageSrc4keysEv
libImageSrc.so:qt_plugin_instance
libImageSrc.so:qt_plugin_query_metadata_v2
libImplode.so:_Z22qInitResources_Implodev
libImplode.so:_Z25qCleanupResources_Implodev
libImplode.so:_ZN14ImplodeElement11qt_metacallEN11QMetaObject4CallEiPPv
libImplode.so:_ZN14ImplodeElement11qt_metacastEPKc
libImplode.so:_ZN14ImplodeElement11resetAmountEv
libImplode.so:_ZN14ImplodeElement12iVideoStreamERK13AkVideoPacket
libImplode.so:_ZN14ImplodeElement13amountChangedEd
libImplode.so:_ZN14ImplodeElement16staticMetaObjectE
libImplode.so:_ZN14ImplodeElement9setAmountEd
libImplode.so:_ZN14ImplodeElementC1Ev
libImplode.so:_ZN14ImplodeElementC2Ev
libImplode.so:_ZN14ImplodeElementD0Ev
libImplode.so:_ZN14ImplodeElementD1Ev
libImplode.so:_ZN14ImplodeElementD2Ev
libImplode.so:_ZN7Implode11qt_metacallEN11QMetaObject4CallEiPPv
libImplode.so:_ZN7Implode11qt_metacastEPKc
libImplode.so:_ZN7Implode16staticMetaObjectE
libImplode.so:_ZN7Implode6createERK7QStringS2_
libImplode.so:_ZNK14ImplodeElement10metaObjectEv
libImplode.so:_ZNK14ImplodeElement23controlInterfaceProvideERK7QString
libImplode.so:_ZNK14ImplodeElement25controlInterfaceConfigureEP11QQmlContextRK7QString
libImplode.so:_ZNK14ImplodeElement6amountEv
libImplode.so:_ZNK7Implode10metaObjectEv
libImplode.so:_ZNK7Implode4keysEv
libImplode.so:_ZThn16_N7Implode6createERK7QStringS2_
libImplode.so:_ZThn16_NK7Implode4keysEv
libImplode.so:qt_plugin_instance
libImplode.so:qt_plugin_query_metadata_v2
libInvert.so:_ZN13InvertElement11qt_metacallEN11QMetaObject4CallEiPPv
libInvert.so:_ZN13InvertElement11qt_metacastEPKc
libInvert.so:_ZN13InvertElement12iVideoStreamERK13AkVideoPacket
libInvert.so:_ZN13InvertElement16staticMetaObjectE
libInvert.so:_ZN13InvertElementC1Ev
libInvert.so:_ZN13InvertElementC2Ev
libInvert.so:_ZN13InvertElementD0Ev
libInvert.so:_ZN13InvertElementD1Ev
libInvert.so:_ZN13InvertElementD2Ev
libInvert.so:_ZN6Invert11qt_metacallEN11QMetaObject4CallEiPPv
libInvert.so:_ZN6Invert11qt_metacastEPKc
libInvert.so:_ZN6Invert16staticMetaObjectE
libInvert.so:_ZN6Invert6createERK7QStringS2_
libInvert.so:_ZNK13InvertElement10metaObjectEv
libInvert.so:_ZNK6Invert10metaObjectEv
libInvert.so:_ZNK6Invert4keysEv
libInvert.so:_ZThn16_N6Invert6createERK7QStringS2_
libInvert.so:_ZThn16_NK6Invert4keysEv
libInvert.so:qt_plugin_instance
libInvert.so:qt_plugin_query_metadata_v2
libLife.so:_Z19qInitResources_Lifev
libLife.so:_Z22qCleanupResources_Lifev
libLife.so:_ZN11LifeElement11qt_metacallEN11QMetaObject4CallEiPPv
libLife.so:_ZN11LifeElement11qt_metacastEPKc
libLife.so:_ZN11LifeElement12iVideoStreamERK13AkVideoPacket
libLife.so:_ZN11LifeElement12setLifeColorEj
libLife.so:_ZN11LifeElement12setThresholdEi
libLife.so:_ZN11LifeElement14resetLifeColorEv
libLife.so:_ZN11LifeElement14resetThresholdEv
libLife.so:_ZN11LifeElement16lifeColorChangedEj
libLife.so:_ZN11LifeElement16setLumaThresholdEi
libLife.so:_ZN11LifeElement16staticMetaObjectE
libLife.so:_ZN11LifeElement16thresholdChangedEi
libLife.so:_ZN11LifeElement18resetLumaThresholdEv
libLife.so:_ZN11LifeElement20lumaThresholdChangedEi
libLife.so:_ZN11LifeElementC1Ev
libLife.so:_ZN11LifeElementC2Ev
libLife.so:_ZN11LifeElementD0Ev
libLife.so:_ZN11LifeElementD1Ev
libLife.so:_ZN11LifeElementD2Ev
libLife.so:_ZN4Life11qt_metacallEN11QMetaObject4CallEiPPv
libLife.so:_ZN4Life11qt_metacastEPKc
libLife.so:_ZN4Life16staticMetaObjectE
libLife.so:_ZN4Life6createERK7QStringS2_
libLife.so:_ZNK11LifeElement10metaObjectEv
libLife.so:_ZNK11LifeElement13lumaThresholdEv
libLife.so:_ZNK11LifeElement23controlInterfaceProvideERK7QString
libLife.so:_ZNK11LifeElement25controlInterfaceConfigureEP11QQmlContextRK7QString
libLife.so:_ZNK11LifeElement9lifeColorEv
libLife.so:_ZNK11LifeElement9thresholdEv
libLife.so:_ZNK4Life10metaObjectEv
libLife.so:_ZNK4Life4keysEv
libLife.so:_ZThn16_N4Life6createERK7QStringS2_
libLife.so:_ZThn16_NK4Life4keysEv
libLife.so:qt_plugin_instance
libLife.so:qt_plugin_query_metadata_v2
libMatrix.so:_Z21qInitResources_Matrixv
libMatrix.so:_Z24qCleanupResources_Matrixv
libMatrix.so:_ZN13MatrixElement11fontChangedERK5QFont
libMatrix.so:_ZN13MatrixElement11qt_metacallEN11QMetaObject4CallEiPPv
libMatrix.so:_ZN13MatrixElement11qt_metacastEPKc
libMatrix.so:_ZN13MatrixElement11resetNDropsEv
libMatrix.so:_ZN13MatrixElement11resetSmoothEv
libMatrix.so:_ZN13MatrixElement11setMaxSpeedEd
libMatrix.so:_ZN13MatrixElement11setMinSpeedEd
libMatrix.so:_ZN13MatrixElement11setShowRainEb
libMatrix.so:_ZN13MatrixElement12iVideoStreamERK13AkVideoPacket
libMatrix.so:_ZN13MatrixElement12setCharTableERK7QString
libMatrix.so:_ZN13MatrixElement13nDropsChangedEi
libMatrix.so:_ZN13MatrixElement13resetMaxSpeedEv
libMatrix.so:_ZN13MatrixElement13resetMinSpeedEv
libMatrix.so:_ZN13MatrixElement13resetShowRainEv
libMatrix.so:_ZN13MatrixElement13setShowCursorEb
libMatrix.so:_ZN13MatrixElement13smoothChangedEb
libMatrix.so:_ZN13MatrixElement14resetCharTableEv
libMatrix.so:_ZN13MatrixElement14setCursorColorEj
libMatrix.so:_ZN13MatrixElement15maxSpeedChangedEd
libMatrix.so:_ZN13MatrixElement15minSpeedChangedEd
libMatrix.so:_ZN13MatrixElement15resetShowCursorEv
libMatrix.so:_ZN13MatrixElement15showRainChangedEb
libMatrix.so:_ZN13MatrixElement16charTableChangedERK7QString
libMatrix.so:_ZN13MatrixElement16resetCursorColorEv
libMatrix.so:_ZN13MatrixElement16setMaxDropLengthEi
libMatrix.so:_ZN13MatrixElement16setMinDropLengthEi
libMatrix.so:_ZN13MatrixElement16setStyleStrategyERK7QString
libMatrix.so:_ZN13MatrixElement16staticMetaObjectE
libMatrix.so:_ZN13MatrixElement17showCursorChangedEb
libMatrix.so:_ZN13MatrixElement18cursorColorChangedEj
libMatrix.so:_ZN13MatrixElement18resetMaxDropLengthEv
libMatrix.so:_ZN13MatrixElement18resetMinDropLengthEv
libMatrix.so:_ZN13MatrixElement18resetStyleStrategyEv
libMatrix.so:_ZN13MatrixElement18setBackgroundColorEj
libMatrix.so:_ZN13MatrixElement18setForegroundColorEj
libMatrix.so:_ZN13MatrixElement20maxDropLengthChangedEi
libMatrix.so:_ZN13MatrixElement20minDropLengthChangedEi
libMatrix.so:_ZN13MatrixElement20resetBackgroundColorEv
libMatrix.so:_ZN13MatrixElement20resetForegroundColorEv
libMatrix.so:_ZN13MatrixElement20setHintingPreferenceERK7QString
libMatrix.so:_ZN13MatrixElement20styleStrategyChangedERK7QString
libMatrix.so:_ZN13MatrixElement22backgroundColorChangedEj
libMatrix.so:_ZN13MatrixElement22foregroundColorChangedEj
libMatrix.so:_ZN13MatrixElement22resetHintingPreferenceEv
libMatrix.so:_ZN13MatrixElement24hintingPreferenceChangedERK7QString
libMatrix.so:_ZN13MatrixElement7setFontERK5QFont
libMatrix.so:_ZN13MatrixElement9resetFontEv
libMatrix.so:_ZN13MatrixElement9setNDropsEi
libMatrix.so:_ZN13MatrixElement9setSmoothEb
libMatrix.so:_ZN13MatrixElementC1Ev
libMatrix.so:_ZN13MatrixElementC2Ev
libMatrix.so:_ZN13MatrixElementD0Ev
libMatrix.so:_ZN13MatrixElementD1Ev
libMatrix.so:_ZN13MatrixElementD2Ev
libMatrix.so:_ZN20MatrixElementPrivate10createMaskERK13AkVideoPacketRK5QSizePK9Character
libMatrix.so:_ZN20MatrixElementPrivate10renderRainER13AkVideoPacketRK5QSizePK9Character
libMatrix.so:_ZN20MatrixElementPrivate10renderdropERK8RainDropRK5QSizePK9Characterb
libMatrix.so:_ZN20MatrixElementPrivate13updatePaletteEv
libMatrix.so:_ZN20MatrixElementPrivate15updateCharTableEv
libMatrix.so:_ZN20MatrixElementPrivate9applyMaskERK13AkVideoPacketS2_
libMatrix.so:_ZN6Matrix11qt_metacallEN11QMetaObject4CallEiPPv
libMatrix.so:_ZN6Matrix11qt_metacastEPKc
libMatrix.so:_ZN6Matrix16staticMetaObjectE
libMatrix.so:_ZN6Matrix6createERK7QStringS2_
libMatrix.so:_ZN8RainDropC1ERKS_
libMatrix.so:_ZN8RainDropC1Eiiiiiddb
libMatrix.so:_ZN8RainDropC2ERKS_
libMatrix.so:_ZN8RainDropC2Eiiiiiddb
libMatrix.so:_ZN8RainDropD1Ev
libMatrix.so:_ZN8RainDropD2Ev
libMatrix.so:_ZN8RainDropaSERKS_
libMatrix.so:_ZN8RainDropppEi
libMatrix.so:_ZN8RainDropppEv
libMatrix.so:_ZN9CharacterC1ERK5QCharRK5QFontRK5QSize
libMatrix.so:_ZN9CharacterC1ERKS_
libMatrix.so:_ZN9CharacterC1Ev
libMatrix.so:_ZN9CharacterC2ERK5QCharRK5QFontRK5QSize
libMatrix.so:_ZN9CharacterC2ERKS_
libMatrix.so:_ZN9CharacterC2Ev
libMatrix.so:_ZN9CharacterD1Ev
libMatrix.so:_ZN9CharacterD2Ev
libMatrix.so:_ZN9CharacteraSERKS_
libMatrix.so:_ZNK13MatrixElement10metaObjectEv
libMatrix.so:_ZNK13MatrixElement10showCursorEv
libMatrix.so:_ZNK13MatrixElement11cursorColorEv
libMatrix.so:_ZNK13MatrixElement13maxDropLengthEv
libMatrix.so:_ZNK13MatrixElement13minDropLengthEv
libMatrix.so:_ZNK13MatrixElement13styleStrategyEv
libMatrix.so:_ZNK13MatrixElement15backgroundColorEv
libMatrix.so:_ZNK13MatrixElement15foregroundColorEv
libMatrix.so:_ZNK13MatrixElement17hintingPreferenceEv
libMatrix.so:_ZNK13MatrixElement23controlInterfaceProvideERK7QString
libMatrix.so:_ZNK13MatrixElement25controlInterfaceConfigureEP11QQmlContextRK7QString
libMatrix.so:_ZNK13MatrixElement4fontEv
libMatrix.so:_ZNK13MatrixElement6nDropsEv
libMatrix.so:_ZNK13MatrixElement6smoothEv
libMatrix.so:_ZNK13MatrixElement8maxSpeedEv
libMatrix.so:_ZNK13MatrixElement8minSpeedEv
libMatrix.so:_ZNK13MatrixElement8showRainEv
libMatrix.so:_ZNK13MatrixElement9charTableEv
libMatrix.so:_ZNK16CharacterPrivate11imageWeightERK13AkVideoPacket
libMatrix.so:_ZNK16CharacterPrivate8drawCharERK5QCharRK5QFontRK5QSize
libMatrix.so:_ZNK20MatrixElementPrivate8fontSizeERK5QCharRK5QFont
libMatrix.so:_ZNK20MatrixElementPrivate8fontSizeERK7QStringRK5QFont
libMatrix.so:_ZNK6Matrix10metaObjectEv
libMatrix.so:_ZNK6Matrix4keysEv
libMatrix.so:_ZNK8RainDrop1xEv
libMatrix.so:_ZNK8RainDrop1yEv
libMatrix.so:_ZNK8RainDrop3chrEi
libMatrix.so:_ZNK8RainDrop6lengthEv
libMatrix.so:_ZNK8RainDrop9isVisibleEv
libMatrix.so:_ZNK9Character3chrEv
libMatrix.so:_ZNK9Character5imageEv
libMatrix.so:_ZNK9Character6weightEv
libMatrix.so:_ZThn16_N6Matrix6createERK7QStringS2_
libMatrix.so:_ZThn16_NK6Matrix4keysEv
libMatrix.so:qt_plugin_instance
libMatrix.so:qt_plugin_query_metadata_v2
libMatrixTransform.so:_Z30qInitResources_MatrixTransformv
libMatrixTransform.so:_Z33qCleanupResources_MatrixTransformv
libMatrixTransform.so:_ZN15MatrixTransform11qt_metacallEN11QMetaObject4CallEiPPv
libMatrixTransform.so:_ZN15MatrixTransform11qt_metacastEPKc
libMatrixTransform.so:_ZN15MatrixTransform16staticMetaObjectE
libMatrixTransform.so:_ZN15MatrixTransform6createERK7QStringS2_
libMatrixTransform.so:_ZN22MatrixTransformElement11qt_metacallEN11QMetaObject4CallEiPPv
libMatrixTransform.so:_ZN22MatrixTransformElement11qt_metacastEPKc
libMatrixTransform.so:_ZN22MatrixTransformElement11resetKernelEv
libMatrixTransform.so:_ZN22MatrixTransformElement12iVideoStreamERK13AkVideoPacket
libMatrixTransform.so:_ZN22MatrixTransformElement13kernelChangedERK5QListI8QVariantE
libMatrixTransform.so:_ZN22MatrixTransformElement16staticMetaObjectE
libMatrixTransform.so:_ZN22MatrixTransformElement9setKernelERK5QListI8QVariantE
libMatrixTransform.so:_ZN22MatrixTransformElementC1Ev
libMatrixTransform.so:_ZN22MatrixTransformElementC2Ev
libMatrixTransform.so:_ZN22MatrixTransformElementD0Ev
libMatrixTransform.so:_ZN22MatrixTransformElementD1Ev
libMatrixTransform.so:_ZN22MatrixTransformElementD2Ev
libMatrixTransform.so:_ZNK15MatrixTransform10metaObjectEv
libMatrixTransform.so:_ZNK15MatrixTransform4keysEv
libMatrixTransform.so:_ZNK22MatrixTransformElement10metaObjectEv
libMatrixTransform.so:_ZNK22MatrixTransformElement23controlInterfaceProvideERK7QString
libMatrixTransform.so:_ZNK22MatrixTransformElement25controlInterfaceConfigureEP11QQmlContextRK7QString
libMatrixTransform.so:_ZNK22MatrixTransformElement6kernelEv
libMatrixTransform.so:_ZThn16_N15MatrixTransform6createERK7QStringS2_
libMatrixTransform.so:_ZThn16_NK15MatrixTransform4keysEv
libMatrixTransform.so:qt_plugin_instance
libMatrixTransform.so:qt_plugin_query_metadata_v2
libMultiSink.so:_ZN11MediaWriter11qt_metacallEN11QMetaObject4CallEiPPv
libMultiSink.so:_ZN11MediaWriter11qt_metacastEPKc
libMultiSink.so:_ZN11MediaWriter11setLocationERK7QString
libMultiSink.so:_ZN11MediaWriter12clearStreamsEv
libMultiSink.so:_ZN11MediaWriter12codecOptionsEi
libMultiSink.so:_ZN11MediaWriter12defaultCodecERK7QStringN6AkCaps8CapsTypeE
libMultiSink.so:_ZN11MediaWriter12updateStreamEi
libMultiSink.so:_ZN11MediaWriter12updateStreamEiRK4QMapI7QString8QVariantE
libMultiSink.so:_ZN11MediaWriter13defaultFormatEv
libMultiSink.so:_ZN11MediaWriter13enqueuePacketERK8AkPacket
libMultiSink.so:_ZN11MediaWriter13formatOptionsEv
libMultiSink.so:_ZN11MediaWriter13resetLocationEv
libMultiSink.so:_ZN11MediaWriter14fileExtensionsERK7QString
libMultiSink.so:_ZN11MediaWriter14streamsChangedERK5QListI8QVariantE
libMultiSink.so:_ZN11MediaWriter15locationChangedERK7QString
libMultiSink.so:_ZN11MediaWriter15setCodecOptionsEiRK4QMapI7QString8QVariantE
libMultiSink.so:_ZN11MediaWriter15setOutputFormatERK7QString
libMultiSink.so:_ZN11MediaWriter15supportedCodecsERK7QString
libMultiSink.so:_ZN11MediaWriter15supportedCodecsERK7QStringN6AkCaps8CapsTypeE
libMultiSink.so:_ZN11MediaWriter16codecDescriptionERK7QString
libMultiSink.so:_ZN11MediaWriter16setFormatOptionsERK4QMapI7QString8QVariantE
libMultiSink.so:_ZN11MediaWriter16staticMetaObjectE
libMultiSink.so:_ZN11MediaWriter16supportedFormatsEv
libMultiSink.so:_ZN11MediaWriter17formatDescriptionERK7QString
libMultiSink.so:_ZN11MediaWriter17resetCodecOptionsEi
libMultiSink.so:_ZN11MediaWriter17resetOutputFormatEv
libMultiSink.so:_ZN11MediaWriter18defaultCodecParamsERK7QString
libMultiSink.so:_ZN11MediaWriter18resetFormatOptionsEv
libMultiSink.so:_ZN11MediaWriter18setCodecsBlackListERK5QListI7QStringE
libMultiSink.so:_ZN11MediaWriter19codecOptionsChangedERK7QStringRK4QMapIS0_8QVariantE
libMultiSink.so:_ZN11MediaWriter19outputFormatChangedERK7QString
libMultiSink.so:_ZN11MediaWriter19setFormatsBlackListERK5QListI7QStringE
libMultiSink.so:_ZN11MediaWriter20defaultFormatChangedERK7QString
libMultiSink.so:_ZN11MediaWriter20formatOptionsChangedERK4QMapI7QString8QVariantE
libMultiSink.so:_ZN11MediaWriter20resetCodecsBlackListEv
libMultiSink.so:_ZN11MediaWriter21resetFormatsBlackListEv
libMultiSink.so:_ZN11MediaWriter21setMaxPacketQueueSizeEx
libMultiSink.so:_ZN11MediaWriter22codecsBlackListChangedERK5QListI7QStringE
libMultiSink.so:_ZN11MediaWriter23formatsBlackListChangedERK5QListI7QStringE
libMultiSink.so:_ZN11MediaWriter23resetMaxPacketQueueSizeEv
libMultiSink.so:_ZN11MediaWriter25maxPacketQueueSizeChangedEx
libMultiSink.so:_ZN11MediaWriter4initEv
libMultiSink.so:_ZN11MediaWriter6uninitEv
libMultiSink.so:_ZN11MediaWriter9addStreamEiRK6AkCaps
libMultiSink.so:_ZN11MediaWriter9addStreamEiRK6AkCapsRK4QMapI7QString8QVariantE
libMultiSink.so:_ZN11MediaWriter9codecTypeERK7QString
libMultiSink.so:_ZN11MediaWriterC1EP7QObject
libMultiSink.so:_ZN11MediaWriterC2EP7QObject
libMultiSink.so:_ZN16MultiSinkElement11qt_metacallEN11QMetaObject4CallEiPPv
libMultiSink.so:_ZN16MultiSinkElement11qt_metacastEPKc
libMultiSink.so:_ZN16MultiSinkElement11setLocationERK7QString
libMultiSink.so:_ZN16MultiSinkElement12clearStreamsEv
libMultiSink.so:_ZN16MultiSinkElement12codecOptionsEi
libMultiSink.so:_ZN16MultiSinkElement12defaultCodecERK7QStringN6AkCaps8CapsTypeE
libMultiSink.so:_ZN16MultiSinkElement12updateStreamEiRK4QMapI7QString8QVariantE
libMultiSink.so:_ZN16MultiSinkElement13resetLocationEv
libMultiSink.so:_ZN16MultiSinkElement14streamsChangedERK5QListI8QVariantE
libMultiSink.so:_ZN16MultiSinkElement15locationChangedERK7QString
libMultiSink.so:_ZN16MultiSinkElement15setCodecOptionsEiRK4QMapI7QString8QVariantE
libMultiSink.so:_ZN16MultiSinkElement15setOutputFormatERK7QString
libMultiSink.so:_ZN16MultiSinkElement15supportedCodecsERK7QStringN6AkCaps8CapsTypeE
libMultiSink.so:_ZN16MultiSinkElement16setFormatOptionsERK4QMapI7QString8QVariantE
libMultiSink.so:_ZN16MultiSinkElement16staticMetaObjectE
libMultiSink.so:_ZN16MultiSinkElement17resetCodecOptionsEi
libMultiSink.so:_ZN16MultiSinkElement17resetOutputFormatEv
libMultiSink.so:_ZN16MultiSinkElement18resetFormatOptionsEv
libMultiSink.so:_ZN16MultiSinkElement18setCodecsBlackListERK5QListI7QStringE
libMultiSink.so:_ZN16MultiSinkElement19codecOptionsChangedERK7QStringRK4QMapIS0_8QVariantE
libMultiSink.so:_ZN16MultiSinkElement19outputFormatChangedERK7QString
libMultiSink.so:_ZN16MultiSinkElement19setFormatsBlackListERK5QListI7QStringE
libMultiSink.so:_ZN16MultiSinkElement20defaultFormatChangedERK7QString
libMultiSink.so:_ZN16MultiSinkElement20formatOptionsChangedERK4QMapI7QString8QVariantE
libMultiSink.so:_ZN16MultiSinkElement20resetCodecsBlackListEv
libMultiSink.so:_ZN16MultiSinkElement21resetFormatsBlackListEv
libMultiSink.so:_ZN16MultiSinkElement22codecsBlackListChangedERK5QListI7QStringE
libMultiSink.so:_ZN16MultiSinkElement23formatsBlackListChangedERK5QListI7QStringE
libMultiSink.so:_ZN16MultiSinkElement23supportedFormatsChangedERK5QListI7QStringE
libMultiSink.so:_ZN16MultiSinkElement7iStreamERK8AkPacket
libMultiSink.so:_ZN16MultiSinkElement7streamsEv
libMultiSink.so:_ZN16MultiSinkElement8setStateEN9AkElement12ElementStateE
libMultiSink.so:_ZN16MultiSinkElement9addStreamEiRK6AkCapsRK4QMapI7QString8QVariantE
libMultiSink.so:_ZN16MultiSinkElementC1Ev
libMultiSink.so:_ZN16MultiSinkElementC2Ev
libMultiSink.so:_ZN16MultiSinkElementD0Ev
libMultiSink.so:_ZN16MultiSinkElementD1Ev
libMultiSink.so:_ZN16MultiSinkElementD2Ev
libMultiSink.so:_ZN23MultiSinkElementPrivate12linksChangedERK4QMapI7QStringS1_E
libMultiSink.so:_ZN23MultiSinkElementPrivateC1EP16MultiSinkElement
libMultiSink.so:_ZN23MultiSinkElementPrivateC2EP16MultiSinkElement
libMultiSink.so:_ZN9MultiSink11qt_metacallEN11QMetaObject4CallEiPPv
libMultiSink.so:_ZN9MultiSink11qt_metacastEPKc
libMultiSink.so:_ZN9MultiSink16staticMetaObjectE
libMultiSink.so:_ZN9MultiSink6createERK7QStringS2_
libMultiSink.so:_ZNK11MediaWriter10metaObjectEv
libMultiSink.so:_ZNK11MediaWriter12outputFormatEv
libMultiSink.so:_ZNK11MediaWriter15codecsBlackListEv
libMultiSink.so:_ZNK11MediaWriter16formatsBlackListEv
libMultiSink.so:_ZNK11MediaWriter18maxPacketQueueSizeEv
libMultiSink.so:_ZNK11MediaWriter7streamsEv
libMultiSink.so:_ZNK11MediaWriter8locationEv
libMultiSink.so:_ZNK16MultiSinkElement10metaObjectEv
libMultiSink.so:_ZNK16MultiSinkElement12outputFormatEv
libMultiSink.so:_ZNK16MultiSinkElement13defaultFormatEv
libMultiSink.so:_ZNK16MultiSinkElement13formatOptionsEv
libMultiSink.so:_ZNK16MultiSinkElement14fileExtensionsERK7QString
libMultiSink.so:_ZNK16MultiSinkElement15codecsBlackListEv
libMultiSink.so:_ZNK16MultiSinkElement16codecDescriptionERK7QString
libMultiSink.so:_ZNK16MultiSinkElement16formatsBlackListEv
libMultiSink.so:_ZNK16MultiSinkElement16supportedFormatsEv
libMultiSink.so:_ZNK16MultiSinkElement17formatDescriptionERK7QString
libMultiSink.so:_ZNK16MultiSinkElement18defaultCodecParamsERK7QString
libMultiSink.so:_ZNK16MultiSinkElement8locationEv
libMultiSink.so:_ZNK16MultiSinkElement9codecTypeERK7QString
libMultiSink.so:_ZNK9MultiSink10metaObjectEv
libMultiSink.so:_ZNK9MultiSink4keysEv
libMultiSink.so:_ZThn16_N9MultiSink6createERK7QStringS2_
libMultiSink.so:_ZThn16_NK9MultiSink4keysEv
libMultiSink.so:qt_plugin_instance
libMultiSink.so:qt_plugin_query_metadata_v2
libMultiSink_ffmpeg.so:_ZN11AudioStream10encodeDataEP7AVFrame
libMultiSink_ffmpeg.so:_ZN11AudioStream11qt_metacallEN11QMetaObject4CallEiPPv
libMultiSink_ffmpeg.so:_ZN11AudioStream11qt_metacastEPKc
libMultiSink_ffmpeg.so:_ZN11AudioStream12dequeueFrameEv
libMultiSink_ffmpeg.so:_ZN11AudioStream12sampleFormatE14AVSampleFormat
libMultiSink_ffmpeg.so:_ZN11AudioStream13channelLayoutEm
libMultiSink_ffmpeg.so:_ZN11AudioStream13convertPacketERK8AkPacket
libMultiSink_ffmpeg.so:_ZN11AudioStream16staticMetaObjectE
libMultiSink_ffmpeg.so:_ZN11AudioStream4initEv
libMultiSink_ffmpeg.so:_ZN11AudioStream6uninitEv
libMultiSink_ffmpeg.so:_ZN11AudioStreamC1EPK15AVFormatContextjiRK4QMapI7QString8QVariantERKS3_IS4_S6_EP17MediaWriterFFmpegP7QObject
libMultiSink_ffmpeg.so:_ZN11AudioStreamC2EPK15AVFormatContextjiRK4QMapI7QString8QVariantERKS3_IS4_S6_EP17MediaWriterFFmpegP7QObject
libMultiSink_ffmpeg.so:_ZN11AudioStreamD0Ev
libMultiSink_ffmpeg.so:_ZN11AudioStreamD1Ev
libMultiSink_ffmpeg.so:_ZN11AudioStreamD2Ev
libMultiSink_ffmpeg.so:_ZN11MediaWriter11qt_metacallEN11QMetaObject4CallEiPPv
libMultiSink_ffmpeg.so:_ZN11MediaWriter11qt_metacastEPKc
libMultiSink_ffmpeg.so:_ZN11MediaWriter11setLocationERK7QString
libMultiSink_ffmpeg.so:_ZN11MediaWriter12clearStreamsEv
libMultiSink_ffmpeg.so:_ZN11MediaWriter12codecOptionsEi
libMultiSink_ffmpeg.so:_ZN11MediaWriter12defaultCodecERK7QStringN6AkCaps8CapsTypeE
libMultiSink_ffmpeg.so:_ZN11MediaWriter12updateStreamEi
libMultiSink_ffmpeg.so:_ZN11MediaWriter12updateStreamEiRK4QMapI7QString8QVariantE
libMultiSink_ffmpeg.so:_ZN11MediaWriter13defaultFormatEv
libMultiSink_ffmpeg.so:_ZN11MediaWriter13enqueuePacketERK8AkPacket
libMultiSink_ffmpeg.so:_ZN11MediaWriter13formatOptionsEv
libMultiSink_ffmpeg.so:_ZN11MediaWriter13resetLocationEv
libMultiSink_ffmpeg.so:_ZN11MediaWriter14fileExtensionsERK7QString
libMultiSink_ffmpeg.so:_ZN11MediaWriter14streamsChangedERK5QListI8QVariantE
libMultiSink_ffmpeg.so:_ZN11MediaWriter15locationChangedERK7QString
libMultiSink_ffmpeg.so:_ZN11MediaWriter15setCodecOptionsEiRK4QMapI7QString8QVariantE
libMultiSink_ffmpeg.so:_ZN11MediaWriter15setOutputFormatERK7QString
libMultiSink_ffmpeg.so:_ZN11MediaWriter15supportedCodecsERK7QString
libMultiSink_ffmpeg.so:_ZN11MediaWriter15supportedCodecsERK7QStringN6AkCaps8CapsTypeE
libMultiSink_ffmpeg.so:_ZN11MediaWriter16codecDescriptionERK7QString
libMultiSink_ffmpeg.so:_ZN11MediaWriter16setFormatOptionsERK4QMapI7QString8QVariantE
libMultiSink_ffmpeg.so:_ZN11MediaWriter16staticMetaObjectE
libMultiSink_ffmpeg.so:_ZN11MediaWriter16supportedFormatsEv
libMultiSink_ffmpeg.so:_ZN11MediaWriter17formatDescriptionERK7QString
libMultiSink_ffmpeg.so:_ZN11MediaWriter17resetCodecOptionsEi
libMultiSink_ffmpeg.so:_ZN11MediaWriter17resetOutputFormatEv
libMultiSink_ffmpeg.so:_ZN11MediaWriter18defaultCodecParamsERK7QString
libMultiSink_ffmpeg.so:_ZN11MediaWriter18resetFormatOptionsEv
libMultiSink_ffmpeg.so:_ZN11MediaWriter18setCodecsBlackListERK5QListI7QStringE
libMultiSink_ffmpeg.so:_ZN11MediaWriter19codecOptionsChangedERK7QStringRK4QMapIS0_8QVariantE
libMultiSink_ffmpeg.so:_ZN11MediaWriter19outputFormatChangedERK7QString
libMultiSink_ffmpeg.so:_ZN11MediaWriter19setFormatsBlackListERK5QListI7QStringE
libMultiSink_ffmpeg.so:_ZN11MediaWriter20defaultFormatChangedERK7QString
libMultiSink_ffmpeg.so:_ZN11MediaWriter20formatOptionsChangedERK4QMapI7QString8QVariantE
libMultiSink_ffmpeg.so:_ZN11MediaWriter20resetCodecsBlackListEv
libMultiSink_ffmpeg.so:_ZN11MediaWriter21resetFormatsBlackListEv
libMultiSink_ffmpeg.so:_ZN11MediaWriter21setMaxPacketQueueSizeEx
libMultiSink_ffmpeg.so:_ZN11MediaWriter22codecsBlackListChangedERK5QListI7QStringE
libMultiSink_ffmpeg.so:_ZN11MediaWriter23formatsBlackListChangedERK5QListI7QStringE
libMultiSink_ffmpeg.so:_ZN11MediaWriter23resetMaxPacketQueueSizeEv
libMultiSink_ffmpeg.so:_ZN11MediaWriter25maxPacketQueueSizeChangedEx
libMultiSink_ffmpeg.so:_ZN11MediaWriter4initEv
libMultiSink_ffmpeg.so:_ZN11MediaWriter6uninitEv
libMultiSink_ffmpeg.so:_ZN11MediaWriter9addStreamEiRK6AkCaps
libMultiSink_ffmpeg.so:_ZN11MediaWriter9addStreamEiRK6AkCapsRK4QMapI7QString8QVariantE
libMultiSink_ffmpeg.so:_ZN11MediaWriter9codecTypeERK7QString
libMultiSink_ffmpeg.so:_ZN11MediaWriterC1EP7QObject
libMultiSink_ffmpeg.so:_ZN11MediaWriterC2EP7QObject
libMultiSink_ffmpeg.so:_ZN11VideoStream10encodeDataEP7AVFrame
libMultiSink_ffmpeg.so:_ZN11VideoStream11qt_metacallEN11QMetaObject4CallEiPPv
libMultiSink_ffmpeg.so:_ZN11VideoStream11qt_metacastEPKc
libMultiSink_ffmpeg.so:_ZN11VideoStream12dequeueFrameEv
libMultiSink_ffmpeg.so:_ZN11VideoStream12ffToAkFormatE13AVPixelFormat
libMultiSink_ffmpeg.so:_ZN11VideoStream13convertPacketERK8AkPacket
libMultiSink_ffmpeg.so:_ZN11VideoStream16staticMetaObjectE
libMultiSink_ffmpeg.so:_ZN11VideoStreamC1EPK15AVFormatContextjiRK4QMapI7QString8QVariantERKS3_IS4_S6_EP17MediaWriterFFmpegP7QObject
libMultiSink_ffmpeg.so:_ZN11VideoStreamC2EPK15AVFormatContextjiRK4QMapI7QString8QVariantERKS3_IS4_S6_EP17MediaWriterFFmpegP7QObject
libMultiSink_ffmpeg.so:_ZN11VideoStreamD0Ev
libMultiSink_ffmpeg.so:_ZN11VideoStreamD1Ev
libMultiSink_ffmpeg.so:_ZN11VideoStreamD2Ev
libMultiSink_ffmpeg.so:_ZN14AbstractStream10encodeDataEP7AVFrame
libMultiSink_ffmpeg.so:_ZN14AbstractStream11deleteFrameEPP7AVFrame
libMultiSink_ffmpeg.so:_ZN14AbstractStream11packetReadyEP8AVPacket
libMultiSink_ffmpeg.so:_ZN14AbstractStream11qt_metacallEN11QMetaObject4CallEiPPv
libMultiSink_ffmpeg.so:_ZN14AbstractStream11qt_metacastEPKc
libMultiSink_ffmpeg.so:_ZN14AbstractStream12dequeueFrameEv
libMultiSink_ffmpeg.so:_ZN14AbstractStream13convertPacketERK8AkPacket
libMultiSink_ffmpeg.so:_ZN14AbstractStream13packetEnqueueERK8AkPacket
libMultiSink_ffmpeg.so:_ZN14AbstractStream16staticMetaObjectE
libMultiSink_ffmpeg.so:_ZN14AbstractStream4initEv
libMultiSink_ffmpeg.so:_ZN14AbstractStream6uninitEv
libMultiSink_ffmpeg.so:_ZN14AbstractStream9rescaleTSEP8AVPacket10AVRationalS2_
libMultiSink_ffmpeg.so:_ZN14AbstractStreamC1EPK15AVFormatContextjiRK4QMapI7QString8QVariantERKS3_IS4_S6_EP17MediaWriterFFmpegP7QObject
libMultiSink_ffmpeg.so:_ZN14AbstractStreamC2EPK15AVFormatContextjiRK4QMapI7QString8QVariantERKS3_IS4_S6_EP17MediaWriterFFmpegP7QObject
libMultiSink_ffmpeg.so:_ZN14AbstractStreamD0Ev
libMultiSink_ffmpeg.so:_ZN14AbstractStreamD1Ev
libMultiSink_ffmpeg.so:_ZN14AbstractStreamD2Ev
libMultiSink_ffmpeg.so:_ZN17MediaWriterFFmpeg11qt_metacallEN11QMetaObject4CallEiPPv
libMultiSink_ffmpeg.so:_ZN17MediaWriterFFmpeg11qt_metacastEPKc
libMultiSink_ffmpeg.so:_ZN17MediaWriterFFmpeg11writePacketEP8AVPacket
libMultiSink_ffmpeg.so:_ZN17MediaWriterFFmpeg12clearStreamsEv
libMultiSink_ffmpeg.so:_ZN17MediaWriterFFmpeg12codecOptionsEi
libMultiSink_ffmpeg.so:_ZN17MediaWriterFFmpeg12defaultCodecERK7QStringN6AkCaps8CapsTypeE
libMultiSink_ffmpeg.so:_ZN17MediaWriterFFmpeg12updateStreamEi
libMultiSink_ffmpeg.so:_ZN17MediaWriterFFmpeg12updateStreamEiRK4QMapI7QString8QVariantE
libMultiSink_ffmpeg.so:_ZN17MediaWriterFFmpeg13defaultFormatEv
libMultiSink_ffmpeg.so:_ZN17MediaWriterFFmpeg13enqueuePacketERK8AkPacket
libMultiSink_ffmpeg.so:_ZN17MediaWriterFFmpeg13formatOptionsEv
libMultiSink_ffmpeg.so:_ZN17MediaWriterFFmpeg14fileExtensionsERK7QString
libMultiSink_ffmpeg.so:_ZN17MediaWriterFFmpeg15setCodecOptionsEiRK4QMapI7QString8QVariantE
libMultiSink_ffmpeg.so:_ZN17MediaWriterFFmpeg15setOutputFormatERK7QString
libMultiSink_ffmpeg.so:_ZN17MediaWriterFFmpeg15supportedCodecsERK7QString
libMultiSink_ffmpeg.so:_ZN17MediaWriterFFmpeg15supportedCodecsERK7QStringN6AkCaps8CapsTypeE
libMultiSink_ffmpeg.so:_ZN17MediaWriterFFmpeg16codecDescriptionERK7QString
libMultiSink_ffmpeg.so:_ZN17MediaWriterFFmpeg16setFormatOptionsERK4QMapI7QString8QVariantE
libMultiSink_ffmpeg.so:_ZN17MediaWriterFFmpeg16staticMetaObjectE
libMultiSink_ffmpeg.so:_ZN17MediaWriterFFmpeg16supportedFormatsEv
libMultiSink_ffmpeg.so:_ZN17MediaWriterFFmpeg17formatDescriptionERK7QString
libMultiSink_ffmpeg.so:_ZN17MediaWriterFFmpeg17resetCodecOptionsEi
libMultiSink_ffmpeg.so:_ZN17MediaWriterFFmpeg17resetOutputFormatEv
libMultiSink_ffmpeg.so:_ZN17MediaWriterFFmpeg18defaultCodecParamsERK7QString
libMultiSink_ffmpeg.so:_ZN17MediaWriterFFmpeg18resetFormatOptionsEv
libMultiSink_ffmpeg.so:_ZN17MediaWriterFFmpeg21setMaxPacketQueueSizeEx
libMultiSink_ffmpeg.so:_ZN17MediaWriterFFmpeg23resetMaxPacketQueueSizeEv
libMultiSink_ffmpeg.so:_ZN17MediaWriterFFmpeg4initEv
libMultiSink_ffmpeg.so:_ZN17MediaWriterFFmpeg6uninitEv
libMultiSink_ffmpeg.so:_ZN17MediaWriterFFmpeg9addStreamEiRK6AkCaps
libMultiSink_ffmpeg.so:_ZN17MediaWriterFFmpeg9addStreamEiRK6AkCapsRK4QMapI7QString8QVariantE
libMultiSink_ffmpeg.so:_ZN17MediaWriterFFmpeg9codecTypeERK7QString
libMultiSink_ffmpeg.so:_ZN17MediaWriterFFmpegC1EP7QObject
libMultiSink_ffmpeg.so:_ZN17MediaWriterFFmpegC2EP7QObject
libMultiSink_ffmpeg.so:_ZN17MediaWriterFFmpegD0Ev
libMultiSink_ffmpeg.so:_ZN17MediaWriterFFmpegD1Ev
libMultiSink_ffmpeg.so:_ZN17MediaWriterFFmpegD2Ev
libMultiSink_ffmpeg.so:_ZN21AbstractStreamPrivate10encodeLoopEv
libMultiSink_ffmpeg.so:_ZN21AbstractStreamPrivate11convertLoopEv
libMultiSink_ffmpeg.so:_ZN23MediaWriterFFmpegGlobalC1Ev
libMultiSink_ffmpeg.so:_ZN23MediaWriterFFmpegGlobalC2Ev
libMultiSink_ffmpeg.so:_ZN23MediaWriterFFmpegGlobalD1Ev
libMultiSink_ffmpeg.so:_ZN23MediaWriterFFmpegGlobalD2Ev
libMultiSink_ffmpeg.so:_ZN24MediaWriterFFmpegPrivate11guessFormatEv
libMultiSink_ffmpeg.so:_ZN24MediaWriterFFmpegPrivate20formatContextOptionsEP15AVFormatContextRK4QMapI7QString8QVariantE
libMultiSink_ffmpeg.so:_ZN24MediaWriterFFmpegPrivateC1EP17MediaWriterFFmpeg
libMultiSink_ffmpeg.so:_ZN24MediaWriterFFmpegPrivateC2EP17MediaWriterFFmpeg
libMultiSink_ffmpeg.so:_ZN6Plugin11qt_metacallEN11QMetaObject4CallEiPPv
libMultiSink_ffmpeg.so:_ZN6Plugin11qt_metacastEPKc
libMultiSink_ffmpeg.so:_ZN6Plugin16staticMetaObjectE
libMultiSink_ffmpeg.so:_ZN6Plugin6createERK7QStringS2_
libMultiSink_ffmpeg.so:_ZNK11AudioStream10metaObjectEv
libMultiSink_ffmpeg.so:_ZNK11MediaWriter10metaObjectEv
libMultiSink_ffmpeg.so:_ZNK11MediaWriter12outputFormatEv
libMultiSink_ffmpeg.so:_ZNK11MediaWriter15codecsBlackListEv
libMultiSink_ffmpeg.so:_ZNK11MediaWriter16formatsBlackListEv
libMultiSink_ffmpeg.so:_ZNK11MediaWriter18maxPacketQueueSizeEv
libMultiSink_ffmpeg.so:_ZNK11MediaWriter7streamsEv
libMultiSink_ffmpeg.so:_ZNK11MediaWriter8locationEv
libMultiSink_ffmpeg.so:_ZNK11VideoStream10metaObjectEv
libMultiSink_ffmpeg.so:_ZNK14AbstractStream10metaObjectEv
libMultiSink_ffmpeg.so:_ZNK14AbstractStream11streamIndexEv
libMultiSink_ffmpeg.so:_ZNK14AbstractStream12codecContextEv
libMultiSink_ffmpeg.so:_ZNK14AbstractStream13formatContextEv
libMultiSink_ffmpeg.so:_ZNK14AbstractStream5indexEv
libMultiSink_ffmpeg.so:_ZNK14AbstractStream6streamEv
libMultiSink_ffmpeg.so:_ZNK14AbstractStream9mediaTypeEv
libMultiSink_ffmpeg.so:_ZNK17MediaWriterFFmpeg10metaObjectEv
libMultiSink_ffmpeg.so:_ZNK17MediaWriterFFmpeg12outputFormatEv
libMultiSink_ffmpeg.so:_ZNK17MediaWriterFFmpeg13nearestDVCapsERK11AkVideoCaps
libMultiSink_ffmpeg.so:_ZNK17MediaWriterFFmpeg14nearestGXFCapsERK11AkVideoCaps
libMultiSink_ffmpeg.so:_ZNK17MediaWriterFFmpeg14nearestSWFCapsERK11AkAudioCaps
libMultiSink_ffmpeg.so:_ZNK17MediaWriterFFmpeg15nearestH261CapsERK11AkVideoCaps
libMultiSink_ffmpeg.so:_ZNK17MediaWriterFFmpeg15nearestH263CapsERK11AkVideoCaps
libMultiSink_ffmpeg.so:_ZNK17MediaWriterFFmpeg16nearestDNxHDCapsERK11AkVideoCaps
libMultiSink_ffmpeg.so:_ZNK17MediaWriterFFmpeg18maxPacketQueueSizeEv
libMultiSink_ffmpeg.so:_ZNK17MediaWriterFFmpeg7streamsEv
libMultiSink_ffmpeg.so:_ZNK24MediaWriterFFmpegPrivate12parseOptionsEPK7AVClass
libMultiSink_ffmpeg.so:_ZNK24MediaWriterFFmpegPrivate20parseOptionsDefaultsEPK7AVClass
libMultiSink_ffmpeg.so:_ZNK6Plugin10metaObjectEv
libMultiSink_ffmpeg.so:_ZNK6Plugin4keysEv
libMultiSink_ffmpeg.so:_ZThn16_N6Plugin6createERK7QStringS2_
libMultiSink_ffmpeg.so:_ZThn16_NK6Plugin4keysEv
libMultiSink_ffmpeg.so:qt_plugin_instance
libMultiSink_ffmpeg.so:qt_plugin_query_metadata_v2
libMultiSink_gstreamer.so:_ZN11MediaWriter11qt_metacallEN11QMetaObject4CallEiPPv
libMultiSink_gstreamer.so:_ZN11MediaWriter11qt_metacastEPKc
libMultiSink_gstreamer.so:_ZN11MediaWriter11setLocationERK7QString
libMultiSink_gstreamer.so:_ZN11MediaWriter12clearStreamsEv
libMultiSink_gstreamer.so:_ZN11MediaWriter12codecOptionsEi
libMultiSink_gstreamer.so:_ZN11MediaWriter12defaultCodecERK7QStringN6AkCaps8CapsTypeE
libMultiSink_gstreamer.so:_ZN11MediaWriter12updateStreamEi
libMultiSink_gstreamer.so:_ZN11MediaWriter12updateStreamEiRK4QMapI7QString8QVariantE
libMultiSink_gstreamer.so:_ZN11MediaWriter13defaultFormatEv
libMultiSink_gstreamer.so:_ZN11MediaWriter13enqueuePacketERK8AkPacket
libMultiSink_gstreamer.so:_ZN11MediaWriter13formatOptionsEv
libMultiSink_gstreamer.so:_ZN11MediaWriter13resetLocationEv
libMultiSink_gstreamer.so:_ZN11MediaWriter14fileExtensionsERK7QString
libMultiSink_gstreamer.so:_ZN11MediaWriter14streamsChangedERK5QListI8QVariantE
libMultiSink_gstreamer.so:_ZN11MediaWriter15locationChangedERK7QString
libMultiSink_gstreamer.so:_ZN11MediaWriter15setCodecOptionsEiRK4QMapI7QString8QVariantE
libMultiSink_gstreamer.so:_ZN11MediaWriter15setOutputFormatERK7QString
libMultiSink_gstreamer.so:_ZN11MediaWriter15supportedCodecsERK7QString
libMultiSink_gstreamer.so:_ZN11MediaWriter15supportedCodecsERK7QStringN6AkCaps8CapsTypeE
libMultiSink_gstreamer.so:_ZN11MediaWriter16codecDescriptionERK7QString
libMultiSink_gstreamer.so:_ZN11MediaWriter16setFormatOptionsERK4QMapI7QString8QVariantE
libMultiSink_gstreamer.so:_ZN11MediaWriter16staticMetaObjectE
libMultiSink_gstreamer.so:_ZN11MediaWriter16supportedFormatsEv
libMultiSink_gstreamer.so:_ZN11MediaWriter17formatDescriptionERK7QString
libMultiSink_gstreamer.so:_ZN11MediaWriter17resetCodecOptionsEi
libMultiSink_gstreamer.so:_ZN11MediaWriter17resetOutputFormatEv
libMultiSink_gstreamer.so:_ZN11MediaWriter18defaultCodecParamsERK7QString
libMultiSink_gstreamer.so:_ZN11MediaWriter18resetFormatOptionsEv
libMultiSink_gstreamer.so:_ZN11MediaWriter18setCodecsBlackListERK5QListI7QStringE
libMultiSink_gstreamer.so:_ZN11MediaWriter19codecOptionsChangedERK7QStringRK4QMapIS0_8QVariantE
libMultiSink_gstreamer.so:_ZN11MediaWriter19outputFormatChangedERK7QString
libMultiSink_gstreamer.so:_ZN11MediaWriter19setFormatsBlackListERK5QListI7QStringE
libMultiSink_gstreamer.so:_ZN11MediaWriter20defaultFormatChangedERK7QString
libMultiSink_gstreamer.so:_ZN11MediaWriter20formatOptionsChangedERK4QMapI7QString8QVariantE
libMultiSink_gstreamer.so:_ZN11MediaWriter20resetCodecsBlackListEv
libMultiSink_gstreamer.so:_ZN11MediaWriter21resetFormatsBlackListEv
libMultiSink_gstreamer.so:_ZN11MediaWriter21setMaxPacketQueueSizeEx
libMultiSink_gstreamer.so:_ZN11MediaWriter22codecsBlackListChangedERK5QListI7QStringE
libMultiSink_gstreamer.so:_ZN11MediaWriter23formatsBlackListChangedERK5QListI7QStringE
libMultiSink_gstreamer.so:_ZN11MediaWriter23resetMaxPacketQueueSizeEv
libMultiSink_gstreamer.so:_ZN11MediaWriter25maxPacketQueueSizeChangedEx
libMultiSink_gstreamer.so:_ZN11MediaWriter4initEv
libMultiSink_gstreamer.so:_ZN11MediaWriter6uninitEv
libMultiSink_gstreamer.so:_ZN11MediaWriter9addStreamEiRK6AkCaps
libMultiSink_gstreamer.so:_ZN11MediaWriter9addStreamEiRK6AkCapsRK4QMapI7QString8QVariantE
libMultiSink_gstreamer.so:_ZN11MediaWriter9codecTypeERK7QString
libMultiSink_gstreamer.so:_ZN11MediaWriterC1EP7QObject
libMultiSink_gstreamer.so:_ZN11MediaWriterC2EP7QObject
libMultiSink_gstreamer.so:_ZN12OutputParams10inputIndexEv
libMultiSink_gstreamer.so:_ZN12OutputParams11qt_metacallEN11QMetaObject4CallEiPPv
libMultiSink_gstreamer.so:_ZN12OutputParams11qt_metacastEPKc
libMultiSink_gstreamer.so:_ZN12OutputParams11resetNFrameEv
libMultiSink_gstreamer.so:_ZN12OutputParams13nFrameChangedEy
libMultiSink_gstreamer.so:_ZN12OutputParams13setInputIndexEi
libMultiSink_gstreamer.so:_ZN12OutputParams15resetInputIndexEv
libMultiSink_gstreamer.so:_ZN12OutputParams16staticMetaObjectE
libMultiSink_gstreamer.so:_ZN12OutputParams17inputIndexChangedEi
libMultiSink_gstreamer.so:_ZN12OutputParams6nFrameEv
libMultiSink_gstreamer.so:_ZN12OutputParams7nextPtsExx
libMultiSink_gstreamer.so:_ZN12OutputParams9setNFrameEy
libMultiSink_gstreamer.so:_ZN12OutputParamsC1ERKS_
libMultiSink_gstreamer.so:_ZN12OutputParamsC1EiP7QObject
libMultiSink_gstreamer.so:_ZN12OutputParamsC2ERKS_
libMultiSink_gstreamer.so:_ZN12OutputParamsC2EiP7QObject
libMultiSink_gstreamer.so:_ZN12OutputParamsD0Ev
libMultiSink_gstreamer.so:_ZN12OutputParamsD1Ev
libMultiSink_gstreamer.so:_ZN12OutputParamsD2Ev
libMultiSink_gstreamer.so:_ZN12OutputParamsaSERKS_
libMultiSink_gstreamer.so:_ZN20MediaWriterGStreamer11qt_metacallEN11QMetaObject4CallEiPPv
libMultiSink_gstreamer.so:_ZN20MediaWriterGStreamer11qt_metacastEPKc
libMultiSink_gstreamer.so:_ZN20MediaWriterGStreamer12clearStreamsEv
libMultiSink_gstreamer.so:_ZN20MediaWriterGStreamer12codecOptionsEi
libMultiSink_gstreamer.so:_ZN20MediaWriterGStreamer12defaultCodecERK7QStringN6AkCaps8CapsTypeE
libMultiSink_gstreamer.so:_ZN20MediaWriterGStreamer12updateStreamEi
libMultiSink_gstreamer.so:_ZN20MediaWriterGStreamer12updateStreamEiRK4QMapI7QString8QVariantE
libMultiSink_gstreamer.so:_ZN20MediaWriterGStreamer13defaultFormatEv
libMultiSink_gstreamer.so:_ZN20MediaWriterGStreamer13enqueuePacketERK8AkPacket
libMultiSink_gstreamer.so:_ZN20MediaWriterGStreamer13formatOptionsEv
libMultiSink_gstreamer.so:_ZN20MediaWriterGStreamer14fileExtensionsERK7QString
libMultiSink_gstreamer.so:_ZN20MediaWriterGStreamer15setCodecOptionsEiRK4QMapI7QString8QVariantE
libMultiSink_gstreamer.so:_ZN20MediaWriterGStreamer15setOutputFormatERK7QString
libMultiSink_gstreamer.so:_ZN20MediaWriterGStreamer15supportedCodecsERK7QString
libMultiSink_gstreamer.so:_ZN20MediaWriterGStreamer15supportedCodecsERK7QStringN6AkCaps8CapsTypeE
libMultiSink_gstreamer.so:_ZN20MediaWriterGStreamer16codecDescriptionERK7QString
libMultiSink_gstreamer.so:_ZN20MediaWriterGStreamer16setFormatOptionsERK4QMapI7QString8QVariantE
libMultiSink_gstreamer.so:_ZN20MediaWriterGStreamer16staticMetaObjectE
libMultiSink_gstreamer.so:_ZN20MediaWriterGStreamer16supportedFormatsEv
libMultiSink_gstreamer.so:_ZN20MediaWriterGStreamer17formatDescriptionERK7QString
libMultiSink_gstreamer.so:_ZN20MediaWriterGStreamer17resetCodecOptionsEi
libMultiSink_gstreamer.so:_ZN20MediaWriterGStreamer17resetOutputFormatEv
libMultiSink_gstreamer.so:_ZN20MediaWriterGStreamer18defaultCodecParamsERK7QString
libMultiSink_gstreamer.so:_ZN20MediaWriterGStreamer18resetFormatOptionsEv
libMultiSink_gstreamer.so:_ZN20MediaWriterGStreamer4initEv
libMultiSink_gstreamer.so:_ZN20MediaWriterGStreamer6uninitEv
libMultiSink_gstreamer.so:_ZN20MediaWriterGStreamer9addStreamEiRK6AkCaps
libMultiSink_gstreamer.so:_ZN20MediaWriterGStreamer9addStreamEiRK6AkCapsRK4QMapI7QString8QVariantE
libMultiSink_gstreamer.so:_ZN20MediaWriterGStreamer9codecTypeERK7QString
libMultiSink_gstreamer.so:_ZN20MediaWriterGStreamerC1EP7QObject
libMultiSink_gstreamer.so:_ZN20MediaWriterGStreamerC2EP7QObject
libMultiSink_gstreamer.so:_ZN20MediaWriterGStreamerD0Ev
libMultiSink_gstreamer.so:_ZN20MediaWriterGStreamerD1Ev
libMultiSink_gstreamer.so:_ZN20MediaWriterGStreamerD2Ev
libMultiSink_gstreamer.so:_ZN27MediaWriterGStreamerPrivate11busCallbackEP7_GstBusP11_GstMessagePv
libMultiSink_gstreamer.so:_ZN27MediaWriterGStreamerPrivate11guessFormatERK7QString
libMultiSink_gstreamer.so:_ZN27MediaWriterGStreamerPrivate16writeAudioPacketERK13AkAudioPacket
libMultiSink_gstreamer.so:_ZN27MediaWriterGStreamerPrivate16writeVideoPacketERK13AkVideoPacket
libMultiSink_gstreamer.so:_ZN27MediaWriterGStreamerPrivate17setElementOptionsEP11_GstElementRK4QMapI7QString8QVariantE
libMultiSink_gstreamer.so:_ZN27MediaWriterGStreamerPrivate19writeSubtitlePacketERK16AkSubtitlePacket
libMultiSink_gstreamer.so:_ZN27MediaWriterGStreamerPrivate26setDefaultAudioCodecParamsERK7QStringP8_GstCapsR4QMapIS0_8QVariantE
libMultiSink_gstreamer.so:_ZN27MediaWriterGStreamerPrivate26setDefaultVideoCodecParamsERK7QStringP8_GstCapsR4QMapIS0_8QVariantE
libMultiSink_gstreamer.so:_ZN27MediaWriterGStreamerPrivate8readCapsERK7QString
libMultiSink_gstreamer.so:_ZN27MediaWriterGStreamerPrivate9initAudioEiRK7QStringRK6AkCapsRK4QMapIS0_8QVariantESA_S2_S2_P11_GstElement
libMultiSink_gstreamer.so:_ZN27MediaWriterGStreamerPrivate9initVideoEiRK7QStringRK6AkCapsRK4QMapIS0_8QVariantESA_S2_S2_P11_GstElement
libMultiSink_gstreamer.so:_ZN27MediaWriterGStreamerPrivate9waitStateE8GstState
libMultiSink_gstreamer.so:_ZN27MediaWriterGStreamerPrivateC1EP20MediaWriterGStreamer
libMultiSink_gstreamer.so:_ZN27MediaWriterGStreamerPrivateC2EP20MediaWriterGStreamer
libMultiSink_gstreamer.so:_ZN6Plugin11qt_metacallEN11QMetaObject4CallEiPPv
libMultiSink_gstreamer.so:_ZN6Plugin11qt_metacastEPKc
libMultiSink_gstreamer.so:_ZN6Plugin16staticMetaObjectE
libMultiSink_gstreamer.so:_ZN6Plugin6createERK7QStringS2_
libMultiSink_gstreamer.so:_ZNK11MediaWriter10metaObjectEv
libMultiSink_gstreamer.so:_ZNK11MediaWriter12outputFormatEv
libMultiSink_gstreamer.so:_ZNK11MediaWriter15codecsBlackListEv
libMultiSink_gstreamer.so:_ZNK11MediaWriter16formatsBlackListEv
libMultiSink_gstreamer.so:_ZNK11MediaWriter18maxPacketQueueSizeEv
libMultiSink_gstreamer.so:_ZNK11MediaWriter7streamsEv
libMultiSink_gstreamer.so:_ZNK11MediaWriter8locationEv
libMultiSink_gstreamer.so:_ZNK12OutputParams10inputIndexEv
libMultiSink_gstreamer.so:_ZNK12OutputParams10metaObjectEv
libMultiSink_gstreamer.so:_ZNK12OutputParams6nFrameEv
libMultiSink_gstreamer.so:_ZNK20MediaWriterGStreamer10metaObjectEv
libMultiSink_gstreamer.so:_ZNK20MediaWriterGStreamer12outputFormatEv
libMultiSink_gstreamer.so:_ZNK20MediaWriterGStreamer7streamsEv
libMultiSink_gstreamer.so:_ZNK27MediaWriterGStreamerPrivate12parseOptionsEPK11_GstElement
libMultiSink_gstreamer.so:_ZNK27MediaWriterGStreamerPrivate13nearestDVCapsERK11AkVideoCaps
libMultiSink_gstreamer.so:_ZNK27MediaWriterGStreamerPrivate16nearestFrameRateERK11AkVideoCapsRK5QListI6AkFracE
libMultiSink_gstreamer.so:_ZNK27MediaWriterGStreamerPrivate16nearestFrameRateERK11AkVideoCapsRK5QListI8QVariantE
libMultiSink_gstreamer.so:_ZNK27MediaWriterGStreamerPrivate16nearestFrameSizeERK11AkVideoCapsRK5QListI5QSizeE
libMultiSink_gstreamer.so:_ZNK27MediaWriterGStreamerPrivate17nearestSampleRateERK11AkAudioCapsRK5QListI8QVariantE
libMultiSink_gstreamer.so:_ZNK27MediaWriterGStreamerPrivate17nearestSampleRateERK11AkAudioCapsRK5QListIiE
libMultiSink_gstreamer.so:_ZNK27MediaWriterGStreamerPrivate19nearestFLVAudioCapsERK11AkAudioCapsRK7QString
libMultiSink_gstreamer.so:_ZNK6Plugin10metaObjectEv
libMultiSink_gstreamer.so:_ZNK6Plugin4keysEv
libMultiSink_gstreamer.so:_ZThn16_N6Plugin6createERK7QStringS2_
libMultiSink_gstreamer.so:_ZThn16_NK6Plugin4keysEv
libMultiSink_gstreamer.so:qt_plugin_instance
libMultiSink_gstreamer.so:qt_plugin_query_metadata_v2
libMultiSrc.so:_Z23qInitResources_MultiSrcv
libMultiSrc.so:_Z26qCleanupResources_MultiSrcv
libMultiSrc.so:_ZN11MediaSource10listTracksEN6AkCaps8CapsTypeE
libMultiSrc.so:_ZN11MediaSource10resetMediaEv
libMultiSrc.so:_ZN11MediaSource10resetStateEv
libMultiSrc.so:_ZN11MediaSource10setShowLogEb
libMultiSrc.so:_ZN11MediaSource10setStreamsERK5QListIiE
libMultiSrc.so:_ZN11MediaSource11loopChangedEb
libMultiSrc.so:_ZN11MediaSource11mediaLoadedERK7QString
libMultiSrc.so:_ZN11MediaSource11qt_metacallEN11QMetaObject4CallEiPPv
libMultiSrc.so:_ZN11MediaSource11qt_metacastEPKc
libMultiSrc.so:_ZN11MediaSource11syncChangedEb
libMultiSrc.so:_ZN11MediaSource12mediaChangedERK7QString
libMultiSrc.so:_ZN11MediaSource12resetShowLogEv
libMultiSrc.so:_ZN11MediaSource12resetStreamsEv
libMultiSrc.so:_ZN11MediaSource12stateChangedEN9AkElement12ElementStateE
libMultiSrc.so:_ZN11MediaSource13defaultStreamEN6AkCaps8CapsTypeE
libMultiSrc.so:_ZN11MediaSource13durationMSecsEv
libMultiSrc.so:_ZN11MediaSource13mediasChangedERK5QListI7QStringE
libMultiSrc.so:_ZN11MediaSource14showLogChangedEb
libMultiSrc.so:_ZN11MediaSource14streamLanguageEi
libMultiSrc.so:_ZN11MediaSource14streamsChangedERK5QListIiE
libMultiSrc.so:_ZN11MediaSource16currentTimeMSecsEv
libMultiSrc.so:_ZN11MediaSource16staticMetaObjectE
libMultiSrc.so:_ZN11MediaSource20durationMSecsChangedEx
libMultiSrc.so:_ZN11MediaSource21setMaxPacketQueueSizeEx
libMultiSrc.so:_ZN11MediaSource23currentTimeMSecsChangedEx
libMultiSrc.so:_ZN11MediaSource23resetMaxPacketQueueSizeEv
libMultiSrc.so:_ZN11MediaSource25maxPacketQueueSizeChangedEx
libMultiSrc.so:_ZN11MediaSource4capsEi
libMultiSrc.so:_ZN11MediaSource4seekExNS_12SeekPositionE
libMultiSrc.so:_ZN11MediaSource5errorERK7QString
libMultiSrc.so:_ZN11MediaSource7oStreamERK8AkPacket
libMultiSrc.so:_ZN11MediaSource7setLoopEb
libMultiSrc.so:_ZN11MediaSource7setSyncEb
libMultiSrc.so:_ZN11MediaSource8setMediaERK7QString
libMultiSrc.so:_ZN11MediaSource8setStateEN9AkElement12ElementStateE
libMultiSrc.so:_ZN11MediaSource9resetLoopEv
libMultiSrc.so:_ZN11MediaSource9resetSyncEv
libMultiSrc.so:_ZN11MediaSourceC1EP7QObject
libMultiSrc.so:_ZN11MediaSourceC2EP7QObject
libMultiSrc.so:_ZN15MultiSrcElement10listTracksEN6AkCaps8CapsTypeE
libMultiSrc.so:_ZN15MultiSrcElement10resetMediaEv
libMultiSrc.so:_ZN15MultiSrcElement10setShowLogEb
libMultiSrc.so:_ZN15MultiSrcElement10setStreamsERK5QListIiE
libMultiSrc.so:_ZN15MultiSrcElement11descriptionERK7QString
libMultiSrc.so:_ZN15MultiSrcElement11loopChangedEb
libMultiSrc.so:_ZN15MultiSrcElement11mediaLoadedERK7QString
libMultiSrc.so:_ZN15MultiSrcElement11qt_metacallEN11QMetaObject4CallEiPPv
libMultiSrc.so:_ZN15MultiSrcElement11qt_metacastEPKc
libMultiSrc.so:_ZN15MultiSrcElement11syncChangedEb
libMultiSrc.so:_ZN15MultiSrcElement12mediaChangedERK7QString
libMultiSrc.so:_ZN15MultiSrcElement12resetShowLogEv
libMultiSrc.so:_ZN15MultiSrcElement12resetStreamsEv
libMultiSrc.so:_ZN15MultiSrcElement13defaultStreamEN6AkCaps8CapsTypeE
libMultiSrc.so:_ZN15MultiSrcElement13durationMSecsEv
libMultiSrc.so:_ZN15MultiSrcElement13mediasChangedERK5QListI7QStringE
libMultiSrc.so:_ZN15MultiSrcElement14showLogChangedEb
libMultiSrc.so:_ZN15MultiSrcElement14streamLanguageEi
libMultiSrc.so:_ZN15MultiSrcElement14streamsChangedERK5QListIiE
libMultiSrc.so:_ZN15MultiSrcElement16currentTimeMSecsEv
libMultiSrc.so:_ZN15MultiSrcElement16staticMetaObjectE
libMultiSrc.so:_ZN15MultiSrcElement20durationMSecsChangedEx
libMultiSrc.so:_ZN15MultiSrcElement21setMaxPacketQueueSizeEx
libMultiSrc.so:_ZN15MultiSrcElement23currentTimeMSecsChangedEx
libMultiSrc.so:_ZN15MultiSrcElement23resetMaxPacketQueueSizeEv
libMultiSrc.so:_ZN15MultiSrcElement25maxPacketQueueSizeChangedEx
libMultiSrc.so:_ZN15MultiSrcElement4capsEi
libMultiSrc.so:_ZN15MultiSrcElement4seekExNS_12SeekPositionE
libMultiSrc.so:_ZN15MultiSrcElement5errorERK7QString
libMultiSrc.so:_ZN15MultiSrcElement6mediasEv
libMultiSrc.so:_ZN15MultiSrcElement7setLoopEb
libMultiSrc.so:_ZN15MultiSrcElement7setSyncEb
libMultiSrc.so:_ZN15MultiSrcElement7streamsEv
libMultiSrc.so:_ZN15MultiSrcElement8setMediaERK7QString
libMultiSrc.so:_ZN15MultiSrcElement8setStateEN9AkElement12ElementStateE
libMultiSrc.so:_ZN15MultiSrcElement9resetLoopEv
libMultiSrc.so:_ZN15MultiSrcElement9resetSyncEv
libMultiSrc.so:_ZN15MultiSrcElementC1Ev
libMultiSrc.so:_ZN15MultiSrcElementC2Ev
libMultiSrc.so:_ZN15MultiSrcElementD0Ev
libMultiSrc.so:_ZN15MultiSrcElementD1Ev
libMultiSrc.so:_ZN15MultiSrcElementD2Ev
libMultiSrc.so:_ZN22MultiSrcElementPrivate12linksChangedERK4QMapI7QStringS1_E
libMultiSrc.so:_ZN22MultiSrcElementPrivateC1EP15MultiSrcElement
libMultiSrc.so:_ZN22MultiSrcElementPrivateC2EP15MultiSrcElement
libMultiSrc.so:_ZN8MultiSrc11qt_metacallEN11QMetaObject4CallEiPPv
libMultiSrc.so:_ZN8MultiSrc11qt_metacastEPKc
libMultiSrc.so:_ZN8MultiSrc16staticMetaObjectE
libMultiSrc.so:_ZN8MultiSrc6createERK7QStringS2_
libMultiSrc.so:_ZNK11MediaSource10metaObjectEv
libMultiSrc.so:_ZNK11MediaSource11descriptionERK7QString
libMultiSrc.so:_ZNK11MediaSource18maxPacketQueueSizeEv
libMultiSrc.so:_ZNK11MediaSource4loopEv
libMultiSrc.so:_ZNK11MediaSource4syncEv
libMultiSrc.so:_ZNK11MediaSource5mediaEv
libMultiSrc.so:_ZNK11MediaSource5stateEv
libMultiSrc.so:_ZNK11MediaSource6mediasEv
libMultiSrc.so:_ZNK11MediaSource7showLogEv
libMultiSrc.so:_ZNK11MediaSource7streamsEv
libMultiSrc.so:_ZNK15MultiSrcElement10metaObjectEv
libMultiSrc.so:_ZNK15MultiSrcElement18maxPacketQueueSizeEv
libMultiSrc.so:_ZNK15MultiSrcElement23controlInterfaceProvideERK7QString
libMultiSrc.so:_ZNK15MultiSrcElement25controlInterfaceConfigureEP11QQmlContextRK7QString
libMultiSrc.so:_ZNK15MultiSrcElement4loopEv
libMultiSrc.so:_ZNK15MultiSrcElement4syncEv
libMultiSrc.so:_ZNK15MultiSrcElement5mediaEv
libMultiSrc.so:_ZNK15MultiSrcElement5stateEv
libMultiSrc.so:_ZNK15MultiSrcElement7showLogEv
libMultiSrc.so:_ZNK8MultiSrc10metaObjectEv
libMultiSrc.so:_ZNK8MultiSrc4keysEv
libMultiSrc.so:_ZThn16_N8MultiSrc6createERK7QStringS2_
libMultiSrc.so:_ZThn16_NK8MultiSrc4keysEv
libMultiSrc.so:qt_plugin_instance
libMultiSrc.so:qt_plugin_query_metadata_v2
libMultiSrc_ffmpeg.so:_ZN11AudioStream10decodeDataEv
libMultiSrc_ffmpeg.so:_ZN11AudioStream11processDataEP7AVFrame
libMultiSrc_ffmpeg.so:_ZN11AudioStream11qt_metacallEN11QMetaObject4CallEiPPv
libMultiSrc_ffmpeg.so:_ZN11AudioStream11qt_metacastEPKc
libMultiSrc_ffmpeg.so:_ZN11AudioStream13processPacketEP8AVPacket
libMultiSrc_ffmpeg.so:_ZN11AudioStream16staticMetaObjectE
libMultiSrc_ffmpeg.so:_ZN11AudioStreamC1EPK15AVFormatContextjxP5ClockbbP7QObject
libMultiSrc_ffmpeg.so:_ZN11AudioStreamC2EPK15AVFormatContextjxP5ClockbbP7QObject
libMultiSrc_ffmpeg.so:_ZN11AudioStreamD0Ev
libMultiSrc_ffmpeg.so:_ZN11AudioStreamD1Ev
libMultiSrc_ffmpeg.so:_ZN11AudioStreamD2Ev
libMultiSrc_ffmpeg.so:_ZN11MediaSource10listTracksEN6AkCaps8CapsTypeE
libMultiSrc_ffmpeg.so:_ZN11MediaSource10resetMediaEv
libMultiSrc_ffmpeg.so:_ZN11MediaSource10resetStateEv
libMultiSrc_ffmpeg.so:_ZN11MediaSource10setShowLogEb
libMultiSrc_ffmpeg.so:_ZN11MediaSource10setStreamsERK5QListIiE
libMultiSrc_ffmpeg.so:_ZN11MediaSource11loopChangedEb
libMultiSrc_ffmpeg.so:_ZN11MediaSource11mediaLoadedERK7QString
libMultiSrc_ffmpeg.so:_ZN11MediaSource11qt_metacallEN11QMetaObject4CallEiPPv
libMultiSrc_ffmpeg.so:_ZN11MediaSource11qt_metacastEPKc
libMultiSrc_ffmpeg.so:_ZN11MediaSource11syncChangedEb
libMultiSrc_ffmpeg.so:_ZN11MediaSource12mediaChangedERK7QString
libMultiSrc_ffmpeg.so:_ZN11MediaSource12resetShowLogEv
libMultiSrc_ffmpeg.so:_ZN11MediaSource12resetStreamsEv
libMultiSrc_ffmpeg.so:_ZN11MediaSource12stateChangedEN9AkElement12ElementStateE
libMultiSrc_ffmpeg.so:_ZN11MediaSource13defaultStreamEN6AkCaps8CapsTypeE
libMultiSrc_ffmpeg.so:_ZN11MediaSource13durationMSecsEv
libMultiSrc_ffmpeg.so:_ZN11MediaSource13mediasChangedERK5QListI7QStringE
libMultiSrc_ffmpeg.so:_ZN11MediaSource14showLogChangedEb
libMultiSrc_ffmpeg.so:_ZN11MediaSource14streamLanguageEi
libMultiSrc_ffmpeg.so:_ZN11MediaSource14streamsChangedERK5QListIiE
libMultiSrc_ffmpeg.so:_ZN11MediaSource16currentTimeMSecsEv
libMultiSrc_ffmpeg.so:_ZN11MediaSource16staticMetaObjectE
libMultiSrc_ffmpeg.so:_ZN11MediaSource20durationMSecsChangedEx
libMultiSrc_ffmpeg.so:_ZN11MediaSource21setMaxPacketQueueSizeEx
libMultiSrc_ffmpeg.so:_ZN11MediaSource23currentTimeMSecsChangedEx
libMultiSrc_ffmpeg.so:_ZN11MediaSource23resetMaxPacketQueueSizeEv
libMultiSrc_ffmpeg.so:_ZN11MediaSource25maxPacketQueueSizeChangedEx
libMultiSrc_ffmpeg.so:_ZN11MediaSource4capsEi
libMultiSrc_ffmpeg.so:_ZN11MediaSource4seekExNS_12SeekPositionE
libMultiSrc_ffmpeg.so:_ZN11MediaSource5errorERK7QString
libMultiSrc_ffmpeg.so:_ZN11MediaSource7oStreamERK8AkPacket
libMultiSrc_ffmpeg.so:_ZN11MediaSource7setLoopEb
libMultiSrc_ffmpeg.so:_ZN11MediaSource7setSyncEb
libMultiSrc_ffmpeg.so:_ZN11MediaSource8setMediaERK7QString
libMultiSrc_ffmpeg.so:_ZN11MediaSource8setStateEN9AkElement12ElementStateE
libMultiSrc_ffmpeg.so:_ZN11MediaSource9resetLoopEv
libMultiSrc_ffmpeg.so:_ZN11MediaSource9resetSyncEv
libMultiSrc_ffmpeg.so:_ZN11MediaSourceC1EP7QObject
libMultiSrc_ffmpeg.so:_ZN11MediaSourceC2EP7QObject
libMultiSrc_ffmpeg.so:_ZN11VideoStream10decodeDataEv
libMultiSrc_ffmpeg.so:_ZN11VideoStream11processDataEP7AVFrame
libMultiSrc_ffmpeg.so:_ZN11VideoStream11qt_metacallEN11QMetaObject4CallEiPPv
libMultiSrc_ffmpeg.so:_ZN11VideoStream11qt_metacastEPKc
libMultiSrc_ffmpeg.so:_ZN11VideoStream13processPacketEP8AVPacket
libMultiSrc_ffmpeg.so:_ZN11VideoStream16staticMetaObjectE
libMultiSrc_ffmpeg.so:_ZN11VideoStreamC1EPK15AVFormatContextjxP5ClockbbP7QObject
libMultiSrc_ffmpeg.so:_ZN11VideoStreamC2EPK15AVFormatContextjxP5ClockbbP7QObject
libMultiSrc_ffmpeg.so:_ZN11VideoStreamD0Ev
libMultiSrc_ffmpeg.so:_ZN11VideoStreamD1Ev
libMultiSrc_ffmpeg.so:_ZN11VideoStreamD2Ev
libMultiSrc_ffmpeg.so:_ZN14AbstractStream10decodeDataEv
libMultiSrc_ffmpeg.so:_ZN14AbstractStream11dataEnqueueEP7AVFrame
libMultiSrc_ffmpeg.so:_ZN14AbstractStream11globalClockEv
libMultiSrc_ffmpeg.so:_ZN14AbstractStream11processDataEP10AVSubtitle
libMultiSrc_ffmpeg.so:_ZN14AbstractStream11processDataEP7AVFrame
libMultiSrc_ffmpeg.so:_ZN14AbstractStream11qt_metacallEN11QMetaObject4CallEiPPv
libMultiSrc_ffmpeg.so:_ZN14AbstractStream11qt_metacastEPKc
libMultiSrc_ffmpeg.so:_ZN14AbstractStream12stateChangedEN9AkElement12ElementStateE
libMultiSrc_ffmpeg.so:_ZN14AbstractStream13packetEnqueueEP8AVPacket
libMultiSrc_ffmpeg.so:_ZN14AbstractStream13processPacketEP8AVPacket
libMultiSrc_ffmpeg.so:_ZN14AbstractStream15subtitleEnqueueEP10AVSubtitle
libMultiSrc_ffmpeg.so:_ZN14AbstractStream16staticMetaObjectE
libMultiSrc_ffmpeg.so:_ZN14AbstractStream3eofEv
libMultiSrc_ffmpeg.so:_ZN14AbstractStream4typeEPK15AVFormatContextj
libMultiSrc_ffmpeg.so:_ZN14AbstractStream5flushEv
libMultiSrc_ffmpeg.so:_ZN14AbstractStream6notifyEv
libMultiSrc_ffmpeg.so:_ZN14AbstractStream7oStreamERK8AkPacket
libMultiSrc_ffmpeg.so:_ZN14AbstractStream7setSyncEb
libMultiSrc_ffmpeg.so:_ZN14AbstractStream8setStateEN9AkElement12ElementStateE
libMultiSrc_ffmpeg.so:_ZN14AbstractStream9clockDiffEv
libMultiSrc_ffmpeg.so:_ZN14AbstractStreamC1EPK15AVFormatContextjxP5ClockbbP7QObject
libMultiSrc_ffmpeg.so:_ZN14AbstractStreamC2EPK15AVFormatContextjxP5ClockbbP7QObject
libMultiSrc_ffmpeg.so:_ZN14AbstractStreamD0Ev
libMultiSrc_ffmpeg.so:_ZN14AbstractStreamD1Ev
libMultiSrc_ffmpeg.so:_ZN14AbstractStreamD2Ev
libMultiSrc_ffmpeg.so:_ZN14SubtitleStream10decodeDataEv
libMultiSrc_ffmpeg.so:_ZN14SubtitleStream11processDataEP10AVSubtitle
libMultiSrc_ffmpeg.so:_ZN14SubtitleStream11qt_metacallEN11QMetaObject4CallEiPPv
libMultiSrc_ffmpeg.so:_ZN14SubtitleStream11qt_metacastEPKc
libMultiSrc_ffmpeg.so:_ZN14SubtitleStream13processPacketEP8AVPacket
libMultiSrc_ffmpeg.so:_ZN14SubtitleStream16staticMetaObjectE
libMultiSrc_ffmpeg.so:_ZN14SubtitleStreamC1EPK15AVFormatContextjxP5ClockbbP7QObject
libMultiSrc_ffmpeg.so:_ZN14SubtitleStreamC2EPK15AVFormatContextjxP5ClockbbP7QObject
libMultiSrc_ffmpeg.so:_ZN17MediaSourceFFmpeg10listTracksEN6AkCaps8CapsTypeE
libMultiSrc_ffmpeg.so:_ZN17MediaSourceFFmpeg10resetMediaEv
libMultiSrc_ffmpeg.so:_ZN17MediaSourceFFmpeg10setShowLogEb
libMultiSrc_ffmpeg.so:_ZN17MediaSourceFFmpeg10setStreamsERK5QListIiE
libMultiSrc_ffmpeg.so:_ZN17MediaSourceFFmpeg11initContextEv
libMultiSrc_ffmpeg.so:_ZN17MediaSourceFFmpeg11qt_metacallEN11QMetaObject4CallEiPPv
libMultiSrc_ffmpeg.so:_ZN17MediaSourceFFmpeg11qt_metacastEPKc
libMultiSrc_ffmpeg.so:_ZN17MediaSourceFFmpeg12resetShowLogEv
libMultiSrc_ffmpeg.so:_ZN17MediaSourceFFmpeg12resetStreamsEv
libMultiSrc_ffmpeg.so:_ZN17MediaSourceFFmpeg13defaultStreamEN6AkCaps8CapsTypeE
libMultiSrc_ffmpeg.so:_ZN17MediaSourceFFmpeg13durationMSecsEv
libMultiSrc_ffmpeg.so:_ZN17MediaSourceFFmpeg14packetConsumedEv
libMultiSrc_ffmpeg.so:_ZN17MediaSourceFFmpeg14streamLanguageEi
libMultiSrc_ffmpeg.so:_ZN17MediaSourceFFmpeg16currentTimeMSecsEv
libMultiSrc_ffmpeg.so:_ZN17MediaSourceFFmpeg16staticMetaObjectE
libMultiSrc_ffmpeg.so:_ZN17MediaSourceFFmpeg21setMaxPacketQueueSizeEx
libMultiSrc_ffmpeg.so:_ZN17MediaSourceFFmpeg23resetMaxPacketQueueSizeEv
libMultiSrc_ffmpeg.so:_ZN17MediaSourceFFmpeg3logEv
libMultiSrc_ffmpeg.so:_ZN17MediaSourceFFmpeg4capsEi
libMultiSrc_ffmpeg.so:_ZN17MediaSourceFFmpeg4seekExN11MediaSource12SeekPositionE
libMultiSrc_ffmpeg.so:_ZN17MediaSourceFFmpeg6doLoopEv
libMultiSrc_ffmpeg.so:_ZN17MediaSourceFFmpeg7setLoopEb
libMultiSrc_ffmpeg.so:_ZN17MediaSourceFFmpeg7setSyncEb
libMultiSrc_ffmpeg.so:_ZN17MediaSourceFFmpeg8setMediaERK7QString
libMultiSrc_ffmpeg.so:_ZN17MediaSourceFFmpeg8setStateEN9AkElement12ElementStateE
libMultiSrc_ffmpeg.so:_ZN17MediaSourceFFmpeg9resetLoopEv
libMultiSrc_ffmpeg.so:_ZN17MediaSourceFFmpeg9resetSyncEv
libMultiSrc_ffmpeg.so:_ZN17MediaSourceFFmpegC1EP7QObject
libMultiSrc_ffmpeg.so:_ZN17MediaSourceFFmpegC2EP7QObject
libMultiSrc_ffmpeg.so:_ZN17MediaSourceFFmpegD0Ev
libMultiSrc_ffmpeg.so:_ZN17MediaSourceFFmpegD1Ev
libMultiSrc_ffmpeg.so:_ZN17MediaSourceFFmpegD2Ev
libMultiSrc_ffmpeg.so:_ZN18AudioStreamPrivate13frameToPacketEP7AVFrame
libMultiSrc_ffmpeg.so:_ZN18AudioStreamPrivate7convertEP7AVFrame
libMultiSrc_ffmpeg.so:_ZN18AudioStreamPrivate8isPlanarE14AVSampleFormat
libMultiSrc_ffmpeg.so:_ZN18AudioStreamPrivateC1EP11AudioStream
libMultiSrc_ffmpeg.so:_ZN18AudioStreamPrivateC2EP11AudioStream
libMultiSrc_ffmpeg.so:_ZN18VideoStreamPrivate7convertEP7AVFrame
libMultiSrc_ffmpeg.so:_ZN18VideoStreamPrivateC1EP11VideoStream
libMultiSrc_ffmpeg.so:_ZN18VideoStreamPrivateC2EP11VideoStream
libMultiSrc_ffmpeg.so:_ZN21AbstractStreamPrivate10packetLoopEv
libMultiSrc_ffmpeg.so:_ZN21AbstractStreamPrivate10readPacketEv
libMultiSrc_ffmpeg.so:_ZN21AbstractStreamPrivate11deleteFrameEP7AVFrame
libMultiSrc_ffmpeg.so:_ZN21AbstractStreamPrivate12deletePacketEP8AVPacket
libMultiSrc_ffmpeg.so:_ZN21AbstractStreamPrivate14deleteSubtitleEP10AVSubtitle
libMultiSrc_ffmpeg.so:_ZN21AbstractStreamPrivate8dataLoopEv
libMultiSrc_ffmpeg.so:_ZN21AbstractStreamPrivate8readDataEv
libMultiSrc_ffmpeg.so:_ZN21AbstractStreamPrivateC1EP14AbstractStream
libMultiSrc_ffmpeg.so:_ZN21AbstractStreamPrivateC2EP14AbstractStream
libMultiSrc_ffmpeg.so:_ZN23MediaSourceFFmpegGlobal4initEv
libMultiSrc_ffmpeg.so:_ZN23MediaSourceFFmpegGlobalC1Ev
libMultiSrc_ffmpeg.so:_ZN23MediaSourceFFmpegGlobalC2Ev
libMultiSrc_ffmpeg.so:_ZN23MediaSourceFFmpegGlobalD1Ev
libMultiSrc_ffmpeg.so:_ZN23MediaSourceFFmpegGlobalD2Ev
libMultiSrc_ffmpeg.so:_ZN24MediaSourceFFmpegPrivate10readPacketEv
libMultiSrc_ffmpeg.so:_ZN24MediaSourceFFmpegPrivate11readPacketsEv
libMultiSrc_ffmpeg.so:_ZN24MediaSourceFFmpegPrivate11unlockQueueEv
libMultiSrc_ffmpeg.so:_ZN24MediaSourceFFmpegPrivate12createStreamEib
libMultiSrc_ffmpeg.so:_ZN24MediaSourceFFmpegPrivate17interruptCallbackEPv
libMultiSrc_ffmpeg.so:_ZN24MediaSourceFFmpegPrivate19deleteFormatContextEP15AVFormatContext
libMultiSrc_ffmpeg.so:_ZN24MediaSourceFFmpegPrivate9roundDownEii
libMultiSrc_ffmpeg.so:_ZN24MediaSourceFFmpegPrivateC1EP17MediaSourceFFmpeg
libMultiSrc_ffmpeg.so:_ZN24MediaSourceFFmpegPrivateC2EP17MediaSourceFFmpeg
libMultiSrc_ffmpeg.so:_ZN5Clock10resetClockEv
libMultiSrc_ffmpeg.so:_ZN5Clock11qt_metacallEN11QMetaObject4CallEiPPv
libMultiSrc_ffmpeg.so:_ZN5Clock11qt_metacastEPKc
libMultiSrc_ffmpeg.so:_ZN5Clock16staticMetaObjectE
libMultiSrc_ffmpeg.so:_ZN5Clock5clockEv
libMultiSrc_ffmpeg.so:_ZN5Clock8setClockEd
libMultiSrc_ffmpeg.so:_ZN5ClockC1EP7QObject
libMultiSrc_ffmpeg.so:_ZN5ClockC2EP7QObject
libMultiSrc_ffmpeg.so:_ZN5ClockD0Ev
libMultiSrc_ffmpeg.so:_ZN5ClockD1Ev
libMultiSrc_ffmpeg.so:_ZN5ClockD2Ev
libMultiSrc_ffmpeg.so:_ZN6Plugin11qt_metacallEN11QMetaObject4CallEiPPv
libMultiSrc_ffmpeg.so:_ZN6Plugin11qt_metacastEPKc
libMultiSrc_ffmpeg.so:_ZN6Plugin16staticMetaObjectE
libMultiSrc_ffmpeg.so:_ZN6Plugin6createERK7QStringS2_
libMultiSrc_ffmpeg.so:_ZNK11AudioStream10metaObjectEv
libMultiSrc_ffmpeg.so:_ZNK11AudioStream4capsEv
libMultiSrc_ffmpeg.so:_ZNK11MediaSource10metaObjectEv
libMultiSrc_ffmpeg.so:_ZNK11MediaSource11descriptionERK7QString
libMultiSrc_ffmpeg.so:_ZNK11MediaSource18maxPacketQueueSizeEv
libMultiSrc_ffmpeg.so:_ZNK11MediaSource4loopEv
libMultiSrc_ffmpeg.so:_ZNK11MediaSource4syncEv
libMultiSrc_ffmpeg.so:_ZNK11MediaSource5mediaEv
libMultiSrc_ffmpeg.so:_ZNK11MediaSource5stateEv
libMultiSrc_ffmpeg.so:_ZNK11MediaSource6mediasEv
libMultiSrc_ffmpeg.so:_ZNK11MediaSource7showLogEv
libMultiSrc_ffmpeg.so:_ZNK11MediaSource7streamsEv
libMultiSrc_ffmpeg.so:_ZNK11VideoStream10metaObjectEv
libMultiSrc_ffmpeg.so:_ZNK11VideoStream4capsEv
libMultiSrc_ffmpeg.so:_ZNK14AbstractStream10metaObjectEv
libMultiSrc_ffmpeg.so:_ZNK14AbstractStream12codecContextEv
libMultiSrc_ffmpeg.so:_ZNK14AbstractStream12codecOptionsEv
libMultiSrc_ffmpeg.so:_ZNK14AbstractStream2idEv
libMultiSrc_ffmpeg.so:_ZNK14AbstractStream4capsEv
libMultiSrc_ffmpeg.so:_ZNK14AbstractStream4syncEv
libMultiSrc_ffmpeg.so:_ZNK14AbstractStream5codecEv
libMultiSrc_ffmpeg.so:_ZNK14AbstractStream5indexEv
libMultiSrc_ffmpeg.so:_ZNK14AbstractStream5stateEv
libMultiSrc_ffmpeg.so:_ZNK14AbstractStream6streamEv
libMultiSrc_ffmpeg.so:_ZNK14AbstractStream7isValidEv
libMultiSrc_ffmpeg.so:_ZNK14AbstractStream8timeBaseEv
libMultiSrc_ffmpeg.so:_ZNK14AbstractStream9clockDiffEv
libMultiSrc_ffmpeg.so:_ZNK14AbstractStream9mediaTypeEv
libMultiSrc_ffmpeg.so:_ZNK14AbstractStream9queueSizeEv
libMultiSrc_ffmpeg.so:_ZNK14SubtitleStream10metaObjectEv
libMultiSrc_ffmpeg.so:_ZNK14SubtitleStream4capsEv
libMultiSrc_ffmpeg.so:_ZNK17MediaSourceFFmpeg10metaObjectEv
libMultiSrc_ffmpeg.so:_ZNK17MediaSourceFFmpeg11descriptionERK7QString
libMultiSrc_ffmpeg.so:_ZNK17MediaSourceFFmpeg18maxPacketQueueSizeEv
libMultiSrc_ffmpeg.so:_ZNK17MediaSourceFFmpeg4loopEv
libMultiSrc_ffmpeg.so:_ZNK17MediaSourceFFmpeg4syncEv
libMultiSrc_ffmpeg.so:_ZNK17MediaSourceFFmpeg5mediaEv
libMultiSrc_ffmpeg.so:_ZNK17MediaSourceFFmpeg5stateEv
libMultiSrc_ffmpeg.so:_ZNK17MediaSourceFFmpeg6mediasEv
libMultiSrc_ffmpeg.so:_ZNK17MediaSourceFFmpeg7showLogEv
libMultiSrc_ffmpeg.so:_ZNK17MediaSourceFFmpeg7streamsEv
libMultiSrc_ffmpeg.so:_ZNK18AudioStreamPrivate9copyFrameEP7AVFrame
libMultiSrc_ffmpeg.so:_ZNK18VideoStreamPrivate3fpsEv
libMultiSrc_ffmpeg.so:_ZNK18VideoStreamPrivate9copyFrameEP7AVFrame
libMultiSrc_ffmpeg.so:_ZNK24MediaSourceFFmpegPrivate15packetQueueSizeEv
libMultiSrc_ffmpeg.so:_ZNK5Clock10metaObjectEv
libMultiSrc_ffmpeg.so:_ZNK6Plugin10metaObjectEv
libMultiSrc_ffmpeg.so:_ZNK6Plugin4keysEv
libMultiSrc_ffmpeg.so:_ZThn16_N6Plugin6createERK7QStringS2_
libMultiSrc_ffmpeg.so:_ZThn16_NK6Plugin4keysEv
libMultiSrc_ffmpeg.so:qt_plugin_instance
libMultiSrc_ffmpeg.so:qt_plugin_query_metadata_v2
libMultiSrc_gstreamer.so:_ZN11MediaSource10listTracksEN6AkCaps8CapsTypeE
libMultiSrc_gstreamer.so:_ZN11MediaSource10resetMediaEv
libMultiSrc_gstreamer.so:_ZN11MediaSource10resetStateEv
libMultiSrc_gstreamer.so:_ZN11MediaSource10setShowLogEb
libMultiSrc_gstreamer.so:_ZN11MediaSource10setStreamsERK5QListIiE
libMultiSrc_gstreamer.so:_ZN11MediaSource11loopChangedEb
libMultiSrc_gstreamer.so:_ZN11MediaSource11mediaLoadedERK7QString
libMultiSrc_gstreamer.so:_ZN11MediaSource11qt_metacallEN11QMetaObject4CallEiPPv
libMultiSrc_gstreamer.so:_ZN11MediaSource11qt_metacastEPKc
libMultiSrc_gstreamer.so:_ZN11MediaSource11syncChangedEb
libMultiSrc_gstreamer.so:_ZN11MediaSource12mediaChangedERK7QString
libMultiSrc_gstreamer.so:_ZN11MediaSource12resetShowLogEv
libMultiSrc_gstreamer.so:_ZN11MediaSource12resetStreamsEv
libMultiSrc_gstreamer.so:_ZN11MediaSource12stateChangedEN9AkElement12ElementStateE
libMultiSrc_gstreamer.so:_ZN11MediaSource13defaultStreamEN6AkCaps8CapsTypeE
libMultiSrc_gstreamer.so:_ZN11MediaSource13durationMSecsEv
libMultiSrc_gstreamer.so:_ZN11MediaSource13mediasChangedERK5QListI7QStringE
libMultiSrc_gstreamer.so:_ZN11MediaSource14showLogChangedEb
libMultiSrc_gstreamer.so:_ZN11MediaSource14streamLanguageEi
libMultiSrc_gstreamer.so:_ZN11MediaSource14streamsChangedERK5QListIiE
libMultiSrc_gstreamer.so:_ZN11MediaSource16currentTimeMSecsEv
libMultiSrc_gstreamer.so:_ZN11MediaSource16staticMetaObjectE
libMultiSrc_gstreamer.so:_ZN11MediaSource20durationMSecsChangedEx
libMultiSrc_gstreamer.so:_ZN11MediaSource21setMaxPacketQueueSizeEx
libMultiSrc_gstreamer.so:_ZN11MediaSource23currentTimeMSecsChangedEx
libMultiSrc_gstreamer.so:_ZN11MediaSource23resetMaxPacketQueueSizeEv
libMultiSrc_gstreamer.so:_ZN11MediaSource25maxPacketQueueSizeChangedEx
libMultiSrc_gstreamer.so:_ZN11MediaSource4capsEi
libMultiSrc_gstreamer.so:_ZN11MediaSource4seekExNS_12SeekPositionE
libMultiSrc_gstreamer.so:_ZN11MediaSource5errorERK7QString
libMultiSrc_gstreamer.so:_ZN11MediaSource7oStreamERK8AkPacket
libMultiSrc_gstreamer.so:_ZN11MediaSource7setLoopEb
libMultiSrc_gstreamer.so:_ZN11MediaSource7setSyncEb
libMultiSrc_gstreamer.so:_ZN11MediaSource8setMediaERK7QString
libMultiSrc_gstreamer.so:_ZN11MediaSource8setStateEN9AkElement12ElementStateE
libMultiSrc_gstreamer.so:_ZN11MediaSource9resetLoopEv
libMultiSrc_gstreamer.so:_ZN11MediaSource9resetSyncEv
libMultiSrc_gstreamer.so:_ZN11MediaSourceC1EP7QObject
libMultiSrc_gstreamer.so:_ZN11MediaSourceC2EP7QObject
libMultiSrc_gstreamer.so:_ZN20MediaSourceGStreamer10listTracksEN6AkCaps8CapsTypeE
libMultiSrc_gstreamer.so:_ZN20MediaSourceGStreamer10resetMediaEv
libMultiSrc_gstreamer.so:_ZN20MediaSourceGStreamer10setShowLogEb
libMultiSrc_gstreamer.so:_ZN20MediaSourceGStreamer10setStreamsERK5QListIiE
libMultiSrc_gstreamer.so:_ZN20MediaSourceGStreamer11qt_metacallEN11QMetaObject4CallEiPPv
libMultiSrc_gstreamer.so:_ZN20MediaSourceGStreamer11qt_metacastEPKc
libMultiSrc_gstreamer.so:_ZN20MediaSourceGStreamer12resetShowLogEv
libMultiSrc_gstreamer.so:_ZN20MediaSourceGStreamer12resetStreamsEv
libMultiSrc_gstreamer.so:_ZN20MediaSourceGStreamer13defaultStreamEN6AkCaps8CapsTypeE
libMultiSrc_gstreamer.so:_ZN20MediaSourceGStreamer13durationMSecsEv
libMultiSrc_gstreamer.so:_ZN20MediaSourceGStreamer13updateStreamsEv
libMultiSrc_gstreamer.so:_ZN20MediaSourceGStreamer14streamLanguageEi
libMultiSrc_gstreamer.so:_ZN20MediaSourceGStreamer16currentTimeMSecsEv
libMultiSrc_gstreamer.so:_ZN20MediaSourceGStreamer16staticMetaObjectE
libMultiSrc_gstreamer.so:_ZN20MediaSourceGStreamer21setMaxPacketQueueSizeEx
libMultiSrc_gstreamer.so:_ZN20MediaSourceGStreamer23resetMaxPacketQueueSizeEv
libMultiSrc_gstreamer.so:_ZN20MediaSourceGStreamer4capsEi
libMultiSrc_gstreamer.so:_ZN20MediaSourceGStreamer4seekExN11MediaSource12SeekPositionE
libMultiSrc_gstreamer.so:_ZN20MediaSourceGStreamer7setLoopEb
libMultiSrc_gstreamer.so:_ZN20MediaSourceGStreamer7setSyncEb
libMultiSrc_gstreamer.so:_ZN20MediaSourceGStreamer8setMediaERK7QString
libMultiSrc_gstreamer.so:_ZN20MediaSourceGStreamer8setStateEN9AkElement12ElementStateE
libMultiSrc_gstreamer.so:_ZN20MediaSourceGStreamer9resetLoopEv
libMultiSrc_gstreamer.so:_ZN20MediaSourceGStreamer9resetSyncEv
libMultiSrc_gstreamer.so:_ZN20MediaSourceGStreamerC1EP7QObject
libMultiSrc_gstreamer.so:_ZN20MediaSourceGStreamerC2EP7QObject
libMultiSrc_gstreamer.so:_ZN20MediaSourceGStreamerD0Ev
libMultiSrc_gstreamer.so:_ZN20MediaSourceGStreamerD1Ev
libMultiSrc_gstreamer.so:_ZN20MediaSourceGStreamerD2Ev
libMultiSrc_gstreamer.so:_ZN27MediaSourceGStreamerPrivate11busCallbackEP7_GstBusP11_GstMessagePv
libMultiSrc_gstreamer.so:_ZN27MediaSourceGStreamerPrivate13aboutToFinishEP11_GstElementPv
libMultiSrc_gstreamer.so:_ZN27MediaSourceGStreamerPrivate13languageCodesEN6AkCaps8CapsTypeE
libMultiSrc_gstreamer.so:_ZN27MediaSourceGStreamerPrivate13languageCodesEv
libMultiSrc_gstreamer.so:_ZN27MediaSourceGStreamerPrivate19audioBufferCallbackEP11_GstElementPv
libMultiSrc_gstreamer.so:_ZN27MediaSourceGStreamerPrivate19videoBufferCallbackEP11_GstElementPv
libMultiSrc_gstreamer.so:_ZN27MediaSourceGStreamerPrivate23subtitlesBufferCallbackEP11_GstElementPv
libMultiSrc_gstreamer.so:_ZN27MediaSourceGStreamerPrivate9waitStateE8GstState
libMultiSrc_gstreamer.so:_ZN6Plugin11qt_metacallEN11QMetaObject4CallEiPPv
libMultiSrc_gstreamer.so:_ZN6Plugin11qt_metacastEPKc
libMultiSrc_gstreamer.so:_ZN6Plugin16staticMetaObjectE
libMultiSrc_gstreamer.so:_ZN6Plugin6createERK7QStringS2_
libMultiSrc_gstreamer.so:_ZNK11MediaSource10metaObjectEv
libMultiSrc_gstreamer.so:_ZNK11MediaSource11descriptionERK7QString
libMultiSrc_gstreamer.so:_ZNK11MediaSource18maxPacketQueueSizeEv
libMultiSrc_gstreamer.so:_ZNK11MediaSource4loopEv
libMultiSrc_gstreamer.so:_ZNK11MediaSource4syncEv
libMultiSrc_gstreamer.so:_ZNK11MediaSource5mediaEv
libMultiSrc_gstreamer.so:_ZNK11MediaSource5stateEv
libMultiSrc_gstreamer.so:_ZNK11MediaSource6mediasEv
libMultiSrc_gstreamer.so:_ZNK11MediaSource7showLogEv
libMultiSrc_gstreamer.so:_ZNK11MediaSource7streamsEv
libMultiSrc_gstreamer.so:_ZNK20MediaSourceGStreamer10metaObjectEv
libMultiSrc_gstreamer.so:_ZNK20MediaSourceGStreamer11descriptionERK7QString
libMultiSrc_gstreamer.so:_ZNK20MediaSourceGStreamer18maxPacketQueueSizeEv
libMultiSrc_gstreamer.so:_ZNK20MediaSourceGStreamer4loopEv
libMultiSrc_gstreamer.so:_ZNK20MediaSourceGStreamer4syncEv
libMultiSrc_gstreamer.so:_ZNK20MediaSourceGStreamer5mediaEv
libMultiSrc_gstreamer.so:_ZNK20MediaSourceGStreamer5stateEv
libMultiSrc_gstreamer.so:_ZNK20MediaSourceGStreamer6mediasEv
libMultiSrc_gstreamer.so:_ZNK20MediaSourceGStreamer7showLogEv
libMultiSrc_gstreamer.so:_ZNK20MediaSourceGStreamer7streamsEv
libMultiSrc_gstreamer.so:_ZNK6Plugin10metaObjectEv
libMultiSrc_gstreamer.so:_ZNK6Plugin4keysEv
libMultiSrc_gstreamer.so:_ZThn16_N6Plugin6createERK7QStringS2_
libMultiSrc_gstreamer.so:_ZThn16_NK6Plugin4keysEv
libMultiSrc_gstreamer.so:qt_plugin_instance
libMultiSrc_gstreamer.so:qt_plugin_query_metadata_v2
libMultiSrc_vlc.so:_ZN11MediaSource10listTracksEN6AkCaps8CapsTypeE
libMultiSrc_vlc.so:_ZN11MediaSource10resetMediaEv
libMultiSrc_vlc.so:_ZN11MediaSource10resetStateEv
libMultiSrc_vlc.so:_ZN11MediaSource10setShowLogEb
libMultiSrc_vlc.so:_ZN11MediaSource10setStreamsERK5QListIiE
libMultiSrc_vlc.so:_ZN11MediaSource11loopChangedEb
libMultiSrc_vlc.so:_ZN11MediaSource11mediaLoadedERK7QString
libMultiSrc_vlc.so:_ZN11MediaSource11qt_metacallEN11QMetaObject4CallEiPPv
libMultiSrc_vlc.so:_ZN11MediaSource11qt_metacastEPKc
libMultiSrc_vlc.so:_ZN11MediaSource11syncChangedEb
libMultiSrc_vlc.so:_ZN11MediaSource12mediaChangedERK7QString
libMultiSrc_vlc.so:_ZN11MediaSource12resetShowLogEv
libMultiSrc_vlc.so:_ZN11MediaSource12resetStreamsEv
libMultiSrc_vlc.so:_ZN11MediaSource12stateChangedEN9AkElement12ElementStateE
libMultiSrc_vlc.so:_ZN11MediaSource13defaultStreamEN6AkCaps8CapsTypeE
libMultiSrc_vlc.so:_ZN11MediaSource13durationMSecsEv
libMultiSrc_vlc.so:_ZN11MediaSource13mediasChangedERK5QListI7QStringE
libMultiSrc_vlc.so:_ZN11MediaSource14showLogChangedEb
libMultiSrc_vlc.so:_ZN11MediaSource14streamLanguageEi
libMultiSrc_vlc.so:_ZN11MediaSource14streamsChangedERK5QListIiE
libMultiSrc_vlc.so:_ZN11MediaSource16currentTimeMSecsEv
libMultiSrc_vlc.so:_ZN11MediaSource16staticMetaObjectE
libMultiSrc_vlc.so:_ZN11MediaSource20durationMSecsChangedEx
libMultiSrc_vlc.so:_ZN11MediaSource21setMaxPacketQueueSizeEx
libMultiSrc_vlc.so:_ZN11MediaSource23currentTimeMSecsChangedEx
libMultiSrc_vlc.so:_ZN11MediaSource23resetMaxPacketQueueSizeEv
libMultiSrc_vlc.so:_ZN11MediaSource25maxPacketQueueSizeChangedEx
libMultiSrc_vlc.so:_ZN11MediaSource4capsEi
libMultiSrc_vlc.so:_ZN11MediaSource4seekExNS_12SeekPositionE
libMultiSrc_vlc.so:_ZN11MediaSource5errorERK7QString
libMultiSrc_vlc.so:_ZN11MediaSource7oStreamERK8AkPacket
libMultiSrc_vlc.so:_ZN11MediaSource7setLoopEb
libMultiSrc_vlc.so:_ZN11MediaSource7setSyncEb
libMultiSrc_vlc.so:_ZN11MediaSource8setMediaERK7QString
libMultiSrc_vlc.so:_ZN11MediaSource8setStateEN9AkElement12ElementStateE
libMultiSrc_vlc.so:_ZN11MediaSource9resetLoopEv
libMultiSrc_vlc.so:_ZN11MediaSource9resetSyncEv
libMultiSrc_vlc.so:_ZN11MediaSourceC1EP7QObject
libMultiSrc_vlc.so:_ZN11MediaSourceC2EP7QObject
libMultiSrc_vlc.so:_ZN14MediaSourceVLC10listTracksEN6AkCaps8CapsTypeE
libMultiSrc_vlc.so:_ZN14MediaSourceVLC10resetMediaEv
libMultiSrc_vlc.so:_ZN14MediaSourceVLC10setShowLogEb
libMultiSrc_vlc.so:_ZN14MediaSourceVLC10setStreamsERK5QListIiE
libMultiSrc_vlc.so:_ZN14MediaSourceVLC11qt_metacallEN11QMetaObject4CallEiPPv
libMultiSrc_vlc.so:_ZN14MediaSourceVLC11qt_metacastEPKc
libMultiSrc_vlc.so:_ZN14MediaSourceVLC12resetShowLogEv
libMultiSrc_vlc.so:_ZN14MediaSourceVLC12resetStreamsEv
libMultiSrc_vlc.so:_ZN14MediaSourceVLC13defaultStreamEN6AkCaps8CapsTypeE
libMultiSrc_vlc.so:_ZN14MediaSourceVLC13durationMSecsEv
libMultiSrc_vlc.so:_ZN14MediaSourceVLC14streamLanguageEi
libMultiSrc_vlc.so:_ZN14MediaSourceVLC16currentTimeMSecsEv
libMultiSrc_vlc.so:_ZN14MediaSourceVLC16staticMetaObjectE
libMultiSrc_vlc.so:_ZN14MediaSourceVLC21setMaxPacketQueueSizeEx
libMultiSrc_vlc.so:_ZN14MediaSourceVLC23resetMaxPacketQueueSizeEv
libMultiSrc_vlc.so:_ZN14MediaSourceVLC4capsEi
libMultiSrc_vlc.so:_ZN14MediaSourceVLC4seekExN11MediaSource12SeekPositionE
libMultiSrc_vlc.so:_ZN14MediaSourceVLC7setLoopEb
libMultiSrc_vlc.so:_ZN14MediaSourceVLC7setSyncEb
libMultiSrc_vlc.so:_ZN14MediaSourceVLC8setMediaERK7QString
libMultiSrc_vlc.so:_ZN14MediaSourceVLC8setStateEN9AkElement12ElementStateE
libMultiSrc_vlc.so:_ZN14MediaSourceVLC9resetLoopEv
libMultiSrc_vlc.so:_ZN14MediaSourceVLC9resetSyncEv
libMultiSrc_vlc.so:_ZN14MediaSourceVLCC1EP7QObject
libMultiSrc_vlc.so:_ZN14MediaSourceVLCC2EP7QObject
libMultiSrc_vlc.so:_ZN14MediaSourceVLCD0Ev
libMultiSrc_vlc.so:_ZN14MediaSourceVLCD1Ev
libMultiSrc_vlc.so:_ZN14MediaSourceVLCD2Ev
libMultiSrc_vlc.so:_ZN21MediaSourceVLCPrivate17audioPlayCallbackEPvPKvjl
libMultiSrc_vlc.so:_ZN21MediaSourceVLCPrivate17videoLockCallbackEPvPS0_
libMultiSrc_vlc.so:_ZN21MediaSourceVLCPrivate18audioSetupCallbackEPPvPcPjS3_
libMultiSrc_vlc.so:_ZN21MediaSourceVLCPrivate19videoFormatCallbackEPPvPcPjS3_S3_S3_
libMultiSrc_vlc.so:_ZN21MediaSourceVLCPrivate20videoDisplayCallbackEPvS0_
libMultiSrc_vlc.so:_ZN21MediaSourceVLCPrivate22mediaPlayerTimeChangedEPK14libvlc_event_tPv
libMultiSrc_vlc.so:_ZN21MediaSourceVLCPrivate26mediaParsedChangedCallbackEPK14libvlc_event_tPv
libMultiSrc_vlc.so:_ZN21MediaSourceVLCPrivate29mediaPlayerEndReachedCallbackEPK14libvlc_event_tPv
libMultiSrc_vlc.so:_ZN21MediaSourceVLCPrivate6doLoopEv
libMultiSrc_vlc.so:_ZN21MediaSourceVLCPrivateC1EP14MediaSourceVLC
libMultiSrc_vlc.so:_ZN21MediaSourceVLCPrivateC2EP14MediaSourceVLC
libMultiSrc_vlc.so:_ZN6Plugin11qt_metacallEN11QMetaObject4CallEiPPv
libMultiSrc_vlc.so:_ZN6Plugin11qt_metacastEPKc
libMultiSrc_vlc.so:_ZN6Plugin16staticMetaObjectE
libMultiSrc_vlc.so:_ZN6Plugin6createERK7QStringS2_
libMultiSrc_vlc.so:_ZNK11MediaSource10metaObjectEv
libMultiSrc_vlc.so:_ZNK11MediaSource11descriptionERK7QString
libMultiSrc_vlc.so:_ZNK11MediaSource18maxPacketQueueSizeEv
libMultiSrc_vlc.so:_ZNK11MediaSource4loopEv
libMultiSrc_vlc.so:_ZNK11MediaSource4syncEv
libMultiSrc_vlc.so:_ZNK11MediaSource5mediaEv
libMultiSrc_vlc.so:_ZNK11MediaSource5stateEv
libMultiSrc_vlc.so:_ZNK11MediaSource6mediasEv
libMultiSrc_vlc.so:_ZNK11MediaSource7showLogEv
libMultiSrc_vlc.so:_ZNK11MediaSource7streamsEv
libMultiSrc_vlc.so:_ZNK14MediaSourceVLC10metaObjectEv
libMultiSrc_vlc.so:_ZNK14MediaSourceVLC11descriptionERK7QString
libMultiSrc_vlc.so:_ZNK14MediaSourceVLC18maxPacketQueueSizeEv
libMultiSrc_vlc.so:_ZNK14MediaSourceVLC4loopEv
libMultiSrc_vlc.so:_ZNK14MediaSourceVLC4syncEv
libMultiSrc_vlc.so:_ZNK14MediaSourceVLC5mediaEv
libMultiSrc_vlc.so:_ZNK14MediaSourceVLC5stateEv
libMultiSrc_vlc.so:_ZNK14MediaSourceVLC6mediasEv
libMultiSrc_vlc.so:_ZNK14MediaSourceVLC7showLogEv
libMultiSrc_vlc.so:_ZNK14MediaSourceVLC7streamsEv
libMultiSrc_vlc.so:_ZNK6Plugin10metaObjectEv
libMultiSrc_vlc.so:_ZNK6Plugin4keysEv
libMultiSrc_vlc.so:_ZThn16_N6Plugin6createERK7QStringS2_
libMultiSrc_vlc.so:_ZThn16_NK6Plugin4keysEv
libMultiSrc_vlc.so:qt_plugin_instance
libMultiSrc_vlc.so:qt_plugin_query_metadata_v2
libNervous.so:_Z22qInitResources_Nervousv
libNervous.so:_Z25qCleanupResources_Nervousv
libNervous.so:_ZN14NervousElement10setNFramesEi
libNervous.so:_ZN14NervousElement11qt_metacallEN11QMetaObject4CallEiPPv
libNervous.so:_ZN14NervousElement11qt_metacastEPKc
libNervous.so:_ZN14NervousElement11resetSimpleEv
libNervous.so:_ZN14NervousElement12iVideoStreamERK13AkVideoPacket
libNervous.so:_ZN14NervousElement12resetNFramesEv
libNervous.so:_ZN14NervousElement13simpleChangedEb
libNervous.so:_ZN14NervousElement14nFramesChangedEi
libNervous.so:_ZN14NervousElement16staticMetaObjectE
libNervous.so:_ZN14NervousElement9setSimpleEb
libNervous.so:_ZN14NervousElementC1Ev
libNervous.so:_ZN14NervousElementC2Ev
libNervous.so:_ZN14NervousElementD0Ev
libNervous.so:_ZN14NervousElementD1Ev
libNervous.so:_ZN14NervousElementD2Ev
libNervous.so:_ZN7Nervous11qt_metacallEN11QMetaObject4CallEiPPv
libNervous.so:_ZN7Nervous11qt_metacastEPKc
libNervous.so:_ZN7Nervous16staticMetaObjectE
libNervous.so:_ZN7Nervous6createERK7QStringS2_
libNervous.so:_ZNK14NervousElement10metaObjectEv
libNervous.so:_ZNK14NervousElement23controlInterfaceProvideERK7QString
libNervous.so:_ZNK14NervousElement25controlInterfaceConfigureEP11QQmlContextRK7QString
libNervous.so:_ZNK14NervousElement6simpleEv
libNervous.so:_ZNK14NervousElement7nFramesEv
libNervous.so:_ZNK7Nervous10metaObjectEv
libNervous.so:_ZNK7Nervous4keysEv
libNervous.so:_ZThn16_N7Nervous6createERK7QStringS2_
libNervous.so:_ZThn16_NK7Nervous4keysEv
libNervous.so:qt_plugin_instance
libNervous.so:qt_plugin_query_metadata_v2
libNormalize.so:_ZN16NormalizeElement11qt_metacallEN11QMetaObject4CallEiPPv
libNormalize.so:_ZN16NormalizeElement11qt_metacastEPKc
libNormalize.so:_ZN16NormalizeElement12iVideoStreamERK13AkVideoPacket
libNormalize.so:_ZN16NormalizeElement16staticMetaObjectE
libNormalize.so:_ZN16NormalizeElementC1Ev
libNormalize.so:_ZN16NormalizeElementC2Ev
libNormalize.so:_ZN16NormalizeElementD0Ev
libNormalize.so:_ZN16NormalizeElementD1Ev
libNormalize.so:_ZN16NormalizeElementD2Ev
libNormalize.so:_ZN23NormalizeElementPrivate18normalizationTableERK13AkVideoPacketPh
libNormalize.so:_ZN23NormalizeElementPrivate6limitsERK13AkVideoPacketPKyRiS5_
libNormalize.so:_ZN23NormalizeElementPrivate9histogramERK13AkVideoPacketPy
libNormalize.so:_ZN9Normalize11qt_metacallEN11QMetaObject4CallEiPPv
libNormalize.so:_ZN9Normalize11qt_metacastEPKc
libNormalize.so:_ZN9Normalize16staticMetaObjectE
libNormalize.so:_ZN9Normalize6createERK7QStringS2_
libNormalize.so:_ZNK16NormalizeElement10metaObjectEv
libNormalize.so:_ZNK9Normalize10metaObjectEv
libNormalize.so:_ZNK9Normalize4keysEv
libNormalize.so:_ZThn16_N9Normalize6createERK7QStringS2_
libNormalize.so:_ZThn16_NK9Normalize4keysEv
libNormalize.so:qt_plugin_instance
libNormalize.so:qt_plugin_query_metadata_v2
libOilPaint.so:_Z23qInitResources_OilPaintv
libOilPaint.so:_Z26qCleanupResources_OilPaintv
libOilPaint.so:_ZN15OilPaintElement11qt_metacallEN11QMetaObject4CallEiPPv
libOilPaint.so:_ZN15OilPaintElement11qt_metacastEPKc
libOilPaint.so:_ZN15OilPaintElement11resetRadiusEv
libOilPaint.so:_ZN15OilPaintElement12iVideoStreamERK13AkVideoPacket
libOilPaint.so:_ZN15OilPaintElement13radiusChangedEi
libOilPaint.so:_ZN15OilPaintElement16staticMetaObjectE
libOilPaint.so:_ZN15OilPaintElement9setRadiusEi
libOilPaint.so:_ZN15OilPaintElementC1Ev
libOilPaint.so:_ZN15OilPaintElementC2Ev
libOilPaint.so:_ZN15OilPaintElementD0Ev
libOilPaint.so:_ZN15OilPaintElementD1Ev
libOilPaint.so:_ZN15OilPaintElementD2Ev
libOilPaint.so:_ZN8OilPaint11qt_metacallEN11QMetaObject4CallEiPPv
libOilPaint.so:_ZN8OilPaint11qt_metacastEPKc
libOilPaint.so:_ZN8OilPaint16staticMetaObjectE
libOilPaint.so:_ZN8OilPaint6createERK7QStringS2_
libOilPaint.so:_ZNK15OilPaintElement10metaObjectEv
libOilPaint.so:_ZNK15OilPaintElement23controlInterfaceProvideERK7QString
libOilPaint.so:_ZNK15OilPaintElement25controlInterfaceConfigureEP11QQmlContextRK7QString
libOilPaint.so:_ZNK15OilPaintElement6radiusEv
libOilPaint.so:_ZNK8OilPaint10metaObjectEv
libOilPaint.so:_ZNK8OilPaint4keysEv
libOilPaint.so:_ZThn16_N8OilPaint6createERK7QStringS2_
libOilPaint.so:_ZThn16_NK8OilPaint4keysEv
libOilPaint.so:qt_plugin_instance
libOilPaint.so:qt_plugin_query_metadata_v2
libOpacity.so:_Z22qInitResources_Opacityv
libOpacity.so:_Z25qCleanupResources_Opacityv
libOpacity.so:_ZN14OpacityElement10setOpacityEd
libOpacity.so:_ZN14OpacityElement11qt_metacallEN11QMetaObject4CallEiPPv
libOpacity.so:_ZN14OpacityElement11qt_metacastEPKc
libOpacity.so:_ZN14OpacityElement12iVideoStreamERK13AkVideoPacket
libOpacity.so:_ZN14OpacityElement12resetOpacityEv
libOpacity.so:_ZN14OpacityElement14opacityChangedEd
libOpacity.so:_ZN14OpacityElement16staticMetaObjectE
libOpacity.so:_ZN14OpacityElementC1Ev
libOpacity.so:_ZN14OpacityElementC2Ev
libOpacity.so:_ZN14OpacityElementD0Ev
libOpacity.so:_ZN14OpacityElementD1Ev
libOpacity.so:_ZN14OpacityElementD2Ev
libOpacity.so:_ZN7Opacity11qt_metacallEN11QMetaObject4CallEiPPv
libOpacity.so:_ZN7Opacity11qt_metacastEPKc
libOpacity.so:_ZN7Opacity16staticMetaObjectE
libOpacity.so:_ZN7Opacity6createERK7QStringS2_
libOpacity.so:_ZNK14OpacityElement10metaObjectEv
libOpacity.so:_ZNK14OpacityElement23controlInterfaceProvideERK7QString
libOpacity.so:_ZNK14OpacityElement25controlInterfaceConfigureEP11QQmlContextRK7QString
libOpacity.so:_ZNK14OpacityElement7opacityEv
libOpacity.so:_ZNK7Opacity10metaObjectEv
libOpacity.so:_ZNK7Opacity4keysEv
libOpacity.so:_ZThn16_N7Opacity6createERK7QStringS2_
libOpacity.so:_ZThn16_NK7Opacity4keysEv
libOpacity.so:qt_plugin_instance
libOpacity.so:qt_plugin_query_metadata_v2
libOtsu.so:_Z19qInitResources_Otsuv
libOtsu.so:_Z22qCleanupResources_Otsuv
libOtsu.so:_ZN11OtsuElement11qt_metacallEN11QMetaObject4CallEiPPv
libOtsu.so:_ZN11OtsuElement11qt_metacastEPKc
libOtsu.so:_ZN11OtsuElement11resetLevelsEv
libOtsu.so:_ZN11OtsuElement12iVideoStreamERK13AkVideoPacket
libOtsu.so:_ZN11OtsuElement13levelsChangedEi
libOtsu.so:_ZN11OtsuElement16staticMetaObjectE
libOtsu.so:_ZN11OtsuElement9setLevelsEi
libOtsu.so:_ZN11OtsuElementC1Ev
libOtsu.so:_ZN11OtsuElementC2Ev
libOtsu.so:_ZN11OtsuElementD0Ev
libOtsu.so:_ZN11OtsuElementD1Ev
libOtsu.so:_ZN11OtsuElementD2Ev
libOtsu.so:_ZN4Otsu11qt_metacallEN11QMetaObject4CallEiPPv
libOtsu.so:_ZN4Otsu11qt_metacastEPKc
libOtsu.so:_ZN4Otsu16staticMetaObjectE
libOtsu.so:_ZN4Otsu6createERK7QStringS2_
libOtsu.so:_ZNK11OtsuElement10metaObjectEv
libOtsu.so:_ZNK11OtsuElement23controlInterfaceProvideERK7QString
libOtsu.so:_ZNK11OtsuElement25controlInterfaceConfigureEP11QQmlContextRK7QString
libOtsu.so:_ZNK11OtsuElement6levelsEv
libOtsu.so:_ZNK18OtsuElementPrivate11buildTablesERK5QListIyE
libOtsu.so:_ZNK18OtsuElementPrivate4otsuERK5QListIyEi
libOtsu.so:_ZNK18OtsuElementPrivate7forLoopEPdP5QListIiERKS1_IdEiiiiS3_
libOtsu.so:_ZNK18OtsuElementPrivate9histogramERK13AkVideoPacket
libOtsu.so:_ZNK18OtsuElementPrivate9thresholdERK13AkVideoPacketRK5QListIiEi
libOtsu.so:_ZNK4Otsu10metaObjectEv
libOtsu.so:_ZNK4Otsu4keysEv
libOtsu.so:_ZThn16_N4Otsu6createERK7QStringS2_
libOtsu.so:_ZThn16_NK4Otsu4keysEv
libOtsu.so:qt_plugin_instance
libOtsu.so:qt_plugin_query_metadata_v2
libPhotocopy.so:_Z24qInitResources_Photocopyv
libPhotocopy.so:_Z27qCleanupResources_Photocopyv
libPhotocopy.so:_ZN16PhotocopyElement11qt_metacallEN11QMetaObject4CallEiPPv
libPhotocopy.so:_ZN16PhotocopyElement11qt_metacastEPKc
libPhotocopy.so:_ZN16PhotocopyElement11setContrastEi
libPhotocopy.so:_ZN16PhotocopyElement12iVideoStreamERK13AkVideoPacket
libPhotocopy.so:_ZN16PhotocopyElement13resetContrastEv
libPhotocopy.so:_ZN16PhotocopyElement13setBrightnessEi
libPhotocopy.so:_ZN16PhotocopyElement15contrastChangedEi
libPhotocopy.so:_ZN16PhotocopyElement15resetBrightnessEv
libPhotocopy.so:_ZN16PhotocopyElement16staticMetaObjectE
libPhotocopy.so:_ZN16PhotocopyElement17brightnessChangedEi
libPhotocopy.so:_ZN16PhotocopyElementC1Ev
libPhotocopy.so:_ZN16PhotocopyElementC2Ev
libPhotocopy.so:_ZN16PhotocopyElementD0Ev
libPhotocopy.so:_ZN16PhotocopyElementD1Ev
libPhotocopy.so:_ZN16PhotocopyElementD2Ev
libPhotocopy.so:_ZN23PhotocopyElementPrivate15updateLumaTableEv
libPhotocopy.so:_ZN9Photocopy11qt_metacallEN11QMetaObject4CallEiPPv
libPhotocopy.so:_ZN9Photocopy11qt_metacastEPKc
libPhotocopy.so:_ZN9Photocopy16staticMetaObjectE
libPhotocopy.so:_ZN9Photocopy6createERK7QStringS2_
libPhotocopy.so:_ZNK16PhotocopyElement10brightnessEv
libPhotocopy.so:_ZNK16PhotocopyElement10metaObjectEv
libPhotocopy.so:_ZNK16PhotocopyElement23controlInterfaceProvideERK7QString
libPhotocopy.so:_ZNK16PhotocopyElement25controlInterfaceConfigureEP11QQmlContextRK7QString
libPhotocopy.so:_ZNK16PhotocopyElement8contrastEv
libPhotocopy.so:_ZNK9Photocopy10metaObjectEv
libPhotocopy.so:_ZNK9Photocopy4keysEv
libPhotocopy.so:_ZThn16_N9Photocopy6createERK7QStringS2_
libPhotocopy.so:_ZThn16_NK9Photocopy4keysEv
libPhotocopy.so:qt_plugin_instance
libPhotocopy.so:qt_plugin_query_metadata_v2
libPixelate.so:_Z23qInitResources_Pixelatev
libPixelate.so:_Z26qCleanupResources_Pixelatev
libPixelate.so:_ZN15PixelateElement11qt_metacallEN11QMetaObject4CallEiPPv
libPixelate.so:_ZN15PixelateElement11qt_metacastEPKc
libPixelate.so:_ZN15PixelateElement12iVideoStreamERK13AkVideoPacket
libPixelate.so:_ZN15PixelateElement12setBlockSizeERK5QSize
libPixelate.so:_ZN15PixelateElement14resetBlockSizeEv
libPixelate.so:_ZN15PixelateElement16blockSizeChangedERK5QSize
libPixelate.so:_ZN15PixelateElement16staticMetaObjectE
libPixelate.so:_ZN15PixelateElementC1Ev
libPixelate.so:_ZN15PixelateElementC2Ev
libPixelate.so:_ZN15PixelateElementD0Ev
libPixelate.so:_ZN15PixelateElementD1Ev
libPixelate.so:_ZN15PixelateElementD2Ev
libPixelate.so:_ZN8Pixelate11qt_metacallEN11QMetaObject4CallEiPPv
libPixelate.so:_ZN8Pixelate11qt_metacastEPKc
libPixelate.so:_ZN8Pixelate16staticMetaObjectE
libPixelate.so:_ZN8Pixelate6createERK7QStringS2_
libPixelate.so:_ZNK15PixelateElement10metaObjectEv
libPixelate.so:_ZNK15PixelateElement23controlInterfaceProvideERK7QString
libPixelate.so:_ZNK15PixelateElement25controlInterfaceConfigureEP11QQmlContextRK7QString
libPixelate.so:_ZNK15PixelateElement9blockSizeEv
libPixelate.so:_ZNK8Pixelate10metaObjectEv
libPixelate.so:_ZNK8Pixelate4keysEv
libPixelate.so:_ZThn16_N8Pixelate6createERK7QStringS2_
libPixelate.so:_ZThn16_NK8Pixelate4keysEv
libPixelate.so:qt_plugin_instance
libPixelate.so:qt_plugin_query_metadata_v2
libQuark.so:_Z20qInitResources_Quarkv
libQuark.so:_Z23qCleanupResources_Quarkv
libQuark.so:_ZN12QuarkElement10setNFramesEi
libQuark.so:_ZN12QuarkElement11qt_metacallEN11QMetaObject4CallEiPPv
libQuark.so:_ZN12QuarkElement11qt_metacastEPKc
libQuark.so:_ZN12QuarkElement12iVideoStreamERK13AkVideoPacket
libQuark.so:_ZN12QuarkElement12resetNFramesEv
libQuark.so:_ZN12QuarkElement14nFramesChangedEi
libQuark.so:_ZN12QuarkElement16staticMetaObjectE
libQuark.so:_ZN12QuarkElementC1Ev
libQuark.so:_ZN12QuarkElementC2Ev
libQuark.so:_ZN12QuarkElementD0Ev
libQuark.so:_ZN12QuarkElementD1Ev
libQuark.so:_ZN12QuarkElementD2Ev
libQuark.so:_ZN5Quark11qt_metacallEN11QMetaObject4CallEiPPv
libQuark.so:_ZN5Quark11qt_metacastEPKc
libQuark.so:_ZN5Quark16staticMetaObjectE
libQuark.so:_ZN5Quark6createERK7QStringS2_
libQuark.so:_ZNK12QuarkElement10metaObjectEv
libQuark.so:_ZNK12QuarkElement23controlInterfaceProvideERK7QString
libQuark.so:_ZNK12QuarkElement25controlInterfaceConfigureEP11QQmlContextRK7QString
libQuark.so:_ZNK12QuarkElement7nFramesEv
libQuark.so:_ZNK5Quark10metaObjectEv
libQuark.so:_ZNK5Quark4keysEv
libQuark.so:_ZThn16_N5Quark6createERK7QStringS2_
libQuark.so:_ZThn16_NK5Quark4keysEv
libQuark.so:qt_plugin_instance
libQuark.so:qt_plugin_query_metadata_v2
libRadioactive.so:_Z26qInitResources_Radioactivev
libRadioactive.so:_Z29qCleanupResources_Radioactivev
libRadioactive.so:_ZN11Radioactive11qt_metacallEN11QMetaObject4CallEiPPv
libRadioactive.so:_ZN11Radioactive11qt_metacastEPKc
libRadioactive.so:_ZN11Radioactive16staticMetaObjectE
libRadioactive.so:_ZN11Radioactive6createERK7QStringS2_
libRadioactive.so:_ZN18RadioactiveElement11blurChangedEi
libRadioactive.so:_ZN18RadioactiveElement11modeChangedENS_13RadiationModeE
libRadioactive.so:_ZN18RadioactiveElement11qt_metacallEN11QMetaObject4CallEiPPv
libRadioactive.so:_ZN18RadioactiveElement11qt_metacastEPKc
libRadioactive.so:_ZN18RadioactiveElement11setRadColorEj
libRadioactive.so:_ZN18RadioactiveElement11zoomChangedEd
libRadioactive.so:_ZN18RadioactiveElement12iVideoStreamERK13AkVideoPacket
libRadioactive.so:_ZN18RadioactiveElement12setAlphaDiffEi
libRadioactive.so:_ZN18RadioactiveElement12setThresholdEi
libRadioactive.so:_ZN18RadioactiveElement13resetRadColorEv
libRadioactive.so:_ZN18RadioactiveElement14resetAlphaDiffEv
libRadioactive.so:_ZN18RadioactiveElement14resetThresholdEv
libRadioactive.so:_ZN18RadioactiveElement15radColorChangedEj
libRadioactive.so:_ZN18RadioactiveElement16alphaDiffChangedEi
libRadioactive.so:_ZN18RadioactiveElement16setLumaThresholdEi
libRadioactive.so:_ZN18RadioactiveElement16staticMetaObjectE
libRadioactive.so:_ZN18RadioactiveElement16thresholdChangedEi
libRadioactive.so:_ZN18RadioactiveElement18resetLumaThresholdEv
libRadioactive.so:_ZN18RadioactiveElement20lumaThresholdChangedEi
libRadioactive.so:_ZN18RadioactiveElement7setBlurEi
libRadioactive.so:_ZN18RadioactiveElement7setModeENS_13RadiationModeE
libRadioactive.so:_ZN18RadioactiveElement7setZoomEd
libRadioactive.so:_ZN18RadioactiveElement9resetBlurEv
libRadioactive.so:_ZN18RadioactiveElement9resetModeEv
libRadioactive.so:_ZN18RadioactiveElement9resetZoomEv
libRadioactive.so:_ZN18RadioactiveElementC1Ev
libRadioactive.so:_ZN18RadioactiveElementC2Ev
libRadioactive.so:_ZN18RadioactiveElementD0Ev
libRadioactive.so:_ZN18RadioactiveElementD1Ev
libRadioactive.so:_ZN18RadioactiveElementD2Ev
libRadioactive.so:_ZN25RadioactiveElementPrivate14imageAlphaDiffERK13AkVideoPacketi
libRadioactive.so:_ZN25RadioactiveElementPrivate9imageDiffERK13AkVideoPacketS2_iijN18RadioactiveElement13RadiationModeE
libRadioactive.so:_ZNK11Radioactive10metaObjectEv
libRadioactive.so:_ZNK11Radioactive4keysEv
libRadioactive.so:_ZNK18RadioactiveElement10metaObjectEv
libRadioactive.so:_ZNK18RadioactiveElement13lumaThresholdEv
libRadioactive.so:_ZNK18RadioactiveElement23controlInterfaceProvideERK7QString
libRadioactive.so:_ZNK18RadioactiveElement25controlInterfaceConfigureEP11QQmlContextRK7QString
libRadioactive.so:_ZNK18RadioactiveElement4blurEv
libRadioactive.so:_ZNK18RadioactiveElement4modeEv
libRadioactive.so:_ZNK18RadioactiveElement4zoomEv
libRadioactive.so:_ZNK18RadioactiveElement8radColorEv
libRadioactive.so:_ZNK18RadioactiveElement9alphaDiffEv
libRadioactive.so:_ZNK18RadioactiveElement9thresholdEv
libRadioactive.so:_ZThn16_N11Radioactive6createERK7QStringS2_
libRadioactive.so:_ZThn16_NK11Radioactive4keysEv
libRadioactive.so:_ZlsR11QDataStreamN18RadioactiveElement13RadiationModeE
libRadioactive.so:_ZrsR11QDataStreamRN18RadioactiveElement13RadiationModeE
libRadioactive.so:qt_plugin_instance
libRadioactive.so:qt_plugin_query_metadata_v2
libRipple.so:_Z21qInitResources_Ripplev
libRipple.so:_Z24qCleanupResources_Ripplev
libRipple.so:_ZN13RippleElement10resetDecayEv
libRipple.so:_ZN13RippleElement11modeChangedENS_10RippleModeE
libRipple.so:_ZN13RippleElement11qt_metacallEN11QMetaObject4CallEiPPv
libRipple.so:_ZN13RippleElement11qt_metacastEPKc
libRipple.so:_ZN13RippleElement12decayChangedEi
libRipple.so:_ZN13RippleElement12iVideoStreamERK13AkVideoPacket
libRipple.so:_ZN13RippleElement12setAmplitudeEi
libRipple.so:_ZN13RippleElement12setDropSigmaEd
libRipple.so:_ZN13RippleElement12setThresholdEi
libRipple.so:_ZN13RippleElement14resetAmplitudeEv
libRipple.so:_ZN13RippleElement14resetDropSigmaEv
libRipple.so:_ZN13RippleElement14resetThresholdEv
libRipple.so:_ZN13RippleElement14setMaxDropSizeEi
libRipple.so:_ZN13RippleElement14setMinDropSizeEi
libRipple.so:_ZN13RippleElement16amplitudeChangedEi
libRipple.so:_ZN13RippleElement16dropSigmaChangedEd
libRipple.so:_ZN13RippleElement16resetMaxDropSizeEv
libRipple.so:_ZN13RippleElement16resetMinDropSizeEv
libRipple.so:_ZN13RippleElement16setLumaThresholdEi
libRipple.so:_ZN13RippleElement16staticMetaObjectE
libRipple.so:_ZN13RippleElement16thresholdChangedEi
libRipple.so:_ZN13RippleElement18maxDropSizeChangedEi
libRipple.so:_ZN13RippleElement18minDropSizeChangedEi
libRipple.so:_ZN13RippleElement18resetLumaThresholdEv
libRipple.so:_ZN13RippleElement18setDropProbabilityEd
libRipple.so:_ZN13RippleElement20lumaThresholdChangedEi
libRipple.so:_ZN13RippleElement20resetDropProbabilityEv
libRipple.so:_ZN13RippleElement22dropProbabilityChangedEd
libRipple.so:_ZN13RippleElement7setModeENS_10RippleModeE
libRipple.so:_ZN13RippleElement8setDecayEi
libRipple.so:_ZN13RippleElement9resetModeEv
libRipple.so:_ZN13RippleElementC1Ev
libRipple.so:_ZN13RippleElementC2Ev
libRipple.so:_ZN13RippleElementD0Ev
libRipple.so:_ZN13RippleElementD1Ev
libRipple.so:_ZN13RippleElementD2Ev
libRipple.so:_ZN20RippleElementPrivate9imageDiffERK13AkVideoPacketS2_iii
libRipple.so:_ZN6Ripple11qt_metacallEN11QMetaObject4CallEiPPv
libRipple.so:_ZN6Ripple11qt_metacastEPKc
libRipple.so:_ZN6Ripple16staticMetaObjectE
libRipple.so:_ZN6Ripple6createERK7QStringS2_
libRipple.so:_ZNK13RippleElement10metaObjectEv
libRipple.so:_ZNK13RippleElement11maxDropSizeEv
libRipple.so:_ZNK13RippleElement11minDropSizeEv
libRipple.so:_ZNK13RippleElement13lumaThresholdEv
libRipple.so:_ZNK13RippleElement15dropProbabilityEv
libRipple.so:_ZNK13RippleElement23controlInterfaceProvideERK7QString
libRipple.so:_ZNK13RippleElement25controlInterfaceConfigureEP11QQmlContextRK7QString
libRipple.so:_ZNK13RippleElement4modeEv
libRipple.so:_ZNK13RippleElement5decayEv
libRipple.so:_ZNK13RippleElement9amplitudeEv
libRipple.so:_ZNK13RippleElement9dropSigmaEv
libRipple.so:_ZNK13RippleElement9thresholdEv
libRipple.so:_ZNK20RippleElementPrivate10applyWaterERK13AkVideoPacketS2_
libRipple.so:_ZNK20RippleElementPrivate4dropEiiiiid
libRipple.so:_ZNK20RippleElementPrivate6rippleERK13AkVideoPacketRS0_i
libRipple.so:_ZNK20RippleElementPrivate7addDropER13AkVideoPacketRKS0_
libRipple.so:_ZNK6Ripple10metaObjectEv
libRipple.so:_ZNK6Ripple4keysEv
libRipple.so:_ZThn16_N6Ripple6createERK7QStringS2_
libRipple.so:_ZThn16_NK6Ripple4keysEv
libRipple.so:_ZlsR11QDataStreamN13RippleElement10RippleModeE
libRipple.so:_ZrsR11QDataStreamRN13RippleElement10RippleModeE
libRipple.so:qt_plugin_instance
libRipple.so:qt_plugin_query_metadata_v2
libRotate.so:_Z21qInitResources_Rotatev
libRotate.so:_Z24qCleanupResources_Rotatev
libRotate.so:_ZN13RotateElement10resetAngleEv
libRotate.so:_ZN13RotateElement11keepChangedEb
libRotate.so:_ZN13RotateElement11qt_metacallEN11QMetaObject4CallEiPPv
libRotate.so:_ZN13RotateElement11qt_metacastEPKc
libRotate.so:_ZN13RotateElement12angleChangedEd
libRotate.so:_ZN13RotateElement12iVideoStreamERK13AkVideoPacket
libRotate.so:_ZN13RotateElement16staticMetaObjectE
libRotate.so:_ZN13RotateElement7setKeepEb
libRotate.so:_ZN13RotateElement8setAngleEd
libRotate.so:_ZN13RotateElement9resetKeepEv
libRotate.so:_ZN13RotateElementC1Ev
libRotate.so:_ZN13RotateElementC2Ev
libRotate.so:_ZN13RotateElementD0Ev
libRotate.so:_ZN13RotateElementD1Ev
libRotate.so:_ZN13RotateElementD2Ev
libRotate.so:_ZN6Rotate11qt_metacallEN11QMetaObject4CallEiPPv
libRotate.so:_ZN6Rotate11qt_metacastEPKc
libRotate.so:_ZN6Rotate16staticMetaObjectE
libRotate.so:_ZN6Rotate6createERK7QStringS2_
libRotate.so:_ZNK13RotateElement10metaObjectEv
libRotate.so:_ZNK13RotateElement23controlInterfaceProvideERK7QString
libRotate.so:_ZNK13RotateElement25controlInterfaceConfigureEP11QQmlContextRK7QString
libRotate.so:_ZNK13RotateElement4keepEv
libRotate.so:_ZNK13RotateElement5angleEv
libRotate.so:_ZNK6Rotate10metaObjectEv
libRotate.so:_ZNK6Rotate4keysEv
libRotate.so:_ZThn16_N6Rotate6createERK7QStringS2_
libRotate.so:_ZThn16_NK6Rotate4keysEv
libRotate.so:qt_plugin_instance
libRotate.so:qt_plugin_query_metadata_v2
libSaturated.so:_Z24qInitResources_Saturatedv
libSaturated.so:_Z27qCleanupResources_Saturatedv
libSaturated.so:_ZN16SaturatedElement11qt_metacallEN11QMetaObject4CallEiPPv
libSaturated.so:_ZN16SaturatedElement11qt_metacastEPKc
libSaturated.so:_ZN16SaturatedElement11resetFactorEv
libSaturated.so:_ZN16SaturatedElement12iVideoStreamERK13AkVideoPacket
libSaturated.so:_ZN16SaturatedElement13factorChangedEi
libSaturated.so:_ZN16SaturatedElement16staticMetaObjectE
libSaturated.so:_ZN16SaturatedElement9setFactorEi
libSaturated.so:_ZN16SaturatedElementC1Ev
libSaturated.so:_ZN16SaturatedElementC2Ev
libSaturated.so:_ZN16SaturatedElementD0Ev
libSaturated.so:_ZN16SaturatedElementD1Ev
libSaturated.so:_ZN16SaturatedElementD2Ev
libSaturated.so:_ZN23SaturatedElementPrivate11createTableEv
libSaturated.so:_ZN9Saturated11qt_metacallEN11QMetaObject4CallEiPPv
libSaturated.so:_ZN9Saturated11qt_metacastEPKc
libSaturated.so:_ZN9Saturated16staticMetaObjectE
libSaturated.so:_ZN9Saturated6createERK7QStringS2_
libSaturated.so:_ZNK16SaturatedElement10metaObjectEv
libSaturated.so:_ZNK16SaturatedElement23controlInterfaceProvideERK7QString
libSaturated.so:_ZNK16SaturatedElement25controlInterfaceConfigureEP11QQmlContextRK7QString
libSaturated.so:_ZNK16SaturatedElement6factorEv
libSaturated.so:_ZNK9Saturated10metaObjectEv
libSaturated.so:_ZNK9Saturated4keysEv
libSaturated.so:_ZThn16_N9Saturated6createERK7QStringS2_
libSaturated.so:_ZThn16_NK9Saturated4keysEv
libSaturated.so:qt_plugin_instance
libSaturated.so:qt_plugin_query_metadata_v2
libScanLines.so:_Z24qInitResources_ScanLinesv
libScanLines.so:_Z27qCleanupResources_ScanLinesv
libScanLines.so:_ZN16ScanLinesElement11qt_metacallEN11QMetaObject4CallEiPPv
libScanLines.so:_ZN16ScanLinesElement11qt_metacastEPKc
libScanLines.so:_ZN16ScanLinesElement11setHideSizeEi
libScanLines.so:_ZN16ScanLinesElement11setShowSizeEi
libScanLines.so:_ZN16ScanLinesElement12iVideoStreamERK13AkVideoPacket
libScanLines.so:_ZN16ScanLinesElement12setHideColorEj
libScanLines.so:_ZN16ScanLinesElement13resetHideSizeEv
libScanLines.so:_ZN16ScanLinesElement13resetShowSizeEv
libScanLines.so:_ZN16ScanLinesElement14resetHideColorEv
libScanLines.so:_ZN16ScanLinesElement15hideSizeChangedEi
libScanLines.so:_ZN16ScanLinesElement15showSizeChangedEi
libScanLines.so:_ZN16ScanLinesElement16hideColorChangedEj
libScanLines.so:_ZN16ScanLinesElement16staticMetaObjectE
libScanLines.so:_ZN16ScanLinesElementC1Ev
libScanLines.so:_ZN16ScanLinesElementC2Ev
libScanLines.so:_ZN16ScanLinesElementD0Ev
libScanLines.so:_ZN16ScanLinesElementD1Ev
libScanLines.so:_ZN16ScanLinesElementD2Ev
libScanLines.so:_ZN9ScanLines11qt_metacallEN11QMetaObject4CallEiPPv
libScanLines.so:_ZN9ScanLines11qt_metacastEPKc
libScanLines.so:_ZN9ScanLines16staticMetaObjectE
libScanLines.so:_ZN9ScanLines6createERK7QStringS2_
libScanLines.so:_ZNK16ScanLinesElement10metaObjectEv
libScanLines.so:_ZNK16ScanLinesElement23controlInterfaceProvideERK7QString
libScanLines.so:_ZNK16ScanLinesElement25controlInterfaceConfigureEP11QQmlContextRK7QString
libScanLines.so:_ZNK16ScanLinesElement8hideSizeEv
libScanLines.so:_ZNK16ScanLinesElement8showSizeEv
libScanLines.so:_ZNK16ScanLinesElement9hideColorEv
libScanLines.so:_ZNK9ScanLines10metaObjectEv
libScanLines.so:_ZNK9ScanLines4keysEv
libScanLines.so:_ZThn16_N9ScanLines6createERK7QStringS2_
libScanLines.so:_ZThn16_NK9ScanLines4keysEv
libScanLines.so:qt_plugin_instance
libScanLines.so:qt_plugin_query_metadata_v2
libShagadelic.so:_Z25qInitResources_Shagadelicv
libShagadelic.so:_Z28qCleanupResources_Shagadelicv
libShagadelic.so:_ZN10Shagadelic11qt_metacallEN11QMetaObject4CallEiPPv
libShagadelic.so:_ZN10Shagadelic11qt_metacastEPKc
libShagadelic.so:_ZN10Shagadelic16staticMetaObjectE
libShagadelic.so:_ZN10Shagadelic6createERK7QStringS2_
libShagadelic.so:_ZN17ShagadelicElement11maskChangedEj
libShagadelic.so:_ZN17ShagadelicElement11qt_metacallEN11QMetaObject4CallEiPPv
libShagadelic.so:_ZN17ShagadelicElement11qt_metacastEPKc
libShagadelic.so:_ZN17ShagadelicElement12iVideoStreamERK13AkVideoPacket
libShagadelic.so:_ZN17ShagadelicElement16staticMetaObjectE
libShagadelic.so:_ZN17ShagadelicElement7setMaskEj
libShagadelic.so:_ZN17ShagadelicElement9resetMaskEv
libShagadelic.so:_ZN17ShagadelicElementC1Ev
libShagadelic.so:_ZN17ShagadelicElementC2Ev
libShagadelic.so:_ZN17ShagadelicElementD0Ev
libShagadelic.so:_ZN17ShagadelicElementD1Ev
libShagadelic.so:_ZN17ShagadelicElementD2Ev
libShagadelic.so:_ZN24ShagadelicElementPrivate4initERK5QSize
libShagadelic.so:_ZNK10Shagadelic10metaObjectEv
libShagadelic.so:_ZNK10Shagadelic4keysEv
libShagadelic.so:_ZNK17ShagadelicElement10metaObjectEv
libShagadelic.so:_ZNK17ShagadelicElement23controlInterfaceProvideERK7QString
libShagadelic.so:_ZNK17ShagadelicElement25controlInterfaceConfigureEP11QQmlContextRK7QString
libShagadelic.so:_ZNK17ShagadelicElement4maskEv
libShagadelic.so:_ZNK24ShagadelicElementPrivate10makeRippleERK5QSize
libShagadelic.so:_ZNK24ShagadelicElementPrivate10makeSpiralERK5QSize
libShagadelic.so:_ZThn16_N10Shagadelic6createERK7QStringS2_
libShagadelic.so:_ZThn16_NK10Shagadelic4keysEv
libShagadelic.so:qt_plugin_instance
libShagadelic.so:qt_plugin_query_metadata_v2
libSwapRB.so:_ZN13SwapRBElement11qt_metacallEN11QMetaObject4CallEiPPv
libSwapRB.so:_ZN13SwapRBElement11qt_metacastEPKc
libSwapRB.so:_ZN13SwapRBElement12iVideoStreamERK13AkVideoPacket
libSwapRB.so:_ZN13SwapRBElement16staticMetaObjectE
libSwapRB.so:_ZN13SwapRBElementC1Ev
libSwapRB.so:_ZN13SwapRBElementC2Ev
libSwapRB.so:_ZN13SwapRBElementD0Ev
libSwapRB.so:_ZN13SwapRBElementD1Ev
libSwapRB.so:_ZN13SwapRBElementD2Ev
libSwapRB.so:_ZN6SwapRB11qt_metacallEN11QMetaObject4CallEiPPv
libSwapRB.so:_ZN6SwapRB11qt_metacastEPKc
libSwapRB.so:_ZN6SwapRB16staticMetaObjectE
libSwapRB.so:_ZN6SwapRB6createERK7QStringS2_
libSwapRB.so:_ZNK13SwapRBElement10metaObjectEv
libSwapRB.so:_ZNK6SwapRB10metaObjectEv
libSwapRB.so:_ZNK6SwapRB4keysEv
libSwapRB.so:_ZThn16_N6SwapRB6createERK7QStringS2_
libSwapRB.so:_ZThn16_NK6SwapRB4keysEv
libSwapRB.so:qt_plugin_instance
libSwapRB.so:qt_plugin_query_metadata_v2
libSwirl.so:_Z20qInitResources_Swirlv
libSwirl.so:_Z23qCleanupResources_Swirlv
libSwirl.so:_ZN12SwirlElement10setDegreesEd
libSwirl.so:_ZN12SwirlElement11qt_metacallEN11QMetaObject4CallEiPPv
libSwirl.so:_ZN12SwirlElement11qt_metacastEPKc
libSwirl.so:_ZN12SwirlElement12iVideoStreamERK13AkVideoPacket
libSwirl.so:_ZN12SwirlElement12resetDegreesEv
libSwirl.so:_ZN12SwirlElement14degreesChangedEd
libSwirl.so:_ZN12SwirlElement16staticMetaObjectE
libSwirl.so:_ZN12SwirlElementC1Ev
libSwirl.so:_ZN12SwirlElementC2Ev
libSwirl.so:_ZN12SwirlElementD0Ev
libSwirl.so:_ZN12SwirlElementD1Ev
libSwirl.so:_ZN12SwirlElementD2Ev
libSwirl.so:_ZN19SwirlElementPrivate17createRotationMapEiid
libSwirl.so:_ZN5Swirl11qt_metacallEN11QMetaObject4CallEiPPv
libSwirl.so:_ZN5Swirl11qt_metacastEPKc
libSwirl.so:_ZN5Swirl16staticMetaObjectE
libSwirl.so:_ZN5Swirl6createERK7QStringS2_
libSwirl.so:_ZNK12SwirlElement10metaObjectEv
libSwirl.so:_ZNK12SwirlElement23controlInterfaceProvideERK7QString
libSwirl.so:_ZNK12SwirlElement25controlInterfaceConfigureEP11QQmlContextRK7QString
libSwirl.so:_ZNK12SwirlElement7degreesEv
libSwirl.so:_ZNK5Swirl10metaObjectEv
libSwirl.so:_ZNK5Swirl4keysEv
libSwirl.so:_ZThn16_N5Swirl6createERK7QStringS2_
libSwirl.so:_ZThn16_NK5Swirl4keysEv
libSwirl.so:qt_plugin_instance
libSwirl.so:qt_plugin_query_metadata_v2
libTemperature.so:_Z26qInitResources_Temperaturev
libTemperature.so:_Z29qCleanupResources_Temperaturev
libTemperature.so:_ZN11Temperature11qt_metacallEN11QMetaObject4CallEiPPv
libTemperature.so:_ZN11Temperature11qt_metacastEPKc
libTemperature.so:_ZN11Temperature16staticMetaObjectE
libTemperature.so:_ZN11Temperature6createERK7QStringS2_
libTemperature.so:_ZN18TemperatureElement11qt_metacallEN11QMetaObject4CallEiPPv
libTemperature.so:_ZN18TemperatureElement11qt_metacastEPKc
libTemperature.so:_ZN18TemperatureElement12iVideoStreamERK13AkVideoPacket
libTemperature.so:_ZN18TemperatureElement14setTemperatureEd
libTemperature.so:_ZN18TemperatureElement16resetTemperatureEv
libTemperature.so:_ZN18TemperatureElement16staticMetaObjectE
libTemperature.so:_ZN18TemperatureElement18temperatureChangedEd
libTemperature.so:_ZN18TemperatureElementC1Ev
libTemperature.so:_ZN18TemperatureElementC2Ev
libTemperature.so:_ZN18TemperatureElementD0Ev
libTemperature.so:_ZN18TemperatureElementD1Ev
libTemperature.so:_ZN18TemperatureElementD2Ev
libTemperature.so:_ZNK11Temperature10metaObjectEv
libTemperature.so:_ZNK11Temperature4keysEv
libTemperature.so:_ZNK18TemperatureElement10metaObjectEv
libTemperature.so:_ZNK18TemperatureElement11temperatureEv
libTemperature.so:_ZNK18TemperatureElement23controlInterfaceProvideERK7QString
libTemperature.so:_ZNK18TemperatureElement25controlInterfaceConfigureEP11QQmlContextRK7QString
libTemperature.so:_ZThn16_N11Temperature6createERK7QStringS2_
libTemperature.so:_ZThn16_NK11Temperature4keysEv
libTemperature.so:qt_plugin_instance
libTemperature.so:qt_plugin_query_metadata_v2
libVideoCapture.so:_Z27qInitResources_VideoCapturev
libVideoCapture.so:_Z30qCleanupResources_VideoCapturev
libVideoCapture.so:_ZN12ConvertVideo10frameReadyERK8AkPacket
libVideoCapture.so:_ZN12ConvertVideo11qt_metacallEN11QMetaObject4CallEiPPv
libVideoCapture.so:_ZN12ConvertVideo11qt_metacastEPKc
libVideoCapture.so:_ZN12ConvertVideo13packetEnqueueERK8AkPacket
libVideoCapture.so:_ZN12ConvertVideo16staticMetaObjectE
libVideoCapture.so:_ZN12ConvertVideo4initERK6AkCaps
libVideoCapture.so:_ZN12ConvertVideo6uninitEv
libVideoCapture.so:_ZN12ConvertVideoC1EP7QObject
libVideoCapture.so:_ZN12ConvertVideoC2EP7QObject
libVideoCapture.so:_ZN12VideoCapture11qt_metacallEN11QMetaObject4CallEiPPv
libVideoCapture.so:_ZN12VideoCapture11qt_metacastEPKc
libVideoCapture.so:_ZN12VideoCapture16staticMetaObjectE
libVideoCapture.so:_ZN12VideoCapture6createERK7QStringS2_
libVideoCapture.so:_ZN19VideoCaptureElement10listTracksEN6AkCaps8CapsTypeE
libVideoCapture.so:_ZN19VideoCaptureElement10resetMediaEv
libVideoCapture.so:_ZN19VideoCaptureElement10setStreamsERK5QListIiE
libVideoCapture.so:_ZN19VideoCaptureElement11descriptionERK7QString
libVideoCapture.so:_ZN19VideoCaptureElement11loopChangedEb
libVideoCapture.so:_ZN19VideoCaptureElement11qt_metacallEN11QMetaObject4CallEiPPv
libVideoCapture.so:_ZN19VideoCaptureElement11qt_metacastEPKc
libVideoCapture.so:_ZN19VideoCaptureElement11setIoMethodERK7QString
libVideoCapture.so:_ZN19VideoCaptureElement11setNBuffersEi
libVideoCapture.so:_ZN19VideoCaptureElement12errorChangedERK7QString
libVideoCapture.so:_ZN19VideoCaptureElement12mediaChangedERK7QString
libVideoCapture.so:_ZN19VideoCaptureElement12pictureTakenEiRK8AkPacket
libVideoCapture.so:_ZN19VideoCaptureElement12resetStreamsEv
libVideoCapture.so:_ZN19VideoCaptureElement12setTorchModeENS_9TorchModeE
libVideoCapture.so:_ZN19VideoCaptureElement12takePicturesEii
libVideoCapture.so:_ZN19VideoCaptureElement13defaultStreamEN6AkCaps8CapsTypeE
libVideoCapture.so:_ZN19VideoCaptureElement13mediasChangedERK5QListI7QStringE
libVideoCapture.so:_ZN19VideoCaptureElement13resetIoMethodEv
libVideoCapture.so:_ZN19VideoCaptureElement13resetNBuffersEv
libVideoCapture.so:_ZN19VideoCaptureElement14resetTorchModeEv
libVideoCapture.so:_ZN19VideoCaptureElement14streamsChangedERK5QListIiE
libVideoCapture.so:_ZN19VideoCaptureElement15ioMethodChangedERK7QString
libVideoCapture.so:_ZN19VideoCaptureElement15nBuffersChangedEi
libVideoCapture.so:_ZN19VideoCaptureElement16setImageControlsERK4QMapI7QString8QVariantE
libVideoCapture.so:_ZN19VideoCaptureElement16staticMetaObjectE
libVideoCapture.so:_ZN19VideoCaptureElement16torchModeChangedENS_9TorchModeE
libVideoCapture.so:_ZN19VideoCaptureElement17setCameraControlsERK4QMapI7QString8QVariantE
libVideoCapture.so:_ZN19VideoCaptureElement18resetImageControlsEv
libVideoCapture.so:_ZN19VideoCaptureElement19resetCameraControlsEv
libVideoCapture.so:_ZN19VideoCaptureElement20imageControlsChangedERK4QMapI7QString8QVariantE
libVideoCapture.so:_ZN19VideoCaptureElement21cameraControlsChangedERK4QMapI7QString8QVariantE
libVideoCapture.so:_ZN19VideoCaptureElement23isTorchSupportedChangedEb
libVideoCapture.so:_ZN19VideoCaptureElement23permissionStatusChangedENS_16PermissionStatusE
libVideoCapture.so:_ZN19VideoCaptureElement4capsEi
libVideoCapture.so:_ZN19VideoCaptureElement5resetEv
libVideoCapture.so:_ZN19VideoCaptureElement6mediasEv
libVideoCapture.so:_ZN19VideoCaptureElement7streamsEv
libVideoCapture.so:_ZN19VideoCaptureElement8setMediaERK7QString
libVideoCapture.so:_ZN19VideoCaptureElement8setStateEN9AkElement12ElementStateE
libVideoCapture.so:_ZN19VideoCaptureElementC1Ev
libVideoCapture.so:_ZN19VideoCaptureElementC2Ev
libVideoCapture.so:_ZN19VideoCaptureElementD0Ev
libVideoCapture.so:_ZN19VideoCaptureElementD1Ev
libVideoCapture.so:_ZN19VideoCaptureElementD2Ev
libVideoCapture.so:_ZN26VideoCaptureElementPrivate10cameraLoopEv
libVideoCapture.so:_ZN26VideoCaptureElementPrivate12linksChangedERK4QMapI7QStringS1_E
libVideoCapture.so:_ZN26VideoCaptureElementPrivateC1EP19VideoCaptureElement
libVideoCapture.so:_ZN26VideoCaptureElementPrivateC2EP19VideoCaptureElement
libVideoCapture.so:_ZN7Capture10listTracksEN6AkCaps8CapsTypeE
libVideoCapture.so:_ZN7Capture10setStreamsERK5QListIiE
libVideoCapture.so:_ZN7Capture11qt_metacallEN11QMetaObject4CallEiPPv
libVideoCapture.so:_ZN7Capture11qt_metacastEPKc
libVideoCapture.so:_ZN7Capture11resetDeviceEv
libVideoCapture.so:_ZN7Capture11setIoMethodERK7QString
libVideoCapture.so:_ZN7Capture11setNBuffersEi
libVideoCapture.so:_ZN7Capture12errorChangedERK7QString
libVideoCapture.so:_ZN7Capture12pictureTakenEiRK8AkPacket
libVideoCapture.so:_ZN7Capture12resetStreamsEv
libVideoCapture.so:_ZN7Capture12setTorchModeENS_9TorchModeE
libVideoCapture.so:_ZN7Capture12takePicturesEii
libVideoCapture.so:_ZN7Capture13deviceChangedERK7QString
libVideoCapture.so:_ZN7Capture13resetIoMethodEv
libVideoCapture.so:_ZN7Capture13resetNBuffersEv
libVideoCapture.so:_ZN7Capture14resetTorchModeEv
libVideoCapture.so:_ZN7Capture14streamsChangedERK5QListIiE
libVideoCapture.so:_ZN7Capture14webcamsChangedERK5QListI7QStringE
libVideoCapture.so:_ZN7Capture15ioMethodChangedERK7QString
libVideoCapture.so:_ZN7Capture15nBuffersChangedEi
libVideoCapture.so:_ZN7Capture16setImageControlsERK4QMapI7QString8QVariantE
libVideoCapture.so:_ZN7Capture16staticMetaObjectE
libVideoCapture.so:_ZN7Capture16torchModeChangedENS_9TorchModeE
libVideoCapture.so:_ZN7Capture17setCameraControlsERK4QMapI7QString8QVariantE
libVideoCapture.so:_ZN7Capture18resetImageControlsEv
libVideoCapture.so:_ZN7Capture19resetCameraControlsEv
libVideoCapture.so:_ZN7Capture20imageControlsChangedERK4QMapI7QString8QVariantE
libVideoCapture.so:_ZN7Capture21cameraControlsChangedERK4QMapI7QString8QVariantE
libVideoCapture.so:_ZN7Capture23isTorchSupportedChangedEb
libVideoCapture.so:_ZN7Capture23permissionStatusChangedENS_16PermissionStatusE
libVideoCapture.so:_ZN7Capture4initEv
libVideoCapture.so:_ZN7Capture5resetEv
libVideoCapture.so:_ZN7Capture6uninitEv
libVideoCapture.so:_ZN7Capture7streamsEv
libVideoCapture.so:_ZN7Capture9readFrameEv
libVideoCapture.so:_ZN7Capture9setDeviceERK7QString
libVideoCapture.so:_ZN7CaptureC1EP7QObject
libVideoCapture.so:_ZN7CaptureC2EP7QObject
libVideoCapture.so:_ZN7CaptureD0Ev
libVideoCapture.so:_ZN7CaptureD1Ev
libVideoCapture.so:_ZN7CaptureD2Ev
libVideoCapture.so:_ZNK12ConvertVideo10metaObjectEv
libVideoCapture.so:_ZNK12VideoCapture10metaObjectEv
libVideoCapture.so:_ZNK12VideoCapture4keysEv
libVideoCapture.so:_ZNK19VideoCaptureElement10metaObjectEv
libVideoCapture.so:_ZNK19VideoCaptureElement13imageControlsEv
libVideoCapture.so:_ZNK19VideoCaptureElement14cameraControlsEv
libVideoCapture.so:_ZNK19VideoCaptureElement16isTorchSupportedEv
libVideoCapture.so:_ZNK19VideoCaptureElement16permissionStatusEv
libVideoCapture.so:_ZNK19VideoCaptureElement17streamDescriptionEi
libVideoCapture.so:_ZNK19VideoCaptureElement19listCapsDescriptionEv
libVideoCapture.so:_ZNK19VideoCaptureElement23controlInterfaceProvideERK7QString
libVideoCapture.so:_ZNK19VideoCaptureElement25controlInterfaceConfigureEP11QQmlContextRK7QString
libVideoCapture.so:_ZNK19VideoCaptureElement5errorEv
libVideoCapture.so:_ZNK19VideoCaptureElement5mediaEv
libVideoCapture.so:_ZNK19VideoCaptureElement7rawCapsEi
libVideoCapture.so:_ZNK19VideoCaptureElement8ioMethodEv
libVideoCapture.so:_ZNK19VideoCaptureElement8nBuffersEv
libVideoCapture.so:_ZNK19VideoCaptureElement9torchModeEv
libVideoCapture.so:_ZNK26VideoCaptureElementPrivate15capsDescriptionERK6AkCaps
libVideoCapture.so:_ZNK7Capture10metaObjectEv
libVideoCapture.so:_ZNK7Capture11descriptionERK7QString
libVideoCapture.so:_ZNK7Capture13imageControlsEv
libVideoCapture.so:_ZNK7Capture14cameraControlsEv
libVideoCapture.so:_ZNK7Capture16isTorchSupportedEv
libVideoCapture.so:_ZNK7Capture16permissionStatusEv
libVideoCapture.so:_ZNK7Capture4capsERK7QString
libVideoCapture.so:_ZNK7Capture5errorEv
libVideoCapture.so:_ZNK7Capture6deviceEv
libVideoCapture.so:_ZNK7Capture7webcamsEv
libVideoCapture.so:_ZNK7Capture8ioMethodEv
libVideoCapture.so:_ZNK7Capture8nBuffersEv
libVideoCapture.so:_ZNK7Capture9torchModeEv
libVideoCapture.so:_ZThn16_N12VideoCapture6createERK7QStringS2_
libVideoCapture.so:_ZThn16_NK12VideoCapture4keysEv
libVideoCapture.so:qt_plugin_instance
libVideoCapture.so:qt_plugin_query_metadata_v2
libVideoCapture_ffmpeg.so:_ZN12ConvertVideo10frameReadyERK8AkPacket
libVideoCapture_ffmpeg.so:_ZN12ConvertVideo11qt_metacallEN11QMetaObject4CallEiPPv
libVideoCapture_ffmpeg.so:_ZN12ConvertVideo11qt_metacastEPKc
libVideoCapture_ffmpeg.so:_ZN12ConvertVideo13packetEnqueueERK8AkPacket
libVideoCapture_ffmpeg.so:_ZN12ConvertVideo16staticMetaObjectE
libVideoCapture_ffmpeg.so:_ZN12ConvertVideo4initERK6AkCaps
libVideoCapture_ffmpeg.so:_ZN12ConvertVideo6uninitEv
libVideoCapture_ffmpeg.so:_ZN12ConvertVideoC1EP7QObject
libVideoCapture_ffmpeg.so:_ZN12ConvertVideoC2EP7QObject
libVideoCapture_ffmpeg.so:_ZN18ConvertVideoFFmpeg10setShowLogEb
libVideoCapture_ffmpeg.so:_ZN18ConvertVideoFFmpeg11dataEnqueueEP7AVFrame
libVideoCapture_ffmpeg.so:_ZN18ConvertVideoFFmpeg11qt_metacallEN11QMetaObject4CallEiPPv
libVideoCapture_ffmpeg.so:_ZN18ConvertVideoFFmpeg11qt_metacastEPKc
libVideoCapture_ffmpeg.so:_ZN18ConvertVideoFFmpeg12resetShowLogEv
libVideoCapture_ffmpeg.so:_ZN18ConvertVideoFFmpeg13packetEnqueueERK8AkPacket
libVideoCapture_ffmpeg.so:_ZN18ConvertVideoFFmpeg14showLogChangedEb
libVideoCapture_ffmpeg.so:_ZN18ConvertVideoFFmpeg16staticMetaObjectE
libVideoCapture_ffmpeg.so:_ZN18ConvertVideoFFmpeg21setMaxPacketQueueSizeEx
libVideoCapture_ffmpeg.so:_ZN18ConvertVideoFFmpeg23resetMaxPacketQueueSizeEv
libVideoCapture_ffmpeg.so:_ZN18ConvertVideoFFmpeg25maxPacketQueueSizeChangedEx
libVideoCapture_ffmpeg.so:_ZN18ConvertVideoFFmpeg4initERK6AkCaps
libVideoCapture_ffmpeg.so:_ZN18ConvertVideoFFmpeg6uninitEv
libVideoCapture_ffmpeg.so:_ZN18ConvertVideoFFmpegC1EP7QObject
libVideoCapture_ffmpeg.so:_ZN18ConvertVideoFFmpegC2EP7QObject
libVideoCapture_ffmpeg.so:_ZN18ConvertVideoFFmpegD0Ev
libVideoCapture_ffmpeg.so:_ZN18ConvertVideoFFmpegD1Ev
libVideoCapture_ffmpeg.so:_ZN18ConvertVideoFFmpegD2Ev
libVideoCapture_ffmpeg.so:_ZN25ConvertVideoFFmpegPrivate10packetLoopEP18ConvertVideoFFmpeg
libVideoCapture_ffmpeg.so:_ZN25ConvertVideoFFmpegPrivate11deleteFrameEP7AVFrame
libVideoCapture_ffmpeg.so:_ZN25ConvertVideoFFmpegPrivate11processDataERK14QSharedPointerI7AVFrameE
libVideoCapture_ffmpeg.so:_ZN25ConvertVideoFFmpegPrivate3logEd
libVideoCapture_ffmpeg.so:_ZN25ConvertVideoFFmpegPrivate7convertEPK7AVFrame
libVideoCapture_ffmpeg.so:_ZN25ConvertVideoFFmpegPrivate7convertERK14QSharedPointerI7AVFrameE
libVideoCapture_ffmpeg.so:_ZN25ConvertVideoFFmpegPrivate8dataLoopEP18ConvertVideoFFmpeg
libVideoCapture_ffmpeg.so:_ZN25ConvertVideoFFmpegPrivateC1EP18ConvertVideoFFmpeg
libVideoCapture_ffmpeg.so:_ZN25ConvertVideoFFmpegPrivateC2EP18ConvertVideoFFmpeg
libVideoCapture_ffmpeg.so:_ZN5Clock10resetClockEv
libVideoCapture_ffmpeg.so:_ZN5Clock11qt_metacallEN11QMetaObject4CallEiPPv
libVideoCapture_ffmpeg.so:_ZN5Clock11qt_metacastEPKc
libVideoCapture_ffmpeg.so:_ZN5Clock16staticMetaObjectE
libVideoCapture_ffmpeg.so:_ZN5Clock5clockEv
libVideoCapture_ffmpeg.so:_ZN5Clock8setClockEd
libVideoCapture_ffmpeg.so:_ZN5ClockC1EP7QObject
libVideoCapture_ffmpeg.so:_ZN5ClockC2EP7QObject
libVideoCapture_ffmpeg.so:_ZN5ClockD0Ev
libVideoCapture_ffmpeg.so:_ZN5ClockD1Ev
libVideoCapture_ffmpeg.so:_ZN5ClockD2Ev
libVideoCapture_ffmpeg.so:_ZN6Plugin11qt_metacallEN11QMetaObject4CallEiPPv
libVideoCapture_ffmpeg.so:_ZN6Plugin11qt_metacastEPKc
libVideoCapture_ffmpeg.so:_ZN6Plugin16staticMetaObjectE
libVideoCapture_ffmpeg.so:_ZN6Plugin6createERK7QStringS2_
libVideoCapture_ffmpeg.so:_ZNK12ConvertVideo10metaObjectEv
libVideoCapture_ffmpeg.so:_ZNK18ConvertVideoFFmpeg10metaObjectEv
libVideoCapture_ffmpeg.so:_ZNK18ConvertVideoFFmpeg18maxPacketQueueSizeEv
libVideoCapture_ffmpeg.so:_ZNK18ConvertVideoFFmpeg7showLogEv
libVideoCapture_ffmpeg.so:_ZNK25ConvertVideoFFmpegPrivate9copyFrameEP7AVFrame
libVideoCapture_ffmpeg.so:_ZNK5Clock10metaObjectEv
libVideoCapture_ffmpeg.so:_ZNK6Plugin10metaObjectEv
libVideoCapture_ffmpeg.so:_ZNK6Plugin4keysEv
libVideoCapture_ffmpeg.so:_ZThn16_N6Plugin6createERK7QStringS2_
libVideoCapture_ffmpeg.so:_ZThn16_NK6Plugin4keysEv
libVideoCapture_ffmpeg.so:qt_plugin_instance
libVideoCapture_ffmpeg.so:qt_plugin_query_metadata_v2
libVideoCapture_gstreamer.so:_ZN12ConvertVideo10frameReadyERK8AkPacket
libVideoCapture_gstreamer.so:_ZN12ConvertVideo11qt_metacallEN11QMetaObject4CallEiPPv
libVideoCapture_gstreamer.so:_ZN12ConvertVideo11qt_metacastEPKc
libVideoCapture_gstreamer.so:_ZN12ConvertVideo13packetEnqueueERK8AkPacket
libVideoCapture_gstreamer.so:_ZN12ConvertVideo16staticMetaObjectE
libVideoCapture_gstreamer.so:_ZN12ConvertVideo4initERK6AkCaps
libVideoCapture_gstreamer.so:_ZN12ConvertVideo6uninitEv
libVideoCapture_gstreamer.so:_ZN12ConvertVideoC1EP7QObject
libVideoCapture_gstreamer.so:_ZN12ConvertVideoC2EP7QObject
libVideoCapture_gstreamer.so:_ZN21ConvertVideoGStreamer11qt_metacallEN11QMetaObject4CallEiPPv
libVideoCapture_gstreamer.so:_ZN21ConvertVideoGStreamer11qt_metacastEPKc
libVideoCapture_gstreamer.so:_ZN21ConvertVideoGStreamer13packetEnqueueERK8AkPacket
libVideoCapture_gstreamer.so:_ZN21ConvertVideoGStreamer16staticMetaObjectE
libVideoCapture_gstreamer.so:_ZN21ConvertVideoGStreamer4initERK6AkCaps
libVideoCapture_gstreamer.so:_ZN21ConvertVideoGStreamer6uninitEv
libVideoCapture_gstreamer.so:_ZN21ConvertVideoGStreamerC1EP7QObject
libVideoCapture_gstreamer.so:_ZN21ConvertVideoGStreamerC2EP7QObject
libVideoCapture_gstreamer.so:_ZN21ConvertVideoGStreamerD0Ev
libVideoCapture_gstreamer.so:_ZN21ConvertVideoGStreamerD1Ev
libVideoCapture_gstreamer.so:_ZN21ConvertVideoGStreamerD2Ev
libVideoCapture_gstreamer.so:_ZN28ConvertVideoGStreamerPrivate11busCallbackEP7_GstBusP11_GstMessagePv
libVideoCapture_gstreamer.so:_ZN28ConvertVideoGStreamerPrivate19videoBufferCallbackEP11_GstElementPv
libVideoCapture_gstreamer.so:_ZN28ConvertVideoGStreamerPrivate9waitStateE8GstState
libVideoCapture_gstreamer.so:_ZN6Plugin11qt_metacallEN11QMetaObject4CallEiPPv
libVideoCapture_gstreamer.so:_ZN6Plugin11qt_metacastEPKc
libVideoCapture_gstreamer.so:_ZN6Plugin16staticMetaObjectE
libVideoCapture_gstreamer.so:_ZN6Plugin6createERK7QStringS2_
libVideoCapture_gstreamer.so:_ZNK12ConvertVideo10metaObjectEv
libVideoCapture_gstreamer.so:_ZNK21ConvertVideoGStreamer10metaObjectEv
libVideoCapture_gstreamer.so:_ZNK28ConvertVideoGStreamerPrivate15decoderFromCapsEPK8_GstCaps
libVideoCapture_gstreamer.so:_ZNK6Plugin10metaObjectEv
libVideoCapture_gstreamer.so:_ZNK6Plugin4keysEv
libVideoCapture_gstreamer.so:_ZThn16_N6Plugin6createERK7QStringS2_
libVideoCapture_gstreamer.so:_ZThn16_NK6Plugin4keysEv
libVideoCapture_gstreamer.so:qt_plugin_instance
libVideoCapture_gstreamer.so:qt_plugin_query_metadata_v2
libVideoCapture_pipewire.so:_ZN15CapturePipeWire10listTracksEN6AkCaps8CapsTypeE
libVideoCapture_pipewire.so:_ZN15CapturePipeWire10setStreamsERK5QListIiE
libVideoCapture_pipewire.so:_ZN15CapturePipeWire11qt_metacallEN11QMetaObject4CallEiPPv
libVideoCapture_pipewire.so:_ZN15CapturePipeWire11qt_metacastEPKc
libVideoCapture_pipewire.so:_ZN15CapturePipeWire11resetDeviceEv
libVideoCapture_pipewire.so:_ZN15CapturePipeWire11setIoMethodERK7QString
libVideoCapture_pipewire.so:_ZN15CapturePipeWire11setNBuffersEi
libVideoCapture_pipewire.so:_ZN15CapturePipeWire12resetStreamsEv
libVideoCapture_pipewire.so:_ZN15CapturePipeWire13resetIoMethodEv
libVideoCapture_pipewire.so:_ZN15CapturePipeWire13resetNBuffersEv
libVideoCapture_pipewire.so:_ZN15CapturePipeWire16setImageControlsERK4QMapI7QString8QVariantE
libVideoCapture_pipewire.so:_ZN15CapturePipeWire16staticMetaObjectE
libVideoCapture_pipewire.so:_ZN15CapturePipeWire17setCameraControlsERK4QMapI7QString8QVariantE
libVideoCapture_pipewire.so:_ZN15CapturePipeWire18resetImageControlsEv
libVideoCapture_pipewire.so:_ZN15CapturePipeWire19resetCameraControlsEv
libVideoCapture_pipewire.so:_ZN15CapturePipeWire4initEv
libVideoCapture_pipewire.so:_ZN15CapturePipeWire5resetEv
libVideoCapture_pipewire.so:_ZN15CapturePipeWire6uninitEv
libVideoCapture_pipewire.so:_ZN15CapturePipeWire7streamsEv
libVideoCapture_pipewire.so:_ZN15CapturePipeWire9readFrameEv
libVideoCapture_pipewire.so:_ZN15CapturePipeWire9setDeviceERK7QString
libVideoCapture_pipewire.so:_ZN15CapturePipeWireC1EP7QObject
libVideoCapture_pipewire.so:_ZN15CapturePipeWireC2EP7QObject
libVideoCapture_pipewire.so:_ZN15CapturePipeWireD0Ev
libVideoCapture_pipewire.so:_ZN15CapturePipeWireD1Ev
libVideoCapture_pipewire.so:_ZN15CapturePipeWireD2Ev
libVideoCapture_pipewire.so:_ZN22CapturePipeWirePrivate11deviceAddedEPvjjPKcjPK8spa_dict
libVideoCapture_pipewire.so:_ZN22CapturePipeWirePrivate11readFormatsEiPK7spa_pod
libVideoCapture_pipewire.so:_ZN22CapturePipeWirePrivate11setControlsERK4QMapI7QString8QVariantE
libVideoCapture_pipewire.so:_ZN22CapturePipeWirePrivate12readPropInfoEiPK7spa_pod
libVideoCapture_pipewire.so:_ZN22CapturePipeWirePrivate12sequenceDoneEPvji
libVideoCapture_pipewire.so:_ZN22CapturePipeWirePrivate13deviceRemovedEPvj
libVideoCapture_pipewire.so:_ZN22CapturePipeWirePrivate14onParamChangedEPvjPK7spa_pod
libVideoCapture_pipewire.so:_ZN22CapturePipeWirePrivate15nodeInfoChangedEPvPK12pw_node_info
libVideoCapture_pipewire.so:_ZN22CapturePipeWirePrivate16nodeParamChangedEPvijjjPK7spa_pod
libVideoCapture_pipewire.so:_ZN22CapturePipeWirePrivate19pipewireDevicesLoopEv
libVideoCapture_pipewire.so:_ZN22CapturePipeWirePrivate22videoCapsFromSpaFormatE17spa_media_subtype16spa_video_formatRK13spa_rectangleRK6AkFrac
libVideoCapture_pipewire.so:_ZN22CapturePipeWirePrivate9onProcessEPv
libVideoCapture_pipewire.so:_ZN22CapturePipeWirePrivate9readPropsEiPK7spa_pod
libVideoCapture_pipewire.so:_ZN22CapturePipeWirePrivateC1EP15CapturePipeWire
libVideoCapture_pipewire.so:_ZN22CapturePipeWirePrivateC2EP15CapturePipeWire
libVideoCapture_pipewire.so:_ZN22CapturePipeWirePrivateD1Ev
libVideoCapture_pipewire.so:_ZN22CapturePipeWirePrivateD2Ev
libVideoCapture_pipewire.so:_ZN6Plugin11qt_metacallEN11QMetaObject4CallEiPPv
libVideoCapture_pipewire.so:_ZN6Plugin11qt_metacastEPKc
libVideoCapture_pipewire.so:_ZN6Plugin16staticMetaObjectE
libVideoCapture_pipewire.so:_ZN6Plugin6createERK7QStringS2_
libVideoCapture_pipewire.so:_ZN7Capture10listTracksEN6AkCaps8CapsTypeE
libVideoCapture_pipewire.so:_ZN7Capture10setStreamsERK5QListIiE
libVideoCapture_pipewire.so:_ZN7Capture11qt_metacallEN11QMetaObject4CallEiPPv
libVideoCapture_pipewire.so:_ZN7Capture11qt_metacastEPKc
libVideoCapture_pipewire.so:_ZN7Capture11resetDeviceEv
libVideoCapture_pipewire.so:_ZN7Capture11setIoMethodERK7QString
libVideoCapture_pipewire.so:_ZN7Capture11setNBuffersEi
libVideoCapture_pipewire.so:_ZN7Capture12errorChangedERK7QString
libVideoCapture_pipewire.so:_ZN7Capture12pictureTakenEiRK8AkPacket
libVideoCapture_pipewire.so:_ZN7Capture12resetStreamsEv
libVideoCapture_pipewire.so:_ZN7Capture12setTorchModeENS_9TorchModeE
libVideoCapture_pipewire.so:_ZN7Capture12takePicturesEii
libVideoCapture_pipewire.so:_ZN7Capture13deviceChangedERK7QString
libVideoCapture_pipewire.so:_ZN7Capture13resetIoMethodEv
libVideoCapture_pipewire.so:_ZN7Capture13resetNBuffersEv
libVideoCapture_pipewire.so:_ZN7Capture14resetTorchModeEv
libVideoCapture_pipewire.so:_ZN7Capture14streamsChangedERK5QListIiE
libVideoCapture_pipewire.so:_ZN7Capture14webcamsChangedERK5QListI7QStringE
libVideoCapture_pipewire.so:_ZN7Capture15ioMethodChangedERK7QString
libVideoCapture_pipewire.so:_ZN7Capture15nBuffersChangedEi
libVideoCapture_pipewire.so:_ZN7Capture16setImageControlsERK4QMapI7QString8QVariantE
libVideoCapture_pipewire.so:_ZN7Capture16staticMetaObjectE
libVideoCapture_pipewire.so:_ZN7Capture16torchModeChangedENS_9TorchModeE
libVideoCapture_pipewire.so:_ZN7Capture17setCameraControlsERK4QMapI7QString8QVariantE
libVideoCapture_pipewire.so:_ZN7Capture18resetImageControlsEv
libVideoCapture_pipewire.so:_ZN7Capture19resetCameraControlsEv
libVideoCapture_pipewire.so:_ZN7Capture20imageControlsChangedERK4QMapI7QString8QVariantE
libVideoCapture_pipewire.so:_ZN7Capture21cameraControlsChangedERK4QMapI7QString8QVariantE
libVideoCapture_pipewire.so:_ZN7Capture23isTorchSupportedChangedEb
libVideoCapture_pipewire.so:_ZN7Capture23permissionStatusChangedENS_16PermissionStatusE
libVideoCapture_pipewire.so:_ZN7Capture4initEv
libVideoCapture_pipewire.so:_ZN7Capture5resetEv
libVideoCapture_pipewire.so:_ZN7Capture6uninitEv
libVideoCapture_pipewire.so:_ZN7Capture7streamsEv
libVideoCapture_pipewire.so:_ZN7Capture9readFrameEv
libVideoCapture_pipewire.so:_ZN7Capture9setDeviceERK7QString
libVideoCapture_pipewire.so:_ZN7CaptureC1EP7QObject
libVideoCapture_pipewire.so:_ZN7CaptureC2EP7QObject
libVideoCapture_pipewire.so:_ZN7CaptureD0Ev
libVideoCapture_pipewire.so:_ZN7CaptureD1Ev
libVideoCapture_pipewire.so:_ZN7CaptureD2Ev
libVideoCapture_pipewire.so:_ZNK15CapturePipeWire10metaObjectEv
libVideoCapture_pipewire.so:_ZNK15CapturePipeWire11descriptionERK7QString
libVideoCapture_pipewire.so:_ZNK15CapturePipeWire13imageControlsEv
libVideoCapture_pipewire.so:_ZNK15CapturePipeWire14cameraControlsEv
libVideoCapture_pipewire.so:_ZNK15CapturePipeWire4capsERK7QString
libVideoCapture_pipewire.so:_ZNK15CapturePipeWire6deviceEv
libVideoCapture_pipewire.so:_ZNK15CapturePipeWire7webcamsEv
libVideoCapture_pipewire.so:_ZNK15CapturePipeWire8ioMethodEv
libVideoCapture_pipewire.so:_ZNK15CapturePipeWire8nBuffersEv
libVideoCapture_pipewire.so:_ZNK22CapturePipeWirePrivate11buildFormatEP15spa_pod_builder17spa_media_subtype16spa_video_formatiiRK6AkFrac
libVideoCapture_pipewire.so:_ZNK22CapturePipeWirePrivate13controlStatusERK5QListI8QVariantE
libVideoCapture_pipewire.so:_ZNK22CapturePipeWirePrivate13updateControlER5QListI13DeviceControlERKS1_
libVideoCapture_pipewire.so:_ZNK22CapturePipeWirePrivate14readFrameRatesEPK12spa_pod_prop
libVideoCapture_pipewire.so:_ZNK22CapturePipeWirePrivate18updateControlValueER5QListI13DeviceControlERKS1_
libVideoCapture_pipewire.so:_ZNK22CapturePipeWirePrivate7mapDiffERK4QMapI7QString8QVariantES5_
libVideoCapture_pipewire.so:_ZNK6Plugin10metaObjectEv
libVideoCapture_pipewire.so:_ZNK6Plugin4keysEv
libVideoCapture_pipewire.so:_ZNK7Capture10metaObjectEv
libVideoCapture_pipewire.so:_ZNK7Capture11descriptionERK7QString
libVideoCapture_pipewire.so:_ZNK7Capture13imageControlsEv
libVideoCapture_pipewire.so:_ZNK7Capture14cameraControlsEv
libVideoCapture_pipewire.so:_ZNK7Capture16isTorchSupportedEv
libVideoCapture_pipewire.so:_ZNK7Capture16permissionStatusEv
libVideoCapture_pipewire.so:_ZNK7Capture4capsERK7QString
libVideoCapture_pipewire.so:_ZNK7Capture5errorEv
libVideoCapture_pipewire.so:_ZNK7Capture6deviceEv
libVideoCapture_pipewire.so:_ZNK7Capture7webcamsEv
libVideoCapture_pipewire.so:_ZNK7Capture8ioMethodEv
libVideoCapture_pipewire.so:_ZNK7Capture8nBuffersEv
libVideoCapture_pipewire.so:_ZNK7Capture9torchModeEv
libVideoCapture_pipewire.so:_ZThn16_N6Plugin6createERK7QStringS2_
libVideoCapture_pipewire.so:_ZThn16_NK6Plugin4keysEv
libVideoCapture_pipewire.so:qt_plugin_instance
libVideoCapture_pipewire.so:qt_plugin_query_metadata_v2
libVideoCapture_qtcamera.so:_ZN16CaptureQtPrivate10frameReadyERK11QVideoFrame
libVideoCapture_qtcamera.so:_ZN16CaptureQtPrivate13updateDevicesEv
libVideoCapture_qtcamera.so:_ZN16CaptureQtPrivateC1EP9CaptureQt
libVideoCapture_qtcamera.so:_ZN16CaptureQtPrivateC2EP9CaptureQt
libVideoCapture_qtcamera.so:_ZN16CaptureQtPrivateD1Ev
libVideoCapture_qtcamera.so:_ZN16CaptureQtPrivateD2Ev
libVideoCapture_qtcamera.so:_ZN6Plugin11qt_metacallEN11QMetaObject4CallEiPPv
libVideoCapture_qtcamera.so:_ZN6Plugin11qt_metacastEPKc
libVideoCapture_qtcamera.so:_ZN6Plugin16staticMetaObjectE
libVideoCapture_qtcamera.so:_ZN6Plugin6createERK7QStringS2_
libVideoCapture_qtcamera.so:_ZN7Capture10listTracksEN6AkCaps8CapsTypeE
libVideoCapture_qtcamera.so:_ZN7Capture10setStreamsERK5QListIiE
libVideoCapture_qtcamera.so:_ZN7Capture11qt_metacallEN11QMetaObject4CallEiPPv
libVideoCapture_qtcamera.so:_ZN7Capture11qt_metacastEPKc
libVideoCapture_qtcamera.so:_ZN7Capture11resetDeviceEv
libVideoCapture_qtcamera.so:_ZN7Capture11setIoMethodERK7QString
libVideoCapture_qtcamera.so:_ZN7Capture11setNBuffersEi
libVideoCapture_qtcamera.so:_ZN7Capture12errorChangedERK7QString
libVideoCapture_qtcamera.so:_ZN7Capture12pictureTakenEiRK8AkPacket
libVideoCapture_qtcamera.so:_ZN7Capture12resetStreamsEv
libVideoCapture_qtcamera.so:_ZN7Capture12setTorchModeENS_9TorchModeE
libVideoCapture_qtcamera.so:_ZN7Capture12takePicturesEii
libVideoCapture_qtcamera.so:_ZN7Capture13deviceChangedERK7QString
libVideoCapture_qtcamera.so:_ZN7Capture13resetIoMethodEv
libVideoCapture_qtcamera.so:_ZN7Capture13resetNBuffersEv
libVideoCapture_qtcamera.so:_ZN7Capture14resetTorchModeEv
libVideoCapture_qtcamera.so:_ZN7Capture14streamsChangedERK5QListIiE
libVideoCapture_qtcamera.so:_ZN7Capture14webcamsChangedERK5QListI7QStringE
libVideoCapture_qtcamera.so:_ZN7Capture15ioMethodChangedERK7QString
libVideoCapture_qtcamera.so:_ZN7Capture15nBuffersChangedEi
libVideoCapture_qtcamera.so:_ZN7Capture16setImageControlsERK4QMapI7QString8QVariantE
libVideoCapture_qtcamera.so:_ZN7Capture16staticMetaObjectE
libVideoCapture_qtcamera.so:_ZN7Capture16torchModeChangedENS_9TorchModeE
libVideoCapture_qtcamera.so:_ZN7Capture17setCameraControlsERK4QMapI7QString8QVariantE
libVideoCapture_qtcamera.so:_ZN7Capture18resetImageControlsEv
libVideoCapture_qtcamera.so:_ZN7Capture19resetCameraControlsEv
libVideoCapture_qtcamera.so:_ZN7Capture20imageControlsChangedERK4QMapI7QString8QVariantE
libVideoCapture_qtcamera.so:_ZN7Capture21cameraControlsChangedERK4QMapI7QString8QVariantE
libVideoCapture_qtcamera.so:_ZN7Capture23isTorchSupportedChangedEb
libVideoCapture_qtcamera.so:_ZN7Capture23permissionStatusChangedENS_16PermissionStatusE
libVideoCapture_qtcamera.so:_ZN7Capture4initEv
libVideoCapture_qtcamera.so:_ZN7Capture5resetEv
libVideoCapture_qtcamera.so:_ZN7Capture6uninitEv
libVideoCapture_qtcamera.so:_ZN7Capture7streamsEv
libVideoCapture_qtcamera.so:_ZN7Capture9readFrameEv
libVideoCapture_qtcamera.so:_ZN7Capture9setDeviceERK7QString
libVideoCapture_qtcamera.so:_ZN7CaptureC1EP7QObject
libVideoCapture_qtcamera.so:_ZN7CaptureC2EP7QObject
libVideoCapture_qtcamera.so:_ZN7CaptureD0Ev
libVideoCapture_qtcamera.so:_ZN7CaptureD1Ev
libVideoCapture_qtcamera.so:_ZN7CaptureD2Ev
libVideoCapture_qtcamera.so:_ZN9CaptureQt10listTracksEN6AkCaps8CapsTypeE
libVideoCapture_qtcamera.so:_ZN9CaptureQt10setStreamsERK5QListIiE
libVideoCapture_qtcamera.so:_ZN9CaptureQt11qt_metacallEN11QMetaObject4CallEiPPv
libVideoCapture_qtcamera.so:_ZN9CaptureQt11qt_metacastEPKc
libVideoCapture_qtcamera.so:_ZN9CaptureQt11resetDeviceEv
libVideoCapture_qtcamera.so:_ZN9CaptureQt11setIoMethodERK7QString
libVideoCapture_qtcamera.so:_ZN9CaptureQt11setNBuffersEi
libVideoCapture_qtcamera.so:_ZN9CaptureQt12resetStreamsEv
libVideoCapture_qtcamera.so:_ZN9CaptureQt12setTorchModeEN7Capture9TorchModeE
libVideoCapture_qtcamera.so:_ZN9CaptureQt13resetIoMethodEv
libVideoCapture_qtcamera.so:_ZN9CaptureQt13resetNBuffersEv
libVideoCapture_qtcamera.so:_ZN9CaptureQt14resetTorchModeEv
libVideoCapture_qtcamera.so:_ZN9CaptureQt16setImageControlsERK4QMapI7QString8QVariantE
libVideoCapture_qtcamera.so:_ZN9CaptureQt16staticMetaObjectE
libVideoCapture_qtcamera.so:_ZN9CaptureQt17setCameraControlsERK4QMapI7QString8QVariantE
libVideoCapture_qtcamera.so:_ZN9CaptureQt18resetImageControlsEv
libVideoCapture_qtcamera.so:_ZN9CaptureQt19resetCameraControlsEv
libVideoCapture_qtcamera.so:_ZN9CaptureQt4initEv
libVideoCapture_qtcamera.so:_ZN9CaptureQt5resetEv
libVideoCapture_qtcamera.so:_ZN9CaptureQt6uninitEv
libVideoCapture_qtcamera.so:_ZN9CaptureQt7streamsEv
libVideoCapture_qtcamera.so:_ZN9CaptureQt9readFrameEv
libVideoCapture_qtcamera.so:_ZN9CaptureQt9setDeviceERK7QString
libVideoCapture_qtcamera.so:_ZN9CaptureQtC1EP7QObject
libVideoCapture_qtcamera.so:_ZN9CaptureQtC2EP7QObject
libVideoCapture_qtcamera.so:_ZN9CaptureQtD0Ev
libVideoCapture_qtcamera.so:_ZN9CaptureQtD1Ev
libVideoCapture_qtcamera.so:_ZN9CaptureQtD2Ev
libVideoCapture_qtcamera.so:_ZNK16CaptureQtPrivate13controlStatusERK5QListI8QVariantE
libVideoCapture_qtcamera.so:_ZNK16CaptureQtPrivate13imageControlsEv
libVideoCapture_qtcamera.so:_ZNK16CaptureQtPrivate14cameraRotationERK11QVideoFrame
libVideoCapture_qtcamera.so:_ZNK16CaptureQtPrivate16setImageControlsERK4QMapI7QString8QVariantE
libVideoCapture_qtcamera.so:_ZNK16CaptureQtPrivate17nearestResolutionERK5QSizeRK5QListI6AkCapsE
libVideoCapture_qtcamera.so:_ZNK16CaptureQtPrivate7mapDiffERK4QMapI7QString8QVariantES5_
libVideoCapture_qtcamera.so:_ZNK6Plugin10metaObjectEv
libVideoCapture_qtcamera.so:_ZNK6Plugin4keysEv
libVideoCapture_qtcamera.so:_ZNK7Capture10metaObjectEv
libVideoCapture_qtcamera.so:_ZNK7Capture11descriptionERK7QString
libVideoCapture_qtcamera.so:_ZNK7Capture13imageControlsEv
libVideoCapture_qtcamera.so:_ZNK7Capture14cameraControlsEv
libVideoCapture_qtcamera.so:_ZNK7Capture16isTorchSupportedEv
libVideoCapture_qtcamera.so:_ZNK7Capture16permissionStatusEv
libVideoCapture_qtcamera.so:_ZNK7Capture4capsERK7QString
libVideoCapture_qtcamera.so:_ZNK7Capture5errorEv
libVideoCapture_qtcamera.so:_ZNK7Capture6deviceEv
libVideoCapture_qtcamera.so:_ZNK7Capture7webcamsEv
libVideoCapture_qtcamera.so:_ZNK7Capture8ioMethodEv
libVideoCapture_qtcamera.so:_ZNK7Capture8nBuffersEv
libVideoCapture_qtcamera.so:_ZNK7Capture9torchModeEv
libVideoCapture_qtcamera.so:_ZNK9CaptureQt10metaObjectEv
libVideoCapture_qtcamera.so:_ZNK9CaptureQt11descriptionERK7QString
libVideoCapture_qtcamera.so:_ZNK9CaptureQt13imageControlsEv
libVideoCapture_qtcamera.so:_ZNK9CaptureQt14cameraControlsEv
libVideoCapture_qtcamera.so:_ZNK9CaptureQt16isTorchSupportedEv
libVideoCapture_qtcamera.so:_ZNK9CaptureQt16permissionStatusEv
libVideoCapture_qtcamera.so:_ZNK9CaptureQt4capsERK7QString
libVideoCapture_qtcamera.so:_ZNK9CaptureQt6deviceEv
libVideoCapture_qtcamera.so:_ZNK9CaptureQt7webcamsEv
libVideoCapture_qtcamera.so:_ZNK9CaptureQt8ioMethodEv
libVideoCapture_qtcamera.so:_ZNK9CaptureQt8nBuffersEv
libVideoCapture_qtcamera.so:_ZNK9CaptureQt9torchModeEv
libVideoCapture_qtcamera.so:_ZThn16_N6Plugin6createERK7QStringS2_
libVideoCapture_qtcamera.so:_ZThn16_NK6Plugin4keysEv
libVideoCapture_qtcamera.so:qt_plugin_instance
libVideoCapture_qtcamera.so:qt_plugin_query_metadata_v2
libVideoCapture_v4l2sys.so:_ZN11CaptureV4L210listTracksEN6AkCaps8CapsTypeE
libVideoCapture_v4l2sys.so:_ZN11CaptureV4L210setStreamsERK5QListIiE
libVideoCapture_v4l2sys.so:_ZN11CaptureV4L211qt_metacallEN11QMetaObject4CallEiPPv
libVideoCapture_v4l2sys.so:_ZN11CaptureV4L211qt_metacastEPKc
libVideoCapture_v4l2sys.so:_ZN11CaptureV4L211resetDeviceEv
libVideoCapture_v4l2sys.so:_ZN11CaptureV4L211setIoMethodERK7QString
libVideoCapture_v4l2sys.so:_ZN11CaptureV4L211setNBuffersEi
libVideoCapture_v4l2sys.so:_ZN11CaptureV4L212resetStreamsEv
libVideoCapture_v4l2sys.so:_ZN11CaptureV4L213resetIoMethodEv
libVideoCapture_v4l2sys.so:_ZN11CaptureV4L213resetNBuffersEv
libVideoCapture_v4l2sys.so:_ZN11CaptureV4L216setImageControlsERK4QMapI7QString8QVariantE
libVideoCapture_v4l2sys.so:_ZN11CaptureV4L216staticMetaObjectE
libVideoCapture_v4l2sys.so:_ZN11CaptureV4L217setCameraControlsERK4QMapI7QString8QVariantE
libVideoCapture_v4l2sys.so:_ZN11CaptureV4L218resetImageControlsEv
libVideoCapture_v4l2sys.so:_ZN11CaptureV4L219resetCameraControlsEv
libVideoCapture_v4l2sys.so:_ZN11CaptureV4L24initEv
libVideoCapture_v4l2sys.so:_ZN11CaptureV4L25resetEv
libVideoCapture_v4l2sys.so:_ZN11CaptureV4L26uninitEv
libVideoCapture_v4l2sys.so:_ZN11CaptureV4L27streamsEv
libVideoCapture_v4l2sys.so:_ZN11CaptureV4L29readFrameEv
libVideoCapture_v4l2sys.so:_ZN11CaptureV4L29setDeviceERK7QString
libVideoCapture_v4l2sys.so:_ZN11CaptureV4L2C1EP7QObject
libVideoCapture_v4l2sys.so:_ZN11CaptureV4L2C2EP7QObject
libVideoCapture_v4l2sys.so:_ZN11CaptureV4L2D0Ev
libVideoCapture_v4l2sys.so:_ZN11CaptureV4L2D1Ev
libVideoCapture_v4l2sys.so:_ZN11CaptureV4L2D2Ev
libVideoCapture_v4l2sys.so:_ZN18CaptureV4L2Private11stopCaptureERK11v4l2_format
libVideoCapture_v4l2sys.so:_ZN18CaptureV4L2Private12processFrameEPKPKcPKlx
libVideoCapture_v4l2sys.so:_ZN18CaptureV4L2Private12startCaptureERK11v4l2_format
libVideoCapture_v4l2sys.so:_ZN18CaptureV4L2Private13initMemoryMapERK11v4l2_format
libVideoCapture_v4l2sys.so:_ZN18CaptureV4L2Private13initReadWriteERK11v4l2_format
libVideoCapture_v4l2sys.so:_ZN18CaptureV4L2Private13updateDevicesEv
libVideoCapture_v4l2sys.so:_ZN18CaptureV4L2Private15initUserPointerERK11v4l2_format
libVideoCapture_v4l2sys.so:_ZN18CaptureV4L2Private6setFpsEijRK6AkFrac
libVideoCapture_v4l2sys.so:_ZN18CaptureV4L2PrivateC1EP11CaptureV4L2
libVideoCapture_v4l2sys.so:_ZN18CaptureV4L2PrivateC2EP11CaptureV4L2
libVideoCapture_v4l2sys.so:_ZN18CaptureV4L2PrivateD1Ev
libVideoCapture_v4l2sys.so:_ZN18CaptureV4L2PrivateD2Ev
libVideoCapture_v4l2sys.so:_ZN6Plugin11qt_metacallEN11QMetaObject4CallEiPPv
libVideoCapture_v4l2sys.so:_ZN6Plugin11qt_metacastEPKc
libVideoCapture_v4l2sys.so:_ZN6Plugin16staticMetaObjectE
libVideoCapture_v4l2sys.so:_ZN6Plugin6createERK7QStringS2_
libVideoCapture_v4l2sys.so:_ZN7Capture10listTracksEN6AkCaps8CapsTypeE
libVideoCapture_v4l2sys.so:_ZN7Capture10setStreamsERK5QListIiE
libVideoCapture_v4l2sys.so:_ZN7Capture11qt_metacallEN11QMetaObject4CallEiPPv
libVideoCapture_v4l2sys.so:_ZN7Capture11qt_metacastEPKc
libVideoCapture_v4l2sys.so:_ZN7Capture11resetDeviceEv
libVideoCapture_v4l2sys.so:_ZN7Capture11setIoMethodERK7QString
libVideoCapture_v4l2sys.so:_ZN7Capture11setNBuffersEi
libVideoCapture_v4l2sys.so:_ZN7Capture12errorChangedERK7QString
libVideoCapture_v4l2sys.so:_ZN7Capture12pictureTakenEiRK8AkPacket
libVideoCapture_v4l2sys.so:_ZN7Capture12resetStreamsEv
libVideoCapture_v4l2sys.so:_ZN7Capture12setTorchModeENS_9TorchModeE
libVideoCapture_v4l2sys.so:_ZN7Capture12takePicturesEii
libVideoCapture_v4l2sys.so:_ZN7Capture13deviceChangedERK7QString
libVideoCapture_v4l2sys.so:_ZN7Capture13resetIoMethodEv
libVideoCapture_v4l2sys.so:_ZN7Capture13resetNBuffersEv
libVideoCapture_v4l2sys.so:_ZN7Capture14resetTorchModeEv
libVideoCapture_v4l2sys.so:_ZN7Capture14streamsChangedERK5QListIiE
libVideoCapture_v4l2sys.so:_ZN7Capture14webcamsChangedERK5QListI7QStringE
libVideoCapture_v4l2sys.so:_ZN7Capture15ioMethodChangedERK7QString
libVideoCapture_v4l2sys.so:_ZN7Capture15nBuffersChangedEi
libVideoCapture_v4l2sys.so:_ZN7Capture16setImageControlsERK4QMapI7QString8QVariantE
libVideoCapture_v4l2sys.so:_ZN7Capture16staticMetaObjectE
libVideoCapture_v4l2sys.so:_ZN7Capture16torchModeChangedENS_9TorchModeE
libVideoCapture_v4l2sys.so:_ZN7Capture17setCameraControlsERK4QMapI7QString8QVariantE
libVideoCapture_v4l2sys.so:_ZN7Capture18resetImageControlsEv
libVideoCapture_v4l2sys.so:_ZN7Capture19resetCameraControlsEv
libVideoCapture_v4l2sys.so:_ZN7Capture20imageControlsChangedERK4QMapI7QString8QVariantE
libVideoCapture_v4l2sys.so:_ZN7Capture21cameraControlsChangedERK4QMapI7QString8QVariantE
libVideoCapture_v4l2sys.so:_ZN7Capture23isTorchSupportedChangedEb
libVideoCapture_v4l2sys.so:_ZN7Capture23permissionStatusChangedENS_16PermissionStatusE
libVideoCapture_v4l2sys.so:_ZN7Capture4initEv
libVideoCapture_v4l2sys.so:_ZN7Capture5resetEv
libVideoCapture_v4l2sys.so:_ZN7Capture6uninitEv
libVideoCapture_v4l2sys.so:_ZN7Capture7streamsEv
libVideoCapture_v4l2sys.so:_ZN7Capture9readFrameEv
libVideoCapture_v4l2sys.so:_ZN7Capture9setDeviceERK7QString
libVideoCapture_v4l2sys.so:_ZN7CaptureC1EP7QObject
libVideoCapture_v4l2sys.so:_ZN7CaptureC2EP7QObject
libVideoCapture_v4l2sys.so:_ZN7CaptureD0Ev
libVideoCapture_v4l2sys.so:_ZN7CaptureD1Ev
libVideoCapture_v4l2sys.so:_ZN7CaptureD2Ev
libVideoCapture_v4l2sys.so:_ZNK11CaptureV4L210metaObjectEv
libVideoCapture_v4l2sys.so:_ZNK11CaptureV4L211descriptionERK7QString
libVideoCapture_v4l2sys.so:_ZNK11CaptureV4L213imageControlsEv
libVideoCapture_v4l2sys.so:_ZNK11CaptureV4L214cameraControlsEv
libVideoCapture_v4l2sys.so:_ZNK11CaptureV4L24capsERK7QString
libVideoCapture_v4l2sys.so:_ZNK11CaptureV4L26deviceEv
libVideoCapture_v4l2sys.so:_ZNK11CaptureV4L27webcamsEv
libVideoCapture_v4l2sys.so:_ZNK11CaptureV4L28ioMethodEv
libVideoCapture_v4l2sys.so:_ZNK11CaptureV4L28nBuffersEv
libVideoCapture_v4l2sys.so:_ZNK18CaptureV4L2Private11fourccToStrEj
libVideoCapture_v4l2sys.so:_ZNK18CaptureV4L2Private11setControlsEijRK4QMapI7QString8QVariantE
libVideoCapture_v4l2sys.so:_ZNK18CaptureV4L2Private12findControlsEij
libVideoCapture_v4l2sys.so:_ZNK18CaptureV4L2Private12queryControlEijP14v4l2_queryctrl
libVideoCapture_v4l2sys.so:_ZNK18CaptureV4L2Private13controlStatusERK5QListI8QVariantE
libVideoCapture_v4l2sys.so:_ZNK18CaptureV4L2Private13imageControlsEi
libVideoCapture_v4l2sys.so:_ZNK18CaptureV4L2Private14cameraControlsEi
libVideoCapture_v4l2sys.so:_ZNK18CaptureV4L2Private16setImageControlsEiRK4QMapI7QString8QVariantE
libVideoCapture_v4l2sys.so:_ZNK18CaptureV4L2Private17setCameraControlsEiRK4QMapI7QString8QVariantE
libVideoCapture_v4l2sys.so:_ZNK18CaptureV4L2Private4capsEi
libVideoCapture_v4l2sys.so:_ZNK18CaptureV4L2Private7capsFpsEiRK12v4l2_fmtdescjj
libVideoCapture_v4l2sys.so:_ZNK18CaptureV4L2Private7mapDiffERK4QMapI7QString8QVariantES5_
libVideoCapture_v4l2sys.so:_ZNK18CaptureV4L2Private8controlsEij
libVideoCapture_v4l2sys.so:_ZNK6Plugin10metaObjectEv
libVideoCapture_v4l2sys.so:_ZNK6Plugin4keysEv
libVideoCapture_v4l2sys.so:_ZNK7Capture10metaObjectEv
libVideoCapture_v4l2sys.so:_ZNK7Capture11descriptionERK7QString
libVideoCapture_v4l2sys.so:_ZNK7Capture13imageControlsEv
libVideoCapture_v4l2sys.so:_ZNK7Capture14cameraControlsEv
libVideoCapture_v4l2sys.so:_ZNK7Capture16isTorchSupportedEv
libVideoCapture_v4l2sys.so:_ZNK7Capture16permissionStatusEv
libVideoCapture_v4l2sys.so:_ZNK7Capture4capsERK7QString
libVideoCapture_v4l2sys.so:_ZNK7Capture5errorEv
libVideoCapture_v4l2sys.so:_ZNK7Capture6deviceEv
libVideoCapture_v4l2sys.so:_ZNK7Capture7webcamsEv
libVideoCapture_v4l2sys.so:_ZNK7Capture8ioMethodEv
libVideoCapture_v4l2sys.so:_ZNK7Capture8nBuffersEv
libVideoCapture_v4l2sys.so:_ZNK7Capture9torchModeEv
libVideoCapture_v4l2sys.so:_ZThn16_N6Plugin6createERK7QStringS2_
libVideoCapture_v4l2sys.so:_ZThn16_NK6Plugin4keysEv
libVideoCapture_v4l2sys.so:qt_plugin_instance
libVideoCapture_v4l2sys.so:qt_plugin_query_metadata_v2
libVideoCapture_v4lutils.so:_ZN11CaptureV4L210listTracksEN6AkCaps8CapsTypeE
libVideoCapture_v4lutils.so:_ZN11CaptureV4L210setStreamsERK5QListIiE
libVideoCapture_v4lutils.so:_ZN11CaptureV4L211qt_metacallEN11QMetaObject4CallEiPPv
libVideoCapture_v4lutils.so:_ZN11CaptureV4L211qt_metacastEPKc
libVideoCapture_v4lutils.so:_ZN11CaptureV4L211resetDeviceEv
libVideoCapture_v4lutils.so:_ZN11CaptureV4L211setIoMethodERK7QString
libVideoCapture_v4lutils.so:_ZN11CaptureV4L211setNBuffersEi
libVideoCapture_v4lutils.so:_ZN11CaptureV4L212resetStreamsEv
libVideoCapture_v4lutils.so:_ZN11CaptureV4L213resetIoMethodEv
libVideoCapture_v4lutils.so:_ZN11CaptureV4L213resetNBuffersEv
libVideoCapture_v4lutils.so:_ZN11CaptureV4L216setImageControlsERK4QMapI7QString8QVariantE
libVideoCapture_v4lutils.so:_ZN11CaptureV4L216staticMetaObjectE
libVideoCapture_v4lutils.so:_ZN11CaptureV4L217setCameraControlsERK4QMapI7QString8QVariantE
libVideoCapture_v4lutils.so:_ZN11CaptureV4L218resetImageControlsEv
libVideoCapture_v4lutils.so:_ZN11CaptureV4L219resetCameraControlsEv
libVideoCapture_v4lutils.so:_ZN11CaptureV4L24initEv
libVideoCapture_v4lutils.so:_ZN11CaptureV4L25resetEv
libVideoCapture_v4lutils.so:_ZN11CaptureV4L26uninitEv
libVideoCapture_v4lutils.so:_ZN11CaptureV4L27streamsEv
libVideoCapture_v4lutils.so:_ZN11CaptureV4L29readFrameEv
libVideoCapture_v4lutils.so:_ZN11CaptureV4L29setDeviceERK7QString
libVideoCapture_v4lutils.so:_ZN11CaptureV4L2C1EP7QObject
libVideoCapture_v4lutils.so:_ZN11CaptureV4L2C2EP7QObject
libVideoCapture_v4lutils.so:_ZN11CaptureV4L2D0Ev
libVideoCapture_v4lutils.so:_ZN11CaptureV4L2D1Ev
libVideoCapture_v4lutils.so:_ZN11CaptureV4L2D2Ev
libVideoCapture_v4lutils.so:_ZN18CaptureV4L2Private11stopCaptureERK11v4l2_format
libVideoCapture_v4lutils.so:_ZN18CaptureV4L2Private12processFrameEPKPKcPKlx
libVideoCapture_v4lutils.so:_ZN18CaptureV4L2Private12startCaptureERK11v4l2_format
libVideoCapture_v4lutils.so:_ZN18CaptureV4L2Private13initMemoryMapERK11v4l2_format
libVideoCapture_v4lutils.so:_ZN18CaptureV4L2Private13initReadWriteERK11v4l2_format
libVideoCapture_v4lutils.so:_ZN18CaptureV4L2Private13updateDevicesEv
libVideoCapture_v4lutils.so:_ZN18CaptureV4L2Private15initUserPointerERK11v4l2_format
libVideoCapture_v4lutils.so:_ZN18CaptureV4L2Private6setFpsEijRK6AkFrac
libVideoCapture_v4lutils.so:_ZN18CaptureV4L2PrivateC1EP11CaptureV4L2
libVideoCapture_v4lutils.so:_ZN18CaptureV4L2PrivateC2EP11CaptureV4L2
libVideoCapture_v4lutils.so:_ZN18CaptureV4L2PrivateD1Ev
libVideoCapture_v4lutils.so:_ZN18CaptureV4L2PrivateD2Ev
libVideoCapture_v4lutils.so:_ZN6Plugin11qt_metacallEN11QMetaObject4CallEiPPv
libVideoCapture_v4lutils.so:_ZN6Plugin11qt_metacastEPKc
libVideoCapture_v4lutils.so:_ZN6Plugin16staticMetaObjectE
libVideoCapture_v4lutils.so:_ZN6Plugin6createERK7QStringS2_
libVideoCapture_v4lutils.so:_ZN7Capture10listTracksEN6AkCaps8CapsTypeE
libVideoCapture_v4lutils.so:_ZN7Capture10setStreamsERK5QListIiE
libVideoCapture_v4lutils.so:_ZN7Capture11qt_metacallEN11QMetaObject4CallEiPPv
libVideoCapture_v4lutils.so:_ZN7Capture11qt_metacastEPKc
libVideoCapture_v4lutils.so:_ZN7Capture11resetDeviceEv
libVideoCapture_v4lutils.so:_ZN7Capture11setIoMethodERK7QString
libVideoCapture_v4lutils.so:_ZN7Capture11setNBuffersEi
libVideoCapture_v4lutils.so:_ZN7Capture12errorChangedERK7QString
libVideoCapture_v4lutils.so:_ZN7Capture12pictureTakenEiRK8AkPacket
libVideoCapture_v4lutils.so:_ZN7Capture12resetStreamsEv
libVideoCapture_v4lutils.so:_ZN7Capture12setTorchModeENS_9TorchModeE
libVideoCapture_v4lutils.so:_ZN7Capture12takePicturesEii
libVideoCapture_v4lutils.so:_ZN7Capture13deviceChangedERK7QString
libVideoCapture_v4lutils.so:_ZN7Capture13resetIoMethodEv
libVideoCapture_v4lutils.so:_ZN7Capture13resetNBuffersEv
libVideoCapture_v4lutils.so:_ZN7Capture14resetTorchModeEv
libVideoCapture_v4lutils.so:_ZN7Capture14streamsChangedERK5QListIiE
libVideoCapture_v4lutils.so:_ZN7Capture14webcamsChangedERK5QListI7QStringE
libVideoCapture_v4lutils.so:_ZN7Capture15ioMethodChangedERK7QString
libVideoCapture_v4lutils.so:_ZN7Capture15nBuffersChangedEi
libVideoCapture_v4lutils.so:_ZN7Capture16setImageControlsERK4QMapI7QString8QVariantE
libVideoCapture_v4lutils.so:_ZN7Capture16staticMetaObjectE
libVideoCapture_v4lutils.so:_ZN7Capture16torchModeChangedENS_9TorchModeE
libVideoCapture_v4lutils.so:_ZN7Capture17setCameraControlsERK4QMapI7QString8QVariantE
libVideoCapture_v4lutils.so:_ZN7Capture18resetImageControlsEv
libVideoCapture_v4lutils.so:_ZN7Capture19resetCameraControlsEv
libVideoCapture_v4lutils.so:_ZN7Capture20imageControlsChangedERK4QMapI7QString8QVariantE
libVideoCapture_v4lutils.so:_ZN7Capture21cameraControlsChangedERK4QMapI7QString8QVariantE
libVideoCapture_v4lutils.so:_ZN7Capture23isTorchSupportedChangedEb
libVideoCapture_v4lutils.so:_ZN7Capture23permissionStatusChangedENS_16PermissionStatusE
libVideoCapture_v4lutils.so:_ZN7Capture4initEv
libVideoCapture_v4lutils.so:_ZN7Capture5resetEv
libVideoCapture_v4lutils.so:_ZN7Capture6uninitEv
libVideoCapture_v4lutils.so:_ZN7Capture7streamsEv
libVideoCapture_v4lutils.so:_ZN7Capture9readFrameEv
libVideoCapture_v4lutils.so:_ZN7Capture9setDeviceERK7QString
libVideoCapture_v4lutils.so:_ZN7CaptureC1EP7QObject
libVideoCapture_v4lutils.so:_ZN7CaptureC2EP7QObject
libVideoCapture_v4lutils.so:_ZN7CaptureD0Ev
libVideoCapture_v4lutils.so:_ZN7CaptureD1Ev
libVideoCapture_v4lutils.so:_ZN7CaptureD2Ev
libVideoCapture_v4lutils.so:_ZNK11CaptureV4L210metaObjectEv
libVideoCapture_v4lutils.so:_ZNK11CaptureV4L211descriptionERK7QString
libVideoCapture_v4lutils.so:_ZNK11CaptureV4L213imageControlsEv
libVideoCapture_v4lutils.so:_ZNK11CaptureV4L214cameraControlsEv
libVideoCapture_v4lutils.so:_ZNK11CaptureV4L24capsERK7QString
libVideoCapture_v4lutils.so:_ZNK11CaptureV4L26deviceEv
libVideoCapture_v4lutils.so:_ZNK11CaptureV4L27webcamsEv
libVideoCapture_v4lutils.so:_ZNK11CaptureV4L28ioMethodEv
libVideoCapture_v4lutils.so:_ZNK11CaptureV4L28nBuffersEv
libVideoCapture_v4lutils.so:_ZNK18CaptureV4L2Private11fourccToStrEj
libVideoCapture_v4lutils.so:_ZNK18CaptureV4L2Private11setControlsEijRK4QMapI7QString8QVariantE
libVideoCapture_v4lutils.so:_ZNK18CaptureV4L2Private12findControlsEij
libVideoCapture_v4lutils.so:_ZNK18CaptureV4L2Private12queryControlEijP14v4l2_queryctrl
libVideoCapture_v4lutils.so:_ZNK18CaptureV4L2Private13controlStatusERK5QListI8QVariantE
libVideoCapture_v4lutils.so:_ZNK18CaptureV4L2Private13imageControlsEi
libVideoCapture_v4lutils.so:_ZNK18CaptureV4L2Private14cameraControlsEi
libVideoCapture_v4lutils.so:_ZNK18CaptureV4L2Private16setImageControlsEiRK4QMapI7QString8QVariantE
libVideoCapture_v4lutils.so:_ZNK18CaptureV4L2Private17setCameraControlsEiRK4QMapI7QString8QVariantE
libVideoCapture_v4lutils.so:_ZNK18CaptureV4L2Private4capsEi
libVideoCapture_v4lutils.so:_ZNK18CaptureV4L2Private7capsFpsEiRK12v4l2_fmtdescjj
libVideoCapture_v4lutils.so:_ZNK18CaptureV4L2Private7mapDiffERK4QMapI7QString8QVariantES5_
libVideoCapture_v4lutils.so:_ZNK18CaptureV4L2Private8controlsEij
libVideoCapture_v4lutils.so:_ZNK6Plugin10metaObjectEv
libVideoCapture_v4lutils.so:_ZNK6Plugin4keysEv
libVideoCapture_v4lutils.so:_ZNK7Capture10metaObjectEv
libVideoCapture_v4lutils.so:_ZNK7Capture11descriptionERK7QString
libVideoCapture_v4lutils.so:_ZNK7Capture13imageControlsEv
libVideoCapture_v4lutils.so:_ZNK7Capture14cameraControlsEv
libVideoCapture_v4lutils.so:_ZNK7Capture16isTorchSupportedEv
libVideoCapture_v4lutils.so:_ZNK7Capture16permissionStatusEv
libVideoCapture_v4lutils.so:_ZNK7Capture4capsERK7QString
libVideoCapture_v4lutils.so:_ZNK7Capture5errorEv
libVideoCapture_v4lutils.so:_ZNK7Capture6deviceEv
libVideoCapture_v4lutils.so:_ZNK7Capture7webcamsEv
libVideoCapture_v4lutils.so:_ZNK7Capture8ioMethodEv
libVideoCapture_v4lutils.so:_ZNK7Capture8nBuffersEv
libVideoCapture_v4lutils.so:_ZNK7Capture9torchModeEv
libVideoCapture_v4lutils.so:_ZThn16_N6Plugin6createERK7QStringS2_
libVideoCapture_v4lutils.so:_ZThn16_NK6Plugin4keysEv
libVideoCapture_v4lutils.so:qt_plugin_instance
libVideoCapture_v4lutils.so:qt_plugin_query_metadata_v2
libVignette.so:_Z23qInitResources_Vignettev
libVignette.so:_Z26qCleanupResources_Vignettev
libVignette.so:_ZN15VignetteElement10resetColorEv
libVignette.so:_ZN15VignetteElement10resetScaleEv
libVignette.so:_ZN15VignetteElement11qt_metacallEN11QMetaObject4CallEiPPv
libVignette.so:_ZN15VignetteElement11qt_metacastEPKc
libVignette.so:_ZN15VignetteElement11resetAspectEv
libVignette.so:_ZN15VignetteElement11setSoftnessEd
libVignette.so:_ZN15VignetteElement12colorChangedEj
libVignette.so:_ZN15VignetteElement12iVideoStreamERK13AkVideoPacket
libVignette.so:_ZN15VignetteElement12scaleChangedEd
libVignette.so:_ZN15VignetteElement13aspectChangedEd
libVignette.so:_ZN15VignetteElement13resetSoftnessEv
libVignette.so:_ZN15VignetteElement15softnessChangedEd
libVignette.so:_ZN15VignetteElement16staticMetaObjectE
libVignette.so:_ZN15VignetteElement8setColorEj
libVignette.so:_ZN15VignetteElement8setScaleEd
libVignette.so:_ZN15VignetteElement9setAspectEd
libVignette.so:_ZN15VignetteElementC1Ev
libVignette.so:_ZN15VignetteElementC2Ev
libVignette.so:_ZN15VignetteElementD0Ev
libVignette.so:_ZN15VignetteElementD1Ev
libVignette.so:_ZN15VignetteElementD2Ev
libVignette.so:_ZN22VignetteElementPrivate14updateVignetteEv
libVignette.so:_ZN8Vignette11qt_metacallEN11QMetaObject4CallEiPPv
libVignette.so:_ZN8Vignette11qt_metacastEPKc
libVignette.so:_ZN8Vignette16staticMetaObjectE
libVignette.so:_ZN8Vignette6createERK7QStringS2_
libVignette.so:_ZNK15VignetteElement10metaObjectEv
libVignette.so:_ZNK15VignetteElement23controlInterfaceProvideERK7QString
libVignette.so:_ZNK15VignetteElement25controlInterfaceConfigureEP11QQmlContextRK7QString
libVignette.so:_ZNK15VignetteElement5colorEv
libVignette.so:_ZNK15VignetteElement5scaleEv
libVignette.so:_ZNK15VignetteElement6aspectEv
libVignette.so:_ZNK15VignetteElement8softnessEv
libVignette.so:_ZNK8Vignette10metaObjectEv
libVignette.so:_ZNK8Vignette4keysEv
libVignette.so:_ZThn16_N8Vignette6createERK7QStringS2_
libVignette.so:_ZThn16_NK8Vignette4keysEv
libVignette.so:qt_plugin_instance
libVignette.so:qt_plugin_query_metadata_v2
libVirtualCamera.so:_Z28qInitResources_VirtualCamerav
libVirtualCamera.so:_Z31qCleanupResources_VirtualCamerav
libVirtualCamera.so:_ZN13VirtualCamera11qt_metacallEN11QMetaObject4CallEiPPv
libVirtualCamera.so:_ZN13VirtualCamera11qt_metacastEPKc
libVirtualCamera.so:_ZN13VirtualCamera16staticMetaObjectE
libVirtualCamera.so:_ZN13VirtualCamera6createERK7QStringS2_
libVirtualCamera.so:_ZN13VirtualCameraC1Ev
libVirtualCamera.so:_ZN13VirtualCameraC2Ev
libVirtualCamera.so:_ZN20VirtualCameraElement10editWebcamERK7QStringS2_RK5QListI11AkVideoCapsE
libVirtualCamera.so:_ZN20VirtualCameraElement10resetMediaEv
libVirtualCamera.so:_ZN20VirtualCameraElement10setPictureERK7QString
libVirtualCamera.so:_ZN20VirtualCameraElement11qt_metacallEN11QMetaObject4CallEiPPv
libVirtualCamera.so:_ZN20VirtualCameraElement11qt_metacastEPKc
libVirtualCamera.so:_ZN20VirtualCameraElement11setControlsERK4QMapI7QString8QVariantE
libVirtualCamera.so:_ZN20VirtualCameraElement12applyPictureEv
libVirtualCamera.so:_ZN20VirtualCameraElement12clearStreamsEv
libVirtualCamera.so:_ZN20VirtualCameraElement12createWebcamERK7QStringRK5QListI11AkVideoCapsE
libVirtualCamera.so:_ZN20VirtualCameraElement12errorChangedERK7QString
libVirtualCamera.so:_ZN20VirtualCameraElement12iVideoStreamERK13AkVideoPacket
libVirtualCamera.so:_ZN20VirtualCameraElement12mediaChangedERK7QString
libVirtualCamera.so:_ZN20VirtualCameraElement12removeWebcamERK7QString
libVirtualCamera.so:_ZN20VirtualCameraElement12resetPictureEv
libVirtualCamera.so:_ZN20VirtualCameraElement12updateStreamEiRK4QMapI7QString8QVariantE
libVirtualCamera.so:_ZN20VirtualCameraElement13mediasChangedERK5QListI7QStringE
libVirtualCamera.so:_ZN20VirtualCameraElement13resetControlsEv
libVirtualCamera.so:_ZN20VirtualCameraElement13setRootMethodERK7QString
libVirtualCamera.so:_ZN20VirtualCameraElement14pictureChangedERK7QString
libVirtualCamera.so:_ZN20VirtualCameraElement14streamsChangedERK5QListIiE
libVirtualCamera.so:_ZN20VirtualCameraElement15resetRootMethodEv
libVirtualCamera.so:_ZN20VirtualCameraElement16removeAllWebcamsEv
libVirtualCamera.so:_ZN20VirtualCameraElement16staticMetaObjectE
libVirtualCamera.so:_ZN20VirtualCameraElement17changeDescriptionERK7QStringS2_
libVirtualCamera.so:_ZN20VirtualCameraElement17maxCamerasChangedEi
libVirtualCamera.so:_ZN20VirtualCameraElement17rootMethodChangedERK7QString
libVirtualCamera.so:_ZN20VirtualCameraElement31defaultOutputPixelFormatChangedERKN11AkVideoCaps11PixelFormatE
libVirtualCamera.so:_ZN20VirtualCameraElement34supportedOutputPixelFormatsChangedERK5QListIN11AkVideoCaps11PixelFormatEE
libVirtualCamera.so:_ZN20VirtualCameraElement8setMediaERK7QString
libVirtualCamera.so:_ZN20VirtualCameraElement8setStateEN9AkElement12ElementStateE
libVirtualCamera.so:_ZN20VirtualCameraElement9addStreamEiRK6AkCapsRK4QMapI7QString8QVariantE
libVirtualCamera.so:_ZN20VirtualCameraElementC1Ev
libVirtualCamera.so:_ZN20VirtualCameraElementC2Ev
libVirtualCamera.so:_ZN20VirtualCameraElementD0Ev
libVirtualCamera.so:_ZN20VirtualCameraElementD1Ev
libVirtualCamera.so:_ZN20VirtualCameraElementD2Ev
libVirtualCamera.so:_ZN27VirtualCameraElementPrivate12linksChangedERK4QMapI7QStringS1_E
libVirtualCamera.so:_ZN27VirtualCameraElementPrivateC1EP20VirtualCameraElement
libVirtualCamera.so:_ZN27VirtualCameraElementPrivateC2EP20VirtualCameraElement
libVirtualCamera.so:_ZN4VCam10deviceEditERK7QStringS2_RK5QListI11AkVideoCapsE
libVirtualCamera.so:_ZN4VCam10setPictureERK7QString
libVirtualCamera.so:_ZN4VCam11qt_metacallEN11QMetaObject4CallEiPPv
libVirtualCamera.so:_ZN4VCam11qt_metacastEPKc
libVirtualCamera.so:_ZN4VCam11resetDeviceEv
libVirtualCamera.so:_ZN4VCam11setControlsERK4QMapI7QString8QVariantE
libVirtualCamera.so:_ZN4VCam12applyPictureEv
libVirtualCamera.so:_ZN4VCam12deviceCreateERK7QStringRK5QListI11AkVideoCapsE
libVirtualCamera.so:_ZN4VCam12errorChangedERK7QString
libVirtualCamera.so:_ZN4VCam12resetPictureEv
libVirtualCamera.so:_ZN4VCam13deviceChangedERK7QString
libVirtualCamera.so:_ZN4VCam13deviceDestroyERK7QString
libVirtualCamera.so:_ZN4VCam13setRootMethodERK7QString
libVirtualCamera.so:_ZN4VCam14pictureChangedERK7QString
libVirtualCamera.so:_ZN4VCam14setCurrentCapsERK11AkVideoCaps
libVirtualCamera.so:_ZN4VCam14webcamsChangedERK5QListI7QStringE
libVirtualCamera.so:_ZN4VCam15controlsChangedERK4QMapI7QString8QVariantE
libVirtualCamera.so:_ZN4VCam15resetRootMethodEv
libVirtualCamera.so:_ZN4VCam16resetCurrentCapsEv
libVirtualCamera.so:_ZN4VCam16staticMetaObjectE
libVirtualCamera.so:_ZN4VCam17changeDescriptionERK7QStringS2_
libVirtualCamera.so:_ZN4VCam17destroyAllDevicesEv
libVirtualCamera.so:_ZN4VCam17rootMethodChangedERK7QString
libVirtualCamera.so:_ZN4VCam18currentCapsChangedERK11AkVideoCaps
libVirtualCamera.so:_ZN4VCam4initEv
libVirtualCamera.so:_ZN4VCam5writeERK13AkVideoPacket
libVirtualCamera.so:_ZN4VCam6uninitEv
libVirtualCamera.so:_ZN4VCam9setDeviceERK7QString
libVirtualCamera.so:_ZN4VCamC1EP7QObject
libVirtualCamera.so:_ZN4VCamC2EP7QObject
libVirtualCamera.so:_ZNK13VirtualCamera10metaObjectEv
libVirtualCamera.so:_ZNK13VirtualCamera4keysEv
libVirtualCamera.so:_ZNK20VirtualCameraElement10maxCamerasEv
libVirtualCamera.so:_ZNK20VirtualCameraElement10metaObjectEv
libVirtualCamera.so:_ZNK20VirtualCameraElement10outputCapsERK7QString
libVirtualCamera.so:_ZNK20VirtualCameraElement10rootMethodEv
libVirtualCamera.so:_ZNK20VirtualCameraElement11clientsPidsEv
libVirtualCamera.so:_ZNK20VirtualCameraElement11descriptionERK7QString
libVirtualCamera.so:_ZNK20VirtualCameraElement13defaultStreamEN6AkCaps8CapsTypeE
libVirtualCamera.so:_ZNK20VirtualCameraElement13driverVersionEv
libVirtualCamera.so:_ZNK20VirtualCameraElement15driverInstalledEv
libVirtualCamera.so:_ZNK20VirtualCameraElement20availableRootMethodsEv
libVirtualCamera.so:_ZNK20VirtualCameraElement22canEditVCamDescriptionEv
libVirtualCamera.so:_ZNK20VirtualCameraElement23controlInterfaceProvideERK7QString
libVirtualCamera.so:_ZNK20VirtualCameraElement24defaultOutputPixelFormatEv
libVirtualCamera.so:_ZNK20VirtualCameraElement25controlInterfaceConfigureEP11QQmlContextRK7QString
libVirtualCamera.so:_ZNK20VirtualCameraElement27supportedOutputPixelFormatsEv
libVirtualCamera.so:_ZNK20VirtualCameraElement4capsEi
libVirtualCamera.so:_ZNK20VirtualCameraElement5errorEv
libVirtualCamera.so:_ZNK20VirtualCameraElement5mediaEv
libVirtualCamera.so:_ZNK20VirtualCameraElement6mediasEv
libVirtualCamera.so:_ZNK20VirtualCameraElement7pictureEv
libVirtualCamera.so:_ZNK20VirtualCameraElement7streamsEv
libVirtualCamera.so:_ZNK20VirtualCameraElement8controlsEv
libVirtualCamera.so:_ZNK20VirtualCameraElement9clientExeEy
libVirtualCamera.so:_ZNK4VCam10metaObjectEv
libVirtualCamera.so:_ZNK4VCam10rootMethodEv
libVirtualCamera.so:_ZNK4VCam11clientsPidsEv
libVirtualCamera.so:_ZNK4VCam11currentCapsEv
libVirtualCamera.so:_ZNK4VCam11descriptionERK7QString
libVirtualCamera.so:_ZNK4VCam11isInstalledEv
libVirtualCamera.so:_ZNK4VCam16installedVersionEv
libVirtualCamera.so:_ZNK4VCam20availableRootMethodsEv
libVirtualCamera.so:_ZNK4VCam22canEditVCamDescriptionEv
libVirtualCamera.so:_ZNK4VCam24defaultOutputPixelFormatEv
libVirtualCamera.so:_ZNK4VCam27supportedOutputPixelFormatsEv
libVirtualCamera.so:_ZNK4VCam4capsERK7QString
libVirtualCamera.so:_ZNK4VCam5errorEv
libVirtualCamera.so:_ZNK4VCam6deviceEv
libVirtualCamera.so:_ZNK4VCam7pictureEv
libVirtualCamera.so:_ZNK4VCam7webcamsEv
libVirtualCamera.so:_ZNK4VCam8controlsEv
libVirtualCamera.so:_ZNK4VCam9clientExeEy
libVirtualCamera.so:_ZThn16_N13VirtualCamera6createERK7QStringS2_
libVirtualCamera.so:_ZThn16_NK13VirtualCamera4keysEv
libVirtualCamera.so:qt_plugin_instance
libVirtualCamera.so:qt_plugin_query_metadata_v2
libVirtualCamera_akvcam.so:_ZN13VCamAkPrivate10stopOutputERK11v4l2_format
libVirtualCamera_akvcam.so:_ZN13VCamAkPrivate10writeFrameEPKPcRK13AkVideoPacket
libVirtualCamera_akvcam.so:_ZN13VCamAkPrivate11startOutputERK11v4l2_format
libVirtualCamera_akvcam.so:_ZN13VCamAkPrivate13initMemoryMapERK11v4l2_format
libVirtualCamera_akvcam.so:_ZN13VCamAkPrivate13initReadWriteERK11v4l2_format
libVirtualCamera_akvcam.so:_ZN13VCamAkPrivate13updateDevicesEv
libVirtualCamera_akvcam.so:_ZN13VCamAkPrivate15initUserPointerERK11v4l2_format
libVirtualCamera_akvcam.so:_ZN13VCamAkPrivate4sudoERK7QString
libVirtualCamera_akvcam.so:_ZN13VCamAkPrivate6setFpsEijRK10v4l2_fract
libVirtualCamera_akvcam.so:_ZN13VCamAkPrivateC1EP6VCamAk
libVirtualCamera_akvcam.so:_ZN13VCamAkPrivateC2EP6VCamAk
libVirtualCamera_akvcam.so:_ZN13VCamAkPrivateD1Ev
libVirtualCamera_akvcam.so:_ZN13VCamAkPrivateD2Ev
libVirtualCamera_akvcam.so:_ZN4VCam10deviceEditERK7QStringS2_RK5QListI11AkVideoCapsE
libVirtualCamera_akvcam.so:_ZN4VCam10setPictureERK7QString
libVirtualCamera_akvcam.so:_ZN4VCam11qt_metacallEN11QMetaObject4CallEiPPv
libVirtualCamera_akvcam.so:_ZN4VCam11qt_metacastEPKc
libVirtualCamera_akvcam.so:_ZN4VCam11resetDeviceEv
libVirtualCamera_akvcam.so:_ZN4VCam11setControlsERK4QMapI7QString8QVariantE
libVirtualCamera_akvcam.so:_ZN4VCam12applyPictureEv
libVirtualCamera_akvcam.so:_ZN4VCam12deviceCreateERK7QStringRK5QListI11AkVideoCapsE
libVirtualCamera_akvcam.so:_ZN4VCam12errorChangedERK7QString
libVirtualCamera_akvcam.so:_ZN4VCam12resetPictureEv
libVirtualCamera_akvcam.so:_ZN4VCam13deviceChangedERK7QString
libVirtualCamera_akvcam.so:_ZN4VCam13deviceDestroyERK7QString
libVirtualCamera_akvcam.so:_ZN4VCam13setRootMethodERK7QString
libVirtualCamera_akvcam.so:_ZN4VCam14pictureChangedERK7QString
libVirtualCamera_akvcam.so:_ZN4VCam14setCurrentCapsERK11AkVideoCaps
libVirtualCamera_akvcam.so:_ZN4VCam14webcamsChangedERK5QListI7QStringE
libVirtualCamera_akvcam.so:_ZN4VCam15controlsChangedERK4QMapI7QString8QVariantE
libVirtualCamera_akvcam.so:_ZN4VCam15resetRootMethodEv
libVirtualCamera_akvcam.so:_ZN4VCam16resetCurrentCapsEv
libVirtualCamera_akvcam.so:_ZN4VCam16staticMetaObjectE
libVirtualCamera_akvcam.so:_ZN4VCam17changeDescriptionERK7QStringS2_
libVirtualCamera_akvcam.so:_ZN4VCam17destroyAllDevicesEv
libVirtualCamera_akvcam.so:_ZN4VCam17rootMethodChangedERK7QString
libVirtualCamera_akvcam.so:_ZN4VCam18currentCapsChangedERK11AkVideoCaps
libVirtualCamera_akvcam.so:_ZN4VCam4initEv
libVirtualCamera_akvcam.so:_ZN4VCam5writeERK13AkVideoPacket
libVirtualCamera_akvcam.so:_ZN4VCam6uninitEv
libVirtualCamera_akvcam.so:_ZN4VCam9setDeviceERK7QString
libVirtualCamera_akvcam.so:_ZN4VCamC1EP7QObject
libVirtualCamera_akvcam.so:_ZN4VCamC2EP7QObject
libVirtualCamera_akvcam.so:_ZN6Plugin11qt_metacallEN11QMetaObject4CallEiPPv
libVirtualCamera_akvcam.so:_ZN6Plugin11qt_metacastEPKc
libVirtualCamera_akvcam.so:_ZN6Plugin16staticMetaObjectE
libVirtualCamera_akvcam.so:_ZN6Plugin6createERK7QStringS2_
libVirtualCamera_akvcam.so:_ZN6VCamAk10deviceEditERK7QStringS2_RK5QListI11AkVideoCapsE
libVirtualCamera_akvcam.so:_ZN6VCamAk10setPictureERK7QString
libVirtualCamera_akvcam.so:_ZN6VCamAk11qt_metacallEN11QMetaObject4CallEiPPv
libVirtualCamera_akvcam.so:_ZN6VCamAk11qt_metacastEPKc
libVirtualCamera_akvcam.so:_ZN6VCamAk11setControlsERK4QMapI7QString8QVariantE
libVirtualCamera_akvcam.so:_ZN6VCamAk12applyPictureEv
libVirtualCamera_akvcam.so:_ZN6VCamAk12deviceCreateERK7QStringRK5QListI11AkVideoCapsE
libVirtualCamera_akvcam.so:_ZN6VCamAk13deviceDestroyERK7QString
libVirtualCamera_akvcam.so:_ZN6VCamAk13setRootMethodERK7QString
libVirtualCamera_akvcam.so:_ZN6VCamAk14setCurrentCapsERK11AkVideoCaps
libVirtualCamera_akvcam.so:_ZN6VCamAk16staticMetaObjectE
libVirtualCamera_akvcam.so:_ZN6VCamAk17changeDescriptionERK7QStringS2_
libVirtualCamera_akvcam.so:_ZN6VCamAk17destroyAllDevicesEv
libVirtualCamera_akvcam.so:_ZN6VCamAk4initEv
libVirtualCamera_akvcam.so:_ZN6VCamAk5writeERK13AkVideoPacket
libVirtualCamera_akvcam.so:_ZN6VCamAk6uninitEv
libVirtualCamera_akvcam.so:_ZN6VCamAk9setDeviceERK7QString
libVirtualCamera_akvcam.so:_ZN6VCamAkC1EP7QObject
libVirtualCamera_akvcam.so:_ZN6VCamAkC2EP7QObject
libVirtualCamera_akvcam.so:_ZN6VCamAkD0Ev
libVirtualCamera_akvcam.so:_ZN6VCamAkD1Ev
libVirtualCamera_akvcam.so:_ZN6VCamAkD2Ev
libVirtualCamera_akvcam.so:_ZNK13VCamAkPrivate11devicesInfoEv
libVirtualCamera_akvcam.so:_ZNK13VCamAkPrivate11setControlsEiRK4QMapI7QString8QVariantE
libVirtualCamera_akvcam.so:_ZNK13VCamAkPrivate11setControlsEijRK4QMapI7QString8QVariantE
libVirtualCamera_akvcam.so:_ZNK13VCamAkPrivate12findControlsEij
libVirtualCamera_akvcam.so:_ZNK13VCamAkPrivate12queryControlEijP14v4l2_queryctrl
libVirtualCamera_akvcam.so:_ZNK13VCamAkPrivate13controlStatusERK5QListI8QVariantE
libVirtualCamera_akvcam.so:_ZNK13VCamAkPrivate13sysfsControlsERK7QString
libVirtualCamera_akvcam.so:_ZNK13VCamAkPrivate13waitForDeviceERK7QString
libVirtualCamera_akvcam.so:_ZNK13VCamAkPrivate14waitForDevicesERK5QListI7QStringE
libVirtualCamera_akvcam.so:_ZNK13VCamAkPrivate15readPicturePathEv
libVirtualCamera_akvcam.so:_ZNK13VCamAkPrivate15requestDeviceNREm
libVirtualCamera_akvcam.so:_ZNK13VCamAkPrivate16cleanDescriptionERK7QString
libVirtualCamera_akvcam.so:_ZNK13VCamAkPrivate16connectedDevicesERK7QString
libVirtualCamera_akvcam.so:_ZNK13VCamAkPrivate20availableRootMethodsEv
libVirtualCamera_akvcam.so:_ZNK13VCamAkPrivate7capsFpsEiRK12v4l2_fmtdescjj
libVirtualCamera_akvcam.so:_ZNK13VCamAkPrivate7formatsEi
libVirtualCamera_akvcam.so:_ZNK13VCamAkPrivate7mapDiffERK4QMapI7QString8QVariantES5_
libVirtualCamera_akvcam.so:_ZNK13VCamAkPrivate8controlsEi
libVirtualCamera_akvcam.so:_ZNK13VCamAkPrivate8controlsEij
libVirtualCamera_akvcam.so:_ZNK13VCamAkPrivate8whereBinERK7QString
libVirtualCamera_akvcam.so:_ZNK13VCamAkPrivate9formatFpsEiRK12v4l2_fmtdescjj
libVirtualCamera_akvcam.so:_ZNK4VCam10metaObjectEv
libVirtualCamera_akvcam.so:_ZNK4VCam10rootMethodEv
libVirtualCamera_akvcam.so:_ZNK4VCam11clientsPidsEv
libVirtualCamera_akvcam.so:_ZNK4VCam11currentCapsEv
libVirtualCamera_akvcam.so:_ZNK4VCam11descriptionERK7QString
libVirtualCamera_akvcam.so:_ZNK4VCam11isInstalledEv
libVirtualCamera_akvcam.so:_ZNK4VCam16installedVersionEv
libVirtualCamera_akvcam.so:_ZNK4VCam20availableRootMethodsEv
libVirtualCamera_akvcam.so:_ZNK4VCam22canEditVCamDescriptionEv
libVirtualCamera_akvcam.so:_ZNK4VCam24defaultOutputPixelFormatEv
libVirtualCamera_akvcam.so:_ZNK4VCam27supportedOutputPixelFormatsEv
libVirtualCamera_akvcam.so:_ZNK4VCam4capsERK7QString
libVirtualCamera_akvcam.so:_ZNK4VCam5errorEv
libVirtualCamera_akvcam.so:_ZNK4VCam6deviceEv
libVirtualCamera_akvcam.so:_ZNK4VCam7pictureEv
libVirtualCamera_akvcam.so:_ZNK4VCam7webcamsEv
libVirtualCamera_akvcam.so:_ZNK4VCam8controlsEv
libVirtualCamera_akvcam.so:_ZNK4VCam9clientExeEy
libVirtualCamera_akvcam.so:_ZNK6Plugin10metaObjectEv
libVirtualCamera_akvcam.so:_ZNK6Plugin4keysEv
libVirtualCamera_akvcam.so:_ZNK6VCamAk10metaObjectEv
libVirtualCamera_akvcam.so:_ZNK6VCamAk10rootMethodEv
libVirtualCamera_akvcam.so:_ZNK6VCamAk11clientsPidsEv
libVirtualCamera_akvcam.so:_ZNK6VCamAk11currentCapsEv
libVirtualCamera_akvcam.so:_ZNK6VCamAk11descriptionERK7QString
libVirtualCamera_akvcam.so:_ZNK6VCamAk11isInstalledEv
libVirtualCamera_akvcam.so:_ZNK6VCamAk16installedVersionEv
libVirtualCamera_akvcam.so:_ZNK6VCamAk20availableRootMethodsEv
libVirtualCamera_akvcam.so:_ZNK6VCamAk24defaultOutputPixelFormatEv
libVirtualCamera_akvcam.so:_ZNK6VCamAk27supportedOutputPixelFormatsEv
libVirtualCamera_akvcam.so:_ZNK6VCamAk4capsERK7QString
libVirtualCamera_akvcam.so:_ZNK6VCamAk5errorEv
libVirtualCamera_akvcam.so:_ZNK6VCamAk6deviceEv
libVirtualCamera_akvcam.so:_ZNK6VCamAk7pictureEv
libVirtualCamera_akvcam.so:_ZNK6VCamAk7webcamsEv
libVirtualCamera_akvcam.so:_ZNK6VCamAk8controlsEv
libVirtualCamera_akvcam.so:_ZNK6VCamAk9clientExeEy
libVirtualCamera_akvcam.so:_ZThn16_N6Plugin6createERK7QStringS2_
libVirtualCamera_akvcam.so:_ZThn16_NK6Plugin4keysEv
libVirtualCamera_akvcam.so:qt_plugin_instance
libVirtualCamera_akvcam.so:qt_plugin_query_metadata_v2
libVirtualCamera_v4l2lb.so:_ZN16VCamV4L2LoopBack10deviceEditERK7QStringS2_RK5QListI11AkVideoCapsE
libVirtualCamera_v4l2lb.so:_ZN16VCamV4L2LoopBack11qt_metacallEN11QMetaObject4CallEiPPv
libVirtualCamera_v4l2lb.so:_ZN16VCamV4L2LoopBack11qt_metacastEPKc
libVirtualCamera_v4l2lb.so:_ZN16VCamV4L2LoopBack11setControlsERK4QMapI7QString8QVariantE
libVirtualCamera_v4l2lb.so:_ZN16VCamV4L2LoopBack12deviceCreateERK7QStringRK5QListI11AkVideoCapsE
libVirtualCamera_v4l2lb.so:_ZN16VCamV4L2LoopBack13deviceDestroyERK7QString
libVirtualCamera_v4l2lb.so:_ZN16VCamV4L2LoopBack13setRootMethodERK7QString
libVirtualCamera_v4l2lb.so:_ZN16VCamV4L2LoopBack14setCurrentCapsERK11AkVideoCaps
libVirtualCamera_v4l2lb.so:_ZN16VCamV4L2LoopBack16staticMetaObjectE
libVirtualCamera_v4l2lb.so:_ZN16VCamV4L2LoopBack17changeDescriptionERK7QStringS2_
libVirtualCamera_v4l2lb.so:_ZN16VCamV4L2LoopBack17destroyAllDevicesEv
libVirtualCamera_v4l2lb.so:_ZN16VCamV4L2LoopBack4initEv
libVirtualCamera_v4l2lb.so:_ZN16VCamV4L2LoopBack5writeERK13AkVideoPacket
libVirtualCamera_v4l2lb.so:_ZN16VCamV4L2LoopBack6uninitEv
libVirtualCamera_v4l2lb.so:_ZN16VCamV4L2LoopBack9setDeviceERK7QString
libVirtualCamera_v4l2lb.so:_ZN16VCamV4L2LoopBackC1EP7QObject
libVirtualCamera_v4l2lb.so:_ZN16VCamV4L2LoopBackC2EP7QObject
libVirtualCamera_v4l2lb.so:_ZN16VCamV4L2LoopBackD0Ev
libVirtualCamera_v4l2lb.so:_ZN16VCamV4L2LoopBackD1Ev
libVirtualCamera_v4l2lb.so:_ZN16VCamV4L2LoopBackD2Ev
libVirtualCamera_v4l2lb.so:_ZN23VCamV4L2LoopBackPrivate10stopOutputERK11v4l2_format
libVirtualCamera_v4l2lb.so:_ZN23VCamV4L2LoopBackPrivate10writeFrameEPKPcRK13AkVideoPacket
libVirtualCamera_v4l2lb.so:_ZN23VCamV4L2LoopBackPrivate11startOutputERK11v4l2_format
libVirtualCamera_v4l2lb.so:_ZN23VCamV4L2LoopBackPrivate13initMemoryMapERK11v4l2_format
libVirtualCamera_v4l2lb.so:_ZN23VCamV4L2LoopBackPrivate13initReadWriteERK11v4l2_format
libVirtualCamera_v4l2lb.so:_ZN23VCamV4L2LoopBackPrivate13updateDevicesEv
libVirtualCamera_v4l2lb.so:_ZN23VCamV4L2LoopBackPrivate15initUserPointerERK11v4l2_format
libVirtualCamera_v4l2lb.so:_ZN23VCamV4L2LoopBackPrivate18initDefaultFormatsEv
libVirtualCamera_v4l2lb.so:_ZN23VCamV4L2LoopBackPrivate4sudoERK7QString
libVirtualCamera_v4l2lb.so:_ZN23VCamV4L2LoopBackPrivate6setFpsEijRK10v4l2_fract
libVirtualCamera_v4l2lb.so:_ZN23VCamV4L2LoopBackPrivateC1EP16VCamV4L2LoopBack
libVirtualCamera_v4l2lb.so:_ZN23VCamV4L2LoopBackPrivateC2EP16VCamV4L2LoopBack
libVirtualCamera_v4l2lb.so:_ZN23VCamV4L2LoopBackPrivateD1Ev
libVirtualCamera_v4l2lb.so:_ZN23VCamV4L2LoopBackPrivateD2Ev
libVirtualCamera_v4l2lb.so:_ZN4VCam10deviceEditERK7QStringS2_RK5QListI11AkVideoCapsE
libVirtualCamera_v4l2lb.so:_ZN4VCam10setPictureERK7QString
libVirtualCamera_v4l2lb.so:_ZN4VCam11qt_metacallEN11QMetaObject4CallEiPPv
libVirtualCamera_v4l2lb.so:_ZN4VCam11qt_metacastEPKc
libVirtualCamera_v4l2lb.so:_ZN4VCam11resetDeviceEv
libVirtualCamera_v4l2lb.so:_ZN4VCam11setControlsERK4QMapI7QString8QVariantE
libVirtualCamera_v4l2lb.so:_ZN4VCam12applyPictureEv
libVirtualCamera_v4l2lb.so:_ZN4VCam12deviceCreateERK7QStringRK5QListI11AkVideoCapsE
libVirtualCamera_v4l2lb.so:_ZN4VCam12errorChangedERK7QString
libVirtualCamera_v4l2lb.so:_ZN4VCam12resetPictureEv
libVirtualCamera_v4l2lb.so:_ZN4VCam13deviceChangedERK7QString
libVirtualCamera_v4l2lb.so:_ZN4VCam13deviceDestroyERK7QString
libVirtualCamera_v4l2lb.so:_ZN4VCam13setRootMethodERK7QString
libVirtualCamera_v4l2lb.so:_ZN4VCam14pictureChangedERK7QString
libVirtualCamera_v4l2lb.so:_ZN4VCam14setCurrentCapsERK11AkVideoCaps
libVirtualCamera_v4l2lb.so:_ZN4VCam14webcamsChangedERK5QListI7QStringE
libVirtualCamera_v4l2lb.so:_ZN4VCam15controlsChangedERK4QMapI7QString8QVariantE
libVirtualCamera_v4l2lb.so:_ZN4VCam15resetRootMethodEv
libVirtualCamera_v4l2lb.so:_ZN4VCam16resetCurrentCapsEv
libVirtualCamera_v4l2lb.so:_ZN4VCam16staticMetaObjectE
libVirtualCamera_v4l2lb.so:_ZN4VCam17changeDescriptionERK7QStringS2_
libVirtualCamera_v4l2lb.so:_ZN4VCam17destroyAllDevicesEv
libVirtualCamera_v4l2lb.so:_ZN4VCam17rootMethodChangedERK7QString
libVirtualCamera_v4l2lb.so:_ZN4VCam18currentCapsChangedERK11AkVideoCaps
libVirtualCamera_v4l2lb.so:_ZN4VCam4initEv
libVirtualCamera_v4l2lb.so:_ZN4VCam5writeERK13AkVideoPacket
libVirtualCamera_v4l2lb.so:_ZN4VCam6uninitEv
libVirtualCamera_v4l2lb.so:_ZN4VCam9setDeviceERK7QString
libVirtualCamera_v4l2lb.so:_ZN4VCamC1EP7QObject
libVirtualCamera_v4l2lb.so:_ZN4VCamC2EP7QObject
libVirtualCamera_v4l2lb.so:_ZN6Plugin11qt_metacallEN11QMetaObject4CallEiPPv
libVirtualCamera_v4l2lb.so:_ZN6Plugin11qt_metacastEPKc
libVirtualCamera_v4l2lb.so:_ZN6Plugin16staticMetaObjectE
libVirtualCamera_v4l2lb.so:_ZN6Plugin6createERK7QStringS2_
libVirtualCamera_v4l2lb.so:_ZNK16VCamV4L2LoopBack10metaObjectEv
libVirtualCamera_v4l2lb.so:_ZNK16VCamV4L2LoopBack10rootMethodEv
libVirtualCamera_v4l2lb.so:_ZNK16VCamV4L2LoopBack11clientsPidsEv
libVirtualCamera_v4l2lb.so:_ZNK16VCamV4L2LoopBack11currentCapsEv
libVirtualCamera_v4l2lb.so:_ZNK16VCamV4L2LoopBack11descriptionERK7QString
libVirtualCamera_v4l2lb.so:_ZNK16VCamV4L2LoopBack11isInstalledEv
libVirtualCamera_v4l2lb.so:_ZNK16VCamV4L2LoopBack16installedVersionEv
libVirtualCamera_v4l2lb.so:_ZNK16VCamV4L2LoopBack20availableRootMethodsEv
libVirtualCamera_v4l2lb.so:_ZNK16VCamV4L2LoopBack22canEditVCamDescriptionEv
libVirtualCamera_v4l2lb.so:_ZNK16VCamV4L2LoopBack24defaultOutputPixelFormatEv
libVirtualCamera_v4l2lb.so:_ZNK16VCamV4L2LoopBack27supportedOutputPixelFormatsEv
libVirtualCamera_v4l2lb.so:_ZNK16VCamV4L2LoopBack4capsERK7QString
libVirtualCamera_v4l2lb.so:_ZNK16VCamV4L2LoopBack5errorEv
libVirtualCamera_v4l2lb.so:_ZNK16VCamV4L2LoopBack6deviceEv
libVirtualCamera_v4l2lb.so:_ZNK16VCamV4L2LoopBack7webcamsEv
libVirtualCamera_v4l2lb.so:_ZNK16VCamV4L2LoopBack8controlsEv
libVirtualCamera_v4l2lb.so:_ZNK16VCamV4L2LoopBack9clientExeEy
libVirtualCamera_v4l2lb.so:_ZNK23VCamV4L2LoopBackPrivate11devicesInfoEv
libVirtualCamera_v4l2lb.so:_ZNK23VCamV4L2LoopBackPrivate11readFormatsER9QSettings
libVirtualCamera_v4l2lb.so:_ZNK23VCamV4L2LoopBackPrivate11setControlsEiRK4QMapI7QString8QVariantE
libVirtualCamera_v4l2lb.so:_ZNK23VCamV4L2LoopBackPrivate11setControlsEijRK4QMapI7QString8QVariantE
libVirtualCamera_v4l2lb.so:_ZNK23VCamV4L2LoopBackPrivate12findControlsEij
libVirtualCamera_v4l2lb.so:_ZNK23VCamV4L2LoopBackPrivate12queryControlEijP14v4l2_queryctrl
libVirtualCamera_v4l2lb.so:_ZNK23VCamV4L2LoopBackPrivate13combineMatrixERK5QListIS0_I7QStringEE
libVirtualCamera_v4l2lb.so:_ZNK23VCamV4L2LoopBackPrivate13controlStatusERK5QListI8QVariantE
libVirtualCamera_v4l2lb.so:_ZNK23VCamV4L2LoopBackPrivate13waitForDeviceERK7QString
libVirtualCamera_v4l2lb.so:_ZNK23VCamV4L2LoopBackPrivate14combineMatrixPERK5QListIS0_I7QStringEEmRS2_RS3_
libVirtualCamera_v4l2lb.so:_ZNK23VCamV4L2LoopBackPrivate14waitForDevicesERK5QListI7QStringE
libVirtualCamera_v4l2lb.so:_ZNK23VCamV4L2LoopBackPrivate15requestDeviceNREm
libVirtualCamera_v4l2lb.so:_ZNK23VCamV4L2LoopBackPrivate16cleanDescriptionERK7QString
libVirtualCamera_v4l2lb.so:_ZNK23VCamV4L2LoopBackPrivate18readDevicesConfigsEv
libVirtualCamera_v4l2lb.so:_ZNK23VCamV4L2LoopBackPrivate19formatsFromSettingsERK7QStringRK5QListI10DeviceInfoE
libVirtualCamera_v4l2lb.so:_ZNK23VCamV4L2LoopBackPrivate20availableRootMethodsEv
libVirtualCamera_v4l2lb.so:_ZNK23VCamV4L2LoopBackPrivate7mapDiffERK4QMapI7QString8QVariantES5_
libVirtualCamera_v4l2lb.so:_ZNK23VCamV4L2LoopBackPrivate8controlsEi
libVirtualCamera_v4l2lb.so:_ZNK23VCamV4L2LoopBackPrivate8controlsEij
libVirtualCamera_v4l2lb.so:_ZNK23VCamV4L2LoopBackPrivate8whereBinERK7QString
libVirtualCamera_v4l2lb.so:_ZNK4VCam10metaObjectEv
libVirtualCamera_v4l2lb.so:_ZNK4VCam10rootMethodEv
libVirtualCamera_v4l2lb.so:_ZNK4VCam11clientsPidsEv
libVirtualCamera_v4l2lb.so:_ZNK4VCam11currentCapsEv
libVirtualCamera_v4l2lb.so:_ZNK4VCam11descriptionERK7QString
libVirtualCamera_v4l2lb.so:_ZNK4VCam11isInstalledEv
libVirtualCamera_v4l2lb.so:_ZNK4VCam16installedVersionEv
libVirtualCamera_v4l2lb.so:_ZNK4VCam20availableRootMethodsEv
libVirtualCamera_v4l2lb.so:_ZNK4VCam22canEditVCamDescriptionEv
libVirtualCamera_v4l2lb.so:_ZNK4VCam24defaultOutputPixelFormatEv
libVirtualCamera_v4l2lb.so:_ZNK4VCam27supportedOutputPixelFormatsEv
libVirtualCamera_v4l2lb.so:_ZNK4VCam4capsERK7QString
libVirtualCamera_v4l2lb.so:_ZNK4VCam5errorEv
libVirtualCamera_v4l2lb.so:_ZNK4VCam6deviceEv
libVirtualCamera_v4l2lb.so:_ZNK4VCam7pictureEv
libVirtualCamera_v4l2lb.so:_ZNK4VCam7webcamsEv
libVirtualCamera_v4l2lb.so:_ZNK4VCam8controlsEv
libVirtualCamera_v4l2lb.so:_ZNK4VCam9clientExeEy
libVirtualCamera_v4l2lb.so:_ZNK6Plugin10metaObjectEv
libVirtualCamera_v4l2lb.so:_ZNK6Plugin4keysEv
libVirtualCamera_v4l2lb.so:_ZThn16_N6Plugin6createERK7QStringS2_
libVirtualCamera_v4l2lb.so:_ZThn16_NK6Plugin4keysEv
libVirtualCamera_v4l2lb.so:qt_plugin_instance
libVirtualCamera_v4l2lb.so:qt_plugin_query_metadata_v2
libWarhol.so:_Z21qInitResources_Warholv
libWarhol.so:_Z24qCleanupResources_Warholv
libWarhol.so:_ZN13WarholElement11qt_metacallEN11QMetaObject4CallEiPPv
libWarhol.so:_ZN13WarholElement11qt_metacastEPKc
libWarhol.so:_ZN13WarholElement11resetLevelsEv
libWarhol.so:_ZN13WarholElement11setFrameLenEi
libWarhol.so:_ZN13WarholElement12iVideoStreamERK13AkVideoPacket
libWarhol.so:_ZN13WarholElement12setLuminanceEi
libWarhol.so:_ZN13WarholElement13levelsChangedEi
libWarhol.so:_ZN13WarholElement13resetFrameLenEv
libWarhol.so:_ZN13WarholElement13setSaturationEi
libWarhol.so:_ZN13WarholElement13setShadowThHiEi
libWarhol.so:_ZN13WarholElement14resetLuminanceEv
libWarhol.so:_ZN13WarholElement14setShadowColorEj
libWarhol.so:_ZN13WarholElement14setShadowThLowEi
libWarhol.so:_ZN13WarholElement15frameLenChangedEi
libWarhol.so:_ZN13WarholElement15resetSaturationEv
libWarhol.so:_ZN13WarholElement15resetShadowThHiEv
libWarhol.so:_ZN13WarholElement16luminanceChangedEi
libWarhol.so:_ZN13WarholElement16resetShadowColorEv
libWarhol.so:_ZN13WarholElement16resetShadowThLowEv
libWarhol.so:_ZN13WarholElement16setPaletteOffsetEi
libWarhol.so:_ZN13WarholElement16staticMetaObjectE
libWarhol.so:_ZN13WarholElement17saturationChangedEi
libWarhol.so:_ZN13WarholElement17shadowThHiChangedEi
libWarhol.so:_ZN13WarholElement18resetPaletteOffsetEv
libWarhol.so:_ZN13WarholElement18shadowColorChangedEj
libWarhol.so:_ZN13WarholElement18shadowThLowChangedEi
libWarhol.so:_ZN13WarholElement20paletteOffsetChangedEi
libWarhol.so:_ZN13WarholElement9setLevelsEi
libWarhol.so:_ZN13WarholElementC1Ev
libWarhol.so:_ZN13WarholElementC2Ev
libWarhol.so:_ZN13WarholElementD0Ev
libWarhol.so:_ZN13WarholElementD1Ev
libWarhol.so:_ZN13WarholElementD2Ev
libWarhol.so:_ZN20WarholElementPrivate13createPaletteEiiiii
libWarhol.so:_ZN6Warhol11qt_metacallEN11QMetaObject4CallEiPPv
libWarhol.so:_ZN6Warhol11qt_metacastEPKc
libWarhol.so:_ZN6Warhol16staticMetaObjectE
libWarhol.so:_ZN6Warhol6createERK7QStringS2_
libWarhol.so:_ZNK13WarholElement10metaObjectEv
libWarhol.so:_ZNK13WarholElement10saturationEv
libWarhol.so:_ZNK13WarholElement10shadowThHiEv
libWarhol.so:_ZNK13WarholElement11shadowColorEv
libWarhol.so:_ZNK13WarholElement11shadowThLowEv
libWarhol.so:_ZNK13WarholElement13paletteOffsetEv
libWarhol.so:_ZNK13WarholElement23controlInterfaceProvideERK7QString
libWarhol.so:_ZNK13WarholElement25controlInterfaceConfigureEP11QQmlContextRK7QString
libWarhol.so:_ZNK13WarholElement6levelsEv
libWarhol.so:_ZNK13WarholElement8frameLenEv
libWarhol.so:_ZNK13WarholElement9luminanceEv
libWarhol.so:_ZNK20WarholElementPrivate10blackLevelERK13AkVideoPacketjii
libWarhol.so:_ZNK20WarholElementPrivate8colorizeERK13AkVideoPacketii
libWarhol.so:_ZNK6Warhol10metaObjectEv
libWarhol.so:_ZNK6Warhol4keysEv
libWarhol.so:_ZThn16_N6Warhol6createERK7QStringS2_
libWarhol.so:_ZThn16_NK6Warhol4keysEv
libWarhol.so:qt_plugin_instance
libWarhol.so:qt_plugin_query_metadata_v2
libWarp.so:_Z19qInitResources_Warpv
libWarp.so:_Z22qCleanupResources_Warpv
libWarp.so:_ZN11WarpElement10setRipplesEd
libWarp.so:_ZN11WarpElement11qt_metacallEN11QMetaObject4CallEiPPv
libWarp.so:_ZN11WarpElement11qt_metacastEPKc
libWarp.so:_ZN11WarpElement11setDurationEi
libWarp.so:_ZN11WarpElement12iVideoStreamERK13AkVideoPacket
libWarp.so:_ZN11WarpElement12resetRipplesEv
libWarp.so:_ZN11WarpElement13resetDurationEv
libWarp.so:_ZN11WarpElement14ripplesChangedEd
libWarp.so:_ZN11WarpElement15durationChangedEi
libWarp.so:_ZN11WarpElement16staticMetaObjectE
libWarp.so:_ZN11WarpElementC1Ev
libWarp.so:_ZN11WarpElementC2Ev
libWarp.so:_ZN11WarpElementD0Ev
libWarp.so:_ZN11WarpElementD1Ev
libWarp.so:_ZN11WarpElementD2Ev
libWarp.so:_ZN18WarpElementPrivate14updatePhyTableEii
libWarp.so:_ZN4Warp11qt_metacallEN11QMetaObject4CallEiPPv
libWarp.so:_ZN4Warp11qt_metacastEPKc
libWarp.so:_ZN4Warp16staticMetaObjectE
libWarp.so:_ZN4Warp6createERK7QStringS2_
libWarp.so:_ZNK11WarpElement10metaObjectEv
libWarp.so:_ZNK11WarpElement23controlInterfaceProvideERK7QString
libWarp.so:_ZNK11WarpElement25controlInterfaceConfigureEP11QQmlContextRK7QString
libWarp.so:_ZNK11WarpElement7ripplesEv
libWarp.so:_ZNK11WarpElement8durationEv
libWarp.so:_ZNK4Warp10metaObjectEv
libWarp.so:_ZNK4Warp4keysEv
libWarp.so:_ZThn16_N4Warp6createERK7QStringS2_
libWarp.so:_ZThn16_NK4Warp4keysEv
libWarp.so:qt_plugin_instance
libWarp.so:qt_plugin_query_metadata_v2
libWave.so:_Z19qInitResources_Wavev
libWave.so:_Z22qCleanupResources_Wavev
libWave.so:_ZN11WaveElement11qt_metacallEN11QMetaObject4CallEiPPv
libWave.so:_ZN11WaveElement11qt_metacastEPKc
libWave.so:_ZN11WaveElement11resetPhaseXEv
libWave.so:_ZN11WaveElement11resetPhaseYEv
libWave.so:_ZN11WaveElement12iVideoStreamERK13AkVideoPacket
libWave.so:_ZN11WaveElement13phaseXChangedEd
libWave.so:_ZN11WaveElement13phaseYChangedEd
libWave.so:_ZN11WaveElement13setAmplitudeYEd
libWave.so:_ZN11WaveElement13setFrequencyXEd
libWave.so:_ZN11WaveElement13setFrequencyYEd
libWave.so:_ZN11WaveElement15resetAmplitudeXEv
libWave.so:_ZN11WaveElement15resetAmplitudeYEv
libWave.so:_ZN11WaveElement15resetFrequencyXEv
libWave.so:_ZN11WaveElement15resetFrequencyYEv
libWave.so:_ZN11WaveElement16staticMetaObjectE
libWave.so:_ZN11WaveElement17amplitudeXChangedEd
libWave.so:_ZN11WaveElement17amplitudeYChangedEd
libWave.so:_ZN11WaveElement17frequencyXChangedEd
libWave.so:_ZN11WaveElement17frequencyYChangedEd
libWave.so:_ZN11WaveElement9setPhaseXEd
libWave.so:_ZN11WaveElement9setPhaseYEd
libWave.so:_ZN11WaveElementC1Ev
libWave.so:_ZN11WaveElementC2Ev
libWave.so:_ZN11WaveElementD0Ev
libWave.so:_ZN11WaveElementD1Ev
libWave.so:_ZN11WaveElementD2Ev
libWave.so:_ZN18WaveElementPrivate13updateSineMapEv
libWave.so:_ZN4Wave11qt_metacallEN11QMetaObject4CallEiPPv
libWave.so:_ZN4Wave11qt_metacastEPKc
libWave.so:_ZN4Wave16staticMetaObjectE
libWave.so:_ZN4Wave6createERK7QStringS2_
libWave.so:_ZNK11WaveElement10amplitudeXEv
libWave.so:_ZNK11WaveElement10amplitudeYEv
libWave.so:_ZNK11WaveElement10frequencyXEv
libWave.so:_ZNK11WaveElement10frequencyYEv
libWave.so:_ZNK11WaveElement10metaObjectEv
libWave.so:_ZNK11WaveElement23controlInterfaceProvideERK7QString
libWave.so:_ZNK11WaveElement25controlInterfaceConfigureEP11QQmlContextRK7QString
libWave.so:_ZNK11WaveElement6phaseXEv
libWave.so:_ZNK11WaveElement6phaseYEv
libWave.so:_ZNK4Wave10metaObjectEv
libWave.so:_ZNK4Wave4keysEv
libWave.so:_ZThn16_N4Wave6createERK7QStringS2_
libWave.so:_ZThn16_NK4Wave4keysEv
libWave.so:qt_plugin_instance
libWave.so:qt_plugin_query_metadata_v2
libZoom.so:_Z19qInitResources_Zoomv
libZoom.so:_Z22qCleanupResources_Zoomv
libZoom.so:_ZN11ZoomElement11qt_metacallEN11QMetaObject4CallEiPPv
libZoom.so:_ZN11ZoomElement11qt_metacastEPKc
libZoom.so:_ZN11ZoomElement11zoomChangedEd
libZoom.so:_ZN11ZoomElement12iVideoStreamERK13AkVideoPacket
libZoom.so:_ZN11ZoomElement16staticMetaObjectE
libZoom.so:_ZN11ZoomElement7setZoomEd
libZoom.so:_ZN11ZoomElement9resetZoomEv
libZoom.so:_ZN11ZoomElementC1Ev
libZoom.so:_ZN11ZoomElementC2Ev
libZoom.so:_ZN11ZoomElementD0Ev
libZoom.so:_ZN11ZoomElementD1Ev
libZoom.so:_ZN11ZoomElementD2Ev
libZoom.so:_ZN18ZoomElementPrivate16configureScalingERK11AkVideoCapsd
libZoom.so:_ZN18ZoomElementPrivate9configureERK11AkVideoCaps
libZoom.so:_ZN4Zoom11qt_metacallEN11QMetaObject4CallEiPPv
libZoom.so:_ZN4Zoom11qt_metacastEPKc
libZoom.so:_ZN4Zoom16staticMetaObjectE
libZoom.so:_ZN4Zoom6createERK7QStringS2_
libZoom.so:_ZNK11ZoomElement10metaObjectEv
libZoom.so:_ZNK11ZoomElement23controlInterfaceProvideERK7QString
libZoom.so:_ZNK11ZoomElement25controlInterfaceConfigureEP11QQmlContextRK7QString
libZoom.so:_ZNK11ZoomElement4zoomEv
libZoom.so:_ZNK4Zoom10metaObjectEv
libZoom.so:_ZNK4Zoom4keysEv
libZoom.so:_ZThn16_N4Zoom6createERK7QStringS2_
libZoom.so:_ZThn16_NK4Zoom4keysEv
libZoom.so:qt_plugin_instance
libZoom.so:qt_plugin_query_metadata_v2
libavkys.so.9:_Z20qInitResources_AvKysv
libavkys.so.9:_Z23qCleanupResources_AvKysv
libavkys.so.9:_ZN11AkAudioCaps10endiannessENS_12SampleFormatE
libavkys.so.9:_ZN11AkAudioCaps10sampleTypeENS_12SampleFormatE
libavkys.so.9:_ZN11AkAudioCaps11qt_metacallEN11QMetaObject4CallEiPPv
libavkys.so.9:_ZN11AkAudioCaps11qt_metacastEPKc
libavkys.so.9:_ZN11AkAudioCaps11rateChangedEi
libavkys.so.9:_ZN11AkAudioCaps11resetFormatEv
libavkys.so.9:_ZN11AkAudioCaps11resetLayoutEv
libavkys.so.9:_ZN11AkAudioCaps11resetPlanarEv
libavkys.so.9:_ZN11AkAudioCaps12channelCountENS_13ChannelLayoutE
libavkys.so.9:_ZN11AkAudioCaps13bitsPerSampleENS_12SampleFormatE
libavkys.so.9:_ZN11AkAudioCaps13formatChangedENS_12SampleFormatE
libavkys.so.9:_ZN11AkAudioCaps13layoutChangedENS_13ChannelLayoutE
libavkys.so.9:_ZN11AkAudioCaps13planarChangedEb
libavkys.so.9:_ZN11AkAudioCaps13registerTypesEv
libavkys.so.9:_ZN11AkAudioCaps14distanceFactorENS_8PositionES0_
libavkys.so.9:_ZN11AkAudioCaps14distanceFactorESt4pairIddES1_
libavkys.so.9:_ZN11AkAudioCaps16staticMetaObjectE
libavkys.so.9:_ZN11AkAudioCaps20defaultChannelLayoutEi
libavkys.so.9:_ZN11AkAudioCaps20sampleFormatToStringENS_12SampleFormatE
libavkys.so.9:_ZN11AkAudioCaps21channelLayoutToStringENS_13ChannelLayoutE
libavkys.so.9:_ZN11AkAudioCaps22sampleFormatPropertiesENS_12SampleFormatEPNS_10SampleTypeEPiS3_
libavkys.so.9:_ZN11AkAudioCaps26channelLayoutFromPositionsERK5QListINS_8PositionEE
libavkys.so.9:_ZN11AkAudioCaps26sampleFormatFromPropertiesENS_10SampleTypeEii
libavkys.so.9:_ZN11AkAudioCaps6createENS_12SampleFormatENS_13ChannelLayoutEbi
libavkys.so.9:_ZN11AkAudioCaps6createERK6AkCaps
libavkys.so.9:_ZN11AkAudioCaps6createERKS_
libavkys.so.9:_ZN11AkAudioCaps6createEv
libavkys.so.9:_ZN11AkAudioCaps7setRateEi
libavkys.so.9:_ZN11AkAudioCaps8positionENS_8PositionE
libavkys.so.9:_ZN11AkAudioCaps9positionsENS_13ChannelLayoutE
libavkys.so.9:_ZN11AkAudioCaps9resetRateEv
libavkys.so.9:_ZN11AkAudioCaps9setFormatENS_12SampleFormatE
libavkys.so.9:_ZN11AkAudioCaps9setLayoutENS_13ChannelLayoutE
libavkys.so.9:_ZN11AkAudioCaps9setPlanarEb
libavkys.so.9:_ZN11AkAudioCapsC1ENS_12SampleFormatENS_13ChannelLayoutEbi
libavkys.so.9:_ZN11AkAudioCapsC1EP7QObject
libavkys.so.9:_ZN11AkAudioCapsC1ERK6AkCaps
libavkys.so.9:_ZN11AkAudioCapsC1ERKS_
libavkys.so.9:_ZN11AkAudioCapsC2ENS_12SampleFormatENS_13ChannelLayoutEbi
libavkys.so.9:_ZN11AkAudioCapsC2EP7QObject
libavkys.so.9:_ZN11AkAudioCapsC2ERK6AkCaps
libavkys.so.9:_ZN11AkAudioCapsC2ERKS_
libavkys.so.9:_ZN11AkAudioCapsD0Ev
libavkys.so.9:_ZN11AkAudioCapsD1Ev
libavkys.so.9:_ZN11AkAudioCapsD2Ev
libavkys.so.9:_ZN11AkAudioCapsaSERK6AkCaps
libavkys.so.9:_ZN11AkAudioCapsaSERKS_
libavkys.so.9:_ZN11AkVideoCaps10fpsChangedERK6AkFrac
libavkys.so.9:_ZN11AkVideoCaps10resetWidthEv
libavkys.so.9:_ZN11AkVideoCaps11formatSpecsENS_11PixelFormatE
libavkys.so.9:_ZN11AkVideoCaps11qt_metacallEN11QMetaObject4CallEiPPv
libavkys.so.9:_ZN11AkVideoCaps11qt_metacastEPKc
libavkys.so.9:_ZN11AkVideoCaps11resetFormatEv
libavkys.so.9:_ZN11AkVideoCaps11resetHeightEv
libavkys.so.9:_ZN11AkVideoCaps11sizeChangedERK5QSize
libavkys.so.9:_ZN11AkVideoCaps12bitsPerPixelENS_11PixelFormatE
libavkys.so.9:_ZN11AkVideoCaps12widthChangedEi
libavkys.so.9:_ZN11AkVideoCaps13formatChangedENS_11PixelFormatE
libavkys.so.9:_ZN11AkVideoCaps13heightChangedEi
libavkys.so.9:_ZN11AkVideoCaps13registerTypesEv
libavkys.so.9:_ZN11AkVideoCaps16staticMetaObjectE
libavkys.so.9:_ZN11AkVideoCaps19pixelFormatToStringENS_11PixelFormatE
libavkys.so.9:_ZN11AkVideoCaps3fpsEv
libavkys.so.9:_ZN11AkVideoCaps6createENS_11PixelFormatERK5QSizeRK6AkFrac
libavkys.so.9:_ZN11AkVideoCaps6createENS_11PixelFormatEiiRK6AkFrac
libavkys.so.9:_ZN11AkVideoCaps6createERK6AkCaps
libavkys.so.9:_ZN11AkVideoCaps6createERKS_
libavkys.so.9:_ZN11AkVideoCaps6createEv
libavkys.so.9:_ZN11AkVideoCaps6setFpsERK6AkFrac
libavkys.so.9:_ZN11AkVideoCaps7setSizeERK5QSize
libavkys.so.9:_ZN11AkVideoCaps8resetFpsEv
libavkys.so.9:_ZN11AkVideoCaps8setWidthEi
libavkys.so.9:_ZN11AkVideoCaps9resetSizeEv
libavkys.so.9:_ZN11AkVideoCaps9setFormatENS_11PixelFormatE
libavkys.so.9:_ZN11AkVideoCaps9setHeightEi
libavkys.so.9:_ZN11AkVideoCapsC1ENS_11PixelFormatERK5QSizeRK6AkFrac
libavkys.so.9:_ZN11AkVideoCapsC1ENS_11PixelFormatEiiRK6AkFrac
libavkys.so.9:_ZN11AkVideoCapsC1EP7QObject
libavkys.so.9:_ZN11AkVideoCapsC1ERK6AkCaps
libavkys.so.9:_ZN11AkVideoCapsC1ERKS_
libavkys.so.9:_ZN11AkVideoCapsC2ENS_11PixelFormatERK5QSizeRK6AkFrac
libavkys.so.9:_ZN11AkVideoCapsC2ENS_11PixelFormatEiiRK6AkFrac
libavkys.so.9:_ZN11AkVideoCapsC2EP7QObject
libavkys.so.9:_ZN11AkVideoCapsC2ERK6AkCaps
libavkys.so.9:_ZN11AkVideoCapsC2ERKS_
libavkys.so.9:_ZN11AkVideoCapsD0Ev
libavkys.so.9:_ZN11AkVideoCapsD1Ev
libavkys.so.9:_ZN11AkVideoCapsD2Ev
libavkys.so.9:_ZN11AkVideoCapsaSERK6AkCaps
libavkys.so.9:_ZN11AkVideoCapsaSERKS_
libavkys.so.9:_ZN12AkColorPlane11qt_metacallEN11QMetaObject4CallEiPPv
libavkys.so.9:_ZN12AkColorPlane11qt_metacastEPKc
libavkys.so.9:_ZN12AkColorPlane13registerTypesEv
libavkys.so.9:_ZN12AkColorPlane16staticMetaObjectE
libavkys.so.9:_ZN12AkColorPlane6createERK5QListI16AkColorComponentEm
libavkys.so.9:_ZN12AkColorPlane6createERKS_
libavkys.so.9:_ZN12AkColorPlane6createEv
libavkys.so.9:_ZN12AkColorPlaneC1EP7QObject
libavkys.so.9:_ZN12AkColorPlaneC1ERK5QListI16AkColorComponentEm
libavkys.so.9:_ZN12AkColorPlaneC1ERKS_
libavkys.so.9:_ZN12AkColorPlaneC2EP7QObject
libavkys.so.9:_ZN12AkColorPlaneC2ERK5QListI16AkColorComponentEm
libavkys.so.9:_ZN12AkColorPlaneC2ERKS_
libavkys.so.9:_ZN12AkColorPlaneD0Ev
libavkys.so.9:_ZN12AkColorPlaneD1Ev
libavkys.so.9:_ZN12AkColorPlaneD2Ev
libavkys.so.9:_ZN12AkColorPlaneaSERKS_
libavkys.so.9:_ZN12AkPacketBase10ptsChangedEx
libavkys.so.9:_ZN12AkPacketBase10resetIndexEv
libavkys.so.9:_ZN12AkPacketBase11qt_metacallEN11QMetaObject4CallEiPPv
libavkys.so.9:_ZN12AkPacketBase11qt_metacastEPKc
libavkys.so.9:_ZN12AkPacketBase11setTimeBaseERK6AkFrac
libavkys.so.9:_ZN12AkPacketBase12copyMetadataERKS_
libavkys.so.9:_ZN12AkPacketBase12indexChangedEi
libavkys.so.9:_ZN12AkPacketBase13resetTimeBaseEv
libavkys.so.9:_ZN12AkPacketBase15timeBaseChangedERK6AkFrac
libavkys.so.9:_ZN12AkPacketBase16staticMetaObjectE
libavkys.so.9:_ZN12AkPacketBase5setIdEx
libavkys.so.9:_ZN12AkPacketBase6setPtsEx
libavkys.so.9:_ZN12AkPacketBase7resetIdEv
libavkys.so.9:_ZN12AkPacketBase8resetPtsEv
libavkys.so.9:_ZN12AkPacketBase8setIndexEi
libavkys.so.9:_ZN12AkPacketBase9idChangedEx
libavkys.so.9:_ZN12AkPacketBaseC1EP7QObject
libavkys.so.9:_ZN12AkPacketBaseC1ERKS_
libavkys.so.9:_ZN12AkPacketBaseC2EP7QObject
libavkys.so.9:_ZN12AkPacketBaseC2ERKS_
libavkys.so.9:_ZN12AkPacketBaseD0Ev
libavkys.so.9:_ZN12AkPacketBaseD1Ev
libavkys.so.9:_ZN12AkPacketBaseD2Ev
libavkys.so.9:_ZN12AkPluginInfo11qt_metacallEN11QMetaObject4CallEiPPv
libavkys.so.9:_ZN12AkPluginInfo11qt_metacastEPKc
libavkys.so.9:_ZN12AkPluginInfo13registerTypesEv
libavkys.so.9:_ZN12AkPluginInfo16staticMetaObjectE
libavkys.so.9:_ZN12AkPluginInfo6createERKS_
libavkys.so.9:_ZN12AkPluginInfoC1EP7QObject
libavkys.so.9:_ZN12AkPluginInfoC1ERK4QMapI7QString8QVariantE
libavkys.so.9:_ZN12AkPluginInfoC1ERKS_
libavkys.so.9:_ZN12AkPluginInfoC2EP7QObject
libavkys.so.9:_ZN12AkPluginInfoC2ERK4QMapI7QString8QVariantE
libavkys.so.9:_ZN12AkPluginInfoC2ERKS_
libavkys.so.9:_ZN12AkPluginInfoD0Ev
libavkys.so.9:_ZN12AkPluginInfoD1Ev
libavkys.so.9:_ZN12AkPluginInfoD2Ev
libavkys.so.9:_ZN12AkPluginInfoaSERKS_
libavkys.so.9:_ZN12AkVideoMixer10resetFlagsEv
libavkys.so.9:_ZN12AkVideoMixer11qt_metacallEN11QMetaObject4CallEiPPv
libavkys.so.9:_ZN12AkVideoMixer11qt_metacastEPKc
libavkys.so.9:_ZN12AkVideoMixer12flagsChangedERK6QFlagsINS_9MixerFlagEE
libavkys.so.9:_ZN12AkVideoMixer13registerTypesEv
libavkys.so.9:_ZN12AkVideoMixer13setCacheIndexEi
libavkys.so.9:_ZN12AkVideoMixer16staticMetaObjectE
libavkys.so.9:_ZN12AkVideoMixer3endEv
libavkys.so.9:_ZN12AkVideoMixer4drawERK13AkVideoPacket
libavkys.so.9:_ZN12AkVideoMixer4drawEiiRK13AkVideoPacket
libavkys.so.9:_ZN12AkVideoMixer5beginEP13AkVideoPacket
libavkys.so.9:_ZN12AkVideoMixer5resetEv
libavkys.so.9:_ZN12AkVideoMixer6createEv
libavkys.so.9:_ZN12AkVideoMixer8setFlagsERK6QFlagsINS_9MixerFlagEE
libavkys.so.9:_ZN12AkVideoMixerC1EP7QObject
libavkys.so.9:_ZN12AkVideoMixerC1ERKS_
libavkys.so.9:_ZN12AkVideoMixerC2EP7QObject
libavkys.so.9:_ZN12AkVideoMixerC2ERKS_
libavkys.so.9:_ZN12AkVideoMixerD0Ev
libavkys.so.9:_ZN12AkVideoMixerD1Ev
libavkys.so.9:_ZN12AkVideoMixerD2Ev
libavkys.so.9:_ZN12AkVideoMixeraSERKS_
libavkys.so.9:_ZN13AkAudioPacket11qt_metacallEN11QMetaObject4CallEiPPv
libavkys.so.9:_ZN13AkAudioPacket11qt_metacastEPKc
libavkys.so.9:_ZN13AkAudioPacket13registerTypesEv
libavkys.so.9:_ZN13AkAudioPacket16staticMetaObjectE
libavkys.so.9:_ZN13AkAudioPacket3popEi
libavkys.so.9:_ZN13AkAudioPacket4dataEv
libavkys.so.9:_ZN13AkAudioPacket5planeEi
libavkys.so.9:_ZN13AkAudioPacket6sampleEii
libavkys.so.9:_ZN13AkAudioPacket9setSampleEiiPKh
libavkys.so.9:_ZN13AkAudioPacketC1EP7QObject
libavkys.so.9:_ZN13AkAudioPacketC1ERK11AkAudioCapsmb
libavkys.so.9:_ZN13AkAudioPacketC1ERK8AkPacket
libavkys.so.9:_ZN13AkAudioPacketC1ERKS_
libavkys.so.9:_ZN13AkAudioPacketC1EmRK11AkAudioCapsb
libavkys.so.9:_ZN13AkAudioPacketC2EP7QObject
libavkys.so.9:_ZN13AkAudioPacketC2ERK11AkAudioCapsmb
libavkys.so.9:_ZN13AkAudioPacketC2ERK8AkPacket
libavkys.so.9:_ZN13AkAudioPacketC2ERKS_
libavkys.so.9:_ZN13AkAudioPacketC2EmRK11AkAudioCapsb
libavkys.so.9:_ZN13AkAudioPacketD0Ev
libavkys.so.9:_ZN13AkAudioPacketD1Ev
libavkys.so.9:_ZN13AkAudioPacketD2Ev
libavkys.so.9:_ZN13AkAudioPacketaSERK8AkPacket
libavkys.so.9:_ZN13AkAudioPacketaSERKS_
libavkys.so.9:_ZN13AkAudioPacketpLERKS_
libavkys.so.9:_ZN13AkAudioPacketplERKS_
libavkys.so.9:_ZN13AkUnitPrivate12updatePixelsEv
libavkys.so.9:_ZN13AkUnitPrivate14matchClassNameEPK7QObjectRK5QListI7QStringE
libavkys.so.9:_ZN13AkUnitPrivate16updateScreenInfoEb
libavkys.so.9:_ZN13AkUnitPrivate17updateScaleFactorEv
libavkys.so.9:_ZN13AkUnitPrivate8unitsMapEv
libavkys.so.9:_ZN13AkUnitPrivate9updateDpiEPK7QScreen
libavkys.so.9:_ZN13AkUnitPrivateC1EP6AkUnit
libavkys.so.9:_ZN13AkUnitPrivateC2EP6AkUnit
libavkys.so.9:_ZN13AkVideoPacket11qt_metacallEN11QMetaObject4CallEiPPv
libavkys.so.9:_ZN13AkVideoPacket11qt_metacastEPKc
libavkys.so.9:_ZN13AkVideoPacket13registerTypesEv
libavkys.so.9:_ZN13AkVideoPacket16staticMetaObjectE
libavkys.so.9:_ZN13AkVideoPacket4dataEv
libavkys.so.9:_ZN13AkVideoPacket4lineEii
libavkys.so.9:_ZN13AkVideoPacket5planeEi
libavkys.so.9:_ZN13AkVideoPacket7fillRgbEj
libavkys.so.9:_ZN13AkVideoPacketC1EP7QObject
libavkys.so.9:_ZN13AkVideoPacketC1ERK11AkVideoCapsbm
libavkys.so.9:_ZN13AkVideoPacketC1ERK8AkPacket
libavkys.so.9:_ZN13AkVideoPacketC1ERKS_
libavkys.so.9:_ZN13AkVideoPacketC2EP7QObject
libavkys.so.9:_ZN13AkVideoPacketC2ERK11AkVideoCapsbm
libavkys.so.9:_ZN13AkVideoPacketC2ERK8AkPacket
libavkys.so.9:_ZN13AkVideoPacketC2ERKS_
libavkys.so.9:_ZN13AkVideoPacketD0Ev
libavkys.so.9:_ZN13AkVideoPacketD1Ev
libavkys.so.9:_ZN13AkVideoPacketD2Ev
libavkys.so.9:_ZN13AkVideoPacketaSERK8AkPacket
libavkys.so.9:_ZN13AkVideoPacketaSERKS_
libavkys.so.9:_ZN14AkColorConvert10loadMatrixERK17AkVideoFormatSpecS2_
libavkys.so.9:_ZN14AkColorConvert10loadMatrixERKN11AkVideoCaps11PixelFormatES3_
libavkys.so.9:_ZN14AkColorConvert11qt_metacallEN11QMetaObject4CallEiPPv
libavkys.so.9:_ZN14AkColorConvert11qt_metacastEPKc
libavkys.so.9:_ZN14AkColorConvert13registerTypesEv
libavkys.so.9:_ZN14AkColorConvert15loadAlphaMatrixEN17AkVideoFormatSpec15VideoFormatTypeEiiii
libavkys.so.9:_ZN14AkColorConvert15loadColorMatrixENS_11ColorMatrixEiiiiii
libavkys.so.9:_ZN14AkColorConvert16setYuvColorSpaceENS_13YuvColorSpaceE
libavkys.so.9:_ZN14AkColorConvert16staticMetaObjectE
libavkys.so.9:_ZN14AkColorConvert18resetYuvColorSpaceEv
libavkys.so.9:_ZN14AkColorConvert20setYuvColorSpaceTypeENS_17YuvColorSpaceTypeE
libavkys.so.9:_ZN14AkColorConvert20yuvColorSpaceChangedENS_13YuvColorSpaceE
libavkys.so.9:_ZN14AkColorConvert22resetYuvColorSpaceTypeEv
libavkys.so.9:_ZN14AkColorConvert24yuvColorSpaceTypeChangedENS_17YuvColorSpaceTypeE
libavkys.so.9:_ZN14AkColorConvertC1ENS_13YuvColorSpaceENS_17YuvColorSpaceTypeEP7QObject
libavkys.so.9:_ZN14AkColorConvertC1ENS_17YuvColorSpaceTypeEP7QObject
libavkys.so.9:_ZN14AkColorConvertC1EP7QObject
libavkys.so.9:_ZN14AkColorConvertC1ERKS_
libavkys.so.9:_ZN14AkColorConvertC2ENS_13YuvColorSpaceENS_17YuvColorSpaceTypeEP7QObject
libavkys.so.9:_ZN14AkColorConvertC2ENS_17YuvColorSpaceTypeEP7QObject
libavkys.so.9:_ZN14AkColorConvertC2EP7QObject
libavkys.so.9:_ZN14AkColorConvertC2ERKS_
libavkys.so.9:_ZN14AkColorConvertD0Ev
libavkys.so.9:_ZN14AkColorConvertD1Ev
libavkys.so.9:_ZN14AkColorConvertD2Ev
libavkys.so.9:_ZN14AkColorConvertaSERKS_
libavkys.so.9:_ZN14AkFontSettings10resetBody1Ev
libavkys.so.9:_ZN14AkFontSettings10resetBody2Ev
libavkys.so.9:_ZN14AkFontSettings10setCaptionERK5QFont
libavkys.so.9:_ZN14AkFontSettings11qt_metacallEN11QMetaObject4CallEiPPv
libavkys.so.9:_ZN14AkFontSettings11qt_metacastEPKc
libavkys.so.9:_ZN14AkFontSettings11resetButtonEv
libavkys.so.9:_ZN14AkFontSettings11setOverlineERK5QFont
libavkys.so.9:_ZN14AkFontSettings11updateFontsERK5QFont
libavkys.so.9:_ZN14AkFontSettings12body1ChangedERK5QFont
libavkys.so.9:_ZN14AkFontSettings12body2ChangedERK5QFont
libavkys.so.9:_ZN14AkFontSettings12resetCaptionEv
libavkys.so.9:_ZN14AkFontSettings12setSubtitle1ERK5QFont
libavkys.so.9:_ZN14AkFontSettings12setSubtitle2ERK5QFont
libavkys.so.9:_ZN14AkFontSettings13buttonChangedERK5QFont
libavkys.so.9:_ZN14AkFontSettings13registerTypesEv
libavkys.so.9:_ZN14AkFontSettings13resetOverlineEv
libavkys.so.9:_ZN14AkFontSettings14captionChangedERK5QFont
libavkys.so.9:_ZN14AkFontSettings14resetSubtitle1Ev
libavkys.so.9:_ZN14AkFontSettings14resetSubtitle2Ev
libavkys.so.9:_ZN14AkFontSettings15overlineChangedERK5QFont
libavkys.so.9:_ZN14AkFontSettings16staticMetaObjectE
libavkys.so.9:_ZN14AkFontSettings16subtitle1ChangedERK5QFont
libavkys.so.9:_ZN14AkFontSettings16subtitle2ChangedERK5QFont
libavkys.so.9:_ZN14AkFontSettings5setH1ERK5QFont
libavkys.so.9:_ZN14AkFontSettings5setH2ERK5QFont
libavkys.so.9:_ZN14AkFontSettings5setH3ERK5QFont
libavkys.so.9:_ZN14AkFontSettings5setH4ERK5QFont
libavkys.so.9:_ZN14AkFontSettings5setH5ERK5QFont
libavkys.so.9:_ZN14AkFontSettings5setH6ERK5QFont
libavkys.so.9:_ZN14AkFontSettings7resetH1Ev
libavkys.so.9:_ZN14AkFontSettings7resetH2Ev
libavkys.so.9:_ZN14AkFontSettings7resetH3Ev
libavkys.so.9:_ZN14AkFontSettings7resetH4Ev
libavkys.so.9:_ZN14AkFontSettings7resetH5Ev
libavkys.so.9:_ZN14AkFontSettings7resetH6Ev
libavkys.so.9:_ZN14AkFontSettings8setBody1ERK5QFont
libavkys.so.9:_ZN14AkFontSettings8setBody2ERK5QFont
libavkys.so.9:_ZN14AkFontSettings9h1ChangedERK5QFont
libavkys.so.9:_ZN14AkFontSettings9h2ChangedERK5QFont
libavkys.so.9:_ZN14AkFontSettings9h3ChangedERK5QFont
libavkys.so.9:_ZN14AkFontSettings9h4ChangedERK5QFont
libavkys.so.9:_ZN14AkFontSettings9h5ChangedERK5QFont
libavkys.so.9:_ZN14AkFontSettings9h6ChangedERK5QFont
libavkys.so.9:_ZN14AkFontSettings9setButtonERK5QFont
libavkys.so.9:_ZN14AkFontSettingsC1EP7QObject
libavkys.so.9:_ZN14AkFontSettingsC1ERK5QFont
libavkys.so.9:_ZN14AkFontSettingsC1ERKS_
libavkys.so.9:_ZN14AkFontSettingsC2EP7QObject
libavkys.so.9:_ZN14AkFontSettingsC2ERK5QFont
libavkys.so.9:_ZN14AkFontSettingsC2ERKS_
libavkys.so.9:_ZN14AkFontSettingsD0Ev
libavkys.so.9:_ZN14AkFontSettingsD1Ev
libavkys.so.9:_ZN14AkFontSettingsD2Ev
libavkys.so.9:_ZN14AkFontSettingsaSERKS_
libavkys.so.9:_ZN14AkPaletteGroup10midChangedERK6QColor
libavkys.so.9:_ZN14AkPaletteGroup10resetLightEv
libavkys.so.9:_ZN14AkPaletteGroup11baseChangedERK6QColor
libavkys.so.9:_ZN14AkPaletteGroup11darkChangedERK6QColor
libavkys.so.9:_ZN14AkPaletteGroup11linkChangedERK6QColor
libavkys.so.9:_ZN14AkPaletteGroup11qt_metacallEN11QMetaObject4CallEiPPv
libavkys.so.9:_ZN14AkPaletteGroup11qt_metacastEPKc
libavkys.so.9:_ZN14AkPaletteGroup11resetButtonEv
libavkys.so.9:_ZN14AkPaletteGroup11resetShadowEv
libavkys.so.9:_ZN14AkPaletteGroup11resetWindowEv
libavkys.so.9:_ZN14AkPaletteGroup11setMidlightERK6QColor
libavkys.so.9:_ZN14AkPaletteGroup11textChangedERK6QColor
libavkys.so.9:_ZN14AkPaletteGroup12lightChangedERK6QColor
libavkys.so.9:_ZN14AkPaletteGroup12setHighlightERK6QColor
libavkys.so.9:_ZN14AkPaletteGroup13buttonChangedERK6QColor
libavkys.so.9:_ZN14AkPaletteGroup13registerTypesEv
libavkys.so.9:_ZN14AkPaletteGroup13resetMidlightEv
libavkys.so.9:_ZN14AkPaletteGroup13setButtonTextERK6QColor
libavkys.so.9:_ZN14AkPaletteGroup13setWindowTextERK6QColor
libavkys.so.9:_ZN14AkPaletteGroup13shadowChangedERK6QColor
libavkys.so.9:_ZN14AkPaletteGroup13updatePaletteERK8QPalette
libavkys.so.9:_ZN14AkPaletteGroup13windowChangedERK6QColor
libavkys.so.9:_ZN14AkPaletteGroup14resetHighlightEv
libavkys.so.9:_ZN14AkPaletteGroup14setLinkVisitedERK6QColor
libavkys.so.9:_ZN14AkPaletteGroup14setToolTipBaseERK6QColor
libavkys.so.9:_ZN14AkPaletteGroup14setToolTipTextERK6QColor
libavkys.so.9:_ZN14AkPaletteGroup15midlightChangedERK6QColor
libavkys.so.9:_ZN14AkPaletteGroup15resetButtonTextEv
libavkys.so.9:_ZN14AkPaletteGroup15resetWindowTextEv
libavkys.so.9:_ZN14AkPaletteGroup16highlightChangedERK6QColor
libavkys.so.9:_ZN14AkPaletteGroup16resetLinkVisitedEv
libavkys.so.9:_ZN14AkPaletteGroup16resetToolTipBaseEv
libavkys.so.9:_ZN14AkPaletteGroup16resetToolTipTextEv
libavkys.so.9:_ZN14AkPaletteGroup16staticMetaObjectE
libavkys.so.9:_ZN14AkPaletteGroup17buttonTextChangedERK6QColor
libavkys.so.9:_ZN14AkPaletteGroup17windowTextChangedERK6QColor
libavkys.so.9:_ZN14AkPaletteGroup18linkVisitedChangedERK6QColor
libavkys.so.9:_ZN14AkPaletteGroup18setHighlightedTextERK6QColor
libavkys.so.9:_ZN14AkPaletteGroup18setPlaceholderTextERK6QColor
libavkys.so.9:_ZN14AkPaletteGroup18toolTipBaseChangedERK6QColor
libavkys.so.9:_ZN14AkPaletteGroup18toolTipTextChangedERK6QColor
libavkys.so.9:_ZN14AkPaletteGroup20resetHighlightedTextEv
libavkys.so.9:_ZN14AkPaletteGroup20resetPlaceholderTextEv
libavkys.so.9:_ZN14AkPaletteGroup22highlightedTextChangedERK6QColor
libavkys.so.9:_ZN14AkPaletteGroup22placeholderTextChangedERK6QColor
libavkys.so.9:_ZN14AkPaletteGroup6setMidERK6QColor
libavkys.so.9:_ZN14AkPaletteGroup7setBaseERK6QColor
libavkys.so.9:_ZN14AkPaletteGroup7setDarkERK6QColor
libavkys.so.9:_ZN14AkPaletteGroup7setLinkERK6QColor
libavkys.so.9:_ZN14AkPaletteGroup7setTextERK6QColor
libavkys.so.9:_ZN14AkPaletteGroup8resetMidEv
libavkys.so.9:_ZN14AkPaletteGroup8setLightERK6QColor
libavkys.so.9:_ZN14AkPaletteGroup9resetBaseEv
libavkys.so.9:_ZN14AkPaletteGroup9resetDarkEv
libavkys.so.9:_ZN14AkPaletteGroup9resetLinkEv
libavkys.so.9:_ZN14AkPaletteGroup9resetTextEv
libavkys.so.9:_ZN14AkPaletteGroup9setButtonERK6QColor
libavkys.so.9:_ZN14AkPaletteGroup9setShadowERK6QColor
libavkys.so.9:_ZN14AkPaletteGroup9setWindowERK6QColor
libavkys.so.9:_ZN14AkPaletteGroupC1EN8QPalette10ColorGroupE
libavkys.so.9:_ZN14AkPaletteGroupC1EP7QObject
libavkys.so.9:_ZN14AkPaletteGroupC1ERKS_
libavkys.so.9:_ZN14AkPaletteGroupC2EN8QPalette10ColorGroupE
libavkys.so.9:_ZN14AkPaletteGroupC2EP7QObject
libavkys.so.9:_ZN14AkPaletteGroupC2ERKS_
libavkys.so.9:_ZN14AkPaletteGroupD0Ev
libavkys.so.9:_ZN14AkPaletteGroupD1Ev
libavkys.so.9:_ZN14AkPaletteGroupD2Ev
libavkys.so.9:_ZN14AkPaletteGroupaSERKS_
libavkys.so.9:_ZN14AkSubtitleCaps11qt_metacallEN11QMetaObject4CallEiPPv
libavkys.so.9:_ZN14AkSubtitleCaps11qt_metacastEPKc
libavkys.so.9:_ZN14AkSubtitleCaps11rectChangedERK5QRect
libavkys.so.9:_ZN14AkSubtitleCaps11resetFormatEv
libavkys.so.9:_ZN14AkSubtitleCaps13formatChangedENS_14SubtitleFormatE
libavkys.so.9:_ZN14AkSubtitleCaps13registerTypesEv
libavkys.so.9:_ZN14AkSubtitleCaps14formatToStringENS_14SubtitleFormatE
libavkys.so.9:_ZN14AkSubtitleCaps16formatFromStringERK7QString
libavkys.so.9:_ZN14AkSubtitleCaps16staticMetaObjectE
libavkys.so.9:_ZN14AkSubtitleCaps6createENS_14SubtitleFormatE
libavkys.so.9:_ZN14AkSubtitleCaps6createENS_14SubtitleFormatERK5QRect
libavkys.so.9:_ZN14AkSubtitleCaps6createERKS_
libavkys.so.9:_ZN14AkSubtitleCaps6createEv
libavkys.so.9:_ZN14AkSubtitleCaps7setRectERK5QRect
libavkys.so.9:_ZN14AkSubtitleCaps9resetRectEv
libavkys.so.9:_ZN14AkSubtitleCaps9setFormatENS_14SubtitleFormatE
libavkys.so.9:_ZN14AkSubtitleCapsC1ENS_14SubtitleFormatE
libavkys.so.9:_ZN14AkSubtitleCapsC1ENS_14SubtitleFormatERK5QRect
libavkys.so.9:_ZN14AkSubtitleCapsC1EP7QObject
libavkys.so.9:_ZN14AkSubtitleCapsC1ERK6AkCaps
libavkys.so.9:_ZN14AkSubtitleCapsC1ERKS_
libavkys.so.9:_ZN14AkSubtitleCapsC2ENS_14SubtitleFormatE
libavkys.so.9:_ZN14AkSubtitleCapsC2ENS_14SubtitleFormatERK5QRect
libavkys.so.9:_ZN14AkSubtitleCapsC2EP7QObject
libavkys.so.9:_ZN14AkSubtitleCapsC2ERK6AkCaps
libavkys.so.9:_ZN14AkSubtitleCapsC2ERKS_
libavkys.so.9:_ZN14AkSubtitleCapsD0Ev
libavkys.so.9:_ZN14AkSubtitleCapsD1Ev
libavkys.so.9:_ZN14AkSubtitleCapsD2Ev
libavkys.so.9:_ZN14AkSubtitleCapsaSERK6AkCaps
libavkys.so.9:_ZN14AkSubtitleCapsaSERKS_
libavkys.so.9:_ZN14AkThemePrivateC1EP7AkTheme
libavkys.so.9:_ZN14AkThemePrivateC2EP7AkTheme
libavkys.so.9:_ZN14DrawParameters5resetEv
libavkys.so.9:_ZN14DrawParameters9configureEiiRK11AkVideoCapsS2_RK20CommonDrawParameters
libavkys.so.9:_ZN14DrawParametersC1ERKS_
libavkys.so.9:_ZN14DrawParametersC1Ev
libavkys.so.9:_ZN14DrawParametersC2ERKS_
libavkys.so.9:_ZN14DrawParametersC2Ev
libavkys.so.9:_ZN14DrawParametersD1Ev
libavkys.so.9:_ZN14DrawParametersD2Ev
libavkys.so.9:_ZN14DrawParametersaSERKS_
libavkys.so.9:_ZN14FillParameters13configureFillERK11AkVideoCaps
libavkys.so.9:_ZN14FillParameters5resetEv
libavkys.so.9:_ZN14FillParameters9configureERK11AkVideoCapsR14AkColorConvert
libavkys.so.9:_ZN14FillParametersC1ERKS_
libavkys.so.9:_ZN14FillParametersC1Ev
libavkys.so.9:_ZN14FillParametersC2ERKS_
libavkys.so.9:_ZN14FillParametersC2Ev
libavkys.so.9:_ZN14FillParametersD1Ev
libavkys.so.9:_ZN14FillParametersD2Ev
libavkys.so.9:_ZN14FillParametersaSERKS_
libavkys.so.9:_ZN15AkPluginManager10resetLinksEv
libavkys.so.9:_ZN15AkPluginManager11qt_metacallEN11QMetaObject4CallEiPPv
libavkys.so.9:_ZN15AkPluginManager11qt_metacastEPKc
libavkys.so.9:_ZN15AkPluginManager11scanPluginsEv
libavkys.so.9:_ZN15AkPluginManager12linksChangedERK4QMapI7QStringS1_E
libavkys.so.9:_ZN15AkPluginManager13addSearchPathERK7QString
libavkys.so.9:_ZN15AkPluginManager13registerTypesEv
libavkys.so.9:_ZN15AkPluginManager14pluginsChangedERK5QListI7QStringE
libavkys.so.9:_ZN15AkPluginManager14setSearchPathsERK5QListI7QStringE
libavkys.so.9:_ZN15AkPluginManager15setPluginStatusERK7QStringNS_12PluginStatusE
libavkys.so.9:_ZN15AkPluginManager16resetSearchPathsEv
libavkys.so.9:_ZN15AkPluginManager16setCachedPluginsERK5QListI7QStringE
libavkys.so.9:_ZN15AkPluginManager16setPluginsStatusERK5QListI7QStringENS_12PluginStatusE
libavkys.so.9:_ZN15AkPluginManager16staticMetaObjectE
libavkys.so.9:_ZN15AkPluginManager18searchPathsChangedERK5QListI7QStringE
libavkys.so.9:_ZN15AkPluginManager18setRecursiveSearchEb
libavkys.so.9:_ZN15AkPluginManager20pluginsStatusChangedERK7QStringNS_12PluginStatusE
libavkys.so.9:_ZN15AkPluginManager20resetRecursiveSearchEv
libavkys.so.9:_ZN15AkPluginManager22recursiveSearchChangedEb
libavkys.so.9:_ZN15AkPluginManager4linkERK7QStringS2_
libavkys.so.9:_ZN15AkPluginManager8instanceEv
libavkys.so.9:_ZN15AkPluginManager8setLinksERK4QMapI7QStringS1_E
libavkys.so.9:_ZN15AkPluginManagerC1EP7QObject
libavkys.so.9:_ZN15AkPluginManagerC1ERKS_
libavkys.so.9:_ZN15AkPluginManagerC2EP7QObject
libavkys.so.9:_ZN15AkPluginManagerC2ERKS_
libavkys.so.9:_ZN15AkPluginManagerD0Ev
libavkys.so.9:_ZN15AkPluginManagerD1Ev
libavkys.so.9:_ZN15AkPluginManagerD2Ev
libavkys.so.9:_ZN16AkAudioConverter11qt_metacallEN11QMetaObject4CallEiPPv
libavkys.so.9:_ZN16AkAudioConverter11qt_metacastEPKc
libavkys.so.9:_ZN16AkAudioConverter13registerTypesEv
libavkys.so.9:_ZN16AkAudioConverter13setOutputCapsERK11AkAudioCaps
libavkys.so.9:_ZN16AkAudioConverter15resetOutputCapsEv
libavkys.so.9:_ZN16AkAudioConverter16canConvertFormatEN11AkAudioCaps12SampleFormatES1_
libavkys.so.9:_ZN16AkAudioConverter16staticMetaObjectE
libavkys.so.9:_ZN16AkAudioConverter17outputCapsChangedERK11AkAudioCaps
libavkys.so.9:_ZN16AkAudioConverter17setResampleMethodENS_14ResampleMethodE
libavkys.so.9:_ZN16AkAudioConverter19resetResampleMethodEv
libavkys.so.9:_ZN16AkAudioConverter21resampleMethodChangedENS_14ResampleMethodE
libavkys.so.9:_ZN16AkAudioConverter5resetEv
libavkys.so.9:_ZN16AkAudioConverter6createEv
libavkys.so.9:_ZN16AkAudioConverter7convertERK13AkAudioPacket
libavkys.so.9:_ZN16AkAudioConverterC1ERK11AkAudioCapsP7QObject
libavkys.so.9:_ZN16AkAudioConverterC1ERKS_
libavkys.so.9:_ZN16AkAudioConverterC2ERK11AkAudioCapsP7QObject
libavkys.so.9:_ZN16AkAudioConverterC2ERKS_
libavkys.so.9:_ZN16AkAudioConverterD0Ev
libavkys.so.9:_ZN16AkAudioConverterD1Ev
libavkys.so.9:_ZN16AkAudioConverterD2Ev
libavkys.so.9:_ZN16AkAudioConverteraSERKS_
libavkys.so.9:_ZN16AkColorComponent11qt_metacallEN11QMetaObject4CallEiPPv
libavkys.so.9:_ZN16AkColorComponent11qt_metacastEPKc
libavkys.so.9:_ZN16AkColorComponent13registerTypesEv
libavkys.so.9:_ZN16AkColorComponent16staticMetaObjectE
libavkys.so.9:_ZN16AkColorComponent6createENS_13ComponentTypeEmmmmmmm
libavkys.so.9:_ZN16AkColorComponent6createERKS_
libavkys.so.9:_ZN16AkColorComponent6createEv
libavkys.so.9:_ZN16AkColorComponentC1ENS_13ComponentTypeEmmmmmmm
libavkys.so.9:_ZN16AkColorComponentC1EP7QObject
libavkys.so.9:_ZN16AkColorComponentC1ERKS_
libavkys.so.9:_ZN16AkColorComponentC2ENS_13ComponentTypeEmmmmmmm
libavkys.so.9:_ZN16AkColorComponentC2EP7QObject
libavkys.so.9:_ZN16AkColorComponentC2ERKS_
libavkys.so.9:_ZN16AkColorComponentD0Ev
libavkys.so.9:_ZN16AkColorComponentD1Ev
libavkys.so.9:_ZN16AkColorComponentD2Ev
libavkys.so.9:_ZN16AkColorComponentaSERKS_
libavkys.so.9:_ZN16AkColorizedImage10resetCacheEv
libavkys.so.9:_ZN16AkColorizedImage10resetColorEv
libavkys.so.9:_ZN16AkColorizedImage11qt_metacallEN11QMetaObject4CallEiPPv
libavkys.so.9:_ZN16AkColorizedImage11qt_metacastEPKc
libavkys.so.9:_ZN16AkColorizedImage11resetMipmapEv
libavkys.so.9:_ZN16AkColorizedImage11resetMirrorEv
libavkys.so.9:_ZN16AkColorizedImage11resetSourceEv
libavkys.so.9:_ZN16AkColorizedImage11setColorizeEb
libavkys.so.9:_ZN16AkColorizedImage11setFillModeENS_8FillModeE
libavkys.so.9:_ZN16AkColorizedImage12cacheChangedEb
libavkys.so.9:_ZN16AkColorizedImage12colorChangedERK6QColor
libavkys.so.9:_ZN16AkColorizedImage13mipmapChangedEb
libavkys.so.9:_ZN16AkColorizedImage13mirrorChangedEb
libavkys.so.9:_ZN16AkColorizedImage13registerTypesEv
libavkys.so.9:_ZN16AkColorizedImage13resetColorizeEv
libavkys.so.9:_ZN16AkColorizedImage13resetFillModeEv
libavkys.so.9:_ZN16AkColorizedImage13setSourceSizeERK5QSize
libavkys.so.9:_ZN16AkColorizedImage13sourceChangedERK7QString
libavkys.so.9:_ZN16AkColorizedImage13statusChangedENS_6StatusE
libavkys.so.9:_ZN16AkColorizedImage15colorizeChangedEb
libavkys.so.9:_ZN16AkColorizedImage15fillModeChangedENS_8FillModeE
libavkys.so.9:_ZN16AkColorizedImage15progressChangedEd
libavkys.so.9:_ZN16AkColorizedImage15resetSourceSizeEv
libavkys.so.9:_ZN16AkColorizedImage15setAsynchronousEb
libavkys.so.9:_ZN16AkColorizedImage15updatePaintNodeEP7QSGNodePN10QQuickItem19UpdatePaintNodeDataE
libavkys.so.9:_ZN16AkColorizedImage16staticMetaObjectE
libavkys.so.9:_ZN16AkColorizedImage17resetAsynchronousEv
libavkys.so.9:_ZN16AkColorizedImage17sourceSizeChangedERK5QSize
libavkys.so.9:_ZN16AkColorizedImage19asynchronousChangedEb
libavkys.so.9:_ZN16AkColorizedImage20setVerticalAlignmentENS_17VerticalAlignmentE
libavkys.so.9:_ZN16AkColorizedImage22paintedGeometryChangedEv
libavkys.so.9:_ZN16AkColorizedImage22resetVerticalAlignmentEv
libavkys.so.9:_ZN16AkColorizedImage22setHorizontalAlignmentENS_19HorizontalAlignmentE
libavkys.so.9:_ZN16AkColorizedImage24resetHorizontalAlignmentEv
libavkys.so.9:_ZN16AkColorizedImage24verticalAlignmentChangedENS_17VerticalAlignmentE
libavkys.so.9:_ZN16AkColorizedImage26horizontalAlignmentChangedENS_19HorizontalAlignmentE
libavkys.so.9:_ZN16AkColorizedImage8setCacheEb
libavkys.so.9:_ZN16AkColorizedImage8setColorERK6QColor
libavkys.so.9:_ZN16AkColorizedImage9setMipmapEb
libavkys.so.9:_ZN16AkColorizedImage9setMirrorEb
libavkys.so.9:_ZN16AkColorizedImage9setSourceERK7QString
libavkys.so.9:_ZN16AkColorizedImageC1EP10QQuickItem
libavkys.so.9:_ZN16AkColorizedImageC2EP10QQuickItem
libavkys.so.9:_ZN16AkColorizedImageD0Ev
libavkys.so.9:_ZN16AkColorizedImageD1Ev
libavkys.so.9:_ZN16AkColorizedImageD2Ev
libavkys.so.9:_ZN16AkElementPrivate12methodCompatERK11QMetaMethodS2_
libavkys.so.9:_ZN16AkElementPrivate13methodsByNameEPK7QObjectRK7QString
libavkys.so.9:_ZN16AkElementPrivateC1Ev
libavkys.so.9:_ZN16AkElementPrivateC2Ev
libavkys.so.9:_ZN16AkPalettePrivateC1EP9AkPalette
libavkys.so.9:_ZN16AkPalettePrivateC2EP9AkPalette
libavkys.so.9:_ZN16AkSubtitlePacket11qt_metacallEN11QMetaObject4CallEiPPv
libavkys.so.9:_ZN16AkSubtitlePacket11qt_metacastEPKc
libavkys.so.9:_ZN16AkSubtitlePacket13registerTypesEv
libavkys.so.9:_ZN16AkSubtitlePacket16staticMetaObjectE
libavkys.so.9:_ZN16AkSubtitlePacketC1EP7QObject
libavkys.so.9:_ZN16AkSubtitlePacketC1ERK14AkSubtitleCapsmb
libavkys.so.9:_ZN16AkSubtitlePacketC1ERK8AkPacket
libavkys.so.9:_ZN16AkSubtitlePacketC1ERKS_
libavkys.so.9:_ZN16AkSubtitlePacketC2EP7QObject
libavkys.so.9:_ZN16AkSubtitlePacketC2ERK14AkSubtitleCapsmb
libavkys.so.9:_ZN16AkSubtitlePacketC2ERK8AkPacket
libavkys.so.9:_ZN16AkSubtitlePacketC2ERKS_
libavkys.so.9:_ZN16AkSubtitlePacketD0Ev
libavkys.so.9:_ZN16AkSubtitlePacketD1Ev
libavkys.so.9:_ZN16AkSubtitlePacketD2Ev
libavkys.so.9:_ZN16AkSubtitlePacketaSERK8AkPacket
libavkys.so.9:_ZN16AkSubtitlePacketaSERKS_
libavkys.so.9:_ZN16AkVideoConverter11qt_metacallEN11QMetaObject4CallEiPPv
libavkys.so.9:_ZN16AkVideoConverter11qt_metacastEPKc
libavkys.so.9:_ZN16AkVideoConverter12setInputRectERK5QRect
libavkys.so.9:_ZN16AkVideoConverter13registerTypesEv
libavkys.so.9:_ZN16AkVideoConverter13setCacheIndexEi
libavkys.so.9:_ZN16AkVideoConverter13setOutputCapsERK11AkVideoCaps
libavkys.so.9:_ZN16AkVideoConverter14resetInputRectEv
libavkys.so.9:_ZN16AkVideoConverter14setScalingModeENS_11ScalingModeE
libavkys.so.9:_ZN16AkVideoConverter15resetOutputCapsEv
libavkys.so.9:_ZN16AkVideoConverter16inputRectChangedERK5QRect
libavkys.so.9:_ZN16AkVideoConverter16resetScalingModeEv
libavkys.so.9:_ZN16AkVideoConverter16setYuvColorSpaceEN14AkColorConvert13YuvColorSpaceE
libavkys.so.9:_ZN16AkVideoConverter16staticMetaObjectE
libavkys.so.9:_ZN16AkVideoConverter17outputCapsChangedERK11AkVideoCaps
libavkys.so.9:_ZN16AkVideoConverter18resetYuvColorSpaceEv
libavkys.so.9:_ZN16AkVideoConverter18scalingModeChangedENS_11ScalingModeE
libavkys.so.9:_ZN16AkVideoConverter18setAspectRatioModeENS_15AspectRatioModeE
libavkys.so.9:_ZN16AkVideoConverter20resetAspectRatioModeEv
libavkys.so.9:_ZN16AkVideoConverter20setYuvColorSpaceTypeEN14AkColorConvert17YuvColorSpaceTypeE
libavkys.so.9:_ZN16AkVideoConverter20yuvColorSpaceChangedEN14AkColorConvert13YuvColorSpaceE
libavkys.so.9:_ZN16AkVideoConverter22aspectRatioModeChangedENS_15AspectRatioModeE
libavkys.so.9:_ZN16AkVideoConverter22resetYuvColorSpaceTypeEv
libavkys.so.9:_ZN16AkVideoConverter24yuvColorSpaceTypeChangedEN14AkColorConvert17YuvColorSpaceTypeE
libavkys.so.9:_ZN16AkVideoConverter3endEv
libavkys.so.9:_ZN16AkVideoConverter5beginEv
libavkys.so.9:_ZN16AkVideoConverter5resetEv
libavkys.so.9:_ZN16AkVideoConverter6createEv
libavkys.so.9:_ZN16AkVideoConverter7convertERK13AkVideoPacket
libavkys.so.9:_ZN16AkVideoConverterC1EP7QObject
libavkys.so.9:_ZN16AkVideoConverterC1ERK11AkVideoCapsP7QObject
libavkys.so.9:_ZN16AkVideoConverterC1ERKS_
libavkys.so.9:_ZN16AkVideoConverterC2EP7QObject
libavkys.so.9:_ZN16AkVideoConverterC2ERK11AkVideoCapsP7QObject
libavkys.so.9:_ZN16AkVideoConverterC2ERKS_
libavkys.so.9:_ZN16AkVideoConverterD0Ev
libavkys.so.9:_ZN16AkVideoConverterD1Ev
libavkys.so.9:_ZN16AkVideoConverterD2Ev
libavkys.so.9:_ZN16AkVideoConverteraSERKS_
libavkys.so.9:_ZN17AkVideoFormatSpec11qt_metacallEN11QMetaObject4CallEiPPv
libavkys.so.9:_ZN17AkVideoFormatSpec11qt_metacastEPKc
libavkys.so.9:_ZN17AkVideoFormatSpec13registerTypesEv
libavkys.so.9:_ZN17AkVideoFormatSpec16staticMetaObjectE
libavkys.so.9:_ZN17AkVideoFormatSpec6createENS_15VideoFormatTypeEiRK5QListI12AkColorPlaneE
libavkys.so.9:_ZN17AkVideoFormatSpec6createERKS_
libavkys.so.9:_ZN17AkVideoFormatSpec6createEv
libavkys.so.9:_ZN17AkVideoFormatSpecC1ENS_15VideoFormatTypeEiRK5QListI12AkColorPlaneE
libavkys.so.9:_ZN17AkVideoFormatSpecC1EP7QObject
libavkys.so.9:_ZN17AkVideoFormatSpecC1ERKS_
libavkys.so.9:_ZN17AkVideoFormatSpecC2ENS_15VideoFormatTypeEiRK5QListI12AkColorPlaneE
libavkys.so.9:_ZN17AkVideoFormatSpecC2EP7QObject
libavkys.so.9:_ZN17AkVideoFormatSpecC2ERKS_
libavkys.so.9:_ZN17AkVideoFormatSpecD0Ev
libavkys.so.9:_ZN17AkVideoFormatSpecD1Ev
libavkys.so.9:_ZN17AkVideoFormatSpecD2Ev
libavkys.so.9:_ZN17AkVideoFormatSpecaSERKS_
libavkys.so.9:_ZN20AkAudioPacketPrivate12clearBuffersEv
libavkys.so.9:_ZN20AkAudioPacketPrivate12updateParamsEv
libavkys.so.9:_ZN20AkAudioPacketPrivate15allocateBuffersEm
libavkys.so.9:_ZN20AkAudioPacketPrivateD1Ev
libavkys.so.9:_ZN20AkAudioPacketPrivateD2Ev
libavkys.so.9:_ZN20AkThemeGlobalPrivate11qt_metacallEN11QMetaObject4CallEiPPv
libavkys.so.9:_ZN20AkThemeGlobalPrivate11qt_metacastEPKc
libavkys.so.9:_ZN20AkThemeGlobalPrivate15setControlScaleEd
libavkys.so.9:_ZN20AkThemeGlobalPrivate16staticMetaObjectE
libavkys.so.9:_ZN20AkThemeGlobalPrivate19controlScaleChangedEd
libavkys.so.9:_ZN20AkThemeGlobalPrivateC1EP7QObject
libavkys.so.9:_ZN20AkThemeGlobalPrivateC2EP7QObject
libavkys.so.9:_ZN20AkVideoPacketPrivate12updateParamsERK17AkVideoFormatSpec
libavkys.so.9:_ZN20CommonDrawParameters5resetEv
libavkys.so.9:_ZN20CommonDrawParameters9configureERK11AkVideoCaps
libavkys.so.9:_ZN20CommonDrawParametersC1ERKS_
libavkys.so.9:_ZN20CommonDrawParametersC1Ev
libavkys.so.9:_ZN20CommonDrawParametersC2ERKS_
libavkys.so.9:_ZN20CommonDrawParametersC2Ev
libavkys.so.9:_ZN20CommonDrawParametersD1Ev
libavkys.so.9:_ZN20CommonDrawParametersD2Ev
libavkys.so.9:_ZN20CommonDrawParametersaSERKS_
libavkys.so.9:_ZN21AkColorConvertPrivate17loadAbc2xyzMatrixEiiiiii
libavkys.so.9:_ZN21AkColorConvertPrivate17loadRgb2yuvMatrixEN14AkColorConvert13YuvColorSpaceENS0_17YuvColorSpaceTypeEiiiiii
libavkys.so.9:_ZN21AkColorConvertPrivate17loadYuv2rgbMatrixEN14AkColorConvert13YuvColorSpaceENS0_17YuvColorSpaceTypeEiiiiii
libavkys.so.9:_ZN21AkColorConvertPrivate18loadAlphaRgbMatrixEi
libavkys.so.9:_ZN21AkColorConvertPrivate18loadAlphaYuvMatrixEN14AkColorConvert17YuvColorSpaceTypeEiiii
libavkys.so.9:_ZN21AkColorConvertPrivate18loadGray2rgbMatrixEiiii
libavkys.so.9:_ZN21AkColorConvertPrivate18loadGray2yuvMatrixEN14AkColorConvert17YuvColorSpaceTypeEiiii
libavkys.so.9:_ZN21AkColorConvertPrivate18loadRgb2grayMatrixEN14AkColorConvert13YuvColorSpaceEiiii
libavkys.so.9:_ZN21AkColorConvertPrivate18loadYuv2grayMatrixEN14AkColorConvert17YuvColorSpaceTypeEiiii
libavkys.so.9:_ZN21AkColorConvertPrivate19loadAlphaGrayMatrixEii
libavkys.so.9:_ZN21AkColorConvertPrivateC1EP14AkColorConvert
libavkys.so.9:_ZN21AkColorConvertPrivateC2EP14AkColorConvert
libavkys.so.9:_ZN21AkCompressedVideoCaps10fpsChangedERK6AkFrac
libavkys.so.9:_ZN21AkCompressedVideoCaps10resetWidthEv
libavkys.so.9:_ZN21AkCompressedVideoCaps11qt_metacallEN11QMetaObject4CallEiPPv
libavkys.so.9:_ZN21AkCompressedVideoCaps11qt_metacastEPKc
libavkys.so.9:_ZN21AkCompressedVideoCaps11resetFormatEv
libavkys.so.9:_ZN21AkCompressedVideoCaps11resetHeightEv
libavkys.so.9:_ZN21AkCompressedVideoCaps11sizeChangedERK5QSize
libavkys.so.9:_ZN21AkCompressedVideoCaps12widthChangedEi
libavkys.so.9:_ZN21AkCompressedVideoCaps13formatChangedERK7QString
libavkys.so.9:_ZN21AkCompressedVideoCaps13heightChangedEi
libavkys.so.9:_ZN21AkCompressedVideoCaps13registerTypesEv
libavkys.so.9:_ZN21AkCompressedVideoCaps16staticMetaObjectE
libavkys.so.9:_ZN21AkCompressedVideoCaps3fpsEv
libavkys.so.9:_ZN21AkCompressedVideoCaps6createERK6AkCaps
libavkys.so.9:_ZN21AkCompressedVideoCaps6createERK7QStringRK5QSizeRK6AkFrac
libavkys.so.9:_ZN21AkCompressedVideoCaps6createERK7QStringiiRK6AkFrac
libavkys.so.9:_ZN21AkCompressedVideoCaps6createERKS_
libavkys.so.9:_ZN21AkCompressedVideoCaps6createEv
libavkys.so.9:_ZN21AkCompressedVideoCaps6setFpsERK6AkFrac
libavkys.so.9:_ZN21AkCompressedVideoCaps7setSizeERK5QSize
libavkys.so.9:_ZN21AkCompressedVideoCaps8resetFpsEv
libavkys.so.9:_ZN21AkCompressedVideoCaps8setWidthEi
libavkys.so.9:_ZN21AkCompressedVideoCaps9resetSizeEv
libavkys.so.9:_ZN21AkCompressedVideoCaps9setFormatERK7QString
libavkys.so.9:_ZN21AkCompressedVideoCaps9setHeightEi
libavkys.so.9:_ZN21AkCompressedVideoCapsC1EP7QObject
libavkys.so.9:_ZN21AkCompressedVideoCapsC1ERK6AkCaps
libavkys.so.9:_ZN21AkCompressedVideoCapsC1ERK7QStringRK5QSizeRK6AkFrac
libavkys.so.9:_ZN21AkCompressedVideoCapsC1ERK7QStringiiRK6AkFrac
libavkys.so.9:_ZN21AkCompressedVideoCapsC1ERKS_
libavkys.so.9:_ZN21AkCompressedVideoCapsC2EP7QObject
libavkys.so.9:_ZN21AkCompressedVideoCapsC2ERK6AkCaps
libavkys.so.9:_ZN21AkCompressedVideoCapsC2ERK7QStringRK5QSizeRK6AkFrac
libavkys.so.9:_ZN21AkCompressedVideoCapsC2ERK7QStringiiRK6AkFrac
libavkys.so.9:_ZN21AkCompressedVideoCapsC2ERKS_
libavkys.so.9:_ZN21AkCompressedVideoCapsD0Ev
libavkys.so.9:_ZN21AkCompressedVideoCapsD1Ev
libavkys.so.9:_ZN21AkCompressedVideoCapsD2Ev
libavkys.so.9:_ZN21AkCompressedVideoCapsaSERK6AkCaps
libavkys.so.9:_ZN21AkCompressedVideoCapsaSERKS_
libavkys.so.9:_ZN21AkFontSettingsPrivateC1EP14AkFontSettings
libavkys.so.9:_ZN21AkFontSettingsPrivateC2EP14AkFontSettings
libavkys.so.9:_ZN21AkPaletteGroupPrivateC1EP14AkPaletteGroup
libavkys.so.9:_ZN21AkPaletteGroupPrivateC2EP14AkPaletteGroup
libavkys.so.9:_ZN22AkPluginManagerPrivateC1EP15AkPluginManager
libavkys.so.9:_ZN22AkPluginManagerPrivateC2EP15AkPluginManager
libavkys.so.9:_ZN22FrameConvertParameters16configureScalingERK11AkVideoCapsS2_RK5QRectN16AkVideoConverter15AspectRatioModeE
libavkys.so.9:_ZN22FrameConvertParameters5resetEv
libavkys.so.9:_ZN22FrameConvertParameters9configureERK11AkVideoCapsS2_R14AkColorConvertNS3_13YuvColorSpaceENS3_17YuvColorSpaceTypeE
libavkys.so.9:_ZN22FrameConvertParametersC1ERKS_
libavkys.so.9:_ZN22FrameConvertParametersC1Ev
libavkys.so.9:_ZN22FrameConvertParametersC2ERKS_
libavkys.so.9:_ZN22FrameConvertParametersC2Ev
libavkys.so.9:_ZN22FrameConvertParametersD1Ev
libavkys.so.9:_ZN22FrameConvertParametersD2Ev
libavkys.so.9:_ZN22FrameConvertParametersaSERKS_
libavkys.so.9:_ZN23AkAudioConverterPrivate13convertFormatERK13AkAudioPacket
libavkys.so.9:_ZN23AkAudioConverterPrivate13convertLayoutERK13AkAudioPacket
libavkys.so.9:_ZN23AkAudioConverterPrivate13convertPlanarERK13AkAudioPacket
libavkys.so.9:_ZN23AkAudioConverterPrivate17convertSampleRateERK13AkAudioPacket
libavkys.so.9:_ZN23AkColorizedImagePrivate13colorizeImageERK6QImage
libavkys.so.9:_ZN23AkColorizedImagePrivate4loadEv
libavkys.so.9:_ZN23AkColorizedImagePrivate9loadImageERK7QString
libavkys.so.9:_ZN23AkColorizedImagePrivateC1EP16AkColorizedImage
libavkys.so.9:_ZN23AkColorizedImagePrivateC2EP16AkColorizedImage
libavkys.so.9:_ZN23AkCompressedVideoPacket11qt_metacallEN11QMetaObject4CallEiPPv
libavkys.so.9:_ZN23AkCompressedVideoPacket11qt_metacastEPKc
libavkys.so.9:_ZN23AkCompressedVideoPacket13registerTypesEv
libavkys.so.9:_ZN23AkCompressedVideoPacket16staticMetaObjectE
libavkys.so.9:_ZN23AkCompressedVideoPacketC1EP7QObject
libavkys.so.9:_ZN23AkCompressedVideoPacketC1ERK21AkCompressedVideoCapsmb
libavkys.so.9:_ZN23AkCompressedVideoPacketC1ERK8AkPacket
libavkys.so.9:_ZN23AkCompressedVideoPacketC1ERKS_
libavkys.so.9:_ZN23AkCompressedVideoPacketC2EP7QObject
libavkys.so.9:_ZN23AkCompressedVideoPacketC2ERK21AkCompressedVideoCapsmb
libavkys.so.9:_ZN23AkCompressedVideoPacketC2ERK8AkPacket
libavkys.so.9:_ZN23AkCompressedVideoPacketC2ERKS_
libavkys.so.9:_ZN23AkCompressedVideoPacketD0Ev
libavkys.so.9:_ZN23AkCompressedVideoPacketD1Ev
libavkys.so.9:_ZN23AkCompressedVideoPacketD2Ev
libavkys.so.9:_ZN23AkCompressedVideoPacketaSERK8AkPacket
libavkys.so.9:_ZN23AkCompressedVideoPacketaSERKS_
libavkys.so.9:_ZN25AkMultimediaSourceElement10resetMediaEv
libavkys.so.9:_ZN25AkMultimediaSourceElement10setStreamsERK5QListIiE
libavkys.so.9:_ZN25AkMultimediaSourceElement11descriptionERK7QString
libavkys.so.9:_ZN25AkMultimediaSourceElement11qt_metacallEN11QMetaObject4CallEiPPv
libavkys.so.9:_ZN25AkMultimediaSourceElement11qt_metacastEPKc
libavkys.so.9:_ZN25AkMultimediaSourceElement12resetStreamsEv
libavkys.so.9:_ZN25AkMultimediaSourceElement13defaultStreamEN6AkCaps8CapsTypeE
libavkys.so.9:_ZN25AkMultimediaSourceElement16staticMetaObjectE
libavkys.so.9:_ZN25AkMultimediaSourceElement4capsEi
libavkys.so.9:_ZN25AkMultimediaSourceElement6mediasEv
libavkys.so.9:_ZN25AkMultimediaSourceElement7setLoopEb
libavkys.so.9:_ZN25AkMultimediaSourceElement7streamsEv
libavkys.so.9:_ZN25AkMultimediaSourceElement8setMediaERK7QString
libavkys.so.9:_ZN25AkMultimediaSourceElement9resetLoopEv
libavkys.so.9:_ZN25AkMultimediaSourceElementC1EP7QObject
libavkys.so.9:_ZN25AkMultimediaSourceElementC2EP7QObject
libavkys.so.9:_ZN25AkMultimediaSourceElementD0Ev
libavkys.so.9:_ZN25AkMultimediaSourceElementD1Ev
libavkys.so.9:_ZN25AkMultimediaSourceElementD2Ev
libavkys.so.9:_ZN2Ak11qt_metacallEN11QMetaObject4CallEiPPv
libavkys.so.9:_ZN2Ak11qt_metacastEPKc
libavkys.so.9:_ZN2Ak12setQmlEngineEP10QQmlEngine
libavkys.so.9:_ZN2Ak13registerTypesEv
libavkys.so.9:_ZN2Ak14hasFlatpakVCamEv
libavkys.so.9:_ZN2Ak16staticMetaObjectE
libavkys.so.9:_ZN2Ak2idEv
libavkys.so.9:_ZN2Ak8platformEv
libavkys.so.9:_ZN2Ak9isFlatpakEv
libavkys.so.9:_ZN2AkC1ERKS_
libavkys.so.9:_ZN2AkC1Ev
libavkys.so.9:_ZN2AkC2ERKS_
libavkys.so.9:_ZN2AkC2Ev
libavkys.so.9:_ZN6AkCaps11qt_metacallEN11QMetaObject4CallEiPPv
libavkys.so.9:_ZN6AkCaps11qt_metacastEPKc
libavkys.so.9:_ZN6AkCaps13registerTypesEv
libavkys.so.9:_ZN6AkCaps14setPrivateDataEPvSt8functionIFS0_S0_EES1_IFvS0_EE
libavkys.so.9:_ZN6AkCaps16staticMetaObjectE
libavkys.so.9:_ZN6AkCaps6createERKS_
libavkys.so.9:_ZN6AkCaps6createEv
libavkys.so.9:_ZN6AkCaps7setTypeENS_8CapsTypeE
libavkys.so.9:_ZN6AkCapsC1EP7QObject
libavkys.so.9:_ZN6AkCapsC1ERKS_
libavkys.so.9:_ZN6AkCapsC2EP7QObject
libavkys.so.9:_ZN6AkCapsC2ERKS_
libavkys.so.9:_ZN6AkCapsD0Ev
libavkys.so.9:_ZN6AkCapsD1Ev
libavkys.so.9:_ZN6AkCapsD2Ev
libavkys.so.9:_ZN6AkCapsaSERKS_
libavkys.so.9:_ZN6AkFrac10denChangedEx
libavkys.so.9:_ZN6AkFrac10numChangedEx
libavkys.so.9:_ZN6AkFrac11qt_metacallEN11QMetaObject4CallEiPPv
libavkys.so.9:_ZN6AkFrac11qt_metacastEPKc
libavkys.so.9:_ZN6AkFrac12valueChangedEd
libavkys.so.9:_ZN6AkFrac13createVariantExx
libavkys.so.9:_ZN6AkFrac13isNullChangedEb
libavkys.so.9:_ZN6AkFrac13registerTypesEv
libavkys.so.9:_ZN6AkFrac13stringChangedERK7QString
libavkys.so.9:_ZN6AkFrac14isValidChangedEb
libavkys.so.9:_ZN6AkFrac16staticMetaObjectE
libavkys.so.9:_ZN6AkFrac6createERK7QString
libavkys.so.9:_ZN6AkFrac6createERKS_
libavkys.so.9:_ZN6AkFrac6createEv
libavkys.so.9:_ZN6AkFrac6createExx
libavkys.so.9:_ZN6AkFrac6setDenEx
libavkys.so.9:_ZN6AkFrac6setNumEx
libavkys.so.9:_ZN6AkFrac8resetDenEv
libavkys.so.9:_ZN6AkFrac8resetNumEv
libavkys.so.9:_ZN6AkFrac9setNumDenERK7QString
libavkys.so.9:_ZN6AkFrac9setNumDenExx
libavkys.so.9:_ZN6AkFracC1EP7QObject
libavkys.so.9:_ZN6AkFracC1ERK7QString
libavkys.so.9:_ZN6AkFracC1ERKS_
libavkys.so.9:_ZN6AkFracC1Exx
libavkys.so.9:_ZN6AkFracC2EP7QObject
libavkys.so.9:_ZN6AkFracC2ERK7QString
libavkys.so.9:_ZN6AkFracC2ERKS_
libavkys.so.9:_ZN6AkFracC2Exx
libavkys.so.9:_ZN6AkFracD0Ev
libavkys.so.9:_ZN6AkFracD1Ev
libavkys.so.9:_ZN6AkFracD2Ev
libavkys.so.9:_ZN6AkFracaSERKS_
libavkys.so.9:_ZN6AkUnit10resetValueEv
libavkys.so.9:_ZN6AkUnit11qt_metacallEN11QMetaObject4CallEiPPv
libavkys.so.9:_ZN6AkUnit11qt_metacastEPKc
libavkys.so.9:_ZN6AkUnit11unitChangedENS_4UnitE
libavkys.so.9:_ZN6AkUnit12valueChangedEd
libavkys.so.9:_ZN6AkUnit13pixelsChangedEi
libavkys.so.9:_ZN6AkUnit13registerTypesEv
libavkys.so.9:_ZN6AkUnit16staticMetaObjectE
libavkys.so.9:_ZN6AkUnit6createEdNS_4UnitE
libavkys.so.9:_ZN6AkUnit6createEdNS_4UnitEP7QObject
libavkys.so.9:_ZN6AkUnit6createEdRK7QString
libavkys.so.9:_ZN6AkUnit6createEdRK7QStringP7QObject
libavkys.so.9:_ZN6AkUnit7setUnitENS_4UnitE
libavkys.so.9:_ZN6AkUnit8setValueEd
libavkys.so.9:_ZN6AkUnit9resetUnitEv
libavkys.so.9:_ZN6AkUnitC1ERKS_
libavkys.so.9:_ZN6AkUnitC1EdNS_4UnitE
libavkys.so.9:_ZN6AkUnitC1EdNS_4UnitEP10QQuickItem
libavkys.so.9:_ZN6AkUnitC1EdNS_4UnitEP7QWindow
libavkys.so.9:_ZN6AkUnitC1EdRK7QString
libavkys.so.9:_ZN6AkUnitC1EdRK7QStringP10QQuickItem
libavkys.so.9:_ZN6AkUnitC1EdRK7QStringP7QWindow
libavkys.so.9:_ZN6AkUnitC2ERKS_
libavkys.so.9:_ZN6AkUnitC2EdNS_4UnitE
libavkys.so.9:_ZN6AkUnitC2EdNS_4UnitEP10QQuickItem
libavkys.so.9:_ZN6AkUnitC2EdNS_4UnitEP7QWindow
libavkys.so.9:_ZN6AkUnitC2EdRK7QString
libavkys.so.9:_ZN6AkUnitC2EdRK7QStringP10QQuickItem
libavkys.so.9:_ZN6AkUnitC2EdRK7QStringP7QWindow
libavkys.so.9:_ZN6AkUnitD0Ev
libavkys.so.9:_ZN6AkUnitD1Ev
libavkys.so.9:_ZN6AkUnitD2Ev
libavkys.so.9:_ZN6AkUnitaSERKS_
libavkys.so.9:_ZN7AkTheme10setPaletteEPK9AkPalette
libavkys.so.9:_ZN7AkTheme11qt_metacallEN11QMetaObject4CallEiPPv
libavkys.so.9:_ZN7AkTheme11qt_metacastEPKc
libavkys.so.9:_ZN7AkTheme12resetPaletteEv
libavkys.so.9:_ZN7AkTheme13registerTypesEv
libavkys.so.9:_ZN7AkTheme14paletteChangedEPK9AkPalette
libavkys.so.9:_ZN7AkTheme15setControlScaleEd
libavkys.so.9:_ZN7AkTheme15setFontSettingsEPK14AkFontSettings
libavkys.so.9:_ZN7AkTheme16staticMetaObjectE
libavkys.so.9:_ZN7AkTheme17resetControlScaleEv
libavkys.so.9:_ZN7AkTheme17resetFontSettingsEv
libavkys.so.9:_ZN7AkTheme19controlScaleChangedEd
libavkys.so.9:_ZN7AkTheme19fontSettingsChangedEPK14AkFontSettings
libavkys.so.9:_ZN7AkTheme21qmlAttachedPropertiesEP7QObject
libavkys.so.9:_ZN7AkThemeC1EP7QObject
libavkys.so.9:_ZN7AkThemeC2EP7QObject
libavkys.so.9:_ZN7AkThemeD0Ev
libavkys.so.9:_ZN7AkThemeD1Ev
libavkys.so.9:_ZN7AkThemeD2Ev
libavkys.so.9:_ZN7AkUtils11qt_metacallEN11QMetaObject4CallEiPPv
libavkys.so.9:_ZN7AkUtils11qt_metacastEPKc
libavkys.so.9:_ZN7AkUtils13registerTypesEv
libavkys.so.9:_ZN7AkUtils16staticMetaObjectE
libavkys.so.9:_ZN7AkUtils6toRgbaERK6QColor
libavkys.so.9:_ZN7AkUtils8fromRgbaEj
libavkys.so.9:_ZN7AkUtilsC1ERKS_
libavkys.so.9:_ZN7AkUtilsC1Ev
libavkys.so.9:_ZN7AkUtilsC2ERKS_
libavkys.so.9:_ZN7AkUtilsC2Ev
libavkys.so.9:_ZN8AkPacket11qt_metacallEN11QMetaObject4CallEiPPv
libavkys.so.9:_ZN8AkPacket11qt_metacastEPKc
libavkys.so.9:_ZN8AkPacket13registerTypesEv
libavkys.so.9:_ZN8AkPacket14setPrivateDataEPvSt8functionIFS0_S0_EES1_IFvS0_EE
libavkys.so.9:_ZN8AkPacket16staticMetaObjectE
libavkys.so.9:_ZN8AkPacket7setTypeENS_10PacketTypeE
libavkys.so.9:_ZN8AkPacketC1EP7QObject
libavkys.so.9:_ZN8AkPacketC1ERKS_
libavkys.so.9:_ZN8AkPacketC2EP7QObject
libavkys.so.9:_ZN8AkPacketC2ERKS_
libavkys.so.9:_ZN8AkPacketD0Ev
libavkys.so.9:_ZN8AkPacketD1Ev
libavkys.so.9:_ZN8AkPacketD2Ev
libavkys.so.9:_ZN8AkPacketaSERKS_
libavkys.so.9:_ZN9AkElement10resetStateEv
libavkys.so.9:_ZN9AkElement11qt_metacallEN11QMetaObject4CallEiPPv
libavkys.so.9:_ZN9AkElement11qt_metacastEPKc
libavkys.so.9:_ZN9AkElement12iAudioStreamERK13AkAudioPacket
libavkys.so.9:_ZN9AkElement12iVideoStreamERK13AkVideoPacket
libavkys.so.9:_ZN9AkElement12stateChangedENS_12ElementStateE
libavkys.so.9:_ZN9AkElement13registerTypesEv
libavkys.so.9:_ZN9AkElement16staticMetaObjectE
libavkys.so.9:_ZN9AkElement4linkEPK7QObjectS2_N2Qt14ConnectionTypeE
libavkys.so.9:_ZN9AkElement4linkERK14QSharedPointerIS_EPK7QObjectN2Qt14ConnectionTypeE
libavkys.so.9:_ZN9AkElement4linkERK14QSharedPointerIS_ES3_N2Qt14ConnectionTypeE
libavkys.so.9:_ZN9AkElement6unlinkEPK7QObjectS2_
libavkys.so.9:_ZN9AkElement6unlinkERK14QSharedPointerIS_EPK7QObject
libavkys.so.9:_ZN9AkElement6unlinkERK14QSharedPointerIS_ES3_
libavkys.so.9:_ZN9AkElement7iStreamERK8AkPacket
libavkys.so.9:_ZN9AkElement7oStreamERK8AkPacket
libavkys.so.9:_ZN9AkElement8setStateENS_12ElementStateE
libavkys.so.9:_ZN9AkElementC1EP7QObject
libavkys.so.9:_ZN9AkElementC2EP7QObject
libavkys.so.9:_ZN9AkElementD0Ev
libavkys.so.9:_ZN9AkElementD1Ev
libavkys.so.9:_ZN9AkElementD2Ev
libavkys.so.9:_ZN9AkPalette11qt_metacallEN11QMetaObject4CallEiPPv
libavkys.so.9:_ZN9AkPalette11qt_metacastEPKc
libavkys.so.9:_ZN9AkPalette11resetActiveEv
libavkys.so.9:_ZN9AkPalette11setDisabledEPK14AkPaletteGroup
libavkys.so.9:_ZN9AkPalette13activeChangedEPK14AkPaletteGroup
libavkys.so.9:_ZN9AkPalette13registerTypesEv
libavkys.so.9:_ZN9AkPalette13resetDisabledEv
libavkys.so.9:_ZN9AkPalette15disabledChangedEPK14AkPaletteGroup
libavkys.so.9:_ZN9AkPalette16staticMetaObjectE
libavkys.so.9:_ZN9AkPalette9setActiveEPK14AkPaletteGroup
libavkys.so.9:_ZN9AkPaletteC1EP7QObject
libavkys.so.9:_ZN9AkPaletteC1ERKS_
libavkys.so.9:_ZN9AkPaletteC2EP7QObject
libavkys.so.9:_ZN9AkPaletteC2ERKS_
libavkys.so.9:_ZN9AkPaletteD0Ev
libavkys.so.9:_ZN9AkPaletteD1Ev
libavkys.so.9:_ZN9AkPaletteD2Ev
libavkys.so.9:_ZN9AkPaletteaSERKS_
libavkys.so.9:_ZN9AkPrivateC1Ev
libavkys.so.9:_ZN9AkPrivateC2Ev
libavkys.so.9:_ZNK11AkAudioCaps10metaObjectEv
libavkys.so.9:_ZNK11AkAudioCaps3bpsEv
libavkys.so.9:_ZNK11AkAudioCaps4rateEv
libavkys.so.9:_ZNK11AkAudioCaps6formatEv
libavkys.so.9:_ZNK11AkAudioCaps6layoutEv
libavkys.so.9:_ZNK11AkAudioCaps6planarEv
libavkys.so.9:_ZNK11AkAudioCaps8channelsEv
libavkys.so.9:_ZNK11AkAudioCaps8positionEi
libavkys.so.9:_ZNK11AkAudioCaps9positionsEv
libavkys.so.9:_ZNK11AkAudioCaps9toVariantEv
libavkys.so.9:_ZNK11AkAudioCapscv6AkCapsEv
libavkys.so.9:_ZNK11AkAudioCapscvbEv
libavkys.so.9:_ZNK11AkAudioCapseqERKS_
libavkys.so.9:_ZNK11AkAudioCapsneERKS_
libavkys.so.9:_ZNK11AkVideoCaps10metaObjectEv
libavkys.so.9:_ZNK11AkVideoCaps12isSameFormatERKS_
libavkys.so.9:_ZNK11AkVideoCaps3bppEv
libavkys.so.9:_ZNK11AkVideoCaps3fpsEv
libavkys.so.9:_ZNK11AkVideoCaps4sizeEv
libavkys.so.9:_ZNK11AkVideoCaps5widthEv
libavkys.so.9:_ZNK11AkVideoCaps6formatEv
libavkys.so.9:_ZNK11AkVideoCaps6heightEv
libavkys.so.9:_ZNK11AkVideoCaps7nearestERK5QListIS_E
libavkys.so.9:_ZNK11AkVideoCaps9toVariantEv
libavkys.so.9:_ZNK11AkVideoCapscv6AkCapsEv
libavkys.so.9:_ZNK11AkVideoCapscvbEv
libavkys.so.9:_ZNK11AkVideoCapseqERKS_
libavkys.so.9:_ZNK11AkVideoCapsneERKS_
libavkys.so.9:_ZNK12AkColorPlane10componentsEv
libavkys.so.9:_ZNK12AkColorPlane10metaObjectEv
libavkys.so.9:_ZNK12AkColorPlane8bitsSizeEv
libavkys.so.9:_ZNK12AkColorPlane8widthDivEv
libavkys.so.9:_ZNK12AkColorPlane9componentEm
libavkys.so.9:_ZNK12AkColorPlane9heightDivEv
libavkys.so.9:_ZNK12AkColorPlane9pixelSizeEv
libavkys.so.9:_ZNK12AkColorPlane9toVariantEv
libavkys.so.9:_ZNK12AkColorPlaneeqERKS_
libavkys.so.9:_ZNK12AkColorPlaneneERKS_
libavkys.so.9:_ZNK12AkPacketBase10metaObjectEv
libavkys.so.9:_ZNK12AkPacketBase2idEv
libavkys.so.9:_ZNK12AkPacketBase3ptsEv
libavkys.so.9:_ZNK12AkPacketBase5indexEv
libavkys.so.9:_ZNK12AkPacketBase8timeBaseEv
libavkys.so.9:_ZNK12AkPluginInfo10implementsEv
libavkys.so.9:_ZNK12AkPluginInfo10metaObjectEv
libavkys.so.9:_ZNK12AkPluginInfo11descriptionEv
libavkys.so.9:_ZNK12AkPluginInfo2idEv
libavkys.so.9:_ZNK12AkPluginInfo4nameEv
libavkys.so.9:_ZNK12AkPluginInfo4pathEv
libavkys.so.9:_ZNK12AkPluginInfo4typeEv
libavkys.so.9:_ZNK12AkPluginInfo7dependsEv
libavkys.so.9:_ZNK12AkPluginInfo8priorityEv
libavkys.so.9:_ZNK12AkPluginInfo9toVariantEv
libavkys.so.9:_ZNK12AkPluginInfocvbEv
libavkys.so.9:_ZNK12AkPluginInfoeqERKS_
libavkys.so.9:_ZNK12AkPluginInfoneERKS_
libavkys.so.9:_ZNK12AkVideoMixer10metaObjectEv
libavkys.so.9:_ZNK12AkVideoMixer5flagsEv
libavkys.so.9:_ZNK13AkAudioPacket10constPlaneEi
libavkys.so.9:_ZNK13AkAudioPacket10metaObjectEv
libavkys.so.9:_ZNK13AkAudioPacket11constSampleEii
libavkys.so.9:_ZNK13AkAudioPacket4capsEv
libavkys.so.9:_ZNK13AkAudioPacket4sizeEv
libavkys.so.9:_ZNK13AkAudioPacket6planesEv
libavkys.so.9:_ZNK13AkAudioPacket7samplesEv
libavkys.so.9:_ZNK13AkAudioPacket9constDataEv
libavkys.so.9:_ZNK13AkAudioPacket9planeSizeEi
libavkys.so.9:_ZNK13AkAudioPacketcv8AkPacketEv
libavkys.so.9:_ZNK13AkAudioPacketcvbEv
libavkys.so.9:_ZNK13AkUnitPrivate10fromPixelsEdN6AkUnit4UnitE
libavkys.so.9:_ZNK13AkUnitPrivate6pixelsEdN6AkUnit4UnitE
libavkys.so.9:_ZNK13AkVideoPacket10constPlaneEi
libavkys.so.9:_ZNK13AkVideoPacket10metaObjectEv
libavkys.so.9:_ZNK13AkVideoPacket4capsEv
libavkys.so.9:_ZNK13AkVideoPacket4copyEiiii
libavkys.so.9:_ZNK13AkVideoPacket4sizeEv
libavkys.so.9:_ZNK13AkVideoPacket6planesEv
libavkys.so.9:_ZNK13AkVideoPacket8lineSizeEi
libavkys.so.9:_ZNK13AkVideoPacket8widthDivEi
libavkys.so.9:_ZNK13AkVideoPacket9bytesUsedEi
libavkys.so.9:_ZNK13AkVideoPacket9constDataEv
libavkys.so.9:_ZNK13AkVideoPacket9constLineEii
libavkys.so.9:_ZNK13AkVideoPacket9heightDivEi
libavkys.so.9:_ZNK13AkVideoPacket9pixelSizeEi
libavkys.so.9:_ZNK13AkVideoPacket9planeSizeEi
libavkys.so.9:_ZNK13AkVideoPacketcv8AkPacketEv
libavkys.so.9:_ZNK13AkVideoPacketcvbEv
libavkys.so.9:_ZNK14AkColorConvert10metaObjectEv
libavkys.so.9:_ZNK14AkColorConvert13yuvColorSpaceEv
libavkys.so.9:_ZNK14AkColorConvert17yuvColorSpaceTypeEv
libavkys.so.9:_ZNK14AkFontSettings10metaObjectEv
libavkys.so.9:_ZNK14AkFontSettings2h1Ev
libavkys.so.9:_ZNK14AkFontSettings2h2Ev
libavkys.so.9:_ZNK14AkFontSettings2h3Ev
libavkys.so.9:_ZNK14AkFontSettings2h4Ev
libavkys.so.9:_ZNK14AkFontSettings2h5Ev
libavkys.so.9:_ZNK14AkFontSettings2h6Ev
libavkys.so.9:_ZNK14AkFontSettings5body1Ev
libavkys.so.9:_ZNK14AkFontSettings5body2Ev
libavkys.so.9:_ZNK14AkFontSettings6buttonEv
libavkys.so.9:_ZNK14AkFontSettings7captionEv
libavkys.so.9:_ZNK14AkFontSettings8overlineEv
libavkys.so.9:_ZNK14AkFontSettings9subtitle1Ev
libavkys.so.9:_ZNK14AkFontSettings9subtitle2Ev
libavkys.so.9:_ZNK14AkFontSettingseqERKS_
libavkys.so.9:_ZNK14AkPaletteGroup10buttonTextEv
libavkys.so.9:_ZNK14AkPaletteGroup10metaObjectEv
libavkys.so.9:_ZNK14AkPaletteGroup10windowTextEv
libavkys.so.9:_ZNK14AkPaletteGroup11linkVisitedEv
libavkys.so.9:_ZNK14AkPaletteGroup11toolTipBaseEv
libavkys.so.9:_ZNK14AkPaletteGroup11toolTipTextEv
libavkys.so.9:_ZNK14AkPaletteGroup15highlightedTextEv
libavkys.so.9:_ZNK14AkPaletteGroup15placeholderTextEv
libavkys.so.9:_ZNK14AkPaletteGroup3midEv
libavkys.so.9:_ZNK14AkPaletteGroup4baseEv
libavkys.so.9:_ZNK14AkPaletteGroup4darkEv
libavkys.so.9:_ZNK14AkPaletteGroup4linkEv
libavkys.so.9:_ZNK14AkPaletteGroup4textEv
libavkys.so.9:_ZNK14AkPaletteGroup5lightEv
libavkys.so.9:_ZNK14AkPaletteGroup6buttonEv
libavkys.so.9:_ZNK14AkPaletteGroup6shadowEv
libavkys.so.9:_ZNK14AkPaletteGroup6windowEv
libavkys.so.9:_ZNK14AkPaletteGroup8midlightEv
libavkys.so.9:_ZNK14AkPaletteGroup9highlightEv
libavkys.so.9:_ZNK14AkPaletteGroupeqERKS_
libavkys.so.9:_ZNK14AkSubtitleCaps10metaObjectEv
libavkys.so.9:_ZNK14AkSubtitleCaps4rectEv
libavkys.so.9:_ZNK14AkSubtitleCaps6formatEv
libavkys.so.9:_ZNK14AkSubtitleCaps9toVariantEv
libavkys.so.9:_ZNK14AkSubtitleCapscv6AkCapsEv
libavkys.so.9:_ZNK14AkSubtitleCapscvbEv
libavkys.so.9:_ZNK14AkSubtitleCapseqERKS_
libavkys.so.9:_ZNK14AkSubtitleCapsneERKS_
libavkys.so.9:_ZNK15AkPluginManager10metaObjectEv
libavkys.so.9:_ZNK15AkPluginManager10pluginInfoERK7QString
libavkys.so.9:_ZNK15AkPluginManager11listPluginsERK7QStringRK5QListIS0_E6QFlagsINS_13PluginsFilterEE
libavkys.so.9:_ZNK15AkPluginManager11searchPathsEv
libavkys.so.9:_ZNK15AkPluginManager12pluginStatusERK7QString
libavkys.so.9:_ZNK15AkPluginManager13defaultPluginERK7QStringRK5QListIS0_E
libavkys.so.9:_ZNK15AkPluginManager15recursiveSearchEv
libavkys.so.9:_ZNK15AkPluginManager17pluginFilePatternEv
libavkys.so.9:_ZNK15AkPluginManager19internalSearchPathsEv
libavkys.so.9:_ZNK15AkPluginManager5linksEv
libavkys.so.9:_ZNK15AkPluginManager6createERK7QStringRK5QListIS0_E
libavkys.so.9:_ZNK16AkAudioConverter10metaObjectEv
libavkys.so.9:_ZNK16AkAudioConverter10outputCapsEv
libavkys.so.9:_ZNK16AkAudioConverter14resampleMethodEv
libavkys.so.9:_ZNK16AkAudioConverter5scaleERK13AkAudioPacketi
libavkys.so.9:_ZNK16AkColorComponent10byteLengthEv
libavkys.so.9:_ZNK16AkColorComponent10metaObjectEv
libavkys.so.9:_ZNK16AkColorComponent4stepEv
libavkys.so.9:_ZNK16AkColorComponent4typeEv
libavkys.so.9:_ZNK16AkColorComponent5shiftEv
libavkys.so.9:_ZNK16AkColorComponent6lengthEv
libavkys.so.9:_ZNK16AkColorComponent6offsetEv
libavkys.so.9:_ZNK16AkColorComponent8widthDivEv
libavkys.so.9:_ZNK16AkColorComponent9heightDivEv
libavkys.so.9:_ZNK16AkColorComponent9toVariantEv
libavkys.so.9:_ZNK16AkColorComponenteqERKS_
libavkys.so.9:_ZNK16AkColorComponentneERKS_
libavkys.so.9:_ZNK16AkColorizedImage10metaObjectEv
libavkys.so.9:_ZNK16AkColorizedImage10sourceSizeEv
libavkys.so.9:_ZNK16AkColorizedImage12asynchronousEv
libavkys.so.9:_ZNK16AkColorizedImage12paintedWidthEv
libavkys.so.9:_ZNK16AkColorizedImage13paintedHeightEv
libavkys.so.9:_ZNK16AkColorizedImage17verticalAlignmentEv
libavkys.so.9:_ZNK16AkColorizedImage19horizontalAlignmentEv
libavkys.so.9:_ZNK16AkColorizedImage5cacheEv
libavkys.so.9:_ZNK16AkColorizedImage5colorEv
libavkys.so.9:_ZNK16AkColorizedImage6mipmapEv
libavkys.so.9:_ZNK16AkColorizedImage6mirrorEv
libavkys.so.9:_ZNK16AkColorizedImage6sourceEv
libavkys.so.9:_ZNK16AkColorizedImage6statusEv
libavkys.so.9:_ZNK16AkColorizedImage8colorizeEv
libavkys.so.9:_ZNK16AkColorizedImage8fillModeEv
libavkys.so.9:_ZNK16AkColorizedImage8progressEv
libavkys.so.9:_ZNK16AkSubtitlePacket10metaObjectEv
libavkys.so.9:_ZNK16AkSubtitlePacket4capsEv
libavkys.so.9:_ZNK16AkSubtitlePacket4dataEv
libavkys.so.9:_ZNK16AkSubtitlePacket4sizeEv
libavkys.so.9:_ZNK16AkSubtitlePacket9constDataEv
libavkys.so.9:_ZNK16AkSubtitlePacketcv8AkPacketEv
libavkys.so.9:_ZNK16AkSubtitlePacketcvbEv
libavkys.so.9:_ZNK16AkVideoConverter10metaObjectEv
libavkys.so.9:_ZNK16AkVideoConverter10outputCapsEv
libavkys.so.9:_ZNK16AkVideoConverter11scalingModeEv
libavkys.so.9:_ZNK16AkVideoConverter13yuvColorSpaceEv
libavkys.so.9:_ZNK16AkVideoConverter15aspectRatioModeEv
libavkys.so.9:_ZNK16AkVideoConverter17yuvColorSpaceTypeEv
libavkys.so.9:_ZNK16AkVideoConverter9inputRectEv
libavkys.so.9:_ZNK17AkVideoFormatSpec10byteLengthEv
libavkys.so.9:_ZNK17AkVideoFormatSpec10endiannessEv
libavkys.so.9:_ZNK17AkVideoFormatSpec10metaObjectEv
libavkys.so.9:_ZNK17AkVideoFormatSpec14componentPlaneEN16AkColorComponent13ComponentTypeE
libavkys.so.9:_ZNK17AkVideoFormatSpec14mainComponentsEv
libavkys.so.9:_ZNK17AkVideoFormatSpec18numberOfComponentsEv
libavkys.so.9:_ZNK17AkVideoFormatSpec3bppEv
libavkys.so.9:_ZNK17AkVideoFormatSpec4typeEv
libavkys.so.9:_ZNK17AkVideoFormatSpec5planeEm
libavkys.so.9:_ZNK17AkVideoFormatSpec6planesEv
libavkys.so.9:_ZNK17AkVideoFormatSpec8containsEN16AkColorComponent13ComponentTypeE
libavkys.so.9:_ZNK17AkVideoFormatSpec9componentEN16AkColorComponent13ComponentTypeE
libavkys.so.9:_ZNK17AkVideoFormatSpec9toVariantEv
libavkys.so.9:_ZNK17AkVideoFormatSpeceqERKS_
libavkys.so.9:_ZNK17AkVideoFormatSpecneERKS_
libavkys.so.9:_ZNK20AkThemeGlobalPrivate10metaObjectEv
libavkys.so.9:_ZNK20AkThemeGlobalPrivate12controlScaleEv
libavkys.so.9:_ZNK21AkColorConvertPrivate10roundedDivExx
libavkys.so.9:_ZNK21AkColorConvertPrivate11rbConstantsEN14AkColorConvert13YuvColorSpaceERxS2_S2_
libavkys.so.9:_ZNK21AkColorConvertPrivate13nearestPowOf2Ex
libavkys.so.9:_ZNK21AkColorConvertPrivate7limitsYEiN14AkColorConvert17YuvColorSpaceTypeERxS2_
libavkys.so.9:_ZNK21AkColorConvertPrivate8limitsUVEiN14AkColorConvert17YuvColorSpaceTypeERxS2_
libavkys.so.9:_ZNK21AkCompressedVideoCaps10metaObjectEv
libavkys.so.9:_ZNK21AkCompressedVideoCaps3fpsEv
libavkys.so.9:_ZNK21AkCompressedVideoCaps5widthEv
libavkys.so.9:_ZNK21AkCompressedVideoCaps6formatEv
libavkys.so.9:_ZNK21AkCompressedVideoCaps6heightEv
libavkys.so.9:_ZNK21AkCompressedVideoCaps9toVariantEv
libavkys.so.9:_ZNK21AkCompressedVideoCapscv6AkCapsEv
libavkys.so.9:_ZNK21AkCompressedVideoCapscvbEv
libavkys.so.9:_ZNK21AkCompressedVideoCapseqERKS_
libavkys.so.9:_ZNK21AkCompressedVideoCapsneERKS_
libavkys.so.9:_ZNK22AkPluginManagerPrivate9bestMatchERK5QListI7QStringE
libavkys.so.9:_ZNK23AkColorizedImagePrivate5scaleERK5QSizeR6QRectFS4_
libavkys.so.9:_ZNK23AkCompressedVideoPacket10metaObjectEv
libavkys.so.9:_ZNK23AkCompressedVideoPacket4capsEv
libavkys.so.9:_ZNK23AkCompressedVideoPacket4dataEv
libavkys.so.9:_ZNK23AkCompressedVideoPacket4sizeEv
libavkys.so.9:_ZNK23AkCompressedVideoPacket9constDataEv
libavkys.so.9:_ZNK23AkCompressedVideoPacketcv8AkPacketEv
libavkys.so.9:_ZNK23AkCompressedVideoPacketcvbEv
libavkys.so.9:_ZNK25AkMultimediaSourceElement10metaObjectEv
libavkys.so.9:_ZNK25AkMultimediaSourceElement4loopEv
libavkys.so.9:_ZNK25AkMultimediaSourceElement5mediaEv
libavkys.so.9:_ZNK2Ak10metaObjectEv
libavkys.so.9:_ZNK6AkCaps10metaObjectEv
libavkys.so.9:_ZNK6AkCaps11privateDataEv
libavkys.so.9:_ZNK6AkCaps4typeEv
libavkys.so.9:_ZNK6AkCaps9toVariantEv
libavkys.so.9:_ZNK6AkCapscvbEv
libavkys.so.9:_ZNK6AkCapseqERKS_
libavkys.so.9:_ZNK6AkCapsneERKS_
libavkys.so.9:_ZNK6AkFrac10metaObjectEv
libavkys.so.9:_ZNK6AkFrac3denEv
libavkys.so.9:_ZNK6AkFrac3numEv
libavkys.so.9:_ZNK6AkFrac5valueEv
libavkys.so.9:_ZNK6AkFrac6invertEv
libavkys.so.9:_ZNK6AkFrac6isNullEv
libavkys.so.9:_ZNK6AkFrac7isValidEv
libavkys.so.9:_ZNK6AkFrac8toStringEv
libavkys.so.9:_ZNK6AkFrac9fastValueEv
libavkys.so.9:_ZNK6AkFrac9toVariantEv
libavkys.so.9:_ZNK6AkFraccv7QStringEv
libavkys.so.9:_ZNK6AkFraccvbEv
libavkys.so.9:_ZNK6AkFraceqERKS_
libavkys.so.9:_ZNK6AkFracneERKS_
libavkys.so.9:_ZNK6AkUnit10metaObjectEv
libavkys.so.9:_ZNK6AkUnit4unitEv
libavkys.so.9:_ZNK6AkUnit5valueEv
libavkys.so.9:_ZNK6AkUnit6pixelsEv
libavkys.so.9:_ZNK6AkUnit7convertENS_4UnitE
libavkys.so.9:_ZNK6AkUnit7convertERK7QString
libavkys.so.9:_ZNK6AkUnit9toVariantEv
libavkys.so.9:_ZNK6AkUnitcv7QStringEv
libavkys.so.9:_ZNK6AkUnitcviEv
libavkys.so.9:_ZNK6AkUniteqERKS_
libavkys.so.9:_ZNK6AkUnitneERKS_
libavkys.so.9:_ZNK7AkTheme10constShadeERK6QColordd
libavkys.so.9:_ZNK7AkTheme10metaObjectEv
libavkys.so.9:_ZNK7AkTheme12controlScaleEv
libavkys.so.9:_ZNK7AkTheme12fontSettingsEv
libavkys.so.9:_ZNK7AkTheme13complementaryERK6QColor
libavkys.so.9:_ZNK7AkTheme5shadeERK6QColordd
libavkys.so.9:_ZNK7AkTheme7paletteEv
libavkys.so.9:_ZNK7AkTheme8contrastERK6QColord
libavkys.so.9:_ZNK7AkUtils10metaObjectEv
libavkys.so.9:_ZNK8AkPacket10metaObjectEv
libavkys.so.9:_ZNK8AkPacket11privateDataEv
libavkys.so.9:_ZNK8AkPacket4capsEv
libavkys.so.9:_ZNK8AkPacket4dataEv
libavkys.so.9:_ZNK8AkPacket4sizeEv
libavkys.so.9:_ZNK8AkPacket4typeEv
libavkys.so.9:_ZNK8AkPacket9constDataEv
libavkys.so.9:_ZNK8AkPacketcvbEv
libavkys.so.9:_ZNK9AkElement10metaObjectEv
libavkys.so.9:_ZNK9AkElement16controlInterfaceEP10QQmlEngineRK7QString
libavkys.so.9:_ZNK9AkElement23controlInterfaceProvideERK7QString
libavkys.so.9:_ZNK9AkElement25controlInterfaceConfigureEP11QQmlContextRK7QString
libavkys.so.9:_ZNK9AkElement4linkEPK7QObjectN2Qt14ConnectionTypeE
libavkys.so.9:_ZNK9AkElement4linkERK14QSharedPointerIS_EN2Qt14ConnectionTypeE
libavkys.so.9:_ZNK9AkElement5stateEv
libavkys.so.9:_ZNK9AkElement6unlinkEPK7QObject
libavkys.so.9:_ZNK9AkElement6unlinkERK14QSharedPointerIS_E
libavkys.so.9:_ZNK9AkPalette10metaObjectEv
libavkys.so.9:_ZNK9AkPalette6activeEv
libavkys.so.9:_ZNK9AkPalette8disabledEv
libavkys.so.9:_ZNK9AkPaletteeqERKS_
libavkys.so.9:_ZThn16_N16AkColorizedImageD0Ev
libavkys.so.9:_ZThn16_N16AkColorizedImageD1Ev
libavkys.so.9:_ZdvRK6AkFracS1_
libavkys.so.9:_ZdviRK6AkFrac
libavkys.so.9:_ZgeRK6AkFracS1_
libavkys.so.9:_ZgtRK6AkFracS1_
libavkys.so.9:_ZleRK6AkFracS1_
libavkys.so.9:_Zls6QDebugN11AkAudioCaps10SampleTypeE
libavkys.so.9:_Zls6QDebugN11AkAudioCaps12SampleFormatE
libavkys.so.9:_Zls6QDebugN11AkAudioCaps13ChannelLayoutE
libavkys.so.9:_Zls6QDebugN11AkAudioCaps8PositionE
libavkys.so.9:_Zls6QDebugN11AkVideoCaps11PixelFormatE
libavkys.so.9:_Zls6QDebugN14AkColorConvert11ColorMatrixE
libavkys.so.9:_Zls6QDebugN14AkColorConvert13YuvColorSpaceE
libavkys.so.9:_Zls6QDebugN14AkColorConvert17YuvColorSpaceTypeE
libavkys.so.9:_Zls6QDebugN14AkSubtitleCaps14SubtitleFormatE
libavkys.so.9:_Zls6QDebugN16AkAudioConverter14ResampleMethodE
libavkys.so.9:_Zls6QDebugN16AkColorComponent13ComponentTypeE
libavkys.so.9:_Zls6QDebugN16AkVideoConverter11ScalingModeE
libavkys.so.9:_Zls6QDebugN16AkVideoConverter15AspectRatioModeE
libavkys.so.9:_Zls6QDebugN17AkVideoFormatSpec15VideoFormatTypeE
libavkys.so.9:_Zls6QDebugRK11AkAudioCaps
libavkys.so.9:_Zls6QDebugRK11AkVideoCaps
libavkys.so.9:_Zls6QDebugRK12AkColorPlane
libavkys.so.9:_Zls6QDebugRK12AkPluginInfo
libavkys.so.9:_Zls6QDebugRK13AkAudioPacket
libavkys.so.9:_Zls6QDebugRK13AkVideoPacket
libavkys.so.9:_Zls6QDebugRK14AkSubtitleCaps
libavkys.so.9:_Zls6QDebugRK16AkColorComponent
libavkys.so.9:_Zls6QDebugRK16AkSubtitlePacket
libavkys.so.9:_Zls6QDebugRK17AkVideoFormatSpec
libavkys.so.9:_Zls6QDebugRK21AkCompressedVideoCaps
libavkys.so.9:_Zls6QDebugRK23AkCompressedVideoPacket
libavkys.so.9:_Zls6QDebugRK6AkCaps
libavkys.so.9:_Zls6QDebugRK6AkFrac
libavkys.so.9:_Zls6QDebugRK6AkUnit
libavkys.so.9:_Zls6QDebugRK8AkPacket
libavkys.so.9:_Zls6QDebugRKN6AkUnit4UnitE
libavkys.so.9:_ZlsR11QDataStreamN9AkElement12ElementStateE
libavkys.so.9:_ZlsR11QDataStreamRK11AkAudioCaps
libavkys.so.9:_ZlsR11QDataStreamRK11AkVideoCaps
libavkys.so.9:_ZlsR11QDataStreamRK12AkColorPlane
libavkys.so.9:_ZlsR11QDataStreamRK12AkPluginInfo
libavkys.so.9:_ZlsR11QDataStreamRK14AkSubtitleCaps
libavkys.so.9:_ZlsR11QDataStreamRK16AkColorComponent
libavkys.so.9:_ZlsR11QDataStreamRK17AkVideoFormatSpec
libavkys.so.9:_ZlsR11QDataStreamRK21AkCompressedVideoCaps
libavkys.so.9:_ZlsR11QDataStreamRK6AkCaps
libavkys.so.9:_ZlsR11QDataStreamRK6AkFrac
libavkys.so.9:_ZlsR11QDataStreamRK6AkUnit
libavkys.so.9:_ZltRK6AkFracS1_
libavkys.so.9:_ZmiRK6AkFracS1_
libavkys.so.9:_ZmiRKSt4pairIddES2_
libavkys.so.9:_ZmlRK6AkFracS1_
libavkys.so.9:_ZmldRK6AkFrac
libavkys.so.9:_ZmliRK6AkFrac
libavkys.so.9:_ZplRK6AkFracS1_
libavkys.so.9:_ZrsR11QDataStreamR11AkAudioCaps
libavkys.so.9:_ZrsR11QDataStreamR11AkVideoCaps
libavkys.so.9:_ZrsR11QDataStreamR12AkColorPlane
libavkys.so.9:_ZrsR11QDataStreamR12AkPluginInfo
libavkys.so.9:_ZrsR11QDataStreamR14AkSubtitleCaps
libavkys.so.9:_ZrsR11QDataStreamR16AkColorComponent
libavkys.so.9:_ZrsR11QDataStreamR17AkVideoFormatSpec
libavkys.so.9:_ZrsR11QDataStreamR21AkCompressedVideoCaps
libavkys.so.9:_ZrsR11QDataStreamR6AkCaps
libavkys.so.9:_ZrsR11QDataStreamR6AkFrac
libavkys.so.9:_ZrsR11QDataStreamR6AkUnit
libavkys.so.9:_ZrsR11QDataStreamRN9AkElement12ElementStateE
