Keybase:_IO_stdin_used
Keybase:_Z10_As_BigIntRN2v88internal6TaggedINS0_10HeapObjectEEE
Keybase:_Z10_As_BigIntm
Keybase:_Z10_As_JSDateRN2v88internal6TaggedINS0_10HeapObjectEEE
Keybase:_Z10_As_JSDatem
Keybase:_Z10_As_ModuleRN2v88internal6TaggedINS0_10HeapObjectEEE
Keybase:_Z10_As_Modulem
Keybase:_Z10_As_SmiBoxRN2v88internal6TaggedINS0_10HeapObjectEEE
Keybase:_Z10_As_SmiBoxm
Keybase:_Z10_As_StringRN2v88internal6TaggedINS0_10HeapObjectEEE
Keybase:_Z10_As_Stringm
Keybase:_Z10_As_StructRN2v88internal6TaggedINS0_10HeapObjectEEE
Keybase:_Z10_As_Structm
Keybase:_Z10_As_SymbolRN2v88internal6TaggedINS0_10HeapObjectEEE
Keybase:_Z10_As_Symbolm
Keybase:_Z11_As_BooleanRN2v88internal6TaggedINS0_10HeapObjectEEE
Keybase:_Z11_As_Booleanm
Keybase:_Z11_As_ContextRN2v88internal6TaggedINS0_10HeapObjectEEE
Keybase:_Z11_As_Contextm
Keybase:_Z11_As_ForeignRN2v88internal6TaggedINS0_10HeapObjectEEE
Keybase:_Z11_As_Foreignm
Keybase:_Z11_As_JSArrayRN2v88internal6TaggedINS0_10HeapObjectEEE
Keybase:_Z11_As_JSArraym
Keybase:_Z11_As_JSProxyRN2v88internal6TaggedINS0_10HeapObjectEEE
Keybase:_Z11_As_JSProxym
Keybase:_Z11_As_OddballRN2v88internal6TaggedINS0_10HeapObjectEEE
Keybase:_Z11_As_Oddballm
Keybase:_Z11_As_SmiPairRN2v88internal6TaggedINS0_10HeapObjectEEE
Keybase:_Z11_As_SmiPairm
Keybase:_Z12_As_JSLocaleRN2v88internal6TaggedINS0_10HeapObjectEEE
Keybase:_Z12_As_JSLocalem
Keybase:_Z12_As_JSObjectRN2v88internal6TaggedINS0_10HeapObjectEEE
Keybase:_Z12_As_JSObjectm
Keybase:_Z12_As_JSRegExpRN2v88internal6TaggedINS0_10HeapObjectEEE
Keybase:_Z12_As_JSRegExpm
Keybase:_Z12_As_WasmNullRN2v88internal6TaggedINS0_10HeapObjectEEE
Keybase:_Z12_As_WasmNullm
Keybase:_Z12_As_WeakCellRN2v88internal6TaggedINS0_10HeapObjectEEE
Keybase:_Z12_As_WeakCellm
Keybase:_Z12_register_fsv
Keybase:_Z12_register_osv
Keybase:_Z12_register_uvv
Keybase:_Z12_register_v8v
Keybase:_Z13_As_ArrayListRN2v88internal6TaggedINS0_10HeapObjectEEE
Keybase:_Z13_As_ArrayListm
Keybase:_Z13_As_ByteArrayRN2v88internal6TaggedINS0_10HeapObjectEEE
Keybase:_Z13_As_ByteArraym
Keybase:_Z13_As_FreeSpaceRN2v88internal6TaggedINS0_10HeapObjectEEE
Keybase:_Z13_As_FreeSpacem
Keybase:_Z13_As_JSPromiseRN2v88internal6TaggedINS0_10HeapObjectEEE
Keybase:_Z13_As_JSPromisem
Keybase:_Z13_As_JSRawJsonRN2v88internal6TaggedINS0_10HeapObjectEEE
Keybase:_Z13_As_JSRawJsonm
Keybase:_Z13_As_JSWeakMapRN2v88internal6TaggedINS0_10HeapObjectEEE
Keybase:_Z13_As_JSWeakMapm
Keybase:_Z13_As_JSWeakRefRN2v88internal6TaggedINS0_10HeapObjectEEE
Keybase:_Z13_As_JSWeakRefm
Keybase:_Z13_As_JSWeakSetRN2v88internal6TaggedINS0_10HeapObjectEEE
Keybase:_Z13_As_JSWeakSetm
Keybase:_Z13_As_MicrotaskRN2v88internal6TaggedINS0_10HeapObjectEEE
Keybase:_Z13_As_Microtaskm
Keybase:_Z13_As_ScopeInfoRN2v88internal6TaggedINS0_10HeapObjectEEE
Keybase:_Z13_As_ScopeInfom
Keybase:_Z13_As_SeqStringRN2v88internal6TaggedINS0_10HeapObjectEEE
Keybase:_Z13_As_SeqStringm
Keybase:_Z13_As_SortStateRN2v88internal6TaggedINS0_10HeapObjectEEE
Keybase:_Z13_As_SortStatem
Keybase:_Z13_As_StringSetRN2v88internal6TaggedINS0_10HeapObjectEEE
Keybase:_Z13_As_StringSetm
Keybase:_Z13_As_UndefinedRN2v88internal6TaggedINS0_10HeapObjectEEE
Keybase:_Z13_As_Undefinedm
Keybase:_Z13_As_WasmArrayRN2v88internal6TaggedINS0_10HeapObjectEEE
Keybase:_Z13_As_WasmArraym
Keybase:_Z13_register_icuv
Keybase:_Z13_register_seav
Keybase:_Z13_register_urlv
Keybase:_Z14_As_BigIntBaseRN2v88internal6TaggedINS0_10HeapObjectEEE
Keybase:_Z14_As_BigIntBasem
Keybase:_Z14_As_ConsStringRN2v88internal6TaggedINS0_10HeapObjectEEE
Keybase:_Z14_As_ConsStringm
Keybase:_Z14_As_FixedArrayRN2v88internal6TaggedINS0_10HeapObjectEEE
Keybase:_Z14_As_FixedArraym
Keybase:_Z14_As_GcSafeCodeRN2v88internal6TaggedINS0_10HeapObjectEEE
Keybase:_Z14_As_GcSafeCodem
Keybase:_Z14_As_HeapNumberRN2v88internal6TaggedINS0_10HeapObjectEEE
Keybase:_Z14_As_HeapNumberm
Keybase:_Z14_As_JSCollatorRN2v88internal6TaggedINS0_10HeapObjectEEE
Keybase:_Z14_As_JSCollatorm
Keybase:_Z14_As_JSDataViewRN2v88internal6TaggedINS0_10HeapObjectEEE
Keybase:_Z14_As_JSDataViewm
Keybase:_Z14_As_JSFunctionRN2v88internal6TaggedINS0_10HeapObjectEEE
Keybase:_Z14_As_JSFunctionm
Keybase:_Z14_As_JSReceiverRN2v88internal6TaggedINS0_10HeapObjectEEE
Keybase:_Z14_As_JSReceiverm
Keybase:_Z14_As_JSSegmentsRN2v88internal6TaggedINS0_10HeapObjectEEE
Keybase:_Z14_As_JSSegmentsm
Keybase:_Z14_As_RegExpDataRN2v88internal6TaggedINS0_10HeapObjectEEE
Keybase:_Z14_As_RegExpDatam
Keybase:_Z14_As_ThinStringRN2v88internal6TaggedINS0_10HeapObjectEEE
Keybase:_Z14_As_ThinStringm
Keybase:_Z14_As_WasmObjectRN2v88internal6TaggedINS0_10HeapObjectEEE
Keybase:_Z14_As_WasmObjectm
Keybase:_Z14_As_WasmStructRN2v88internal6TaggedINS0_10HeapObjectEEE
Keybase:_Z14_As_WasmStructm
Keybase:_Z14_register_blobv
Keybase:_Z14_register_utilv
Keybase:_Z14_register_wasiv
Keybase:_Z14_register_zlibv
Keybase:_Z15_As_ContextCellRN2v88internal6TaggedINS0_10HeapObjectEEE
Keybase:_Z15_As_ContextCellm
Keybase:_Z15_As_DataHandlerRN2v88internal6TaggedINS0_10HeapObjectEEE
Keybase:_Z15_As_DataHandlerm
Keybase:_Z15_As_JSSegmenterRN2v88internal6TaggedINS0_10HeapObjectEEE
Keybase:_Z15_As_JSSegmenterm
Keybase:_Z15_As_LoadHandlerRN2v88internal6TaggedINS0_10HeapObjectEEE
Keybase:_Z15_As_LoadHandlerm
Keybase:_Z15_As_WasmFuncRefRN2v88internal6TaggedINS0_10HeapObjectEEE
Keybase:_Z15_As_WasmFuncRefm
Keybase:_Z15_register_http2v
Keybase:_Z15_register_typesv
Keybase:_Z16_As_AbstractCodeRN2v88internal6TaggedINS0_10HeapObjectEEE
Keybase:_Z16_As_AbstractCodem
Keybase:_Z16_As_AccessorInfoRN2v88internal6TaggedINS0_10HeapObjectEEE
Keybase:_Z16_As_AccessorInfom
Keybase:_Z16_As_CoverageInfoRN2v88internal6TaggedINS0_10HeapObjectEEE
Keybase:_Z16_As_CoverageInfom
Keybase:_Z16_As_FeedbackCellRN2v88internal6TaggedINS0_10HeapObjectEEE
Keybase:_Z16_As_FeedbackCellm
Keybase:_Z16_As_IrRegExpDataRN2v88internal6TaggedINS0_10HeapObjectEEE
Keybase:_Z16_As_IrRegExpDatam
Keybase:_Z16_As_JSCollectionRN2v88internal6TaggedINS0_10HeapObjectEEE
Keybase:_Z16_As_JSCollectionm
Keybase:_Z16_As_JSListFormatRN2v88internal6TaggedINS0_10HeapObjectEEE
Keybase:_Z16_As_JSListFormatm
Keybase:_Z16_As_JSTypedArrayRN2v88internal6TaggedINS0_10HeapObjectEEE
Keybase:_Z16_As_JSTypedArraym
Keybase:_Z16_As_PreparseDataRN2v88internal6TaggedINS0_10HeapObjectEEE
Keybase:_Z16_As_PreparseDatam
Keybase:_Z16_As_PropertyCellRN2v88internal6TaggedINS0_10HeapObjectEEE
Keybase:_Z16_As_PropertyCellm
Keybase:_Z16_As_SlicedStringRN2v88internal6TaggedINS0_10HeapObjectEEE
Keybase:_Z16_As_SlicedStringm
Keybase:_Z16_As_StoreHandlerRN2v88internal6TaggedINS0_10HeapObjectEEE
Keybase:_Z16_As_StoreHandlerm
Keybase:_Z16_As_TemplateInfoRN2v88internal6TaggedINS0_10HeapObjectEEE
Keybase:_Z16_As_TemplateInfom
Keybase:_Z16_As_TurbofanTypeRN2v88internal6TaggedINS0_10HeapObjectEEE
Keybase:_Z16_As_TurbofanTypem
Keybase:_Z16_As_WasmTypeInfoRN2v88internal6TaggedINS0_10HeapObjectEEE
Keybase:_Z16_As_WasmTypeInfom
Keybase:_Z16_register_bufferv
Keybase:_Z16_register_configv
Keybase:_Z16_register_cryptov
Keybase:_Z16_register_errorsv
Keybase:_Z16_register_fs_dirv
Keybase:_Z16_register_reportv
Keybase:_Z16_register_serdesv
Keybase:_Z16_register_sqlitev
Keybase:_Z16_register_timersv
Keybase:_Z16_register_workerv
Keybase:_Z17_As_BytecodeArrayRN2v88internal6TaggedINS0_10HeapObjectEEE
Keybase:_Z17_As_BytecodeArraym
Keybase:_Z17_As_DependentCodeRN2v88internal6TaggedINS0_10HeapObjectEEE
Keybase:_Z17_As_DependentCodem
Keybase:_Z17_As_InternalClassRN2v88internal6TaggedINS0_10HeapObjectEEE
Keybase:_Z17_As_InternalClassm
Keybase:_Z17_As_JSArrayBufferRN2v88internal6TaggedINS0_10HeapObjectEEE
Keybase:_Z17_As_JSArrayBufferm
Keybase:_Z17_As_JSGlobalProxyRN2v88internal6TaggedINS0_10HeapObjectEEE
Keybase:_Z17_As_JSGlobalProxym
Keybase:_Z17_As_JSMapIteratorRN2v88internal6TaggedINS0_10HeapObjectEEE
Keybase:_Z17_As_JSMapIteratorm
Keybase:_Z17_As_JSPluralRulesRN2v88internal6TaggedINS0_10HeapObjectEEE
Keybase:_Z17_As_JSPluralRulesm
Keybase:_Z17_As_JSSetIteratorRN2v88internal6TaggedINS0_10HeapObjectEEE
Keybase:_Z17_As_JSSetIteratorm
Keybase:_Z17_As_JSShadowRealmRN2v88internal6TaggedINS0_10HeapObjectEEE
Keybase:_Z17_As_JSShadowRealmm
Keybase:_Z17_As_JSSharedArrayRN2v88internal6TaggedINS0_10HeapObjectEEE
Keybase:_Z17_As_JSSharedArraym
Keybase:_Z17_As_NativeContextRN2v88internal6TaggedINS0_10HeapObjectEEE
Keybase:_Z17_As_NativeContextm
Keybase:_Z17_As_ObjectHashSetRN2v88internal6TaggedINS0_10HeapObjectEEE
Keybase:_Z17_As_ObjectHashSetm
Keybase:_Z17_As_PropertyArrayRN2v88internal6TaggedINS0_10HeapObjectEEE
Keybase:_Z17_As_PropertyArraym
Keybase:_Z17_As_TrustedObjectRN2v88internal6TaggedINS0_10HeapObjectEEE
Keybase:_Z17_As_TrustedObjectm
Keybase:_Z17_As_WasmTagObjectRN2v88internal6TaggedINS0_10HeapObjectEEE
Keybase:_Z17_As_WasmTagObjectm
Keybase:_Z17_As_WeakArrayListRN2v88internal6TaggedINS0_10HeapObjectEEE
Keybase:_Z17_As_WeakArrayListm
Keybase:_Z17_register_modulesv
Keybase:_Z17_register_optionsv
Keybase:_Z17_register_symbolsv
Keybase:_Z18_As_AllocationSiteRN2v88internal6TaggedINS0_10HeapObjectEEE
Keybase:_Z18_As_AllocationSitem
Keybase:_Z18_As_AtomRegExpDataRN2v88internal6TaggedINS0_10HeapObjectEEE
Keybase:_Z18_As_AtomRegExpDatam
Keybase:_Z18_As_ExternalStringRN2v88internal6TaggedINS0_10HeapObjectEEE
Keybase:_Z18_As_ExternalStringm
Keybase:_Z18_As_FeedbackVectorRN2v88internal6TaggedINS0_10HeapObjectEEE
Keybase:_Z18_As_FeedbackVectorm
Keybase:_Z18_As_FixedArrayBaseRN2v88internal6TaggedINS0_10HeapObjectEEE
Keybase:_Z18_As_FixedArrayBasem
Keybase:_Z18_As_JSAtomicsMutexRN2v88internal6TaggedINS0_10HeapObjectEEE
Keybase:_Z18_As_JSAtomicsMutexm
Keybase:_Z18_As_JSDisplayNamesRN2v88internal6TaggedINS0_10HeapObjectEEE
Keybase:_Z18_As_JSDisplayNamesm
Keybase:_Z18_As_JSGlobalObjectRN2v88internal6TaggedINS0_10HeapObjectEEE
Keybase:_Z18_As_JSGlobalObjectm
Keybase:_Z18_As_JSNumberFormatRN2v88internal6TaggedINS0_10HeapObjectEEE
Keybase:_Z18_As_JSNumberFormatm
Keybase:_Z18_As_JSSharedStructRN2v88internal6TaggedINS0_10HeapObjectEEE
Keybase:_Z18_As_JSSharedStructm
Keybase:_Z18_As_MegaDomHandlerRN2v88internal6TaggedINS0_10HeapObjectEEE
Keybase:_Z18_As_MegaDomHandlerm
Keybase:_Z18_As_NameDictionaryRN2v88internal6TaggedINS0_10HeapObjectEEE
Keybase:_Z18_As_NameDictionarym
Keybase:_Z18_As_OrderedHashMapRN2v88internal6TaggedINS0_10HeapObjectEEE
Keybase:_Z18_As_OrderedHashMapm
Keybase:_Z18_As_OrderedHashSetRN2v88internal6TaggedINS0_10HeapObjectEEE
Keybase:_Z18_As_OrderedHashSetm
Keybase:_Z18_As_TrustedForeignRN2v88internal6TaggedINS0_10HeapObjectEEE
Keybase:_Z18_As_TrustedForeignm
Keybase:_Z18_As_TurboshaftTypeRN2v88internal6TaggedINS0_10HeapObjectEEE
Keybase:_Z18_As_TurboshaftTypem
Keybase:_Z18_As_UncompiledDataRN2v88internal6TaggedINS0_10HeapObjectEEE
Keybase:_Z18_As_UncompiledDatam
Keybase:_Z18_As_WasmImportDataRN2v88internal6TaggedINS0_10HeapObjectEEE
Keybase:_Z18_As_WasmImportDatam
Keybase:_Z18_As_WasmResumeDataRN2v88internal6TaggedINS0_10HeapObjectEEE
Keybase:_Z18_As_WasmResumeDatam
Keybase:_Z18_As_WeakFixedArrayRN2v88internal6TaggedINS0_10HeapObjectEEE
Keybase:_Z18_As_WeakFixedArraym
Keybase:_Z18_register_builtinsv
Keybase:_Z18_register_profilerv
Keybase:_Z18_register_tcp_wrapv
Keybase:_Z18_register_tls_wrapv
Keybase:_Z18_register_tty_wrapv
Keybase:_Z18_register_udp_wrapv
Keybase:_Z18_register_watchdogv
Keybase:_Z19_As_DescriptorArrayRN2v88internal6TaggedINS0_10HeapObjectEEE
Keybase:_Z19_As_DescriptorArraym
Keybase:_Z19_As_FixedArrayExactRN2v88internal6TaggedINS0_10HeapObjectEEE
Keybase:_Z19_As_FixedArrayExactm
Keybase:_Z19_As_InterceptorInfoRN2v88internal6TaggedINS0_10HeapObjectEEE
Keybase:_Z19_As_InterceptorInfom
Keybase:_Z19_As_InterpreterDataRN2v88internal6TaggedINS0_10HeapObjectEEE
Keybase:_Z19_As_InterpreterDatam
Keybase:_Z19_As_JSArrayIteratorRN2v88internal6TaggedINS0_10HeapObjectEEE
Keybase:_Z19_As_JSArrayIteratorm
Keybase:_Z19_As_JSBoundFunctionRN2v88internal6TaggedINS0_10HeapObjectEEE
Keybase:_Z19_As_JSBoundFunctionm
Keybase:_Z19_As_JSMessageObjectRN2v88internal6TaggedINS0_10HeapObjectEEE
Keybase:_Z19_As_JSMessageObjectm
Keybase:_Z19_As_JSSpecialObjectRN2v88internal6TaggedINS0_10HeapObjectEEE
Keybase:_Z19_As_JSSpecialObjectm
Keybase:_Z19_As_ObjectHashTableRN2v88internal6TaggedINS0_10HeapObjectEEE
Keybase:_Z19_As_ObjectHashTablem
Keybase:_Z19_As_RegExpMatchInfoRN2v88internal6TaggedINS0_10HeapObjectEEE
Keybase:_Z19_As_RegExpMatchInfom
Keybase:_Z19_As_SyntheticModuleRN2v88internal6TaggedINS0_10HeapObjectEEE
Keybase:_Z19_As_SyntheticModulem
Keybase:_Z19_As_TransitionArrayRN2v88internal6TaggedINS0_10HeapObjectEEE
Keybase:_Z19_As_TransitionArraym
Keybase:_Z19_As_WasmTableObjectRN2v88internal6TaggedINS0_10HeapObjectEEE
Keybase:_Z19_As_WasmTableObjectm
Keybase:_Z19_As_WasmValueObjectRN2v88internal6TaggedINS0_10HeapObjectEEE
Keybase:_Z19_As_WasmValueObjectm
Keybase:_Z19_register_constantsv
Keybase:_Z19_register_inspectorv
Keybase:_Z19_register_js_streamv
Keybase:_Z19_register_messagingv
Keybase:_Z19_register_pipe_wrapv
Keybase:_Z20_As_ExportedSubClassRN2v88internal6TaggedINS0_10HeapObjectEEE
Keybase:_Z20_As_ExportedSubClassm
Keybase:_Z20_As_FeedbackMetadataRN2v88internal6TaggedINS0_10HeapObjectEEE
Keybase:_Z20_As_FeedbackMetadatam
Keybase:_Z20_As_FixedDoubleArrayRN2v88internal6TaggedINS0_10HeapObjectEEE
Keybase:_Z20_As_FixedDoubleArraym
Keybase:_Z20_As_GlobalDictionaryRN2v88internal6TaggedINS0_10HeapObjectEEE
Keybase:_Z20_As_GlobalDictionarym
Keybase:_Z20_As_JSDateTimeFormatRN2v88internal6TaggedINS0_10HeapObjectEEE
Keybase:_Z20_As_JSDateTimeFormatm
Keybase:_Z20_As_JSDurationFormatRN2v88internal6TaggedINS0_10HeapObjectEEE
Keybase:_Z20_As_JSDurationFormatm
Keybase:_Z20_As_JSExternalObjectRN2v88internal6TaggedINS0_10HeapObjectEEE
Keybase:_Z20_As_JSExternalObjectm
Keybase:_Z20_As_JSIteratorHelperRN2v88internal6TaggedINS0_10HeapObjectEEE
Keybase:_Z20_As_JSIteratorHelperm
Keybase:_Z20_As_JSStringIteratorRN2v88internal6TaggedINS0_10HeapObjectEEE
Keybase:_Z20_As_JSStringIteratorm
Keybase:_Z20_As_JSWeakCollectionRN2v88internal6TaggedINS0_10HeapObjectEEE
Keybase:_Z20_As_JSWeakCollectionm
Keybase:_Z20_As_NumberDictionaryRN2v88internal6TaggedINS0_10HeapObjectEEE
Keybase:_Z20_As_NumberDictionarym
Keybase:_Z20_As_SeqOneByteStringRN2v88internal6TaggedINS0_10HeapObjectEEE
Keybase:_Z20_As_SeqOneByteStringm
Keybase:_Z20_As_SeqTwoByteStringRN2v88internal6TaggedINS0_10HeapObjectEEE
Keybase:_Z20_As_SeqTwoByteStringm
Keybase:_Z20_As_SourceTextModuleRN2v88internal6TaggedINS0_10HeapObjectEEE
Keybase:_Z20_As_SourceTextModulem
Keybase:_Z20_As_TrustedByteArrayRN2v88internal6TaggedINS0_10HeapObjectEEE
Keybase:_Z20_As_TrustedByteArraym
Keybase:_Z20_As_WasmFunctionDataRN2v88internal6TaggedINS0_10HeapObjectEEE
Keybase:_Z20_As_WasmFunctionDatam
Keybase:_Z20_As_WasmGlobalObjectRN2v88internal6TaggedINS0_10HeapObjectEEE
Keybase:_Z20_As_WasmGlobalObjectm
Keybase:_Z20_As_WasmMemoryObjectRN2v88internal6TaggedINS0_10HeapObjectEEE
Keybase:_Z20_As_WasmMemoryObjectm
Keybase:_Z20_As_WasmModuleObjectRN2v88internal6TaggedINS0_10HeapObjectEEE
Keybase:_Z20_As_WasmModuleObjectm
Keybase:_Z20_register_async_wrapv
Keybase:_Z20_register_block_listv
Keybase:_Z20_register_cares_wrapv
Keybase:_Z20_register_contextifyv
Keybase:_Z20_register_heap_utilsv
Keybase:_Z20_register_isolate_fsPN4node11IsolateDataEN2v85LocalINS2_14ObjectTemplateEEE
Keybase:_Z20_register_mksnapshotv
Keybase:_Z20_register_permissionv
Keybase:_Z20_register_spawn_syncv
Keybase:_Z20_register_task_queuev
Keybase:_Z20_register_webstoragev
Keybase:_Z21_As_DoubleStringCacheRN2v88internal6TaggedINS0_10HeapObjectEEE
Keybase:_Z21_As_DoubleStringCachem
Keybase:_Z21_As_EmbedderDataArrayRN2v88internal6TaggedINS0_10HeapObjectEEE
Keybase:_Z21_As_EmbedderDataArraym
Keybase:_Z21_As_ExportedSubClass2RN2v88internal6TaggedINS0_10HeapObjectEEE
Keybase:_Z21_As_ExportedSubClass2m
Keybase:_Z21_As_InstructionStreamRN2v88internal6TaggedINS0_10HeapObjectEEE
Keybase:_Z21_As_InstructionStreamm
Keybase:_Z21_As_JSArgumentsObjectRN2v88internal6TaggedINS0_10HeapObjectEEE
Keybase:_Z21_As_JSArgumentsObjectm
Keybase:_Z21_As_JSArrayBufferViewRN2v88internal6TaggedINS0_10HeapObjectEEE
Keybase:_Z21_As_JSArrayBufferViewm
Keybase:_Z21_As_JSGeneratorObjectRN2v88internal6TaggedINS0_10HeapObjectEEE
Keybase:_Z21_As_JSGeneratorObjectm
Keybase:_Z21_As_JSModuleNamespaceRN2v88internal6TaggedINS0_10HeapObjectEEE
Keybase:_Z21_As_JSModuleNamespacem
Keybase:_Z21_As_JSRabGsabDataViewRN2v88internal6TaggedINS0_10HeapObjectEEE
Keybase:_Z21_As_JSRabGsabDataViewm
Keybase:_Z21_As_JSSegmentIteratorRN2v88internal6TaggedINS0_10HeapObjectEEE
Keybase:_Z21_As_JSSegmentIteratorm
Keybase:_Z21_As_JSTemporalInstantRN2v88internal6TaggedINS0_10HeapObjectEEE
Keybase:_Z21_As_JSTemporalInstantm
Keybase:_Z21_As_JSV8BreakIteratorRN2v88internal6TaggedINS0_10HeapObjectEEE
Keybase:_Z21_As_JSV8BreakIteratorm
Keybase:_Z21_As_JSWrappedFunctionRN2v88internal6TaggedINS0_10HeapObjectEEE
Keybase:_Z21_As_JSWrappedFunctionm
Keybase:_Z21_As_TrustedFixedArrayRN2v88internal6TaggedINS0_10HeapObjectEEE
Keybase:_Z21_As_TrustedFixedArraym
Keybase:_Z21_As_TurbofanRangeTypeRN2v88internal6TaggedINS0_10HeapObjectEEE
Keybase:_Z21_As_TurbofanRangeTypem
Keybase:_Z21_As_TurbofanUnionTypeRN2v88internal6TaggedINS0_10HeapObjectEEE
Keybase:_Z21_As_TurbofanUnionTypem
Keybase:_Z21_As_WasmDispatchTableRN2v88internal6TaggedINS0_10HeapObjectEEE
Keybase:_Z21_As_WasmDispatchTablem
Keybase:_Z21_register_credentialsv
Keybase:_Z21_register_http_parserv
Keybase:_Z21_register_isolate_icuPN4node11IsolateDataEN2v85LocalINS2_14ObjectTemplateEEE
Keybase:_Z21_register_isolate_urlPN4node11IsolateDataEN2v85LocalINS2_14ObjectTemplateEEE
Keybase:_Z21_register_js_udp_wrapv
Keybase:_Z21_register_module_wrapv
Keybase:_Z21_register_performancev
Keybase:_Z21_register_signal_wrapv
Keybase:_Z21_register_stream_pipev
Keybase:_Z21_register_stream_wrapv
Keybase:_Z22_As_DeoptimizationDataRN2v88internal6TaggedINS0_10HeapObjectEEE
Keybase:_Z22_As_DeoptimizationDatam
Keybase:_Z22_As_EphemeronHashTableRN2v88internal6TaggedINS0_10HeapObjectEEE
Keybase:_Z22_As_EphemeronHashTablem
Keybase:_Z22_As_InternalizedStringRN2v88internal6TaggedINS0_10HeapObjectEEE
Keybase:_Z22_As_InternalizedStringm
Keybase:_Z22_As_JSAtomicsConditionRN2v88internal6TaggedINS0_10HeapObjectEEE
Keybase:_Z22_As_JSAtomicsConditionm
Keybase:_Z22_As_JSPrimitiveWrapperRN2v88internal6TaggedINS0_10HeapObjectEEE
Keybase:_Z22_As_JSPrimitiveWrapperm
Keybase:_Z22_As_JSTemporalDurationRN2v88internal6TaggedINS0_10HeapObjectEEE
Keybase:_Z22_As_JSTemporalDurationm
Keybase:_Z22_As_NormalizedMapCacheRN2v88internal6TaggedINS0_10HeapObjectEEE
Keybase:_Z22_As_NormalizedMapCachem
Keybase:_Z22_As_ObjectTemplateInfoRN2v88internal6TaggedINS0_10HeapObjectEEE
Keybase:_Z22_As_ObjectTemplateInfom
Keybase:_Z22_As_ObjectTwoHashTableRN2v88internal6TaggedINS0_10HeapObjectEEE
Keybase:_Z22_As_ObjectTwoHashTablem
Keybase:_Z22_As_ScriptContextTableRN2v88internal6TaggedINS0_10HeapObjectEEE
Keybase:_Z22_As_ScriptContextTablem
Keybase:_Z22_As_SharedFunctionInfoRN2v88internal6TaggedINS0_10HeapObjectEEE
Keybase:_Z22_As_SharedFunctionInfom
Keybase:_Z22_As_TurbofanBitsetTypeRN2v88internal6TaggedINS0_10HeapObjectEEE
Keybase:_Z22_As_TurbofanBitsetTypem
Keybase:_Z22_As_WasmInstanceObjectRN2v88internal6TaggedINS0_10HeapObjectEEE
Keybase:_Z22_As_WasmInstanceObjectm
Keybase:_Z22_As_WasmJSFunctionDataRN2v88internal6TaggedINS0_10HeapObjectEEE
Keybase:_Z22_As_WasmJSFunctionDatam
Keybase:_Z22_As_WasmStringViewIterRN2v88internal6TaggedINS0_10HeapObjectEEE
Keybase:_Z22_As_WasmStringViewIterm
Keybase:_Z22_register_isolate_blobPN4node11IsolateDataEN2v85LocalINS2_14ObjectTemplateEEE
Keybase:_Z22_register_process_wrapv
Keybase:_Z22_register_trace_eventsv
Keybase:_Z22_register_wasm_web_apiv
Keybase:_Z23_As_JSIteratorMapHelperRN2v88internal6TaggedINS0_10HeapObjectEEE
Keybase:_Z23_As_JSIteratorMapHelperm
Keybase:_Z23_As_JSSegmentDataObjectRN2v88internal6TaggedINS0_10HeapObjectEEE
Keybase:_Z23_As_JSSegmentDataObjectm
Keybase:_Z23_As_JSTemporalPlainDateRN2v88internal6TaggedINS0_10HeapObjectEEE
Keybase:_Z23_As_JSTemporalPlainDatem
Keybase:_Z23_As_JSTemporalPlainTimeRN2v88internal6TaggedINS0_10HeapObjectEEE
Keybase:_Z23_As_JSTemporalPlainTimem
Keybase:_Z23_As_PrimitiveHeapObjectRN2v88internal6TaggedINS0_10HeapObjectEEE
Keybase:_Z23_As_PrimitiveHeapObjectm
Keybase:_Z23_As_ProtectedFixedArrayRN2v88internal6TaggedINS0_10HeapObjectEEE
Keybase:_Z23_As_ProtectedFixedArraym
Keybase:_Z23_As_SmallOrderedHashMapRN2v88internal6TaggedINS0_10HeapObjectEEE
Keybase:_Z23_As_SmallOrderedHashMapm
Keybase:_Z23_As_SmallOrderedHashSetRN2v88internal6TaggedINS0_10HeapObjectEEE
Keybase:_Z23_As_SmallOrderedHashSetm
Keybase:_Z23_As_SwissNameDictionaryRN2v88internal6TaggedINS0_10HeapObjectEEE
Keybase:_Z23_As_SwissNameDictionarym
Keybase:_Z23_As_WasmFastApiCallDataRN2v88internal6TaggedINS0_10HeapObjectEEE
Keybase:_Z23_As_WasmFastApiCallDatam
Keybase:_Z23_As_WasmSuspenderObjectRN2v88internal6TaggedINS0_10HeapObjectEEE
Keybase:_Z23_As_WasmSuspenderObjectm
Keybase:_Z23_register_fs_event_wrapv
Keybase:_Z23_v8_internal_Get_ObjectPv
Keybase:_Z23_v8_internal_Node_PrintPv
Keybase:_Z24_As_ExportedSubClassBaseRN2v88internal6TaggedINS0_10HeapObjectEEE
Keybase:_Z24_As_ExportedSubClassBasem
Keybase:_Z24_As_ExposedTrustedObjectRN2v88internal6TaggedINS0_10HeapObjectEEE
Keybase:_Z24_As_ExposedTrustedObjectm
Keybase:_Z24_As_FunctionTemplateInfoRN2v88internal6TaggedINS0_10HeapObjectEEE
Keybase:_Z24_As_FunctionTemplateInfom
Keybase:_Z24_As_JSCollectionIteratorRN2v88internal6TaggedINS0_10HeapObjectEEE
Keybase:_Z24_As_JSCollectionIteratorm
Keybase:_Z24_As_JSIteratorDropHelperRN2v88internal6TaggedINS0_10HeapObjectEEE
Keybase:_Z24_As_JSIteratorDropHelperm
Keybase:_Z24_As_JSIteratorTakeHelperRN2v88internal6TaggedINS0_10HeapObjectEEE
Keybase:_Z24_As_JSIteratorTakeHelperm
Keybase:_Z24_As_JSRelativeTimeFormatRN2v88internal6TaggedINS0_10HeapObjectEEE
Keybase:_Z24_As_JSRelativeTimeFormatm
Keybase:_Z24_As_NameToIndexHashTableRN2v88internal6TaggedINS0_10HeapObjectEEE
Keybase:_Z24_As_NameToIndexHashTablem
Keybase:_Z24_As_SimpleNameDictionaryRN2v88internal6TaggedINS0_10HeapObjectEEE
Keybase:_Z24_As_SimpleNameDictionarym
Keybase:_Z24_As_SourceTextModuleInfoRN2v88internal6TaggedINS0_10HeapObjectEEE
Keybase:_Z24_As_SourceTextModuleInfom
Keybase:_Z24_As_TurboshaftWord32TypeRN2v88internal6TaggedINS0_10HeapObjectEEE
Keybase:_Z24_As_TurboshaftWord32Typem
Keybase:_Z24_As_TurboshaftWord64TypeRN2v88internal6TaggedINS0_10HeapObjectEEE
Keybase:_Z24_As_TurboshaftWord64Typem
Keybase:_Z24_As_WasmCapiFunctionDataRN2v88internal6TaggedINS0_10HeapObjectEEE
Keybase:_Z24_As_WasmCapiFunctionDatam
Keybase:_Z24_As_WasmExceptionPackageRN2v88internal6TaggedINS0_10HeapObjectEEE
Keybase:_Z24_As_WasmExceptionPackagem
Keybase:_Z24_As_WasmInternalFunctionRN2v88internal6TaggedINS0_10HeapObjectEEE
Keybase:_Z24_As_WasmInternalFunctionm
Keybase:_Z24_As_WasmSuspendingObjectRN2v88internal6TaggedINS0_10HeapObjectEEE
Keybase:_Z24_As_WasmSuspendingObjectm
Keybase:_Z24_register_isolate_fs_dirPN4node11IsolateDataEN2v85LocalINS2_14ObjectTemplateEEE
Keybase:_Z24_register_isolate_timersPN4node11IsolateDataEN2v85LocalINS2_14ObjectTemplateEEE
Keybase:_Z24_register_isolate_workerPN4node11IsolateDataEN2v85LocalINS2_14ObjectTemplateEEE
Keybase:_Z24_register_string_decoderv
Keybase:_Z25_As_AbstractInternalClassRN2v88internal6TaggedINS0_10HeapObjectEEE
Keybase:_Z25_As_AbstractInternalClassm
Keybase:_Z25_As_CompilationCacheTableRN2v88internal6TaggedINS0_10HeapObjectEEE
Keybase:_Z25_As_CompilationCacheTablem
Keybase:_Z25_As_CppHeapExternalObjectRN2v88internal6TaggedINS0_10HeapObjectEEE
Keybase:_Z25_As_CppHeapExternalObjectm
Keybase:_Z25_As_ExternalOneByteStringRN2v88internal6TaggedINS0_10HeapObjectEEE
Keybase:_Z25_As_ExternalOneByteStringm
Keybase:_Z25_As_ExternalTwoByteStringRN2v88internal6TaggedINS0_10HeapObjectEEE
Keybase:_Z25_As_ExternalTwoByteStringm
Keybase:_Z25_As_JSAsyncFunctionObjectRN2v88internal6TaggedINS0_10HeapObjectEEE
Keybase:_Z25_As_JSAsyncFunctionObjectm
Keybase:_Z25_As_JSDisposableStackBaseRN2v88internal6TaggedINS0_10HeapObjectEEE
Keybase:_Z25_As_JSDisposableStackBasem
Keybase:_Z25_As_JSSyncDisposableStackRN2v88internal6TaggedINS0_10HeapObjectEEE
Keybase:_Z25_As_JSSyncDisposableStackm
Keybase:_Z25_As_OrderedNameDictionaryRN2v88internal6TaggedINS0_10HeapObjectEEE
Keybase:_Z25_As_OrderedNameDictionarym
Keybase:_Z25_As_RegisteredSymbolTableRN2v88internal6TaggedINS0_10HeapObjectEEE
Keybase:_Z25_As_RegisteredSymbolTablem
Keybase:_Z25_As_StrongDescriptorArrayRN2v88internal6TaggedINS0_10HeapObjectEEE
Keybase:_Z25_As_StrongDescriptorArraym
Keybase:_Z25_As_TemplateLiteralObjectRN2v88internal6TaggedINS0_10HeapObjectEEE
Keybase:_Z25_As_TemplateLiteralObjectm
Keybase:_Z25_As_TrustedWeakFixedArrayRN2v88internal6TaggedINS0_10HeapObjectEEE
Keybase:_Z25_As_TrustedWeakFixedArraym
Keybase:_Z25_As_TurboshaftFloat64TypeRN2v88internal6TaggedINS0_10HeapObjectEEE
Keybase:_Z25_As_TurboshaftFloat64Typem
Keybase:_Z25_register_isolate_modulesPN4node11IsolateDataEN2v85LocalINS2_14ObjectTemplateEEE
Keybase:_Z25_register_process_methodsv
Keybase:_Z26_As_DictionaryTemplateInfoRN2v88internal6TaggedINS0_10HeapObjectEEE
Keybase:_Z26_As_DictionaryTemplateInfom
Keybase:_Z26_As_JSAsyncDisposableStackRN2v88internal6TaggedINS0_10HeapObjectEEE
Keybase:_Z26_As_JSAsyncDisposableStackm
Keybase:_Z26_As_JSAsyncGeneratorObjectRN2v88internal6TaggedINS0_10HeapObjectEEE
Keybase:_Z26_As_JSAsyncGeneratorObjectm
Keybase:_Z26_As_JSCustomElementsObjectRN2v88internal6TaggedINS0_10HeapObjectEEE
Keybase:_Z26_As_JSCustomElementsObjectm
Keybase:_Z26_As_JSFinalizationRegistryRN2v88internal6TaggedINS0_10HeapObjectEEE
Keybase:_Z26_As_JSFinalizationRegistrym
Keybase:_Z26_As_JSIteratorFilterHelperRN2v88internal6TaggedINS0_10HeapObjectEEE
Keybase:_Z26_As_JSIteratorFilterHelperm
Keybase:_Z26_As_JSRegExpStringIteratorRN2v88internal6TaggedINS0_10HeapObjectEEE
Keybase:_Z26_As_JSRegExpStringIteratorm
Keybase:_Z26_As_JSValidIteratorWrapperRN2v88internal6TaggedINS0_10HeapObjectEEE
Keybase:_Z26_As_JSValidIteratorWrapperm
Keybase:_Z26_As_PromiseReactionJobTaskRN2v88internal6TaggedINS0_10HeapObjectEEE
Keybase:_Z26_As_PromiseReactionJobTaskm
Keybase:_Z26_As_SimpleNumberDictionaryRN2v88internal6TaggedINS0_10HeapObjectEEE
Keybase:_Z26_As_SimpleNumberDictionarym
Keybase:_Z26_As_WasmContinuationObjectRN2v88internal6TaggedINS0_10HeapObjectEEE
Keybase:_Z26_As_WasmContinuationObjectm
Keybase:_Z26_register_encoding_bindingv
Keybase:_Z26_register_internal_only_v8v
Keybase:_Z26_register_isolate_builtinsPN4node11IsolateDataEN2v85LocalINS2_14ObjectTemplateEEE
Keybase:_Z27_As_JSAsyncFromSyncIteratorRN2v88internal6TaggedINS0_10HeapObjectEEE
Keybase:_Z27_As_JSAsyncFromSyncIteratorm
Keybase:_Z27_As_JSIteratorFlatMapHelperRN2v88internal6TaggedINS0_10HeapObjectEEE
Keybase:_Z27_As_JSIteratorFlatMapHelperm
Keybase:_Z27_As_JSTemporalPlainDateTimeRN2v88internal6TaggedINS0_10HeapObjectEEE
Keybase:_Z27_As_JSTemporalPlainDateTimem
Keybase:_Z27_As_JSTemporalPlainMonthDayRN2v88internal6TaggedINS0_10HeapObjectEEE
Keybase:_Z27_As_JSTemporalPlainMonthDaym
Keybase:_Z27_As_JSTemporalZonedDateTimeRN2v88internal6TaggedINS0_10HeapObjectEEE
Keybase:_Z27_As_JSTemporalZonedDateTimem
Keybase:_Z27_As_ProtectedWeakFixedArrayRN2v88internal6TaggedINS0_10HeapObjectEEE
Keybase:_Z27_As_ProtectedWeakFixedArraym
Keybase:_Z27_As_SloppyArgumentsElementsRN2v88internal6TaggedINS0_10HeapObjectEEE
Keybase:_Z27_As_SloppyArgumentsElementsm
Keybase:_Z27_As_TurboshaftWord32SetTypeRN2v88internal6TaggedINS0_10HeapObjectEEE
Keybase:_Z27_As_TurboshaftWord32SetTypem
Keybase:_Z27_As_TurboshaftWord64SetTypeRN2v88internal6TaggedINS0_10HeapObjectEEE
Keybase:_Z27_As_TurboshaftWord64SetTypem
Keybase:_Z27_As_WasmMemoryMapDescriptorRN2v88internal6TaggedINS0_10HeapObjectEEE
Keybase:_Z27_As_WasmMemoryMapDescriptorm
Keybase:_Z27_As_WasmTrustedInstanceDataRN2v88internal6TaggedINS0_10HeapObjectEEE
Keybase:_Z27_As_WasmTrustedInstanceDatam
Keybase:_Z27_register_isolate_messagingPN4node11IsolateDataEN2v85LocalINS2_14ObjectTemplateEEE
Keybase:_Z28_As_ClosureFeedbackCellArrayRN2v88internal6TaggedINS0_10HeapObjectEEE
Keybase:_Z28_As_ClosureFeedbackCellArraym
Keybase:_Z28_As_JSTemporalPlainYearMonthRN2v88internal6TaggedINS0_10HeapObjectEEE
Keybase:_Z28_As_JSTemporalPlainYearMonthm
Keybase:_Z28_As_TurbofanHeapConstantTypeRN2v88internal6TaggedINS0_10HeapObjectEEE
Keybase:_Z28_As_TurbofanHeapConstantTypem
Keybase:_Z28_As_TurboshaftFloat64SetTypeRN2v88internal6TaggedINS0_10HeapObjectEEE
Keybase:_Z28_As_TurboshaftFloat64SetTypem
Keybase:_Z28_As_WasmExportedFunctionDataRN2v88internal6TaggedINS0_10HeapObjectEEE
Keybase:_Z28_As_WasmExportedFunctionDatam
Keybase:_Z28_register_isolate_async_wrapPN4node11IsolateDataEN2v85LocalINS2_14ObjectTemplateEEE
Keybase:_Z28_register_isolate_contextifyPN4node11IsolateDataEN2v85LocalINS2_14ObjectTemplateEEE
Keybase:_Z28_register_isolate_mksnapshotPN4node11IsolateDataEN2v85LocalINS2_14ObjectTemplateEEE
Keybase:_Z29_As_JSObjectWithEmbedderSlotsRN2v88internal6TaggedINS0_10HeapObjectEEE
Keybase:_Z29_As_JSObjectWithEmbedderSlotsm
Keybase:_Z29_As_SharedFunctionInfoWrapperRN2v88internal6TaggedINS0_10HeapObjectEEE
Keybase:_Z29_As_SharedFunctionInfoWrapperm
Keybase:_Z29_As_TurboshaftWord32RangeTypeRN2v88internal6TaggedINS0_10HeapObjectEEE
Keybase:_Z29_As_TurboshaftWord32RangeTypem
Keybase:_Z29_As_TurboshaftWord64RangeTypeRN2v88internal6TaggedINS0_10HeapObjectEEE
Keybase:_Z29_As_TurboshaftWord64RangeTypem
Keybase:_Z29_register_async_context_framev
Keybase:_Z29_register_isolate_http_parserPN4node11IsolateDataEN2v85LocalINS2_14ObjectTemplateEEE
Keybase:_Z29_register_isolate_module_wrapPN4node11IsolateDataEN2v85LocalINS2_14ObjectTemplateEEE
Keybase:_Z29_register_isolate_performancePN4node11IsolateDataEN2v85LocalINS2_14ObjectTemplateEEE
Keybase:_Z30_As_JSSynchronizationPrimitiveRN2v88internal6TaggedINS0_10HeapObjectEEE
Keybase:_Z30_As_JSSynchronizationPrimitivem
Keybase:_Z30_As_SmallOrderedNameDictionaryRN2v88internal6TaggedINS0_10HeapObjectEEE
Keybase:_Z30_As_SmallOrderedNameDictionarym
Keybase:_Z30_As_TemplateInfoWithPropertiesRN2v88internal6TaggedINS0_10HeapObjectEEE
Keybase:_Z30_As_TemplateInfoWithPropertiesm
Keybase:_Z30_As_TurboshaftFloat64RangeTypeRN2v88internal6TaggedINS0_10HeapObjectEEE
Keybase:_Z30_As_TurboshaftFloat64RangeTypem
Keybase:_Z30_v8_internal_Expand_StackTracePN2v88internal7IsolateE
Keybase:_Z30napi_module_register_by_symbolN2v85LocalINS_6ObjectEEENS0_INS_5ValueEEENS0_INS_7ContextEEEPFP12napi_value__P10napi_env__S8_Ei
Keybase:_Z31_As_JSDataViewOrRabGsabDataViewRN2v88internal6TaggedINS0_10HeapObjectEEE
Keybase:_Z31_As_JSDataViewOrRabGsabDataViewm
Keybase:_Z31_register_external_reference_fsPN4node25ExternalReferenceRegistryE
Keybase:_Z31_register_external_reference_osPN4node25ExternalReferenceRegistryE
Keybase:_Z31_register_external_reference_uvPN4node25ExternalReferenceRegistryE
Keybase:_Z31_register_external_reference_v8PN4node25ExternalReferenceRegistryE
Keybase:_Z32_As_JSAPIObjectWithEmbedderSlotsRN2v88internal6TaggedINS0_10HeapObjectEEE
Keybase:_Z32_As_JSAPIObjectWithEmbedderSlotsm
Keybase:_Z32_As_ObjectBoilerplateDescriptionRN2v88internal6TaggedINS0_10HeapObjectEEE
Keybase:_Z32_As_ObjectBoilerplateDescriptionm
Keybase:_Z32_As_OnHeapBasicBlockProfilerDataRN2v88internal6TaggedINS0_10HeapObjectEEE
Keybase:_Z32_As_OnHeapBasicBlockProfilerDatam
Keybase:_Z32_register_external_reference_icuPN4node25ExternalReferenceRegistryE
Keybase:_Z32_register_external_reference_seaPN4node25ExternalReferenceRegistryE
Keybase:_Z32_register_external_reference_urlPN4node25ExternalReferenceRegistryE
Keybase:_Z33_register_external_reference_blobPN4node25ExternalReferenceRegistryE
Keybase:_Z33_register_external_reference_utilPN4node25ExternalReferenceRegistryE
Keybase:_Z33_register_external_reference_zlibPN4node25ExternalReferenceRegistryE
Keybase:_Z33_register_isolate_process_methodsPN4node11IsolateDataEN2v85LocalINS2_14ObjectTemplateEEE
Keybase:_Z34_As_AbstractInternalClassSubclass1RN2v88internal6TaggedINS0_10HeapObjectEEE
Keybase:_Z34_As_AbstractInternalClassSubclass1m
Keybase:_Z34_As_AbstractInternalClassSubclass2RN2v88internal6TaggedINS0_10HeapObjectEEE
Keybase:_Z34_As_AbstractInternalClassSubclass2m
Keybase:_Z34_As_UncompiledDataWithPreparseDataRN2v88internal6TaggedINS0_10HeapObjectEEE
Keybase:_Z34_As_UncompiledDataWithPreparseDatam
Keybase:_Z34_register_external_reference_typesPN4node25ExternalReferenceRegistryE
Keybase:_Z34_register_isolate_encoding_bindingPN4node11IsolateDataEN2v85LocalINS2_14ObjectTemplateEEE
Keybase:_Z34get_node_api_context_register_funcPN4node11EnvironmentEPKci
Keybase:_Z35_As_InternalClassWithStructElementsRN2v88internal6TaggedINS0_10HeapObjectEEE
Keybase:_Z35_As_InternalClassWithStructElementsm
Keybase:_Z35_As_TurbofanOtherNumberConstantTypeRN2v88internal6TaggedINS0_10HeapObjectEEE
Keybase:_Z35_As_TurbofanOtherNumberConstantTypem
Keybase:_Z35_register_external_reference_bufferPN4node25ExternalReferenceRegistryE
Keybase:_Z35_register_external_reference_configPN4node25ExternalReferenceRegistryE
Keybase:_Z35_register_external_reference_cryptoPN4node25ExternalReferenceRegistryE
Keybase:_Z35_register_external_reference_errorsPN4node25ExternalReferenceRegistryE
Keybase:_Z35_register_external_reference_fs_dirPN4node25ExternalReferenceRegistryE
Keybase:_Z35_register_external_reference_reportPN4node25ExternalReferenceRegistryE
Keybase:_Z35_register_external_reference_serdesPN4node25ExternalReferenceRegistryE
Keybase:_Z35_register_external_reference_timersPN4node25ExternalReferenceRegistryE
Keybase:_Z35_register_external_reference_workerPN4node25ExternalReferenceRegistryE
Keybase:_Z35_v8_internal_Print_Object_To_StringPv
Keybase:_Z36_register_external_reference_bindingPN4node25ExternalReferenceRegistryE
Keybase:_Z36_register_external_reference_env_varPN4node25ExternalReferenceRegistryE
Keybase:_Z36_register_external_reference_modulesPN4node25ExternalReferenceRegistryE
Keybase:_Z36_register_external_reference_optionsPN4node25ExternalReferenceRegistryE
Keybase:_Z37_As_JSSegmentDataObjectWithIsWordLikeRN2v88internal6TaggedINS0_10HeapObjectEEE
Keybase:_Z37_As_JSSegmentDataObjectWithIsWordLikem
Keybase:_Z37_As_UncompiledDataWithoutPreparseDataRN2v88internal6TaggedINS0_10HeapObjectEEE
Keybase:_Z37_As_UncompiledDataWithoutPreparseDatam
Keybase:_Z37_register_external_reference_builtinsPN4node25ExternalReferenceRegistryE
Keybase:_Z37_register_external_reference_profilerPN4node25ExternalReferenceRegistryE
Keybase:_Z37_register_external_reference_tcp_wrapPN4node25ExternalReferenceRegistryE
Keybase:_Z37_register_external_reference_tls_wrapPN4node25ExternalReferenceRegistryE
Keybase:_Z37_register_external_reference_tty_wrapPN4node25ExternalReferenceRegistryE
Keybase:_Z37_register_external_reference_udp_wrapPN4node25ExternalReferenceRegistryE
Keybase:_Z38_register_external_reference_inspectorPN4node25ExternalReferenceRegistryE
Keybase:_Z38_register_external_reference_messagingPN4node25ExternalReferenceRegistryE
Keybase:_Z38_register_external_reference_pipe_wrapPN4node25ExternalReferenceRegistryE
Keybase:_Z39_register_external_reference_async_wrapPN4node25ExternalReferenceRegistryE
Keybase:_Z39_register_external_reference_cares_wrapPN4node25ExternalReferenceRegistryE
Keybase:_Z39_register_external_reference_contextifyPN4node25ExternalReferenceRegistryE
Keybase:_Z39_register_external_reference_heap_utilsPN4node25ExternalReferenceRegistryE
Keybase:_Z39_register_external_reference_mksnapshotPN4node25ExternalReferenceRegistryE
Keybase:_Z39_register_external_reference_permissionPN4node25ExternalReferenceRegistryE
Keybase:_Z39_register_external_reference_spawn_syncPN4node25ExternalReferenceRegistryE
Keybase:_Z39_register_external_reference_task_queuePN4node25ExternalReferenceRegistryE
Keybase:_Z40_As_UncompiledDataWithPreparseDataAndJobRN2v88internal6TaggedINS0_10HeapObjectEEE
Keybase:_Z40_As_UncompiledDataWithPreparseDataAndJobm
Keybase:_Z40_register_external_reference_credentialsPN4node25ExternalReferenceRegistryE
Keybase:_Z40_register_external_reference_handle_wrapPN4node25ExternalReferenceRegistryE
Keybase:_Z40_register_external_reference_http_parserPN4node25ExternalReferenceRegistryE
Keybase:_Z40_register_external_reference_module_wrapPN4node25ExternalReferenceRegistryE
Keybase:_Z40_register_external_reference_performancePN4node25ExternalReferenceRegistryE
Keybase:_Z40_register_external_reference_signal_wrapPN4node25ExternalReferenceRegistryE
Keybase:_Z40_register_external_reference_stream_wrapPN4node25ExternalReferenceRegistryE
Keybase:_Z41_register_external_reference_process_wrapPN4node25ExternalReferenceRegistryE
Keybase:_Z41_register_external_reference_trace_eventsPN4node25ExternalReferenceRegistryE
Keybase:_Z41_register_external_reference_wasm_web_apiPN4node25ExternalReferenceRegistryE
Keybase:_Z42_register_external_reference_fs_event_wrapPN4node25ExternalReferenceRegistryE
Keybase:_Z43_register_external_reference_process_objectPN4node25ExternalReferenceRegistryE
Keybase:_Z43_register_external_reference_string_decoderPN4node25ExternalReferenceRegistryE
Keybase:_Z44_As_UncompiledDataWithoutPreparseDataWithJobRN2v88internal6TaggedINS0_10HeapObjectEEE
Keybase:_Z44_As_UncompiledDataWithoutPreparseDataWithJobm
Keybase:_Z44_register_external_reference_process_methodsPN4node25ExternalReferenceRegistryE
Keybase:_Z45_register_external_reference_encoding_bindingPN4node25ExternalReferenceRegistryE
Keybase:_Z45_register_external_reference_internal_only_v8PN4node25ExternalReferenceRegistryE
Keybase:_Z46_As_JSFunctionOrBoundFunctionOrWrappedFunctionRN2v88internal6TaggedINS0_10HeapObjectEEE
Keybase:_Z46_As_JSFunctionOrBoundFunctionOrWrappedFunctionm
Keybase:_Z7_As_MapRN2v88internal6TaggedINS0_10HeapObjectEEE
Keybase:_Z7_As_Mapm
Keybase:_Z8_As_CellRN2v88internal6TaggedINS0_10HeapObjectEEE
Keybase:_Z8_As_Cellm
Keybase:_Z8_As_CodeRN2v88internal6TaggedINS0_10HeapObjectEEE
Keybase:_Z8_As_Codem
Keybase:_Z8_As_HoleRN2v88internal6TaggedINS0_10HeapObjectEEE
Keybase:_Z8_As_Holem
Keybase:_Z8_As_NameRN2v88internal6TaggedINS0_10HeapObjectEEE
Keybase:_Z8_As_Namem
Keybase:_Z8_As_NullRN2v88internal6TaggedINS0_10HeapObjectEEE
Keybase:_Z8_As_Nullm
Keybase:_Z8_As_TrueRN2v88internal6TaggedINS0_10HeapObjectEEE
Keybase:_Z8_As_Truem
Keybase:_Z9_As_FalseRN2v88internal6TaggedINS0_10HeapObjectEEE
Keybase:_Z9_As_Falsem
Keybase:_Z9_As_JSMapRN2v88internal6TaggedINS0_10HeapObjectEEE
Keybase:_Z9_As_JSMapm
Keybase:_Z9_As_JSSetRN2v88internal6TaggedINS0_10HeapObjectEEE
Keybase:_Z9_As_JSSetm
Keybase:_ZN10napi_env__21InvokeFinalizerFromGCEPN6v8impl10RefTrackerE
Keybase:_ZN12v8_inspector11V8Inspector6createEPN2v87IsolateEPNS_17V8InspectorClientE
Keybase:_ZN12v8_inspector12StringBuffer6createENS_10StringViewE
Keybase:_ZN12v8_inspector12V8DebuggerIdC1ENSt4__Cr4pairIllEE
Keybase:_ZN12v8_inspector12V8DebuggerIdC2ENSt4__Cr4pairIllEE
Keybase:_ZN12v8_inspector13V8ContextInfo18executionContextIdEN2v85LocalINS1_7ContextEEE
Keybase:_ZN12v8_inspector14V8StackTraceId8ToStringEv
Keybase:_ZN12v8_inspector14V8StackTraceIdC1ENS_10StringViewE
Keybase:_ZN12v8_inspector14V8StackTraceIdC1EmNSt4__Cr4pairIllEE
Keybase:_ZN12v8_inspector14V8StackTraceIdC1EmNSt4__Cr4pairIllEEb
Keybase:_ZN12v8_inspector14V8StackTraceIdC1Ev
Keybase:_ZN12v8_inspector14V8StackTraceIdC2ENS_10StringViewE
Keybase:_ZN12v8_inspector14V8StackTraceIdC2EmNSt4__Cr4pairIllEE
Keybase:_ZN12v8_inspector14V8StackTraceIdC2EmNSt4__Cr4pairIllEEb
Keybase:_ZN12v8_inspector14V8StackTraceIdC2Ev
Keybase:_ZN12v8_inspector18V8InspectorSession17canDispatchMethodENS_10StringViewE
Keybase:_ZN12v8_inspector28SetMaxAsyncTaskStacksForTestEPNS_11V8InspectorEi
Keybase:_ZN12v8_inspector31DumpAsyncTaskStacksStateForTestEPNS_11V8InspectorE
Keybase:_ZN12v8_inspector31V8SerializationDuplicateTracker20LinkExistingOrCreateEN2v85LocalINS1_5ValueEEEPb
Keybase:_ZN12v8_inspector31V8SerializationDuplicateTracker23SetKnownSerializedValueEN2v85LocalINS1_5ValueEEEPNS_8protocol15DictionaryValueE
Keybase:_ZN12v8_inspector31V8SerializationDuplicateTracker24FindKnownSerializedValueEN2v85LocalINS1_5ValueEEE
Keybase:_ZN12v8_inspector31V8SerializationDuplicateTrackerC1EN2v85LocalINS1_7ContextEEE
Keybase:_ZN12v8_inspector31V8SerializationDuplicateTrackerC2EN2v85LocalINS1_7ContextEEE
Keybase:_ZN12v8_inspector8String1611fromUTF16LEEPKDsm
Keybase:_ZN12v8_inspector8String1611fromUTF16LEEPKtm
Keybase:_ZN12v8_inspector8String168fromUTF8EPKcm
Keybase:_ZN12v8_inspector8String16C1EPKDs
Keybase:_ZN12v8_inspector8String16C1EPKc
Keybase:_ZN12v8_inspector8String16C2EPKDs
Keybase:_ZN12v8_inspector8String16C2EPKc
Keybase:_ZN12v8_inspector8protocol6Binary10fromBase64ERKNS_8String16EPb
Keybase:_ZN12v8_inspector8protocol6Schema3API6Domain10fromBinaryEPKhm
Keybase:_ZN12v8_inspector8protocol7Runtime3API10StackTrace10fromBinaryEPKhm
Keybase:_ZN12v8_inspector8protocol7Runtime3API12RemoteObject10fromBinaryEPKhm
Keybase:_ZN12v8_inspector8protocol7Runtime3API12StackTraceId10fromBinaryEPKhm
Keybase:_ZN12v8_inspector8protocol8Debugger3API11SearchMatch10fromBinaryEPKhm
Keybase:_ZN12v8_inspector8protocol8Debugger3API6Paused10ReasonEnum12CSPViolationE
Keybase:_ZN12v8_inspector8protocol8Debugger3API6Paused10ReasonEnum12DebugCommandE
Keybase:_ZN12v8_inspector8protocol8Debugger3API6Paused10ReasonEnum13EventListenerE
Keybase:_ZN12v8_inspector8protocol8Debugger3API6Paused10ReasonEnum15InstrumentationE
Keybase:_ZN12v8_inspector8protocol8Debugger3API6Paused10ReasonEnum16PromiseRejectionE
Keybase:_ZN12v8_inspector8protocol8Debugger3API6Paused10ReasonEnum3DOME
Keybase:_ZN12v8_inspector8protocol8Debugger3API6Paused10ReasonEnum3OOME
Keybase:_ZN12v8_inspector8protocol8Debugger3API6Paused10ReasonEnum3XHRE
Keybase:_ZN12v8_inspector8protocol8Debugger3API6Paused10ReasonEnum4StepE
Keybase:_ZN12v8_inspector8protocol8Debugger3API6Paused10ReasonEnum5OtherE
Keybase:_ZN12v8_inspector8protocol8Debugger3API6Paused10ReasonEnum6AssertE
Keybase:_ZN12v8_inspector8protocol8Debugger3API6Paused10ReasonEnum9AmbiguousE
Keybase:_ZN12v8_inspector8protocol8Debugger3API6Paused10ReasonEnum9ExceptionE
Keybase:_ZN15node_napi_env__13CallFinalizerEPFvP10napi_env__PvS2_ES2_S2_
Keybase:_ZN15node_napi_env__16EnqueueFinalizerEPN6v8impl10RefTrackerE
Keybase:_ZN15node_napi_env__19DrainFinalizerQueueEv
Keybase:_ZN15node_napi_env__23trigger_fatal_exceptionEN2v85LocalINS0_5ValueEEE
Keybase:_ZN15node_napi_env__3NewEN2v85LocalINS0_7ContextEEERKNSt4__Cr12basic_stringIcNS4_11char_traitsIcEENS4_9allocatorIcEEEEi
Keybase:_ZN15node_napi_env__8DeleteMeEv
Keybase:_ZN15node_napi_env__C1EN2v85LocalINS0_7ContextEEERKNSt4__Cr12basic_stringIcNS4_11char_traitsIcEENS4_9allocatorIcEEEEi
Keybase:_ZN15node_napi_env__C2EN2v85LocalINS0_7ContextEEERKNSt4__Cr12basic_stringIcNS4_11char_traitsIcEENS4_9allocatorIcEEEEi
Keybase:_ZN2v810CpuProfile6DeleteEv
Keybase:_ZN2v810FixedArray9CheckCastEPNS_4DataE
Keybase:_ZN2v810Int16Array3NewENS_5LocalINS_11ArrayBufferEEEmm
Keybase:_ZN2v810Int16Array3NewENS_5LocalINS_17SharedArrayBufferEEEmm
Keybase:_ZN2v810Int16Array9CheckCastEPNS_5ValueE
Keybase:_ZN2v810Int32Array3NewENS_5LocalINS_11ArrayBufferEEEmm
Keybase:_ZN2v810Int32Array3NewENS_5LocalINS_17SharedArrayBufferEEEmm
Keybase:_ZN2v810Int32Array9CheckCastEPNS_5ValueE
Keybase:_ZN2v810StackTrace15CurrentScriptIdEPNS_7IsolateE
Keybase:_ZN2v810StackTrace17CurrentStackTraceEPNS_7IsolateEiNS0_17StackTraceOptionsE
Keybase:_ZN2v810StackTrace28CurrentScriptNameOrSourceURLEPNS_7IsolateE
Keybase:_ZN2v810TypedArray6LengthEv
Keybase:_ZN2v810TypedArray9CheckCastEPNS_5ValueE
Keybase:_ZN2v810Uint8Array3NewENS_5LocalINS_11ArrayBufferEEEmm
Keybase:_ZN2v810Uint8Array3NewENS_5LocalINS_17SharedArrayBufferEEEmm
Keybase:_ZN2v810Uint8Array9CheckCastEPNS_5ValueE
Keybase:_ZN2v811ArrayBuffer12SetDetachKeyENS_5LocalINS_5ValueEEE
Keybase:_ZN2v811ArrayBuffer15GetBackingStoreEv
Keybase:_ZN2v811ArrayBuffer15NewBackingStoreEPNS_7IsolateEmNS_30BackingStoreInitializationModeENS_25BackingStoreOnFailureModeE
Keybase:_ZN2v811ArrayBuffer15NewBackingStoreEPvmPFvS1_mS1_ES1_
Keybase:_ZN2v811ArrayBuffer24NewResizableBackingStoreEmm
Keybase:_ZN2v811ArrayBuffer3NewEPNS_7IsolateENSt4__Cr10shared_ptrINS_12BackingStoreEEE
Keybase:_ZN2v811ArrayBuffer3NewEPNS_7IsolateEmNS_30BackingStoreInitializationModeE
Keybase:_ZN2v811ArrayBuffer6DetachENS_5LocalINS_5ValueEEE
Keybase:_ZN2v811ArrayBuffer6DetachEv
Keybase:_ZN2v811ArrayBuffer8MaybeNewEPNS_7IsolateEmNS_30BackingStoreInitializationModeE
Keybase:_ZN2v811ArrayBuffer9Allocator19NewDefaultAllocatorEv
Keybase:_ZN2v811ArrayBuffer9CheckCastEPNS_5ValueE
Keybase:_ZN2v811CpuProfiler13CollectSampleEPNS_7IsolateENSt4__Cr8optionalImEE
Keybase:_ZN2v811CpuProfiler13StopProfilingENS_5LocalINS_6StringEEE
Keybase:_ZN2v811CpuProfiler14StartProfilingENS_5LocalINS_6StringEEENS_16CpuProfilingModeEbj
Keybase:_ZN2v811CpuProfiler14StartProfilingENS_5LocalINS_6StringEEENS_19CpuProfilingOptionsENSt4__Cr10unique_ptrINS_24DiscardedSamplesDelegateENS5_14default_deleteIS7_EEEE
Keybase:_ZN2v811CpuProfiler14StartProfilingENS_5LocalINS_6StringEEEb
Keybase:_ZN2v811CpuProfiler19SetSamplingIntervalEi
Keybase:_ZN2v811CpuProfiler21SetUsePreciseSamplingEb
Keybase:_ZN2v811CpuProfiler38UseDetailedSourcePositionsForProfilingEPNS_7IsolateE
Keybase:_ZN2v811CpuProfiler3NewEPNS_7IsolateENS_22CpuProfilingNamingModeENS_23CpuProfilingLoggingModeE
Keybase:_ZN2v811CpuProfiler4StopEj
Keybase:_ZN2v811CpuProfiler5StartENS_19CpuProfilingOptionsENSt4__Cr10unique_ptrINS_24DiscardedSamplesDelegateENS2_14default_deleteIS4_EEEE
Keybase:_ZN2v811CpuProfiler5StartENS_5LocalINS_6StringEEENS_16CpuProfilingModeEbj
Keybase:_ZN2v811CpuProfiler5StartENS_5LocalINS_6StringEEENS_19CpuProfilingOptionsENSt4__Cr10unique_ptrINS_24DiscardedSamplesDelegateENS5_14default_deleteIS7_EEEE
Keybase:_ZN2v811CpuProfiler5StartENS_5LocalINS_6StringEEEb
Keybase:_ZN2v811CpuProfiler7DisposeEv
Keybase:_ZN2v811HandleScope15NumberOfHandlesEPNS_7IsolateE
Keybase:_ZN2v811HandleScope16DeleteExtensionsEPNS_7IsolateE
Keybase:_ZN2v811HandleScope6ExtendEPNS_7IsolateE
Keybase:_ZN2v811HandleScopedaEPvm
Keybase:_ZN2v811HandleScopedlEPvm
Keybase:_ZN2v811HandleScopenaEm
Keybase:_ZN2v811HandleScopenwEm
Keybase:_ZN2v811Uint16Array3NewENS_5LocalINS_11ArrayBufferEEEmm
Keybase:_ZN2v811Uint16Array3NewENS_5LocalINS_17SharedArrayBufferEEEmm
Keybase:_ZN2v811Uint16Array9CheckCastEPNS_5ValueE
Keybase:_ZN2v811Uint32Array3NewENS_5LocalINS_11ArrayBufferEEEmm
Keybase:_ZN2v811Uint32Array3NewENS_5LocalINS_17SharedArrayBufferEEEmm
Keybase:_ZN2v811Uint32Array9CheckCastEPNS_5ValueE
Keybase:_ZN2v812BackingStore12EmptyDeleterEPvmS1_
Keybase:_ZN2v812BackingStoreD1Ev
Keybase:_ZN2v812BackingStoreD2Ev
Keybase:_ZN2v812BigIntObject3NewEPNS_7IsolateEl
Keybase:_ZN2v812BigIntObject9CheckCastEPNS_5ValueE
Keybase:_ZN2v812Float16Array3NewENS_5LocalINS_11ArrayBufferEEEmm
Keybase:_ZN2v812Float16Array3NewENS_5LocalINS_17SharedArrayBufferEEEmm
Keybase:_ZN2v812Float16Array9CheckCastEPNS_5ValueE
Keybase:_ZN2v812Float32Array3NewENS_5LocalINS_11ArrayBufferEEEmm
Keybase:_ZN2v812Float32Array3NewENS_5LocalINS_17SharedArrayBufferEEEmm
Keybase:_ZN2v812Float32Array9CheckCastEPNS_5ValueE
Keybase:_ZN2v812Float64Array3NewENS_5LocalINS_11ArrayBufferEEEmm
Keybase:_ZN2v812Float64Array3NewENS_5LocalINS_17SharedArrayBufferEEEmm
Keybase:_ZN2v812Float64Array9CheckCastEPNS_5ValueE
Keybase:_ZN2v812HeapProfiler11GetObjectIdENS_5LocalINS_5ValueEEE
Keybase:_ZN2v812HeapProfiler11GetObjectIdEPv
Keybase:_ZN2v812HeapProfiler12GetHeapStatsEPNS_12OutputStreamEPl
Keybase:_ZN2v812HeapProfiler12QueryObjectsENS_5LocalINS_7ContextEEEPNS_20QueryObjectPredicateEPNSt4__Cr6vectorINS_6GlobalINS_6ObjectEEENS6_9allocatorISA_EEEE
Keybase:_ZN2v812HeapProfiler14ClearObjectIdsEv
Keybase:_ZN2v812HeapProfiler14FindObjectByIdEj
Keybase:_ZN2v812HeapProfiler15GetHeapSnapshotEi
Keybase:_ZN2v812HeapProfiler16GetSnapshotCountEv
Keybase:_ZN2v812HeapProfiler16IsTakingSnapshotEv
Keybase:_ZN2v812HeapProfiler16TakeHeapSnapshotEPNS_15ActivityControlEDnbb
Keybase:_ZN2v812HeapProfiler16TakeHeapSnapshotEPNS_15ActivityControlEPNS0_18ObjectNameResolverEbb
Keybase:_ZN2v812HeapProfiler16TakeHeapSnapshotEPNS_15ActivityControlEPNS0_19ContextNameResolverEbb
Keybase:_ZN2v812HeapProfiler16TakeHeapSnapshotERKNS0_19HeapSnapshotOptionsE
Keybase:_ZN2v812HeapProfiler16kUnknownObjectIdE
Keybase:_ZN2v812HeapProfiler20GetAllocationProfileEv
Keybase:_ZN2v812HeapProfiler22DeleteAllHeapSnapshotsEv
Keybase:_ZN2v812HeapProfiler23CopyNameForHeapSnapshotEPKc
Keybase:_ZN2v812HeapProfiler23StopTrackingHeapObjectsEv
Keybase:_ZN2v812HeapProfiler24StartTrackingHeapObjectsEb
Keybase:_ZN2v812HeapProfiler24StopSamplingHeapProfilerEv
Keybase:_ZN2v812HeapProfiler25StartSamplingHeapProfilerEmiNS0_13SamplingFlagsE
Keybase:_ZN2v812HeapProfiler26SetGetDetachednessCallbackEPFNS_13EmbedderGraph4Node12DetachednessEPNS_7IsolateERKNS_5LocalINS_5ValueEEEtPvESB_
Keybase:_ZN2v812HeapProfiler27GetDetachedJSWrapperObjectsEv
Keybase:_ZN2v812HeapProfiler29AddBuildEmbedderGraphCallbackEPFvPNS_7IsolateEPNS_13EmbedderGraphEPvES5_
Keybase:_ZN2v812HeapProfiler32RemoveBuildEmbedderGraphCallbackEPFvPNS_7IsolateEPNS_13EmbedderGraphEPvES5_
Keybase:_ZN2v812HeapSnapshot6DeleteEv
Keybase:_ZN2v812IsolateGroup10GetDefaultEv
Keybase:_ZN2v812IsolateGroup18CanCreateNewGroupsEv
Keybase:_ZN2v812IsolateGroup22GetSandboxAddressSpaceEv
Keybase:_ZN2v812IsolateGroup6CreateEv
Keybase:_ZN2v812IsolateGroupC1EOPNS_8internal12IsolateGroupE
Keybase:_ZN2v812IsolateGroupC1EOS0_
Keybase:_ZN2v812IsolateGroupC1ERKS0_
Keybase:_ZN2v812IsolateGroupC2EOPNS_8internal12IsolateGroupE
Keybase:_ZN2v812IsolateGroupC2EOS0_
Keybase:_ZN2v812IsolateGroupC2ERKS0_
Keybase:_ZN2v812IsolateGroupD1Ev
Keybase:_ZN2v812IsolateGroupD2Ev
Keybase:_ZN2v812IsolateGroupaSEOS0_
Keybase:_ZN2v812IsolateGroupaSERKS0_
Keybase:_ZN2v812NumberObject3NewEPNS_7IsolateEd
Keybase:_ZN2v812NumberObject9CheckCastEPNS_5ValueE
Keybase:_ZN2v812StringObject3NewEPNS_7IsolateENS_5LocalINS_6StringEEE
Keybase:_ZN2v812StringObject9CheckCastEPNS_5ValueE
Keybase:_ZN2v812SymbolObject3NewEPNS_7IsolateENS_5LocalINS_6SymbolEEE
Keybase:_ZN2v812SymbolObject9CheckCastEPNS_5ValueE
Keybase:_ZN2v812api_internal10EternalizeEPNS_7IsolateEPNS_5ValueE
Keybase:_ZN2v812api_internal12ToLocalEmptyEv
Keybase:_ZN2v812api_internal13DisposeGlobalEPm
Keybase:_ZN2v812api_internal17FromJustIsNothingEv
Keybase:_ZN2v812api_internal18GlobalizeReferenceEPNS_8internal7IsolateEm
Keybase:_ZN2v812api_internal19CopyGlobalReferenceEPm
Keybase:_ZN2v812api_internal19MoveGlobalReferenceEPPmS2_
Keybase:_ZN2v812api_internal22AnnotateStrongRetainerEPmPKc
Keybase:_ZN2v812api_internal23GetFunctionTemplateDataEPNS_7IsolateENS_5LocalINS_4DataEEE
Keybase:_ZN2v812api_internal24InternalFieldOutOfBoundsEi
Keybase:_ZN2v812api_internal33ConvertToJSGlobalProxyIfNecessaryEm
Keybase:_ZN2v812api_internal8MakeWeakEPPm
Keybase:_ZN2v812api_internal8MakeWeakEPmPvPFvRKNS_16WeakCallbackInfoIvEEENS_16WeakCallbackTypeE
Keybase:_ZN2v812api_internal9ClearWeakEPm
Keybase:_ZN2v813BigInt64Array3NewENS_5LocalINS_11ArrayBufferEEEmm
Keybase:_ZN2v813BigInt64Array3NewENS_5LocalINS_17SharedArrayBufferEEEmm
Keybase:_ZN2v813BigInt64Array9CheckCastEPNS_5ValueE
Keybase:_ZN2v813BooleanObject3NewEPNS_7IsolateEb
Keybase:_ZN2v813BooleanObject9CheckCastEPNS_5ValueE
Keybase:_ZN2v813CFunctionInfoC1ERKNS_9CTypeInfoEjPS2_NS0_19Int64RepresentationE
Keybase:_ZN2v813CFunctionInfoC2ERKNS_9CTypeInfoEjPS2_NS0_19Int64RepresentationE
Keybase:_ZN2v813EmbedderGraph6V8NodeERKNS_5LocalINS_4DataEEE
Keybase:_ZN2v813ModuleRequest9CheckCastEPNS_4DataE
Keybase:_ZN2v813RegisterStateC1ERKS0_
Keybase:_ZN2v813RegisterStateC1Ev
Keybase:_ZN2v813RegisterStateC2ERKS0_
Keybase:_ZN2v813RegisterStateC2Ev
Keybase:_ZN2v813RegisterStateD1Ev
Keybase:_ZN2v813RegisterStateD2Ev
Keybase:_ZN2v813RegisterStateaSERKS0_
Keybase:_ZN2v813UnboundScript12GetSourceURLEv
Keybase:_ZN2v813UnboundScript13GetLineNumberEi
Keybase:_ZN2v813UnboundScript13GetScriptNameEv
Keybase:_ZN2v813UnboundScript15GetColumnNumberEi
Keybase:_ZN2v813UnboundScript19GetSourceMappingURLEv
Keybase:_ZN2v813UnboundScript20BindToCurrentContextEv
Keybase:_ZN2v813WasmStreaming15OnBytesReceivedEPKhm
Keybase:_ZN2v813WasmStreaming22SetCompiledModuleBytesEPKhm
Keybase:_ZN2v813WasmStreaming39SetMoreFunctionsCanBeSerializedCallbackENSt4__Cr8functionIFvNS_18CompiledWasmModuleEEEE
Keybase:_ZN2v813WasmStreaming5AbortENS_10MaybeLocalINS_5ValueEEE
Keybase:_ZN2v813WasmStreaming6FinishEb
Keybase:_ZN2v813WasmStreaming6SetUrlEPKcm
Keybase:_ZN2v813WasmStreaming6UnpackEPNS_7IsolateENS_5LocalINS_5ValueEEE
Keybase:_ZN2v813WasmStreamingC1ENSt4__Cr10unique_ptrINS0_17WasmStreamingImplENS1_14default_deleteIS3_EEEE
Keybase:_ZN2v813WasmStreamingC2ENSt4__Cr10unique_ptrINS0_17WasmStreamingImplENS1_14default_deleteIS3_EEEE
Keybase:_ZN2v813WasmStreamingD1Ev
Keybase:_ZN2v813WasmStreamingD2Ev
Keybase:_ZN2v814BigUint64Array3NewENS_5LocalINS_11ArrayBufferEEEmm
Keybase:_ZN2v814BigUint64Array3NewENS_5LocalINS_17SharedArrayBufferEEEmm
Keybase:_ZN2v814BigUint64Array9CheckCastEPNS_5ValueE
Keybase:_ZN2v814CpuProfileNode17kNoLineNumberInfoE
Keybase:_ZN2v814CpuProfileNode19kNoColumnNumberInfoE
Keybase:_ZN2v814HeapStatisticsC1Ev
Keybase:_ZN2v814HeapStatisticsC2Ev
Keybase:_ZN2v814MicrotaskQueue3NewEPNS_7IsolateENS_16MicrotasksPolicyE
Keybase:_ZN2v814ObjectTemplate10SetHandlerERKNS_33NamedPropertyHandlerConfigurationE
Keybase:_ZN2v814ObjectTemplate10SetHandlerERKNS_35IndexedPropertyHandlerConfigurationE
Keybase:_ZN2v814ObjectTemplate11NewInstanceENS_5LocalINS_7ContextEEE
Keybase:_ZN2v814ObjectTemplate11SetCodeLikeEv
Keybase:_ZN2v814ObjectTemplate17SetImmutableProtoEv
Keybase:_ZN2v814ObjectTemplate18MarkAsUndetectableEv
Keybase:_ZN2v814ObjectTemplate21SetInternalFieldCountEi
Keybase:_ZN2v814ObjectTemplate22SetAccessCheckCallbackEPFbNS_5LocalINS_7ContextEEENS1_INS_6ObjectEEENS1_INS_5ValueEEEES7_
Keybase:_ZN2v814ObjectTemplate24SetCallAsFunctionHandlerEPFvRKNS_20FunctionCallbackInfoINS_5ValueEEEENS_5LocalIS2_EE
Keybase:_ZN2v814ObjectTemplate32SetAccessCheckCallbackAndHandlerEPFbNS_5LocalINS_7ContextEEENS1_INS_6ObjectEEENS1_INS_5ValueEEEERKNS_33NamedPropertyHandlerConfigurationERKNS_35IndexedPropertyHandlerConfigurationES7_
Keybase:_ZN2v814ObjectTemplate36SealAndPrepareForPromotionToReadOnlyEv
Keybase:_ZN2v814ObjectTemplate3NewEPNS_7IsolateENS_5LocalINS_16FunctionTemplateEEE
Keybase:_ZN2v814ObjectTemplate9CheckCastEPNS_4DataE
Keybase:_ZN2v814PrimitiveArray3GetEPNS_7IsolateEi
Keybase:_ZN2v814PrimitiveArray3NewEPNS_7IsolateEi
Keybase:_ZN2v814PrimitiveArray3SetEPNS_7IsolateEiNS_5LocalINS_9PrimitiveEEE
Keybase:_ZN2v814PrimitiveArray9CheckCastEPNS_4DataE
Keybase:_ZN2v814ScriptCompiler10CachedData18CompatibilityCheckEPNS_7IsolateE
Keybase:_ZN2v814ScriptCompiler10CachedDataC1EPKhiNS1_12BufferPolicyE
Keybase:_ZN2v814ScriptCompiler10CachedDataC2EPKhiNS1_12BufferPolicyE
Keybase:_ZN2v814ScriptCompiler10CachedDataD1Ev
Keybase:_ZN2v814ScriptCompiler10CachedDataD2Ev
Keybase:_ZN2v814ScriptCompiler13CompileModuleENS_5LocalINS_7ContextEEEPNS0_14StreamedSourceENS1_INS_6StringEEERKNS_12ScriptOriginE
Keybase:_ZN2v814ScriptCompiler13CompileModuleEPNS_7IsolateEPNS0_6SourceENS0_14CompileOptionsENS0_13NoCacheReasonE
Keybase:_ZN2v814ScriptCompiler14StartStreamingEPNS_7IsolateEPNS0_14StreamedSourceENS_10ScriptTypeENS0_14CompileOptionsEPFbiPvES7_
Keybase:_ZN2v814ScriptCompiler14StreamedSourceC1ENSt4__Cr10unique_ptrINS0_20ExternalSourceStreamENS2_14default_deleteIS4_EEEENS1_8EncodingE
Keybase:_ZN2v814ScriptCompiler14StreamedSourceC2ENSt4__Cr10unique_ptrINS0_20ExternalSourceStreamENS2_14default_deleteIS4_EEEENS1_8EncodingE
Keybase:_ZN2v814ScriptCompiler14StreamedSourceD1Ev
Keybase:_ZN2v814ScriptCompiler14StreamedSourceD2Ev
Keybase:_ZN2v814ScriptCompiler15CompileFunctionENS_5LocalINS_7ContextEEEPNS0_6SourceEmPNS1_INS_6StringEEEmPNS1_INS_6ObjectEEENS0_14CompileOptionsENS0_13NoCacheReasonE
Keybase:_ZN2v814ScriptCompiler15CreateCodeCacheENS_5LocalINS_13UnboundScriptEEE
Keybase:_ZN2v814ScriptCompiler15CreateCodeCacheENS_5LocalINS_19UnboundModuleScriptEEE
Keybase:_ZN2v814ScriptCompiler19ScriptStreamingTask3RunEv
Keybase:_ZN2v814ScriptCompiler20CachedDataVersionTagEv
Keybase:_ZN2v814ScriptCompiler20CompileUnboundScriptEPNS_7IsolateEPNS0_6SourceENS0_14CompileOptionsENS0_13NoCacheReasonE
Keybase:_ZN2v814ScriptCompiler20ConsumeCodeCacheTask19SourceTextAvailableEPNS_7IsolateENS_5LocalINS_6StringEEERKNS_12ScriptOriginE
Keybase:_ZN2v814ScriptCompiler20ConsumeCodeCacheTask23MergeWithExistingScriptEv
Keybase:_ZN2v814ScriptCompiler20ConsumeCodeCacheTask3RunEv
Keybase:_ZN2v814ScriptCompiler20ConsumeCodeCacheTaskC1ENSt4__Cr10unique_ptrINS_8internal25BackgroundDeserializeTaskENS2_14default_deleteIS5_EEEE
Keybase:_ZN2v814ScriptCompiler20ConsumeCodeCacheTaskC2ENSt4__Cr10unique_ptrINS_8internal25BackgroundDeserializeTaskENS2_14default_deleteIS5_EEEE
Keybase:_ZN2v814ScriptCompiler20ConsumeCodeCacheTaskD1Ev
Keybase:_ZN2v814ScriptCompiler20ConsumeCodeCacheTaskD2Ev
Keybase:_ZN2v814ScriptCompiler22CompileUnboundInternalEPNS_7IsolateEPNS0_6SourceENS0_14CompileOptionsENS0_13NoCacheReasonE
Keybase:_ZN2v814ScriptCompiler23StartConsumingCodeCacheEPNS_7IsolateENSt4__Cr10unique_ptrINS0_10CachedDataENS3_14default_deleteIS5_EEEE
Keybase:_ZN2v814ScriptCompiler26CreateCodeCacheForFunctionENS_5LocalINS_8FunctionEEE
Keybase:_ZN2v814ScriptCompiler35StartConsumingCodeCacheOnBackgroundEPNS_7IsolateENSt4__Cr10unique_ptrINS0_10CachedDataENS3_14default_deleteIS5_EEEE
Keybase:_ZN2v814ScriptCompiler7CompileENS_5LocalINS_7ContextEEEPNS0_14StreamedSourceENS1_INS_6StringEEERKNS_12ScriptOriginE
Keybase:_ZN2v814ScriptCompiler7CompileENS_5LocalINS_7ContextEEEPNS0_6SourceENS0_14CompileOptionsENS0_13NoCacheReasonE
Keybase:_ZN2v814ScriptOrModule15GetResourceNameEv
Keybase:_ZN2v814ScriptOrModule18HostDefinedOptionsEv
Keybase:_ZN2v815ArrayBufferView10ByteLengthEv
Keybase:_ZN2v815ArrayBufferView10ByteOffsetEv
Keybase:_ZN2v815ArrayBufferView11GetContentsENS_10MemorySpanIhEE
Keybase:_ZN2v815ArrayBufferView12CopyContentsEPvm
Keybase:_ZN2v815ArrayBufferView6BufferEv
Keybase:_ZN2v815ArrayBufferView9CheckCastEPNS_5ValueE
Keybase:_ZN2v815CppHeapExternal7NewImplEPNS_7IsolateEPvNS_17CppHeapPointerTagE
Keybase:_ZN2v815CppHeapExternal9CheckCastEPNS_4DataE
Keybase:_ZN2v815MicrotasksScope15GetCurrentDepthEPNS_7IsolateE
Keybase:_ZN2v815MicrotasksScope17PerformCheckpointEPNS_7IsolateE
Keybase:_ZN2v815MicrotasksScope19IsRunningMicrotasksEPNS_7IsolateE
Keybase:_ZN2v815MicrotasksScopeC1ENS_5LocalINS_7ContextEEENS0_4TypeE
Keybase:_ZN2v815MicrotasksScopeC1EPNS_7IsolateEPNS_14MicrotaskQueueENS0_4TypeE
Keybase:_ZN2v815MicrotasksScopeC2ENS_5LocalINS_7ContextEEENS0_4TypeE
Keybase:_ZN2v815MicrotasksScopeC2EPNS_7IsolateEPNS_14MicrotaskQueueENS0_4TypeE
Keybase:_ZN2v815MicrotasksScopeD1Ev
Keybase:_ZN2v815MicrotasksScopeD2Ev
Keybase:_ZN2v815SealHandleScopeC1EPNS_7IsolateE
Keybase:_ZN2v815SealHandleScopeC2EPNS_7IsolateE
Keybase:_ZN2v815SealHandleScopeD1Ev
Keybase:_ZN2v815SealHandleScopeD2Ev
Keybase:_ZN2v815SnapshotCreator10AddContextENS_5LocalINS_7ContextEEENS_31SerializeInternalFieldsCallbackENS_28SerializeContextDataCallbackENS_27SerializeAPIWrapperCallbackE
Keybase:_ZN2v815SnapshotCreator10CreateBlobENS0_20FunctionCodeHandlingE
Keybase:_ZN2v815SnapshotCreator10GetIsolateEv
Keybase:_ZN2v815SnapshotCreator17SetDefaultContextENS_5LocalINS_7ContextEEENS_31SerializeInternalFieldsCallbackENS_28SerializeContextDataCallbackENS_27SerializeAPIWrapperCallbackE
Keybase:_ZN2v815SnapshotCreator7AddDataENS_5LocalINS_7ContextEEEm
Keybase:_ZN2v815SnapshotCreator7AddDataEm
Keybase:_ZN2v815SnapshotCreatorC1EPKlPKNS_11StartupDataE
Keybase:_ZN2v815SnapshotCreatorC1EPNS_7IsolateEPKlPKNS_11StartupDataEb
Keybase:_ZN2v815SnapshotCreatorC1EPNS_7IsolateERKNS1_12CreateParamsE
Keybase:_ZN2v815SnapshotCreatorC1ERKNS_7Isolate12CreateParamsE
Keybase:_ZN2v815SnapshotCreatorC2EPKlPKNS_11StartupDataE
Keybase:_ZN2v815SnapshotCreatorC2EPNS_7IsolateEPKlPKNS_11StartupDataEb
Keybase:_ZN2v815SnapshotCreatorC2EPNS_7IsolateERKNS1_12CreateParamsE
Keybase:_ZN2v815SnapshotCreatorC2ERKNS_7Isolate12CreateParamsE
Keybase:_ZN2v815SnapshotCreatorD1Ev
Keybase:_ZN2v815SnapshotCreatorD2Ev
Keybase:_ZN2v815ValueSerializer10WriteValueENS_5LocalINS_7ContextEEENS1_INS_5ValueEEE
Keybase:_ZN2v815ValueSerializer11WriteDoubleEd
Keybase:_ZN2v815ValueSerializer11WriteHeaderEv
Keybase:_ZN2v815ValueSerializer11WriteUint32Ej
Keybase:_ZN2v815ValueSerializer11WriteUint64Em
Keybase:_ZN2v815ValueSerializer13WriteRawBytesEPKvm
Keybase:_ZN2v815ValueSerializer19TransferArrayBufferEjNS_5LocalINS_11ArrayBufferEEE
Keybase:_ZN2v815ValueSerializer37SetTreatArrayBufferViewsAsHostObjectsEb
Keybase:_ZN2v815ValueSerializer7ReleaseEv
Keybase:_ZN2v815ValueSerializer8Delegate12IsHostObjectEPNS_7IsolateENS_5LocalINS_6ObjectEEE
Keybase:_ZN2v815ValueSerializer8Delegate15WriteHostObjectEPNS_7IsolateENS_5LocalINS_6ObjectEEE
Keybase:_ZN2v815ValueSerializer8Delegate16FreeBufferMemoryEPv
Keybase:_ZN2v815ValueSerializer8Delegate19HasCustomHostObjectEPNS_7IsolateE
Keybase:_ZN2v815ValueSerializer8Delegate22GetSharedArrayBufferIdEPNS_7IsolateENS_5LocalINS_17SharedArrayBufferEEE
Keybase:_ZN2v815ValueSerializer8Delegate22ReallocateBufferMemoryEPvmPm
Keybase:_ZN2v815ValueSerializer8Delegate23GetWasmModuleTransferIdEPNS_7IsolateENS_5LocalINS_16WasmModuleObjectEEE
Keybase:_ZN2v815ValueSerializer8Delegate24AdoptSharedValueConveyorEPNS_7IsolateEONS_19SharedValueConveyorE
Keybase:_ZN2v815ValueSerializerC1EPNS_7IsolateE
Keybase:_ZN2v815ValueSerializerC1EPNS_7IsolateEPNS0_8DelegateE
Keybase:_ZN2v815ValueSerializerC2EPNS_7IsolateE
Keybase:_ZN2v815ValueSerializerC2EPNS_7IsolateEPNS0_8DelegateE
Keybase:_ZN2v815ValueSerializerD1Ev
Keybase:_ZN2v815ValueSerializerD2Ev
Keybase:_ZN2v816CodeEventHandler6EnableEv
Keybase:_ZN2v816CodeEventHandler7DisableEv
Keybase:_ZN2v816CodeEventHandlerC2EPNS_7IsolateE
Keybase:_ZN2v816CodeEventHandlerD0Ev
Keybase:_ZN2v816CodeEventHandlerD1Ev
Keybase:_ZN2v816CodeEventHandlerD2Ev
Keybase:_ZN2v816FunctionTemplate11GetFunctionENS_5LocalINS_7ContextEEE
Keybase:_ZN2v816FunctionTemplate11HasInstanceENS_5LocalINS_5ValueEEE
Keybase:_ZN2v816FunctionTemplate12NewWithCacheEPNS_7IsolateEPFvRKNS_20FunctionCallbackInfoINS_5ValueEEEENS_5LocalINS_7PrivateEEENSA_IS4_EENSA_INS_9SignatureEEEiNS_14SideEffectTypeE
Keybase:_ZN2v816FunctionTemplate12SetClassNameENS_5LocalINS_6StringEEE
Keybase:_ZN2v816FunctionTemplate14SetCallHandlerEPFvRKNS_20FunctionCallbackInfoINS_5ValueEEEENS_5LocalIS2_EENS_14SideEffectTypeERKNS_10MemorySpanIKNS_9CFunctionEEE
Keybase:_ZN2v816FunctionTemplate15RemovePrototypeEv
Keybase:_ZN2v816FunctionTemplate16InstanceTemplateEv
Keybase:_ZN2v816FunctionTemplate16SetInterfaceNameENS_5LocalINS_6StringEEE
Keybase:_ZN2v816FunctionTemplate17NewRemoteInstanceEv
Keybase:_ZN2v816FunctionTemplate17PrototypeTemplateEv
Keybase:_ZN2v816FunctionTemplate17ReadOnlyPrototypeEv
Keybase:_ZN2v816FunctionTemplate19SetExceptionContextENS_16ExceptionContextE
Keybase:_ZN2v816FunctionTemplate20SetAcceptAnyReceiverEb
Keybase:_ZN2v816FunctionTemplate25NewWithCFunctionOverloadsEPNS_7IsolateEPFvRKNS_20FunctionCallbackInfoINS_5ValueEEEENS_5LocalIS4_EENSA_INS_9SignatureEEEiNS_19ConstructorBehaviorENS_14SideEffectTypeERKNS_10MemorySpanIKNS_9CFunctionEEE
Keybase:_ZN2v816FunctionTemplate28SetPrototypeProviderTemplateENS_5LocalIS0_EE
Keybase:_ZN2v816FunctionTemplate36SealAndPrepareForPromotionToReadOnlyEv
Keybase:_ZN2v816FunctionTemplate3NewEPNS_7IsolateEPFvRKNS_20FunctionCallbackInfoINS_5ValueEEEENS_5LocalIS4_EENSA_INS_9SignatureEEEiNS_19ConstructorBehaviorENS_14SideEffectTypeEPKNS_9CFunctionEttt
Keybase:_ZN2v816FunctionTemplate7InheritENS_5LocalIS0_EE
Keybase:_ZN2v816FunctionTemplate9CheckCastEPNS_4DataE
Keybase:_ZN2v816FunctionTemplate9SetLengthEi
Keybase:_ZN2v816TypecheckWitness6UpdateENS_5LocalINS_5ValueEEE
Keybase:_ZN2v816TypecheckWitnessC1EPNS_7IsolateE
Keybase:_ZN2v816TypecheckWitnessC2EPNS_7IsolateE
Keybase:_ZN2v816WasmMemoryObject6BufferEv
Keybase:_ZN2v816WasmMemoryObject9CheckCastEPNS_5ValueE
Keybase:_ZN2v816WasmModuleObject17GetCompiledModuleEv
Keybase:_ZN2v816WasmModuleObject18FromCompiledModuleEPNS_7IsolateERKNS_18CompiledWasmModuleE
Keybase:_ZN2v816WasmModuleObject7CompileEPNS_7IsolateENS_10MemorySpanIKhEE
Keybase:_ZN2v816WasmModuleObject9CheckCastEPNS_5ValueE
Keybase:_ZN2v817RegisterExtensionENSt4__Cr10unique_ptrINS_9ExtensionENS0_14default_deleteIS2_EEEE
Keybase:_ZN2v817SharedArrayBuffer15GetBackingStoreEv
Keybase:_ZN2v817SharedArrayBuffer15NewBackingStoreEPNS_7IsolateEmNS_30BackingStoreInitializationModeENS_25BackingStoreOnFailureModeE
Keybase:_ZN2v817SharedArrayBuffer15NewBackingStoreEPvmPFvS1_mS1_ES1_
Keybase:_ZN2v817SharedArrayBuffer3NewEPNS_7IsolateENSt4__Cr10shared_ptrINS_12BackingStoreEEE
Keybase:_ZN2v817SharedArrayBuffer3NewEPNS_7IsolateEmNS_30BackingStoreInitializationModeE
Keybase:_ZN2v817SharedArrayBuffer8MaybeNewEPNS_7IsolateEmNS_30BackingStoreInitializationModeE
Keybase:_ZN2v817SharedArrayBuffer9CheckCastEPNS_5ValueE
Keybase:_ZN2v817Uint8ClampedArray3NewENS_5LocalINS_11ArrayBufferEEEmm
Keybase:_ZN2v817Uint8ClampedArray3NewENS_5LocalINS_17SharedArrayBufferEEEmm
Keybase:_ZN2v817Uint8ClampedArray9CheckCastEPNS_5ValueE
Keybase:_ZN2v817ValueDeserializer10ReadDoubleEPd
Keybase:_ZN2v817ValueDeserializer10ReadHeaderENS_5LocalINS_7ContextEEE
Keybase:_ZN2v817ValueDeserializer10ReadUint32EPj
Keybase:_ZN2v817ValueDeserializer10ReadUint64EPm
Keybase:_ZN2v817ValueDeserializer12ReadRawBytesEmPPKv
Keybase:_ZN2v817ValueDeserializer19TransferArrayBufferEjNS_5LocalINS_11ArrayBufferEEE
Keybase:_ZN2v817ValueDeserializer25TransferSharedArrayBufferEjNS_5LocalINS_17SharedArrayBufferEEE
Keybase:_ZN2v817ValueDeserializer27SetSupportsLegacyWireFormatEb
Keybase:_ZN2v817ValueDeserializer8Delegate14ReadHostObjectEPNS_7IsolateE
Keybase:_ZN2v817ValueDeserializer8Delegate19GetWasmModuleFromIdEPNS_7IsolateEj
Keybase:_ZN2v817ValueDeserializer8Delegate22GetSharedValueConveyorEPNS_7IsolateE
Keybase:_ZN2v817ValueDeserializer8Delegate26GetSharedArrayBufferFromIdEPNS_7IsolateEj
Keybase:_ZN2v817ValueDeserializer9ReadValueENS_5LocalINS_7ContextEEE
Keybase:_ZN2v817ValueDeserializerC1EPNS_7IsolateEPKhm
Keybase:_ZN2v817ValueDeserializerC1EPNS_7IsolateEPKhmPNS0_8DelegateE
Keybase:_ZN2v817ValueDeserializerC2EPNS_7IsolateEPKhm
Keybase:_ZN2v817ValueDeserializerC2EPNS_7IsolateEPKhmPNS0_8DelegateE
Keybase:_ZN2v817ValueDeserializerD1Ev
Keybase:_ZN2v817ValueDeserializerD2Ev
Keybase:_ZN2v818CompiledWasmModule15GetWireBytesRefEv
Keybase:_ZN2v818CompiledWasmModule9SerializeEv
Keybase:_ZN2v818CompiledWasmModuleC1ENSt4__Cr10shared_ptrINS_8internal4wasm12NativeModuleEEEPKcm
Keybase:_ZN2v818CompiledWasmModuleC2ENSt4__Cr10shared_ptrINS_8internal4wasm12NativeModuleEEEPKcm
Keybase:_ZN2v818DictionaryTemplate11NewInstanceENS_5LocalINS_7ContextEEENS_10MemorySpanINS_10MaybeLocalINS_5ValueEEEEE
Keybase:_ZN2v818DictionaryTemplate3NewEPNS_7IsolateENS_10MemorySpanIKNSt4__Cr17basic_string_viewIcNS4_11char_traitsIcEEEEEE
Keybase:_ZN2v818DictionaryTemplate9CheckCastEPNS_4DataE
Keybase:_ZN2v818EmbedderStateScopeC1EPNS_7IsolateENS_5LocalINS_7ContextEEENS_16EmbedderStateTagE
Keybase:_ZN2v818EmbedderStateScopeC2EPNS_7IsolateENS_5LocalINS_7ContextEEENS_16EmbedderStateTagE
Keybase:_ZN2v818EmbedderStateScopeD1Ev
Keybase:_ZN2v818EmbedderStateScopeD2Ev
Keybase:_ZN2v818HeapCodeStatisticsC1Ev
Keybase:_ZN2v818HeapCodeStatisticsC2Ev
Keybase:_ZN2v818PropertyDescriptor14set_enumerableEb
Keybase:_ZN2v818PropertyDescriptor16set_configurableEb
Keybase:_ZN2v818PropertyDescriptorC1ENS_5LocalINS_5ValueEEE
Keybase:_ZN2v818PropertyDescriptorC1ENS_5LocalINS_5ValueEEES3_
Keybase:_ZN2v818PropertyDescriptorC1ENS_5LocalINS_5ValueEEEb
Keybase:_ZN2v818PropertyDescriptorC1Ev
Keybase:_ZN2v818PropertyDescriptorC2ENS_5LocalINS_5ValueEEE
Keybase:_ZN2v818PropertyDescriptorC2ENS_5LocalINS_5ValueEEES3_
Keybase:_ZN2v818PropertyDescriptorC2ENS_5LocalINS_5ValueEEEb
Keybase:_ZN2v818PropertyDescriptorC2Ev
Keybase:_ZN2v818PropertyDescriptorD1Ev
Keybase:_ZN2v818PropertyDescriptorD2Ev
Keybase:_ZN2v819CpuProfilingOptionsC1ENS_16CpuProfilingModeEjiNS_10MaybeLocalINS_7ContextEEE
Keybase:_ZN2v819CpuProfilingOptionsC2ENS_16CpuProfilingModeEjiNS_10MaybeLocalINS_7ContextEEE
Keybase:_ZN2v819HeapSpaceStatisticsC1Ev
Keybase:_ZN2v819HeapSpaceStatisticsC2Ev
Keybase:_ZN2v819ResourceConstraints17ConfigureDefaultsEmm
Keybase:_ZN2v819ResourceConstraints29ConfigureDefaultsFromHeapSizeEmm
Keybase:_ZN2v819SharedValueConveyorC1EOS0_
Keybase:_ZN2v819SharedValueConveyorC1EPNS_7IsolateE
Keybase:_ZN2v819SharedValueConveyorC2EOS0_
Keybase:_ZN2v819SharedValueConveyorC2EPNS_7IsolateE
Keybase:_ZN2v819SharedValueConveyorD1Ev
Keybase:_ZN2v819SharedValueConveyorD2Ev
Keybase:_ZN2v819SharedValueConveyoraSEOS0_
Keybase:_ZN2v819UnboundModuleScript12GetSourceURLEv
Keybase:_ZN2v819UnboundModuleScript19GetSourceMappingURLEv
Keybase:_ZN2v820HeapObjectStatisticsC1Ev
Keybase:_ZN2v820HeapObjectStatisticsC2Ev
Keybase:_ZN2v820ToExternalPointerTagEt
Keybase:_ZN2v821MeasureMemoryDelegate7DefaultEPNS_7IsolateENS_5LocalINS_7ContextEEENS3_INS_7Promise8ResolverEEENS_17MeasureMemoryModeE
Keybase:_ZN2v822SandboxHardwareSupport30InitializeBeforeThreadCreationEv
Keybase:_ZN2v822SandboxHardwareSupport41PrepareCurrentThreadForHardwareSandboxingEv
Keybase:_ZN2v822SharedMemoryStatisticsC1Ev
Keybase:_ZN2v822SharedMemoryStatisticsC2Ev
Keybase:_ZN2v823ExternalMemoryAccounter49GetTotalAmountOfExternalAllocatedMemoryForTestingEPKNS_7IsolateE
Keybase:_ZN2v823ExternalMemoryAccounter6UpdateEPNS_7IsolateEl
Keybase:_ZN2v823ExternalMemoryAccounter8DecreaseEPNS_7IsolateEm
Keybase:_ZN2v823ExternalMemoryAccounter8IncreaseEPNS_7IsolateEm
Keybase:_ZN2v823ExternalMemoryAccounterC1EOS0_
Keybase:_ZN2v823ExternalMemoryAccounterC2EOS0_
Keybase:_ZN2v823ExternalMemoryAccounterD1Ev
Keybase:_ZN2v823ExternalMemoryAccounterD2Ev
Keybase:_ZN2v823ExternalMemoryAccounteraSEOS0_
Keybase:_ZN2v823WasmMemoryMapDescriptor3NewEPNS_7IsolateEi
Keybase:_ZN2v823WasmMemoryMapDescriptor9CheckCastEPNS_5ValueE
Keybase:_ZN2v824EscapableHandleScopeBase10EscapeSlotEPm
Keybase:_ZN2v824EscapableHandleScopeBaseC1EPNS_7IsolateE
Keybase:_ZN2v824EscapableHandleScopeBaseC2EPNS_7IsolateE
Keybase:_ZN2v829GetTrackEventCategoryRegistryEv
Keybase:_ZN2v829TryHandleWebAssemblyTrapPosixEiP9siginfo_tPv
Keybase:_ZN2v82V810GetVersionEv
Keybase:_ZN2v82V810InitializeEi
Keybase:_ZN2v82V813InitializeICUEPKc
Keybase:_ZN2v82V815DisposePlatformEv
Keybase:_ZN2v82V816SetEntropySourceEPFbPhmE
Keybase:_ZN2v82V818InitializePlatformEPNS_8PlatformE
Keybase:_ZN2v82V818SetFlagsFromStringEPKc
Keybase:_ZN2v82V818SetFlagsFromStringEPKcm
Keybase:_ZN2v82V819SetSnapshotDataBlobEPNS_11StartupDataE
Keybase:_ZN2v82V820SetFatalErrorHandlerEPFvPKciS2_E
Keybase:_ZN2v82V821GetSandboxSizeInBytesEv
Keybase:_ZN2v82V821SetDcheckErrorHandlerEPFvPKciS2_E
Keybase:_ZN2v82V822GetSandboxAddressSpaceEv
Keybase:_ZN2v82V823SetFlagsFromCommandLineEPiPPcb
Keybase:_ZN2v82V825GetSharedMemoryStatisticsEPNS_22SharedMemoryStatisticsE
Keybase:_ZN2v82V827IsSandboxConfiguredSecurelyEv
Keybase:_ZN2v82V827SetFatalMemoryErrorCallbackEPFvPKcRKNS_10OOMDetailsEE
Keybase:_ZN2v82V828EnableWebAssemblyTrapHandlerEb
Keybase:_ZN2v82V828InitializeICUDefaultLocationEPKcS2_
Keybase:_ZN2v82V829InitializeExternalStartupDataEPKc
Keybase:_ZN2v82V832GetSandboxReservationSizeInBytesEv
Keybase:_ZN2v82V832SetReturnAddressLocationResolverEPFmmE
Keybase:_ZN2v82V837InitializeExternalStartupDataFromFileEPKc
Keybase:_ZN2v82V87DisposeEv
Keybase:_ZN2v835TryToCopyAndConvertArrayToCppBufferILj1024EjEEbNS_5LocalINS_5ArrayEEEPT0_j
Keybase:_ZN2v835TryToCopyAndConvertArrayToCppBufferILj1792EfEEbNS_5LocalINS_5ArrayEEEPT0_j
Keybase:_ZN2v835TryToCopyAndConvertArrayToCppBufferILj2048EdEEbNS_5LocalINS_5ArrayEEEPT0_j
Keybase:_ZN2v835TryToCopyAndConvertArrayToCppBufferILj768EiEEbNS_5LocalINS_5ArrayEEEPT0_j
Keybase:_ZN2v83Map3GetENS_5LocalINS_7ContextEEENS1_INS_5ValueEEE
Keybase:_ZN2v83Map3HasENS_5LocalINS_7ContextEEENS1_INS_5ValueEEE
Keybase:_ZN2v83Map3NewEPNS_7IsolateE
Keybase:_ZN2v83Map3SetENS_5LocalINS_7ContextEEENS1_INS_5ValueEEES5_
Keybase:_ZN2v83Map5ClearEv
Keybase:_ZN2v83Map6DeleteENS_5LocalINS_7ContextEEENS1_INS_5ValueEEE
Keybase:_ZN2v83Map9CheckCastEPNS_5ValueE
Keybase:_ZN2v83Set3AddENS_5LocalINS_7ContextEEENS1_INS_5ValueEEE
Keybase:_ZN2v83Set3HasENS_5LocalINS_7ContextEEENS1_INS_5ValueEEE
Keybase:_ZN2v83Set3NewEPNS_7IsolateE
Keybase:_ZN2v83Set5ClearEv
Keybase:_ZN2v83Set6DeleteENS_5LocalINS_7ContextEEENS1_INS_5ValueEEE
Keybase:_ZN2v83Set9CheckCastEPNS_5ValueE
Keybase:_ZN2v84Date3NewENS_5LocalINS_7ContextEEEd
Keybase:_ZN2v84Date5ParseENS_5LocalINS_7ContextEEENS1_INS_6StringEEE
Keybase:_ZN2v84Date9CheckCastEPNS_5ValueE
Keybase:_ZN2v84JSON5ParseENS_5LocalINS_7ContextEEENS1_INS_6StringEEENSt4__Cr8optionalINS_12ScriptOriginEEE
Keybase:_ZN2v84JSON9StringifyENS_5LocalINS_7ContextEEENS1_INS_5ValueEEENS1_INS_6StringEEE
Keybase:_ZN2v84Name15GetIdentityHashEv
Keybase:_ZN2v84Name9CheckCastEPNS_4DataE
Keybase:_ZN2v85Array3NewENS_5LocalINS_7ContextEEEmNSt4__Cr8functionIFNS_10MaybeLocalINS_5ValueEEEvEEE
Keybase:_ZN2v85Array3NewEPNS_7IsolateEPNS_5LocalINS_5ValueEEEm
Keybase:_ZN2v85Array3NewEPNS_7IsolateEi
Keybase:_ZN2v85Array7IterateENS_5LocalINS_7ContextEEEPFNS0_14CallbackResultEjNS1_INS_5ValueEEEPvES7_
Keybase:_ZN2v85Array9CheckCastEPNS_5ValueE
Keybase:_ZN2v85Int329CheckCastEPNS_4DataE
Keybase:_ZN2v85Proxy10GetHandlerEv
Keybase:_ZN2v85Proxy3NewENS_5LocalINS_7ContextEEENS1_INS_6ObjectEEES5_
Keybase:_ZN2v85Proxy6RevokeEv
Keybase:_ZN2v85Proxy9CheckCastEPNS_5ValueE
Keybase:_ZN2v85Proxy9GetTargetEv
Keybase:_ZN2v85Value10InstanceOfENS_5LocalINS_7ContextEEENS1_INS_6ObjectEEE
Keybase:_ZN2v85Value6TypeOfEPNS_7IsolateE
Keybase:_ZN2v85Value7GetHashEv
Keybase:_ZN2v85Value9CheckCastEPNS_4DataE
Keybase:_ZN2v86BigInt12NewFromWordsENS_5LocalINS_7ContextEEEiiPKm
Keybase:_ZN2v86BigInt15NewFromUnsignedEPNS_7IsolateEm
Keybase:_ZN2v86BigInt3NewEPNS_7IsolateEl
Keybase:_ZN2v86BigInt9CheckCastEPNS_4DataE
Keybase:_ZN2v86Locker10InitializeEPNS_7IsolateE
Keybase:_ZN2v86Locker8IsLockedEPNS_7IsolateE
Keybase:_ZN2v86LockerD1Ev
Keybase:_ZN2v86LockerD2Ev
Keybase:_ZN2v86Module17InstantiateModuleENS_5LocalINS_7ContextEEEPFNS_10MaybeLocalIS0_EES3_NS1_INS_6StringEEENS1_INS_10FixedArrayEEENS1_IS0_EEEPFNS4_INS_6ObjectEEES3_S7_S9_SA_E
Keybase:_ZN2v86Module17InstantiateModuleENS_5LocalINS_7ContextEEEPFNS_10MaybeLocalIS0_EES3_mNS1_IS0_EEEPFNS4_INS_6ObjectEEES3_mS6_E
Keybase:_ZN2v86Module18GetModuleNamespaceEv
Keybase:_ZN2v86Module21CreateSyntheticModuleEPNS_7IsolateENS_5LocalINS_6StringEEERKNS_10MemorySpanIKS5_EEPFNS_10MaybeLocalINS_5ValueEEENS3_INS_7ContextEEENS3_IS0_EEE
Keybase:_ZN2v86Module22GetUnboundModuleScriptEv
Keybase:_ZN2v86Module24SetSyntheticModuleExportEPNS_7IsolateENS_5LocalINS_6StringEEENS3_INS_5ValueEEE
Keybase:_ZN2v86Module31GetStalledTopLevelAwaitMessagesEPNS_7IsolateE
Keybase:_ZN2v86Module8EvaluateENS_5LocalINS_7ContextEEE
Keybase:_ZN2v86Module9CheckCastEPNS_4DataE
Keybase:_ZN2v86Number12NewFromInt32EPNS_7IsolateEi
Keybase:_ZN2v86Number13NewFromUint32EPNS_7IsolateEj
Keybase:_ZN2v86Number3NewEPNS_7IsolateEd
Keybase:_ZN2v86Number9CheckCastEPNS_4DataE
Keybase:_ZN2v86Object10GetPrivateENS_5LocalINS_7ContextEEENS1_INS_7PrivateEEE
Keybase:_ZN2v86Object10HasPrivateENS_5LocalINS_7ContextEEENS1_INS_7PrivateEEE
Keybase:_ZN2v86Object10SetPrivateENS_5LocalINS_7ContextEEENS1_INS_7PrivateEEENS1_INS_5ValueEEE
Keybase:_ZN2v86Object10WrapGlobalEPNS_7IsolateERKNS_5LocalIS0_EEPNS0_9WrappableENS_17CppHeapPointerTagE
Keybase:_ZN2v86Object12GetPrototypeEv
Keybase:_ZN2v86Object13DeletePrivateENS_5LocalINS_7ContextEEENS1_INS_7PrivateEEE
Keybase:_ZN2v86Object14CallAsFunctionENS_5LocalINS_7ContextEEENS1_INS_5ValueEEEiPS5_
Keybase:_ZN2v86Object14DefinePropertyENS_5LocalINS_7ContextEEENS1_INS_4NameEEERNS_18PropertyDescriptorE
Keybase:_ZN2v86Object14GetPrototypeV2Ev
Keybase:_ZN2v86Object14HasOwnPropertyENS_5LocalINS_7ContextEEENS1_INS_4NameEEE
Keybase:_ZN2v86Object14HasOwnPropertyENS_5LocalINS_7ContextEEEj
Keybase:_ZN2v86Object14PreviewEntriesEPb
Keybase:_ZN2v86Object14SetPrototypeV2ENS_5LocalINS_7ContextEEENS1_INS_5ValueEEE
Keybase:_ZN2v86Object15GetIdentityHashEv
Keybase:_ZN2v86Object16GetPropertyNamesENS_5LocalINS_7ContextEEE
Keybase:_ZN2v86Object16GetPropertyNamesENS_5LocalINS_7ContextEEENS_17KeyCollectionModeENS_14PropertyFilterENS_11IndexFilterENS_17KeyConversionModeE
Keybase:_ZN2v86Object16SetInternalFieldEiNS_5LocalINS_4DataEEE
Keybase:_ZN2v86Object17CallAsConstructorENS_5LocalINS_7ContextEEEiPNS1_INS_5ValueEEE
Keybase:_ZN2v86Object17DefineOwnPropertyENS_5LocalINS_7ContextEEENS1_INS_4NameEEENS1_INS_5ValueEEENS_17PropertyAttributeE
Keybase:_ZN2v86Object17SetIntegrityLevelENS_5LocalINS_7ContextEEENS_14IntegrityLevelE
Keybase:_ZN2v86Object18CreateDataPropertyENS_5LocalINS_7ContextEEENS1_INS_4NameEEENS1_INS_5ValueEEE
Keybase:_ZN2v86Object18CreateDataPropertyENS_5LocalINS_7ContextEEEjNS1_INS_5ValueEEE
Keybase:_ZN2v86Object18GetConstructorNameEv
Keybase:_ZN2v86Object18GetCreationContextEPNS_7IsolateE
Keybase:_ZN2v86Object18GetCreationContextEv
Keybase:_ZN2v86Object19GetOwnPropertyNamesENS_5LocalINS_7ContextEEE
Keybase:_ZN2v86Object19GetOwnPropertyNamesENS_5LocalINS_7ContextEEENS_14PropertyFilterENS_17KeyConversionModeE
Keybase:_ZN2v86Object19ObjectProtoToStringENS_5LocalINS_7ContextEEE
Keybase:_ZN2v86Object19SetAccessorPropertyENS_5LocalINS_4NameEEENS1_INS_8FunctionEEES5_NS_17PropertyAttributeE
Keybase:_ZN2v86Object19SetLazyDataPropertyENS_5LocalINS_7ContextEEENS1_INS_4NameEEEPFvS5_RKNS_20PropertyCallbackInfoINS_5ValueEEEENS1_IS7_EENS_17PropertyAttributeENS_14SideEffectTypeESF_
Keybase:_ZN2v86Object20CheckGlobalWrappableEPNS_7IsolateERKNS_5LocalIS0_EENS_22CppHeapPointerTagRangeE
Keybase:_ZN2v86Object20GetRealNamedPropertyENS_5LocalINS_7ContextEEENS1_INS_4NameEEE
Keybase:_ZN2v86Object20HasRealNamedPropertyENS_5LocalINS_7ContextEEENS1_INS_4NameEEE
Keybase:_ZN2v86Object20SlowGetInternalFieldEi
Keybase:_ZN2v86Object21GetPropertyAttributesENS_5LocalINS_7ContextEEENS1_INS_5ValueEEE
Keybase:_ZN2v86Object21SetNativeDataPropertyENS_5LocalINS_7ContextEEENS1_INS_4NameEEEPFvS5_RKNS_20PropertyCallbackInfoINS_5ValueEEEEPFvS5_NS1_IS7_EERKNS6_IvEEESD_NS_17PropertyAttributeENS_14SideEffectTypeESK_
Keybase:_ZN2v86Object22HasRealIndexedPropertyENS_5LocalINS_7ContextEEEj
Keybase:_ZN2v86Object24GetOwnPropertyDescriptorENS_5LocalINS_7ContextEEENS1_INS_4NameEEE
Keybase:_ZN2v86Object25GetCreationContextCheckedEPNS_7IsolateE
Keybase:_ZN2v86Object25GetCreationContextCheckedEv
Keybase:_ZN2v86Object28FindInstanceInPrototypeChainENS_5LocalINS_16FunctionTemplateEEE
Keybase:_ZN2v86Object28HasRealNamedCallbackPropertyENS_5LocalINS_7ContextEEENS1_INS_4NameEEE
Keybase:_ZN2v86Object30GetRealNamedPropertyAttributesENS_5LocalINS_7ContextEEENS1_INS_4NameEEE
Keybase:_ZN2v86Object32SetAlignedPointerInInternalFieldEiPvt
Keybase:_ZN2v86Object33SetAlignedPointerInInternalFieldsEiPiPPv
Keybase:_ZN2v86Object36GetRealNamedPropertyInPrototypeChainENS_5LocalINS_7ContextEEENS1_INS_4NameEEE
Keybase:_ZN2v86Object38SlowGetAlignedPointerFromInternalFieldEPNS_7IsolateEit
Keybase:_ZN2v86Object38SlowGetAlignedPointerFromInternalFieldEit
Keybase:_ZN2v86Object3GetENS_5LocalINS_7ContextEEENS1_INS_5ValueEEE
Keybase:_ZN2v86Object3GetENS_5LocalINS_7ContextEEENS1_INS_5ValueEEENS_10MaybeLocalIS0_EE
Keybase:_ZN2v86Object3GetENS_5LocalINS_7ContextEEEj
Keybase:_ZN2v86Object3HasENS_5LocalINS_7ContextEEENS1_INS_5ValueEEE
Keybase:_ZN2v86Object3HasENS_5LocalINS_7ContextEEEj
Keybase:_ZN2v86Object3NewEPNS_7IsolateE
Keybase:_ZN2v86Object3NewEPNS_7IsolateENS_5LocalINS_5ValueEEEPNS3_INS_4NameEEEPS5_m
Keybase:_ZN2v86Object3SetENS_5LocalINS_7ContextEEENS1_INS_5ValueEEES5_
Keybase:_ZN2v86Object3SetENS_5LocalINS_7ContextEEENS1_INS_5ValueEEES5_NS_10MaybeLocalIS0_EE
Keybase:_ZN2v86Object3SetENS_5LocalINS_7ContextEEEjNS1_INS_5ValueEEE
Keybase:_ZN2v86Object46GetRealNamedPropertyAttributesInPrototypeChainENS_5LocalINS_7ContextEEENS1_INS_4NameEEE
Keybase:_ZN2v86Object4WrapEPNS_7IsolateEmNS_17CppHeapPointerTagEPv
Keybase:_ZN2v86Object50GetAlignedPointerFromEmbedderDataInCreationContextEPNS_7IsolateEit
Keybase:_ZN2v86Object50GetAlignedPointerFromEmbedderDataInCreationContextEit
Keybase:_ZN2v86Object5CloneEPNS_7IsolateE
Keybase:_ZN2v86Object5CloneEv
Keybase:_ZN2v86Object6DeleteENS_5LocalINS_7ContextEEENS1_INS_5ValueEEE
Keybase:_ZN2v86Object6DeleteENS_5LocalINS_7ContextEEEj
Keybase:_ZN2v86Object6UnwrapEPNS_7IsolateEmNS_22CppHeapPointerTagRangeE
Keybase:_ZN2v86Object9CheckCastEPNS_5ValueE
Keybase:_ZN2v86RegExp21NewWithBacktrackLimitENS_5LocalINS_7ContextEEENS1_INS_6StringEEENS0_5FlagsEj
Keybase:_ZN2v86RegExp3NewENS_5LocalINS_7ContextEEENS1_INS_6StringEEENS0_5FlagsE
Keybase:_ZN2v86RegExp4ExecENS_5LocalINS_7ContextEEENS1_INS_6StringEEE
Keybase:_ZN2v86RegExp9CheckCastEPNS_5ValueE
Keybase:_ZN2v86Script15GetResourceNameEv
Keybase:_ZN2v86Script16GetUnboundScriptEv
Keybase:_ZN2v86Script3RunENS_5LocalINS_7ContextEEE
Keybase:_ZN2v86Script3RunENS_5LocalINS_7ContextEEENS1_INS_4DataEEE
Keybase:_ZN2v86Script7CompileENS_5LocalINS_7ContextEEENS1_INS_6StringEEEPNS_12ScriptOriginE
Keybase:_ZN2v86String11NewFromUtf8EPNS_7IsolateEPKcNS_13NewStringTypeEi
Keybase:_ZN2v86String12MakeExternalEPNS0_22ExternalStringResourceE
Keybase:_ZN2v86String12MakeExternalEPNS0_29ExternalOneByteStringResourceE
Keybase:_ZN2v86String12MakeExternalEPNS_7IsolateEPNS0_22ExternalStringResourceE
Keybase:_ZN2v86String12MakeExternalEPNS_7IsolateEPNS0_29ExternalOneByteStringResourceE
Keybase:_ZN2v86String14NewFromOneByteEPNS_7IsolateEPKhNS_13NewStringTypeEi
Keybase:_ZN2v86String14NewFromTwoByteEPNS_7IsolateEPKtNS_13NewStringTypeEi
Keybase:_ZN2v86String17InternalizeStringEPNS_7IsolateE
Keybase:_ZN2v86String18NewExternalOneByteEPNS_7IsolateEPNS0_29ExternalOneByteStringResourceE
Keybase:_ZN2v86String18NewExternalTwoByteEPNS_7IsolateEPNS0_22ExternalStringResourceE
Keybase:_ZN2v86String18NewFromUtf8LiteralEPNS_7IsolateEPKcNS_13NewStringTypeEi
Keybase:_ZN2v86String22ExternalStringResource15UpdateDataCacheEv
Keybase:_ZN2v86String29ExternalOneByteStringResource15UpdateDataCacheEv
Keybase:_ZN2v86String5ValueC1EPNS_7IsolateENS_5LocalINS_5ValueEEE
Keybase:_ZN2v86String5ValueC2EPNS_7IsolateENS_5LocalINS_5ValueEEE
Keybase:_ZN2v86String5ValueD1Ev
Keybase:_ZN2v86String5ValueD2Ev
Keybase:_ZN2v86String6ConcatEPNS_7IsolateENS_5LocalIS0_EES4_
Keybase:_ZN2v86String9CheckCastEPNS_4DataE
Keybase:_ZN2v86String9Utf8ValueC1EPNS_7IsolateENS_5LocalINS_5ValueEEE
Keybase:_ZN2v86String9Utf8ValueC2EPNS_7IsolateENS_5LocalINS_5ValueEEE
Keybase:_ZN2v86String9Utf8ValueD1Ev
Keybase:_ZN2v86String9Utf8ValueD2Ev
Keybase:_ZN2v86String9ValueViewC1EPNS_7IsolateENS_5LocalIS0_EE
Keybase:_ZN2v86String9ValueViewC2EPNS_7IsolateENS_5LocalIS0_EE
Keybase:_ZN2v86String9ValueViewD1Ev
Keybase:_ZN2v86String9ValueViewD2Ev
Keybase:_ZN2v86Symbol10GetDisposeEPNS_7IsolateE
Keybase:_ZN2v86Symbol10GetReplaceEPNS_7IsolateE
Keybase:_ZN2v86Symbol11GetIteratorEPNS_7IsolateE
Keybase:_ZN2v86Symbol14GetHasInstanceEPNS_7IsolateE
Keybase:_ZN2v86Symbol14GetToPrimitiveEPNS_7IsolateE
Keybase:_ZN2v86Symbol14GetToStringTagEPNS_7IsolateE
Keybase:_ZN2v86Symbol14GetUnscopablesEPNS_7IsolateE
Keybase:_ZN2v86Symbol15GetAsyncDisposeEPNS_7IsolateE
Keybase:_ZN2v86Symbol16GetAsyncIteratorEPNS_7IsolateE
Keybase:_ZN2v86Symbol21GetIsConcatSpreadableEPNS_7IsolateE
Keybase:_ZN2v86Symbol3ForEPNS_7IsolateENS_5LocalINS_6StringEEE
Keybase:_ZN2v86Symbol3NewEPNS_7IsolateENS_5LocalINS_6StringEEE
Keybase:_ZN2v86Symbol6ForApiEPNS_7IsolateENS_5LocalINS_6StringEEE
Keybase:_ZN2v86Symbol8GetMatchEPNS_7IsolateE
Keybase:_ZN2v86Symbol8GetSplitEPNS_7IsolateE
Keybase:_ZN2v86Symbol9CheckCastEPNS_4DataE
Keybase:_ZN2v86Symbol9GetSearchEPNS_7IsolateE
Keybase:_ZN2v86Uint329CheckCastEPNS_4DataE
Keybase:_ZN2v87Boolean9CheckCastEPNS_4DataE
Keybase:_ZN2v87Context10DeepFreezeEPNS0_18DeepFreezeDelegateE
Keybase:_ZN2v87Context12DetachGlobalEv
Keybase:_ZN2v87Context12FromSnapshotEPNS_7IsolateEmNS_33DeserializeInternalFieldsCallbackEPNS_22ExtensionConfigurationENS_10MaybeLocalINS_5ValueEEEPNS_14MicrotaskQueueENS_30DeserializeContextDataCallbackENS_29DeserializeAPIWrapperCallbackE
Keybase:_ZN2v87Context15SetEmbedderDataEiNS_5LocalINS_5ValueEEE
Keybase:_ZN2v87Context15SetPromiseHooksENS_5LocalINS_8FunctionEEES3_S3_S3_
Keybase:_ZN2v87Context16GetSecurityTokenEv
Keybase:_ZN2v87Context16NewRemoteContextEPNS_7IsolateENS_5LocalINS_14ObjectTemplateEEENS_10MaybeLocalINS_5ValueEEE
Keybase:_ZN2v87Context16SetSecurityTokenENS_5LocalINS_5ValueEEE
Keybase:_ZN2v87Context17GetMicrotaskQueueEv
Keybase:_ZN2v87Context17SetMicrotaskQueueEPNS_14MicrotaskQueueE
Keybase:_ZN2v87Context19SlowGetEmbedderDataEi
Keybase:_ZN2v87Context20BackupIncumbentScopeC1ENS_5LocalIS0_EE
Keybase:_ZN2v87Context20BackupIncumbentScopeC2ENS_5LocalIS0_EE
Keybase:_ZN2v87Context20BackupIncumbentScopeD1Ev
Keybase:_ZN2v87Context20BackupIncumbentScopeD2Ev
Keybase:_ZN2v87Context22GetExtrasBindingObjectEv
Keybase:_ZN2v87Context23GetDataFromSnapshotOnceEm
Keybase:_ZN2v87Context23SetAbortScriptExecutionEPFvPNS_7IsolateENS_5LocalIS0_EEE
Keybase:_ZN2v87Context23UseDefaultSecurityTokenEv
Keybase:_ZN2v87Context24HasTemplateLiteralObjectENS_5LocalINS_5ValueEEE
Keybase:_ZN2v87Context29GetNumberOfEmbedderDataFieldsEv
Keybase:_ZN2v87Context30AllowCodeGenerationFromStringsEb
Keybase:_ZN2v87Context31SetAlignedPointerInEmbedderDataEiPvt
Keybase:_ZN2v87Context36SetErrorMessageForWasmCodeGenerationENS_5LocalINS_6StringEEE
Keybase:_ZN2v87Context37SlowGetAlignedPointerFromEmbedderDataEit
Keybase:_ZN2v87Context3NewEPNS_7IsolateEPNS_22ExtensionConfigurationENS_10MaybeLocalINS_14ObjectTemplateEEENS5_INS_5ValueEEENS_33DeserializeInternalFieldsCallbackEPNS_14MicrotaskQueueENS_30DeserializeContextDataCallbackENS_29DeserializeAPIWrapperCallbackE
Keybase:_ZN2v87Context43SetErrorMessageForCodeGenerationFromStringsENS_5LocalINS_6StringEEE
Keybase:_ZN2v87Context4ExitEv
Keybase:_ZN2v87Context5EnterEv
Keybase:_ZN2v87Context6GlobalEv
Keybase:_ZN2v87Context9CheckCastEPNS_4DataE
Keybase:_ZN2v87CppHeap13GetHeapHandleEv
Keybase:_ZN2v87CppHeap17CollectStatisticsEN5cppgc14HeapStatistics11DetailLevelE
Keybase:_ZN2v87CppHeap19GetAllocationHandleEv
Keybase:_ZN2v87CppHeap24CollectGarbageForTestingEN5cppgc18EmbedderStackStateE
Keybase:_ZN2v87CppHeap36CollectCustomSpaceStatisticsAtLastGCENSt4__Cr6vectorIN5cppgc16CustomSpaceIndexENS1_9allocatorIS4_EEEENS1_10unique_ptrINS_29CustomSpaceStatisticsReceiverENS1_14default_deleteIS9_EEEE
Keybase:_ZN2v87CppHeap41CollectGarbageInYoungGenerationForTestingEN5cppgc18EmbedderStackStateE
Keybase:_ZN2v87CppHeap42EnableDetachedGarbageCollectionsForTestingEv
Keybase:_ZN2v87CppHeap6CreateEPNS_8PlatformERKNS_19CppHeapCreateParamsE
Keybase:_ZN2v87CppHeap9TerminateEv
Keybase:_ZN2v87Integer15NewFromUnsignedEPNS_7IsolateEj
Keybase:_ZN2v87Integer3NewEPNS_7IsolateEi
Keybase:_ZN2v87Integer9CheckCastEPNS_4DataE
Keybase:_ZN2v87Isolate10GetCurrentEv
Keybase:_ZN2v87Isolate10InitializeEPS0_RKNS0_12CreateParamsE
Keybase:_ZN2v87Isolate10ThrowErrorENS_5LocalINS_6StringEEE
Keybase:_ZN2v87Isolate11GetHashSeedEv
Keybase:_ZN2v87Isolate11SetPriorityENS0_8PriorityE
Keybase:_ZN2v87Isolate12CreateParamsC1Ev
Keybase:_ZN2v87Isolate12CreateParamsC2Ev
Keybase:_ZN2v87Isolate12CreateParamsD1Ev
Keybase:_ZN2v87Isolate12CreateParamsD2Ev
Keybase:_ZN2v87Isolate12DeinitializeEv
Keybase:_ZN2v87Isolate12GetCodeRangeEPPvPm
Keybase:_ZN2v87Isolate12SetIsLoadingEb
Keybase:_ZN2v87Isolate13CopyCodePagesEmPNS_11MemoryRangeE
Keybase:_ZN2v87Isolate13MeasureMemoryENSt4__Cr10unique_ptrINS_21MeasureMemoryDelegateENS1_14default_deleteIS3_EEEENS_22MeasureMemoryExecutionE
Keybase:_ZN2v87Isolate13SetStackLimitEm
Keybase:_ZN2v87Isolate13TryGetCurrentEv
Keybase:_ZN2v87Isolate14GetStackSampleERKNS_13RegisterStateEPPvmPNS_10SampleInfoE
Keybase:_ZN2v87Isolate14SetEventLoggerEPFvPKciE
Keybase:_ZN2v87Isolate14SetPromiseHookEPFvNS_15PromiseHookTypeENS_5LocalINS_7PromiseEEENS2_INS_5ValueEEEE
Keybase:_ZN2v87Isolate14ThrowExceptionENS_5LocalINS_5ValueEEE
Keybase:_ZN2v87Isolate15GetHeapProfilerEv
Keybase:_ZN2v87Isolate15GetJSEntryStubsEv
Keybase:_ZN2v87Isolate16ClearKeptObjectsEv
Keybase:_ZN2v87Isolate16EnqueueMicrotaskENS_5LocalINS_8FunctionEEE
Keybase:_ZN2v87Isolate16EnqueueMicrotaskEPFvPvES1_
Keybase:_ZN2v87Isolate16GetDefaultLocaleEv
Keybase:_ZN2v87Isolate16RequestInterruptEPFvPS0_PvES2_
Keybase:_ZN2v87Isolate17DumpAndResetStatsEv
Keybase:_ZN2v87Isolate17GetCurrentContextEv
Keybase:_ZN2v87Isolate17GetHeapStatisticsEPNS_14HeapStatisticsE
Keybase:_ZN2v87Isolate18AddMessageListenerEPFvNS_5LocalINS_7MessageEEENS1_INS_5ValueEEEES5_
Keybase:_ZN2v87Isolate18GetStackTraceLimitEv
Keybase:_ZN2v87Isolate18NumberOfHeapSpacesEv
Keybase:_ZN2v87Isolate18SetCounterFunctionEPFPiPKcE
Keybase:_ZN2v87Isolate18SetMemorySaverModeEb
Keybase:_ZN2v87Isolate18SetMetricsRecorderERKNSt4__Cr10shared_ptrINS_7metrics8RecorderEEE
Keybase:_ZN2v87Isolate18SetOOMErrorHandlerEPFvPKcRKNS_10OOMDetailsEE
Keybase:_ZN2v87Isolate18TerminateExecutionEv
Keybase:_ZN2v87Isolate19GetIncumbentContextEv
Keybase:_ZN2v87Isolate19HasPendingExceptionEv
Keybase:_ZN2v87Isolate19SetAllowAtomicsWaitEb
Keybase:_ZN2v87Isolate19SetBatterySaverModeEb
Keybase:_ZN2v87Isolate19SetMicrotasksPolicyENS_16MicrotasksPolicyE
Keybase:_ZN2v87Isolate20GetEmbeddedCodeRangeEPPKvPm
Keybase:_ZN2v87Isolate20SetFatalErrorHandlerEPFvPKcS2_E
Keybase:_ZN2v87Isolate21AddGCEpilogueCallbackEPFvPS0_NS_6GCTypeENS_15GCCallbackFlagsEES2_
Keybase:_ZN2v87Isolate21AddGCEpilogueCallbackEPFvPS0_NS_6GCTypeENS_15GCCallbackFlagsEPvES4_S2_
Keybase:_ZN2v87Isolate21AddGCPrologueCallbackEPFvPS0_NS_6GCTypeENS_15GCCallbackFlagsEES2_
Keybase:_ZN2v87Isolate21AddGCPrologueCallbackEPFvPS0_NS_6GCTypeENS_15GCCallbackFlagsEPvES4_S2_
Keybase:_ZN2v87Isolate21ClearCachesForTestingEv
Keybase:_ZN2v87Isolate21LowMemoryNotificationEv
Keybase:_ZN2v87Isolate21SetUseCounterCallbackEPFvPS0_NS0_17UseCounterFeatureEE
Keybase:_ZN2v87Isolate21SetWasmModuleCallbackEPFbRKNS_20FunctionCallbackInfoINS_5ValueEEEE
Keybase:_ZN2v87Isolate22GetHeapSpaceStatisticsEPNS_19HeapSpaceStatisticsEm
Keybase:_ZN2v87Isolate22IsExecutionTerminatingEv
Keybase:_ZN2v87Isolate22RemoveMessageListenersEPFvNS_5LocalINS_7MessageEEENS1_INS_5ValueEEEE
Keybase:_ZN2v87Isolate22SetAddCrashKeyCallbackEPFvNS_10CrashKeyIdERKNSt4__Cr12basic_stringIcNS2_11char_traitsIcEENS2_9allocatorIcEEEEE
Keybase:_ZN2v87Isolate22SetJitCodeEventHandlerENS_19JitCodeEventOptionsEPFvPKNS_12JitCodeEventEE
Keybase:_ZN2v87Isolate23GetArrayBufferAllocatorEv
Keybase:_ZN2v87Isolate23GetDataFromSnapshotOnceEm
Keybase:_ZN2v87Isolate23SetEmbedderRootsHandlerEPNS_20EmbedderRootsHandlerE
Keybase:_ZN2v87Isolate23SetWasmInstanceCallbackEPFbRKNS_20FunctionCallbackInfoINS_5ValueEEEE
Keybase:_ZN2v87Isolate24AddCallCompletedCallbackEPFvPS0_E
Keybase:_ZN2v87Isolate24AddNearHeapLimitCallbackEPFmPvmmES1_
Keybase:_ZN2v87Isolate24CancelTerminateExecutionEv
Keybase:_ZN2v87Isolate24RemoveGCEpilogueCallbackEPFvPS0_NS_6GCTypeENS_15GCCallbackFlagsEE
Keybase:_ZN2v87Isolate24RemoveGCEpilogueCallbackEPFvPS0_NS_6GCTypeENS_15GCCallbackFlagsEPvES4_
Keybase:_ZN2v87Isolate24RemoveGCPrologueCallbackEPFvPS0_NS_6GCTypeENS_15GCCallbackFlagsEE
Keybase:_ZN2v87Isolate24RemoveGCPrologueCallbackEPFvPS0_NS_6GCTypeENS_15GCCallbackFlagsEPvES4_
Keybase:_ZN2v87Isolate24RestoreOriginalHeapLimitEv
Keybase:_ZN2v87Isolate24SetPromiseRejectCallbackEPFvNS_20PromiseRejectMessageEE
Keybase:_ZN2v87Isolate24SetWasmStreamingCallbackEPFvRKNS_20FunctionCallbackInfoINS_5ValueEEEE
Keybase:_ZN2v87Isolate25HasPendingBackgroundTasksEv
Keybase:_ZN2v87Isolate26InstallConditionalFeaturesENS_5LocalINS_7ContextEEE
Keybase:_ZN2v87Isolate26MemoryPressureNotificationENS_19MemoryPressureLevelE
Keybase:_ZN2v87Isolate26PerformMicrotaskCheckpointEv
Keybase:_ZN2v87Isolate26SetCreateHistogramFunctionEPFPvPKciimE
Keybase:_ZN2v87Isolate27ContextDisposedNotificationENS_17ContextDependantsE
Keybase:_ZN2v87Isolate27ContextDisposedNotificationEb
Keybase:_ZN2v87Isolate27RemoveCallCompletedCallbackEPFvPS0_E
Keybase:_ZN2v87Isolate27RemoveNearHeapLimitCallbackEPFmPvmmEm
Keybase:_ZN2v87Isolate28AddBeforeCallEnteredCallbackEPFvPS0_E
Keybase:_ZN2v87Isolate28GetCurrentHostDefinedOptionsEv
Keybase:_ZN2v87Isolate28GetEnteredOrMicrotaskContextEv
Keybase:_ZN2v87Isolate28SetPrepareStackTraceCallbackEPFNS_10MaybeLocalINS_5ValueEEENS_5LocalINS_7ContextEEENS4_IS2_EENS4_INS_5ArrayEEEE
Keybase:_ZN2v87Isolate28SetWasmLoadSourceMapCallbackEPFNS_5LocalINS_6StringEEEPS0_PKcE
Keybase:_ZN2v87Isolate29AllowJavascriptExecutionScopeC1EPS0_
Keybase:_ZN2v87Isolate29AllowJavascriptExecutionScopeC2EPS0_
Keybase:_ZN2v87Isolate29AllowJavascriptExecutionScopeD1Ev
Keybase:_ZN2v87Isolate29AllowJavascriptExecutionScopeD2Ev
Keybase:_ZN2v87Isolate29DiscardThreadSpecificMetadataEv
Keybase:_ZN2v87Isolate29HandleExternalMemoryInterruptEv
Keybase:_ZN2v87Isolate29IncreaseHeapLimitForDebuggingEv
Keybase:_ZN2v87Isolate29SetAddHistogramSampleFunctionEPFvPviE
Keybase:_ZN2v87Isolate30AddMicrotasksCompletedCallbackEPFvPS0_PvES2_
Keybase:_ZN2v87Isolate30NumberOfTrackedHeapObjectTypesEv
Keybase:_ZN2v87Isolate31GetHeapObjectStatisticsAtLastGCEPNS_20HeapObjectStatisticsEm
Keybase:_ZN2v87Isolate31IsolateInBackgroundNotificationEv
Keybase:_ZN2v87Isolate31IsolateInForegroundNotificationEv
Keybase:_ZN2v87Isolate31RemoveBeforeCallEnteredCallbackEPFvPS0_E
Keybase:_ZN2v87Isolate31SetExceptionPropagationCallbackEPFvNS_27ExceptionPropagationMessageEE
Keybase:_ZN2v87Isolate31SuppressMicrotaskExecutionScopeC1EPS0_PNS_14MicrotaskQueueE
Keybase:_ZN2v87Isolate31SuppressMicrotaskExecutionScopeC2EPS0_PNS_14MicrotaskQueueE
Keybase:_ZN2v87Isolate31SuppressMicrotaskExecutionScopeD1Ev
Keybase:_ZN2v87Isolate31SuppressMicrotaskExecutionScopeD2Ev
Keybase:_ZN2v87Isolate32AddMessageListenerWithErrorLevelEPFvNS_5LocalINS_7MessageEEENS1_INS_5ValueEEEEiS5_
Keybase:_ZN2v87Isolate32DisallowJavascriptExecutionScopeC1EPS0_NS1_9OnFailureE
Keybase:_ZN2v87Isolate32DisallowJavascriptExecutionScopeC2EPS0_NS1_9OnFailureE
Keybase:_ZN2v87Isolate32DisallowJavascriptExecutionScopeD1Ev
Keybase:_ZN2v87Isolate32DisallowJavascriptExecutionScopeD2Ev
Keybase:_ZN2v87Isolate32GetHeapCodeAndMetadataStatisticsEPNS_18HeapCodeStatisticsE
Keybase:_ZN2v87Isolate32IsHeapLimitIncreasedForDebuggingEv
Keybase:_ZN2v87Isolate33RemoveMicrotasksCompletedCallbackEPFvPS0_PvES2_
Keybase:_ZN2v87Isolate34RequestGarbageCollectionForTestingENS0_21GarbageCollectionTypeE
Keybase:_ZN2v87Isolate34RequestGarbageCollectionForTestingENS0_21GarbageCollectionTypeEN5cppgc18EmbedderStackStateE
Keybase:_ZN2v87Isolate34SetAllowWasmCodeGenerationCallbackEPFbNS_5LocalINS_7ContextEEENS1_INS_6StringEEEE
Keybase:_ZN2v87Isolate34SetWasmAsyncResolvePromiseCallbackEPFvPS0_NS_5LocalINS_7ContextEEENS2_INS_7Promise8ResolverEEENS2_INS_5ValueEEENS_16WasmAsyncSuccessEE
Keybase:_ZN2v87Isolate35SetAbortOnUncaughtExceptionCallbackEPFbPS0_E
Keybase:_ZN2v87Isolate35SetReleaseCppHeapCallbackForTestingEPFvNSt4__Cr10unique_ptrINS_7CppHeapENS1_14default_deleteIS3_EEEEE
Keybase:_ZN2v87Isolate36AutomaticallyRestoreInitialHeapLimitEd
Keybase:_ZN2v87Isolate36GetContinuationPreservedEmbedderDataEv
Keybase:_ZN2v87Isolate36SetContinuationPreservedEmbedderDataENS_5LocalINS_5ValueEEE
Keybase:_ZN2v87Isolate36SetFailedAccessCheckCallbackFunctionEPFvNS_5LocalINS_6ObjectEEENS_10AccessTypeENS1_INS_5ValueEEEE
Keybase:_ZN2v87Isolate36SetIsJSApiWrapperNativeErrorCallbackEPFbPS0_NS_5LocalINS_6ObjectEEEE
Keybase:_ZN2v87Isolate37AdjustAmountOfExternalAllocatedMemoryEl
Keybase:_ZN2v87Isolate37LocaleConfigurationChangeNotificationEv
Keybase:_ZN2v87Isolate38GetContinuationPreservedEmbedderDataV2Ev
Keybase:_ZN2v87Isolate38SetContinuationPreservedEmbedderDataV2ENS_5LocalINS_4DataEEE
Keybase:_ZN2v87Isolate38SetHostImportModuleDynamicallyCallbackEPFNS_10MaybeLocalINS_7PromiseEEENS_5LocalINS_7ContextEEENS4_INS_4DataEEENS4_INS_5ValueEEENS4_INS_6StringEEENS4_INS_10FixedArrayEEEE
Keybase:_ZN2v87Isolate38ValidateAndCanonicalizeUnicodeLocaleIdENSt4__Cr17basic_string_viewIcNS1_11char_traitsIcEEEE
Keybase:_ZN2v87Isolate39DateTimeConfigurationChangeNotificationENS0_17TimeZoneDetectionE
Keybase:_ZN2v87Isolate39SetHostCreateShadowRealmContextCallbackEPFNS_10MaybeLocalINS_7ContextEEENS_5LocalIS2_EEE
Keybase:_ZN2v87Isolate39SetWasmCustomDescriptorsEnabledCallbackEPFbNS_5LocalINS_7ContextEEEE
Keybase:_ZN2v87Isolate3NewERKNS0_12CreateParamsE
Keybase:_ZN2v87Isolate3NewERKNS_12IsolateGroupERKNS0_12CreateParamsE
Keybase:_ZN2v87Isolate41AdjustAmountOfExternalAllocatedMemoryImplEl
Keybase:_ZN2v87Isolate41SetCaptureStackTraceForUncaughtExceptionsEbiNS_10StackTrace17StackTraceOptionsE
Keybase:_ZN2v87Isolate41SetHostInitializeImportMetaObjectCallbackEPFvNS_5LocalINS_7ContextEEENS1_INS_6ModuleEEENS1_INS_6ObjectEEEE
Keybase:_ZN2v87Isolate42SetModifyCodeGenerationFromStringsCallbackEPFNS_37ModifyCodeGenerationFromStringsResultENS_5LocalINS_7ContextEEENS2_INS_5ValueEEEbE
Keybase:_ZN2v87Isolate46SetGetExternallyAllocatedMemoryInBytesCallbackEPFmvE
Keybase:_ZN2v87Isolate46SetSharedArrayBufferConstructorEnabledCallbackEPFbNS_5LocalINS_7ContextEEEE
Keybase:_ZN2v87Isolate47SetHostImportModuleWithPhaseDynamicallyCallbackEPFNS_10MaybeLocalINS_7PromiseEEENS_5LocalINS_7ContextEEENS4_INS_4DataEEENS4_INS_5ValueEEENS4_INS_6StringEEENS_17ModuleImportPhaseENS4_INS_10FixedArrayEEEE
Keybase:_ZN2v87Isolate4ExitEv
Keybase:_ZN2v87Isolate4FreeEPS0_
Keybase:_ZN2v87Isolate5EnterEv
Keybase:_ZN2v87Isolate6FreezeEb
Keybase:_ZN2v87Isolate6IsDeadEv
Keybase:_ZN2v87Isolate7DisposeEv
Keybase:_ZN2v87Isolate7IsInUseEv
Keybase:_ZN2v87Isolate7SetIdleEb
Keybase:_ZN2v87Isolate8AllocateERKNS_12IsolateGroupE
Keybase:_ZN2v87Isolate8AllocateEv
Keybase:_ZN2v87Isolate9InContextEv
Keybase:_ZN2v87Message22PrintCurrentStackTraceEPNS_7IsolateERNSt4__Cr13basic_ostreamIcNS3_11char_traitsIcEEEEPFbS2_NS_5LocalINS_6StringEEEE
Keybase:_ZN2v87Numeric9CheckCastEPNS_4DataE
Keybase:_ZN2v87Private3NewEPNS_7IsolateENS_5LocalINS_6StringEEE
Keybase:_ZN2v87Private6ForApiEPNS_7IsolateENS_5LocalINS_6StringEEE
Keybase:_ZN2v87Private9CheckCastEPNS_4DataE
Keybase:_ZN2v87Promise12MarkAsSilentEv
Keybase:_ZN2v87Promise13MarkAsHandledEv
Keybase:_ZN2v87Promise4ThenENS_5LocalINS_7ContextEEENS1_INS_8FunctionEEE
Keybase:_ZN2v87Promise4ThenENS_5LocalINS_7ContextEEENS1_INS_8FunctionEEES5_
Keybase:_ZN2v87Promise5CatchENS_5LocalINS_7ContextEEENS1_INS_8FunctionEEE
Keybase:_ZN2v87Promise5StateEv
Keybase:_ZN2v87Promise6ResultEv
Keybase:_ZN2v87Promise8Resolver10GetPromiseEv
Keybase:_ZN2v87Promise8Resolver3NewENS_5LocalINS_7ContextEEE
Keybase:_ZN2v87Promise8Resolver6RejectENS_5LocalINS_7ContextEEENS2_INS_5ValueEEE
Keybase:_ZN2v87Promise8Resolver7ResolveENS_5LocalINS_7ContextEEENS2_INS_5ValueEEE
Keybase:_ZN2v87Promise8Resolver9CheckCastEPNS_5ValueE
Keybase:_ZN2v87Promise9CheckCastEPNS_5ValueE
Keybase:_ZN2v87metrics13LongTaskStats3GetEPNS_7IsolateE
Keybase:_ZN2v87metrics8Recorder10GetContextEPNS_7IsolateENS1_9ContextIdE
Keybase:_ZN2v87metrics8Recorder12GetContextIdENS_5LocalINS_7ContextEEE
Keybase:_ZN2v88DataView3NewENS_5LocalINS_11ArrayBufferEEEmm
Keybase:_ZN2v88DataView3NewENS_5LocalINS_17SharedArrayBufferEEEmm
Keybase:_ZN2v88DataView9CheckCastEPNS_5ValueE
Keybase:_ZN2v88External3NewEPNS_7IsolateEPv
Keybase:_ZN2v88External9CheckCastEPNS_5ValueE
Keybase:_ZN2v88Function19kLineOffsetNotFoundE
Keybase:_ZN2v88Function21FunctionProtoToStringENS_5LocalINS_7ContextEEE
Keybase:_ZN2v88Function3NewENS_5LocalINS_7ContextEEEPFvRKNS_20FunctionCallbackInfoINS_5ValueEEEENS1_IS5_EEiNS_19ConstructorBehaviorENS_14SideEffectTypeE
Keybase:_ZN2v88Function4CallENS_5LocalINS_7ContextEEENS1_INS_5ValueEEEiPS5_
Keybase:_ZN2v88Function4CallEPNS_7IsolateENS_5LocalINS_7ContextEEENS3_INS_5ValueEEEiPS7_
Keybase:_ZN2v88Function7SetNameENS_5LocalINS_6StringEEE
Keybase:_ZN2v88Function9CheckCastEPNS_5ValueE
Keybase:_ZN2v88Platform21SystemClockTimeMillisEv
Keybase:_ZN2v88Template10SetPrivateENS_5LocalINS_7PrivateEEENS1_INS_4DataEEENS_17PropertyAttributeE
Keybase:_ZN2v88Template19SetAccessorPropertyENS_5LocalINS_4NameEEENS1_INS_16FunctionTemplateEEES5_NS_17PropertyAttributeE
Keybase:_ZN2v88Template19SetLazyDataPropertyENS_5LocalINS_4NameEEEPFvS3_RKNS_20PropertyCallbackInfoINS_5ValueEEEENS1_IS5_EENS_17PropertyAttributeENS_14SideEffectTypeESD_
Keybase:_ZN2v88Template21SetNativeDataPropertyENS_5LocalINS_4NameEEEPFvS3_RKNS_20PropertyCallbackInfoINS_5ValueEEEEPFvS3_NS1_IS5_EERKNS4_IvEEESB_NS_17PropertyAttributeENS_14SideEffectTypeESI_
Keybase:_ZN2v88Template24SetIntrinsicDataPropertyENS_5LocalINS_4NameEEENS_9IntrinsicENS_17PropertyAttributeE
Keybase:_ZN2v88Template3SetENS_5LocalINS_4NameEEENS1_INS_4DataEEENS_17PropertyAttributeE
Keybase:_ZN2v88TryCatch10SetVerboseEb
Keybase:_ZN2v88TryCatch10StackTraceENS_5LocalINS_7ContextEEENS1_INS_5ValueEEE
Keybase:_ZN2v88TryCatch13ResetInternalEv
Keybase:_ZN2v88TryCatch17SetCaptureMessageEb
Keybase:_ZN2v88TryCatch5ResetEv
Keybase:_ZN2v88TryCatch7ReThrowEv
Keybase:_ZN2v88TryCatchC1EPNS_7IsolateE
Keybase:_ZN2v88TryCatchC2EPNS_7IsolateE
Keybase:_ZN2v88TryCatchD1Ev
Keybase:_ZN2v88TryCatchD2Ev
Keybase:_ZN2v88TryCatchdaEPvm
Keybase:_ZN2v88TryCatchdlEPvm
Keybase:_ZN2v88TryCatchnaEm
Keybase:_ZN2v88TryCatchnwEm
Keybase:_ZN2v88Unlocker10InitializeEPNS_7IsolateE
Keybase:_ZN2v88UnlockerD1Ev
Keybase:_ZN2v88UnlockerD2Ev
Keybase:_ZN2v88Unwinder17TryUnwindV8FramesERKNS_12JSEntryStubsEmPKNS_11MemoryRangeEPNS_13RegisterStateEPKv
Keybase:_ZN2v88Unwinder8PCIsInV8EmPKNS_11MemoryRangeEPv
Keybase:_ZN2v88internal10TickSample14GetStackSampleEPNS0_7IsolateEPNS_13RegisterStateENS1_17RecordCEntryFrameEPPvmPNS_10SampleInfoEPNS_8StateTagEb
Keybase:_ZN2v88internal10TickSample4InitEPNS0_7IsolateERKNS_13RegisterStateENS1_17RecordCEntryFrameEbbNS_4base9TimeDeltaENSt4__Cr8optionalImEE
Keybase:_ZN2v88internal15ThreadIsolation10InitializeEPNS_23ThreadIsolatedAllocatorE
Keybase:_ZN2v88internal15ThreadIsolation12SplitJitPageEmm
Keybase:_ZN2v88internal15ThreadIsolation13LookupJitPageEmm
Keybase:_ZN2v88internal15ThreadIsolation13SplitJitPagesEmmmm
Keybase:_ZN2v88internal15ThreadIsolation13trusted_data_E
Keybase:_ZN2v88internal15ThreadIsolation14MakeExecutableEmm
Keybase:_ZN2v88internal15ThreadIsolation15RegisterJitPageEmm
Keybase:_ZN2v88internal15ThreadIsolation16JitPageReference15UnregisterRangeEmm
Keybase:_ZN2v88internal15ThreadIsolation16JitPageReference16LookupAllocationEmmNS1_17JitAllocationTypeE
Keybase:_ZN2v88internal15ThreadIsolation16JitPageReference18RegisterAllocationEmmNS1_17JitAllocationTypeE
Keybase:_ZN2v88internal15ThreadIsolation16JitPageReference19StartOfAllocationAtEm
Keybase:_ZN2v88internal15ThreadIsolation16JitPageReference20AllocationContainingEm
Keybase:_ZN2v88internal15ThreadIsolation16JitPageReference20UnregisterAllocationEm
Keybase:_ZN2v88internal15ThreadIsolation16JitPageReference27UnregisterAllocationsExceptEmmRKNSt4__Cr6vectorImNS3_9allocatorImEEEE
Keybase:_ZN2v88internal15ThreadIsolation16JitPageReference5MergeERS2_
Keybase:_ZN2v88internal15ThreadIsolation16JitPageReference6ExpandEm
Keybase:_ZN2v88internal15ThreadIsolation16JitPageReference6ShrinkEPNS1_7JitPageE
Keybase:_ZN2v88internal15ThreadIsolation16JitPageReferenceC1EPNS1_7JitPageEm
Keybase:_ZN2v88internal15ThreadIsolation16JitPageReferenceC2EPNS1_7JitPageEm
Keybase:_ZN2v88internal15ThreadIsolation16TryLookupJitPageEmm
Keybase:_ZN2v88internal15ThreadIsolation17UnregisterJitPageEmm
Keybase:_ZN2v88internal15ThreadIsolation18SplitJitPageLockedEmm
Keybase:_ZN2v88internal15ThreadIsolation18WriteProtectMemoryEmmNS_13PageAllocator10PermissionE
Keybase:_ZN2v88internal15ThreadIsolation19LookupJitAllocationEmmNS1_17JitAllocationTypeEb
Keybase:_ZN2v88internal15ThreadIsolation19LookupJitPageLockedEmm
Keybase:_ZN2v88internal15ThreadIsolation21LookupWritableJitPageEmm
Keybase:_ZN2v88internal15ThreadIsolation21RegisterJitAllocationEmmNS1_17JitAllocationTypeEb
Keybase:_ZN2v88internal15ThreadIsolation22RegisterJitAllocationsEmRKNSt4__Cr6vectorImNS2_9allocatorImEEEENS1_17JitAllocationTypeE
Keybase:_ZN2v88internal15ThreadIsolation22StartOfJitAllocationAtEm
Keybase:_ZN2v88internal15ThreadIsolation22TryLookupJitPageLockedEmm
Keybase:_ZN2v88internal15ThreadIsolation24UnregisterWasmAllocationEmm
Keybase:_ZN2v88internal15ThreadIsolation26LookupJumpTableAllocationsEmmmm
Keybase:_ZN2v88internal15ThreadIsolation31CanLookupStartOfJitAllocationAtEm
Keybase:_ZN2v88internal15ThreadIsolation31RegisterJitAllocationForTestingEmm
Keybase:_ZN2v88internal15ThreadIsolation33UnregisterJitAllocationForTestingEmm
Keybase:_ZN2v88internal15ThreadIsolation35RegisterInstructionStreamAllocationEmmb
Keybase:_ZN2v88internal15ThreadIsolation7EnabledEv
Keybase:_ZN2v88internal15ThreadIsolation7JitPageD1Ev
Keybase:_ZN2v88internal15ThreadIsolation7JitPageD2Ev
Keybase:_ZN2v88internal18ShouldThrowOnErrorEPNS0_7IsolateE
Keybase:_ZN2v88internal19CopyTracedReferenceEPKPKmPPm
Keybase:_ZN2v88internal19MoveTracedReferenceEPPmS2_
Keybase:_ZN2v88internal20ValidateCallbackInfoINS_5ArrayEEEbRKNS_20PropertyCallbackInfoIT_EE
Keybase:_ZN2v88internal20ValidateCallbackInfoINS_5ValueEEEbRKNS_20FunctionCallbackInfoIT_EE
Keybase:_ZN2v88internal20ValidateCallbackInfoINS_5ValueEEEbRKNS_20PropertyCallbackInfoIT_EE
Keybase:_ZN2v88internal20ValidateCallbackInfoINS_7BooleanEEEbRKNS_20PropertyCallbackInfoIT_EE
Keybase:_ZN2v88internal20ValidateCallbackInfoINS_7IntegerEEEbRKNS_20PropertyCallbackInfoIT_EE
Keybase:_ZN2v88internal20ValidateCallbackInfoIvEEbRKNS_20FunctionCallbackInfoIT_EE
Keybase:_ZN2v88internal20ValidateCallbackInfoIvEEbRKNS_20PropertyCallbackInfoIT_EE
Keybase:_ZN2v88internal22DisposeTracedReferenceEPm
Keybase:_ZN2v88internal22VerifyHandleIsNonEmptyEb
Keybase:_ZN2v88internal23StrongRootAllocatorBase13allocate_implEm
Keybase:_ZN2v88internal23StrongRootAllocatorBase15deallocate_implEPmm
Keybase:_ZN2v88internal23StrongRootAllocatorBaseC1EPNS0_12LocalIsolateE
Keybase:_ZN2v88internal23StrongRootAllocatorBaseC1EPNS0_7IsolateE
Keybase:_ZN2v88internal23StrongRootAllocatorBaseC1EPNS0_9LocalHeapE
Keybase:_ZN2v88internal23StrongRootAllocatorBaseC1EPNS_7IsolateE
Keybase:_ZN2v88internal23StrongRootAllocatorBaseC2EPNS0_12LocalIsolateE
Keybase:_ZN2v88internal23StrongRootAllocatorBaseC2EPNS0_7IsolateE
Keybase:_ZN2v88internal23StrongRootAllocatorBaseC2EPNS0_9LocalHeapE
Keybase:_ZN2v88internal23StrongRootAllocatorBaseC2EPNS_7IsolateE
Keybase:_ZN2v88internal24GlobalizeTracedReferenceEPNS0_7IsolateEmPmNS0_24TracedReferenceStoreModeENS0_23TracedReferenceHandlingE
Keybase:_ZN2v88internal27OptimizingCompileInputQueue10PrioritizeEPNS0_7IsolateENS0_6TaggedINS0_18SharedFunctionInfoEEE
Keybase:_ZN2v88internal27OptimizingCompileInputQueue16HasJobForIsolateEPNS0_7IsolateE
Keybase:_ZN2v88internal27OptimizingCompileInputQueue19FlushJobsForIsolateEPNS0_7IsolateE
Keybase:_ZN2v88internal27OptimizingCompileInputQueue23DequeueIfIsolateMatchesERNS0_26OptimizingCompileTaskStateE
Keybase:_ZN2v88internal27OptimizingCompileInputQueue7DequeueERNS0_26OptimizingCompileTaskStateE
Keybase:_ZN2v88internal27OptimizingCompileInputQueue7EnqueueERNSt4__Cr10unique_ptrINS0_22TurbofanCompilationJobENS2_14default_deleteIS4_EEEE
Keybase:_ZN2v88internal29OptimizingCompileTaskExecutor13EnsureStartedEv
Keybase:_ZN2v88internal29OptimizingCompileTaskExecutor14ClearTaskStateERNS0_26OptimizingCompileTaskStateE
Keybase:_ZN2v88internal29OptimizingCompileTaskExecutor17RunCompilationJobERNS0_26OptimizingCompileTaskStateEPNS0_7IsolateERNS0_12LocalIsolateEPNS0_22TurbofanCompilationJobE
Keybase:_ZN2v88internal29OptimizingCompileTaskExecutor23IsTaskRunningForIsolateEPNS0_7IsolateE
Keybase:_ZN2v88internal29OptimizingCompileTaskExecutor23TryQueueForOptimizationERNSt4__Cr10unique_ptrINS0_22TurbofanCompilationJobENS2_14default_deleteIS4_EEEE
Keybase:_ZN2v88internal29OptimizingCompileTaskExecutor25NextInputIfIsolateMatchesERNS0_26OptimizingCompileTaskStateE
Keybase:_ZN2v88internal29OptimizingCompileTaskExecutor28HasCompilationJobsForIsolateEPNS0_7IsolateE
Keybase:_ZN2v88internal29OptimizingCompileTaskExecutor31CancelCompilationJobsForIsolateEPNS0_7IsolateE
Keybase:_ZN2v88internal29OptimizingCompileTaskExecutor38WaitUntilCompilationJobsDoneForIsolateEPNS0_7IsolateE
Keybase:_ZN2v88internal29OptimizingCompileTaskExecutor4StopEv
Keybase:_ZN2v88internal29OptimizingCompileTaskExecutor8ResetJobERNS0_26OptimizingCompileTaskStateE
Keybase:_ZN2v88internal29OptimizingCompileTaskExecutor9NextInputERNS0_26OptimizingCompileTaskStateE
Keybase:_ZN2v88internal29OptimizingCompileTaskExecutorC1Ev
Keybase:_ZN2v88internal29OptimizingCompileTaskExecutorC2Ev
Keybase:_ZN2v88internal29OptimizingCompileTaskExecutorD1Ev
Keybase:_ZN2v88internal29OptimizingCompileTaskExecutorD2Ev
Keybase:_ZN2v88internal35IsolateFromNeverReadOnlySpaceObjectEm
Keybase:_ZN2v88internal4wasm25UpdateComputedInformationEPNS1_10WasmMemoryENS1_12ModuleOriginE
Keybase:_ZN2v88internal7Version10candidate_E
Keybase:_ZN2v88internal7Version15version_string_E
Keybase:_ZN2v88internal7Version6build_E
Keybase:_ZN2v88internal7Version6major_E
Keybase:_ZN2v88internal7Version6minor_E
Keybase:_ZN2v88internal7Version6patch_E
Keybase:_ZN2v88internal7Version7soname_E
Keybase:_ZN2v88internal7Version9GetSONAMEENS_4base6VectorIcEE
Keybase:_ZN2v88internal7Version9GetStringENS_4base6VectorIcEE
Keybase:_ZN2v88internal7Version9embedder_E
Keybase:_ZN2v88internal8compiler23CompilationDependencies14PrepareInstallEv
Keybase:_ZN2v88internal8compiler23CompilationDependencies16RecordDependencyEPKNS1_21CompilationDependencyE
Keybase:_ZN2v88internal8compiler23CompilationDependencies17DependOnProtectorENS1_15PropertyCellRefE
Keybase:_ZN2v88internal8compiler23CompilationDependencies17DependOnStableMapENS1_6MapRefE
Keybase:_ZN2v88internal8compiler23CompilationDependencies18DependOnInitialMapENS1_13JSFunctionRefE
Keybase:_ZN2v88internal8compiler23CompilationDependencies19DependOnContextCellENS1_10ContextRefEmNS0_11ContextCell5StateEPNS1_12JSHeapBrokerE
Keybase:_ZN2v88internal8compiler23CompilationDependencies19DependOnContextCellENS1_14ContextCellRefENS0_11ContextCell5StateE
Keybase:_ZN2v88internal8compiler23CompilationDependencies20DependOnElementsKindENS1_17AllocationSiteRefE
Keybase:_ZN2v88internal8compiler23CompilationDependencies21DependOnElementsKindsENS1_17AllocationSiteRefE
Keybase:_ZN2v88internal8compiler23CompilationDependencies21DependOnPretenureModeENS1_17AllocationSiteRefE
Keybase:_ZN2v88internal8compiler23CompilationDependencies22DependOnFieldConstnessENS1_6MapRefES3_NS0_13InternalIndexE
Keybase:_ZN2v88internal8compiler23CompilationDependencies22DependOnGlobalPropertyENS1_15PropertyCellRefE
Keybase:_ZN2v88internal8compiler23CompilationDependencies23DependOnObjectSlotValueENS1_13HeapObjectRefEiNS1_9ObjectRefE
Keybase:_ZN2v88internal8compiler23CompilationDependencies24DependOnMegaDOMProtectorEv
Keybase:_ZN2v88internal8compiler23CompilationDependencies25DependOnPrototypePropertyENS1_13JSFunctionRefE
Keybase:_ZN2v88internal8compiler23CompilationDependencies25PrepareInstallPredictableEv
Keybase:_ZN2v88internal8compiler23CompilationDependencies26DependOnOwnConstantElementENS1_11JSObjectRefEjNS1_9ObjectRefE
Keybase:_ZN2v88internal8compiler23CompilationDependencies27DependOnNoElementsProtectorEv
Keybase:_ZN2v88internal8compiler23CompilationDependencies28DependOnNoProfilingProtectorEv
Keybase:_ZN2v88internal8compiler23CompilationDependencies28DependOnPromiseHookProtectorEv
Keybase:_ZN2v88internal8compiler23CompilationDependencies28DependOnPromiseThenProtectorEv
Keybase:_ZN2v88internal8compiler23CompilationDependencies28DependOnStablePrototypeChainENS1_6MapRefENS0_12WhereToStartENS1_11OptionalRefINS1_11JSObjectRefEEE
Keybase:_ZN2v88internal8compiler23CompilationDependencies29DependOnArraySpeciesProtectorEv
Keybase:_ZN2v88internal8compiler23CompilationDependencies29DependOnEmptyContextExtensionENS1_12ScopeInfoRefE
Keybase:_ZN2v88internal8compiler23CompilationDependencies29DependOnNoSlackTrackingChangeENS1_6MapRefE
Keybase:_ZN2v88internal8compiler23CompilationDependencies29DependOnStablePrototypeChainsERKNS0_10ZoneVectorINS1_6MapRefEEENS0_12WhereToStartENS1_11OptionalRefINS1_11JSObjectRefEEE
Keybase:_ZN2v88internal8compiler23CompilationDependencies30DependOnArrayIteratorProtectorEv
Keybase:_ZN2v88internal8compiler23CompilationDependencies31DependOnOwnConstantDataPropertyENS1_11JSObjectRefENS1_6MapRefENS0_10FieldIndexENS1_9ObjectRefE
Keybase:_ZN2v88internal8compiler23CompilationDependencies31DependOnPromiseSpeciesProtectorEv
Keybase:_ZN2v88internal8compiler23CompilationDependencies32DependOnConsistentJSFunctionViewENS1_13JSFunctionRefE
Keybase:_ZN2v88internal8compiler23CompilationDependencies33DependOnOwnConstantDoublePropertyENS1_11JSObjectRefENS1_6MapRefENS0_10FieldIndexENS0_7Float64E
Keybase:_ZN2v88internal8compiler23CompilationDependencies36FieldConstnessDependencyOffTheRecordENS1_6MapRefES3_NS0_13InternalIndexE
Keybase:_ZN2v88internal8compiler23CompilationDependencies37DependOnArrayBufferDetachingProtectorEv
Keybase:_ZN2v88internal8compiler23CompilationDependencies37DependOnOwnConstantDictionaryPropertyENS1_11JSObjectRefENS0_13InternalIndexENS1_9ObjectRefE
Keybase:_ZN2v88internal8compiler23CompilationDependencies38DependOnNoUndetectableObjectsProtectorEv
Keybase:_ZN2v88internal8compiler23CompilationDependencies40DependOnInitialMapInstanceSizePredictionENS1_13JSFunctionRefE
Keybase:_ZN2v88internal8compiler23CompilationDependencies41DependOnStringWrapperToPrimitiveProtectorEv
Keybase:_ZN2v88internal8compiler23CompilationDependencies42DependOnConstantInDictionaryPrototypeChainENS1_6MapRefENS1_7NameRefENS1_9ObjectRefENS0_12PropertyKindE
Keybase:_ZN2v88internal8compiler23CompilationDependencies46DependOnNoDateTimeConfigurationChangeProtectorEv
Keybase:_ZN2v88internal8compiler23CompilationDependencies6CommitENS0_6HandleINS0_4CodeEEE
Keybase:_ZN2v88internal8compiler23CompilationDependenciesC1EPNS1_12JSHeapBrokerEPNS0_4ZoneE
Keybase:_ZN2v88internal8compiler23CompilationDependenciesC2EPNS1_12JSHeapBrokerEPNS0_4ZoneE
Keybase:_ZN2v88internal9Internals17GetCurrentIsolateEv
Keybase:_ZN2v88internal9Internals20CheckInitializedImplEPNS_7IsolateE
Keybase:_ZN2v89CFunctionC1EPKvPKNS_13CFunctionInfoE
Keybase:_ZN2v89CFunctionC2EPKvPKNS_13CFunctionInfoE
Keybase:_ZN2v89CodeEvent10GetCommentEv
Keybase:_ZN2v89CodeEvent11GetCodeSizeEv
Keybase:_ZN2v89CodeEvent11GetCodeTypeEv
Keybase:_ZN2v89CodeEvent13GetScriptLineEv
Keybase:_ZN2v89CodeEvent13GetScriptNameEv
Keybase:_ZN2v89CodeEvent15GetFunctionNameEv
Keybase:_ZN2v89CodeEvent15GetScriptColumnEv
Keybase:_ZN2v89CodeEvent19GetCodeStartAddressEv
Keybase:_ZN2v89CodeEvent20GetCodeEventTypeNameENS_13CodeEventTypeE
Keybase:_ZN2v89CodeEvent27GetPreviousCodeStartAddressEv
Keybase:_ZN2v89Exception10RangeErrorENS_5LocalINS_6StringEEENS1_INS_5ValueEEE
Keybase:_ZN2v89Exception11SyntaxErrorENS_5LocalINS_6StringEEENS1_INS_5ValueEEE
Keybase:_ZN2v89Exception13CreateMessageEPNS_7IsolateENS_5LocalINS_5ValueEEE
Keybase:_ZN2v89Exception13GetStackTraceENS_5LocalINS_5ValueEEE
Keybase:_ZN2v89Exception13WasmLinkErrorENS_5LocalINS_6StringEEENS1_INS_5ValueEEE
Keybase:_ZN2v89Exception14ReferenceErrorENS_5LocalINS_6StringEEENS1_INS_5ValueEEE
Keybase:_ZN2v89Exception16WasmCompileErrorENS_5LocalINS_6StringEEENS1_INS_5ValueEEE
Keybase:_ZN2v89Exception16WasmRuntimeErrorENS_5LocalINS_6StringEEENS1_INS_5ValueEEE
Keybase:_ZN2v89Exception16WasmSuspendErrorENS_5LocalINS_6StringEEENS1_INS_5ValueEEE
Keybase:_ZN2v89Exception17CaptureStackTraceENS_5LocalINS_7ContextEEENS1_INS_6ObjectEEE
Keybase:_ZN2v89Exception5ErrorENS_5LocalINS_6StringEEENS1_INS_5ValueEEE
Keybase:_ZN2v89Exception9TypeErrorENS_5LocalINS_6StringEEENS1_INS_5ValueEEE
Keybase:_ZN2v89ExtensionC1EPKcS2_iPS2_i
Keybase:_ZN2v89ExtensionC2EPKcS2_iPS2_i
Keybase:_ZN2v89Int8Array3NewENS_5LocalINS_11ArrayBufferEEEmm
Keybase:_ZN2v89Int8Array3NewENS_5LocalINS_17SharedArrayBufferEEEmm
Keybase:_ZN2v89Int8Array9CheckCastEPNS_5ValueE
Keybase:_ZN2v89Signature3NewEPNS_7IsolateENS_5LocalINS_16FunctionTemplateEEE
Keybase:_ZN2v89Signature9CheckCastEPNS_4DataE
Keybase:_ZN4heap4base23SuspendTagCheckingScopeC1Ev
Keybase:_ZN4heap4base23SuspendTagCheckingScopeC2Ev
Keybase:_ZN4heap4base23SuspendTagCheckingScopeD1Ev
Keybase:_ZN4heap4base23SuspendTagCheckingScopeD2Ev
Keybase:_ZN4node10AsyncHooks11DeserializeEN2v85LocalINS1_7ContextEEE
Keybase:_ZN4node10AsyncHooks17ResetPromiseHooksEN2v85LocalINS1_8FunctionEEES4_S4_S4_
Keybase:_ZN4node10AsyncHooks17pop_async_contextEd
Keybase:_ZN4node10AsyncHooks18push_async_contextEddPN2v85LocalINS1_6ObjectEEE
Keybase:_ZN4node10AsyncHooks19InstallPromiseHooksEN2v85LocalINS1_7ContextEEE
Keybase:_ZN4node10AsyncHooks20clear_async_id_stackEv
Keybase:_ZN4node10AsyncHooks20grow_async_ids_stackEv
Keybase:_ZN4node10AsyncHooks26DefaultTriggerAsyncIdScopeC1EPNS_11EnvironmentEd
Keybase:_ZN4node10AsyncHooks26DefaultTriggerAsyncIdScopeC1EPNS_9AsyncWrapE
Keybase:_ZN4node10AsyncHooks26DefaultTriggerAsyncIdScopeC2EPNS_11EnvironmentEd
Keybase:_ZN4node10AsyncHooks26DefaultTriggerAsyncIdScopeC2EPNS_9AsyncWrapE
Keybase:_ZN4node10AsyncHooks26DefaultTriggerAsyncIdScopeD1Ev
Keybase:_ZN4node10AsyncHooks26DefaultTriggerAsyncIdScopeD2Ev
Keybase:_ZN4node10AsyncHooks27FailWithCorruptedAsyncStackEd
Keybase:_ZN4node10AsyncHooks9SerializeEN2v85LocalINS1_7ContextEEEPNS1_15SnapshotCreatorE
Keybase:_ZN4node10AsyncHooksC1EPN2v87IsolateEPKNS0_13SerializeInfoE
Keybase:_ZN4node10AsyncHooksC2EPN2v87IsolateEPKNS0_13SerializeInfoE
Keybase:_ZN4node10BaseObject12pointer_dataEv
Keybase:_ZN4node10BaseObject17decrease_refcountEv
Keybase:_ZN4node10BaseObject17increase_refcountEv
Keybase:_ZN4node10BaseObject20FinalizeTransferReadEN2v85LocalINS1_7ContextEEEPNS1_17ValueDeserializerE
Keybase:_ZN4node10BaseObject20TransferForMessagingEv
Keybase:_ZN4node10BaseObject31MakeLazilyInitializedJSTemplateEPNS_11EnvironmentE
Keybase:_ZN4node10BaseObject31MakeLazilyInitializedJSTemplateEPNS_11IsolateDataE
Keybase:_ZN4node10BaseObject38LazilyInitializedJSTemplateConstructorERKN2v820FunctionCallbackInfoINS1_5ValueEEE
Keybase:_ZN4node10BaseObject8DeleteMeEv
Keybase:_ZN4node10BaseObject8MakeWeakEv
Keybase:_ZN4node10BaseObjectC2EPNS_5RealmEN2v85LocalINS3_6ObjectEEE
Keybase:_ZN4node10BaseObjectD0Ev
Keybase:_ZN4node10BaseObjectD1Ev
Keybase:_ZN4node10BaseObjectD2Ev
Keybase:_ZN4node10FormatBlobERNSt4__Cr13basic_ostreamIcNS0_11char_traitsIcEEEEPKNS_12SnapshotDataEb
Keybase:_ZN4node10HandleWrap11OnGCCollectEv
Keybase:_ZN4node10HandleWrap17MarkAsInitializedEv
Keybase:_ZN4node10HandleWrap19MarkAsUninitializedEv
Keybase:_ZN4node10HandleWrap22GetConstructorTemplateEPNS_11EnvironmentE
Keybase:_ZN4node10HandleWrap22GetConstructorTemplateEPNS_11IsolateDataE
Keybase:_ZN4node10HandleWrap26RegisterExternalReferencesEPNS_25ExternalReferenceRegistryE
Keybase:_ZN4node10HandleWrap3RefERKN2v820FunctionCallbackInfoINS1_5ValueEEE
Keybase:_ZN4node10HandleWrap5CloseEN2v85LocalINS1_5ValueEEE
Keybase:_ZN4node10HandleWrap5CloseERKN2v820FunctionCallbackInfoINS1_5ValueEEE
Keybase:_ZN4node10HandleWrap5UnrefERKN2v820FunctionCallbackInfoINS1_5ValueEEE
Keybase:_ZN4node10HandleWrap6HasRefERKN2v820FunctionCallbackInfoINS1_5ValueEEE
Keybase:_ZN4node10HandleWrap7OnCloseEP11uv_handle_s
Keybase:_ZN4node10HandleWrapC2EPNS_11EnvironmentEN2v85LocalINS3_6ObjectEEEP11uv_handle_sNS_9AsyncWrap12ProviderTypeE
Keybase:_ZN4node10MapKVStore3SetEPN2v87IsolateENS1_5LocalINS1_6StringEEES6_
Keybase:_ZN4node10MapKVStore6DeleteEPN2v87IsolateENS1_5LocalINS1_6StringEEE
Keybase:_ZN4node10NewContextEPN2v87IsolateENS0_5LocalINS0_14ObjectTemplateEEE
Keybase:_ZN4node10NewIsolateENSt4__Cr10shared_ptrINS_20ArrayBufferAllocatorEEEP9uv_loop_sPNS_20MultiIsolatePlatformEPKNS_20EmbedderSnapshotDataERKNS_15IsolateSettingsE
Keybase:_ZN4node10NewIsolateEPN2v87Isolate12CreateParamsEP9uv_loop_sPNS_20MultiIsolatePlatformEPKNS_12SnapshotDataERKNS_15IsolateSettingsE
Keybase:_ZN4node10NewIsolateEPNS_20ArrayBufferAllocatorEP9uv_loop_sPNS_20MultiIsolatePlatformEPKNS_20EmbedderSnapshotDataERKNS_15IsolateSettingsENSt4__Cr10unique_ptrIN2v87CppHeapENSC_14default_deleteISF_EEEE
Keybase:_ZN4node10ResetStdioEv
Keybase:_ZN4node10SignalExitEiP9siginfo_tPv
Keybase:_ZN4node10StreamBase10AddMethodsEPNS_11EnvironmentEN2v85LocalINS3_16FunctionTemplateEEE
Keybase:_ZN4node10StreamBase10AddMethodsEPNS_11IsolateDataEN2v85LocalINS3_16FunctionTemplateEEE
Keybase:_ZN4node10StreamBase10ReadStopJSERKN2v820FunctionCallbackInfoINS1_5ValueEEE
Keybase:_ZN4node10StreamBase11AddAccessorEPN2v87IsolateENS1_5LocalINS1_9SignatureEEENS1_17PropertyAttributeENS4_INS1_16FunctionTemplateEEEPFvRKNS1_20FunctionCallbackInfoINS1_5ValueEEEESG_NS4_INS1_6StringEEE
Keybase:_ZN4node10StreamBase11GetExternalERKN2v820FunctionCallbackInfoINS1_5ValueEEE
Keybase:_ZN4node10StreamBase11ReadStartJSERKN2v820FunctionCallbackInfoINS1_5ValueEEE
Keybase:_ZN4node10StreamBase11WriteBufferERKN2v820FunctionCallbackInfoINS1_5ValueEEE
Keybase:_ZN4node10StreamBase12GetBytesReadERKN2v820FunctionCallbackInfoINS1_5ValueEEE
Keybase:_ZN4node10StreamBase13UseUserBufferERKN2v820FunctionCallbackInfoINS1_5ValueEEE
Keybase:_ZN4node10StreamBase14SetWriteResultERKNS_17StreamWriteResultE
Keybase:_ZN4node10StreamBase15CreateWriteWrapEN2v85LocalINS1_6ObjectEEE
Keybase:_ZN4node10StreamBase15GetBytesWrittenERKN2v820FunctionCallbackInfoINS1_5ValueEEE
Keybase:_ZN4node10StreamBase18CallJSOnreadMethodElN2v85LocalINS1_11ArrayBufferEEEmNS0_18StreamBaseJSChecksE
Keybase:_ZN4node10StreamBase18CreateShutdownWrapEN2v85LocalINS1_6ObjectEEE
Keybase:_ZN4node10StreamBase26RegisterExternalReferencesEPNS_25ExternalReferenceRegistryE
Keybase:_ZN4node10StreamBase5GetFDERKN2v820FunctionCallbackInfoINS1_5ValueEEE
Keybase:_ZN4node10StreamBase5GetFDEv
Keybase:_ZN4node10StreamBase5WriteEP8uv_buf_tmP11uv_stream_sN2v85LocalINS5_6ObjectEEEb
Keybase:_ZN4node10StreamBase6WritevERKN2v820FunctionCallbackInfoINS1_5ValueEEE
Keybase:_ZN4node10StreamBase8ShutdownEN2v85LocalINS1_6ObjectEEE
Keybase:_ZN4node10StreamBase8ShutdownERKN2v820FunctionCallbackInfoINS1_5ValueEEE
Keybase:_ZN4node10StreamBase9AddMethodEPN2v87IsolateENS1_5LocalINS1_9SignatureEEENS1_17PropertyAttributeENS4_INS1_16FunctionTemplateEEEPFvRKNS1_20FunctionCallbackInfoINS1_5ValueEEEENS4_INS1_6StringEEE
Keybase:_ZN4node10StreamBase9GetObjectEv
Keybase:_ZN4node10StreamBase9IsIPCPipeEv
Keybase:_ZN4node10StreamPipe11ProcessDataEmNSt4__Cr10unique_ptrIN2v812BackingStoreENS1_14default_deleteIS4_EEEE
Keybase:_ZN4node10StreamPipe13PendingWritesERKN2v820FunctionCallbackInfoINS1_5ValueEEE
Keybase:_ZN4node10StreamPipe16ReadableListener12OnStreamReadElRK8uv_buf_t
Keybase:_ZN4node10StreamPipe16ReadableListener13OnStreamAllocEm
Keybase:_ZN4node10StreamPipe16ReadableListener15OnStreamDestroyEv
Keybase:_ZN4node10StreamPipe16WritableListener12OnStreamReadElRK8uv_buf_t
Keybase:_ZN4node10StreamPipe16WritableListener13OnStreamAllocEm
Keybase:_ZN4node10StreamPipe16WritableListener15OnStreamDestroyEv
Keybase:_ZN4node10StreamPipe16WritableListener18OnStreamAfterWriteEPNS_9WriteWrapEi
Keybase:_ZN4node10StreamPipe16WritableListener18OnStreamWantsWriteEm
Keybase:_ZN4node10StreamPipe16WritableListener21OnStreamAfterShutdownEPNS_12ShutdownWrapEi
Keybase:_ZN4node10StreamPipe3NewEPNS_10StreamBaseES2_N2v85LocalINS3_6ObjectEEE
Keybase:_ZN4node10StreamPipe3NewERKN2v820FunctionCallbackInfoINS1_5ValueEEE
Keybase:_ZN4node10StreamPipe5StartERKN2v820FunctionCallbackInfoINS1_5ValueEEE
Keybase:_ZN4node10StreamPipe6UnpipeERKN2v820FunctionCallbackInfoINS1_5ValueEEE
Keybase:_ZN4node10StreamPipe6UnpipeEb
Keybase:_ZN4node10StreamPipe8IsClosedERKN2v820FunctionCallbackInfoINS1_5ValueEEE
Keybase:_ZN4node10StreamPipeC1EPNS_10StreamBaseES2_N2v85LocalINS3_6ObjectEEE
Keybase:_ZN4node10StreamPipeC2EPNS_10StreamBaseES2_N2v85LocalINS3_6ObjectEEE
Keybase:_ZN4node10StreamPipeD0Ev
Keybase:_ZN4node10StreamPipeD1Ev
Keybase:_ZN4node10StreamPipeD2Ev
Keybase:_ZN4node10cares_wrap10AaaaTraits4SendEPNS0_9QueryWrapIS1_EEPKc
Keybase:_ZN4node10cares_wrap10AaaaTraits5ParseEPNS0_9QueryWrapIS1_EERKNSt4__Cr10unique_ptrINS0_12ResponseDataENS5_14default_deleteIS7_EEEE
Keybase:_ZN4node10cares_wrap10InitializeEN2v85LocalINS1_6ObjectEEENS2_INS1_5ValueEEENS2_INS1_7ContextEEEPv
Keybase:_ZN4node10cares_wrap10TlsaTraits4SendEPNS0_9QueryWrapIS1_EEPKc
Keybase:_ZN4node10cares_wrap10TlsaTraits5ParseEPNS0_9QueryWrapIS1_EERKNSt4__Cr10unique_ptrINS0_12ResponseDataENS5_14default_deleteIS7_EEEE
Keybase:_ZN4node10cares_wrap11ChannelWrap10CloseTimerEv
Keybase:_ZN4node10cares_wrap11ChannelWrap10StartTimerEv
Keybase:_ZN4node10cares_wrap11ChannelWrap11AresTimeoutEP10uv_timer_s
Keybase:_ZN4node10cares_wrap11ChannelWrap13EnsureServersEv
Keybase:_ZN4node10cares_wrap11ChannelWrap24ModifyActivityQueryCountEi
Keybase:_ZN4node10cares_wrap11ChannelWrap3NewERKN2v820FunctionCallbackInfoINS2_5ValueEEE
Keybase:_ZN4node10cares_wrap11ChannelWrap5SetupEv
Keybase:_ZN4node10cares_wrap11ChannelWrapC1EPNS_11EnvironmentEN2v85LocalINS4_6ObjectEEEiii
Keybase:_ZN4node10cares_wrap11ChannelWrapC2EPNS_11EnvironmentEN2v85LocalINS4_6ObjectEEEiii
Keybase:_ZN4node10cares_wrap11ChannelWrapD0Ev
Keybase:_ZN4node10cares_wrap11ChannelWrapD1Ev
Keybase:_ZN4node10cares_wrap11ChannelWrapD2Ev
Keybase:_ZN4node10cares_wrap11CnameTraits4SendEPNS0_9QueryWrapIS1_EEPKc
Keybase:_ZN4node10cares_wrap11CnameTraits5ParseEPNS0_9QueryWrapIS1_EERKNSt4__Cr10unique_ptrINS0_12ResponseDataENS5_14default_deleteIS7_EEEE
Keybase:_ZN4node10cares_wrap11NaptrTraits4SendEPNS0_9QueryWrapIS1_EEPKc
Keybase:_ZN4node10cares_wrap11NaptrTraits5ParseEPNS0_9QueryWrapIS1_EERKNSt4__Cr10unique_ptrINS0_12ResponseDataENS5_14default_deleteIS7_EEEE
Keybase:_ZN4node10cares_wrap12NodeAresTask6CreateEPNS0_11ChannelWrapEi
Keybase:_ZN4node10cares_wrap13ReverseTraits4SendEPNS0_9QueryWrapIS1_EEPKc
Keybase:_ZN4node10cares_wrap13ReverseTraits5ParseEPNS0_9QueryWrapIS1_EERKNSt4__Cr10unique_ptrINS0_12ResponseDataENS5_14default_deleteIS7_EEEE
Keybase:_ZN4node10cares_wrap18GetAddrInfoReqWrapC1EPNS_11EnvironmentEN2v85LocalINS4_6ObjectEEEh
Keybase:_ZN4node10cares_wrap18GetAddrInfoReqWrapC2EPNS_11EnvironmentEN2v85LocalINS4_6ObjectEEEh
Keybase:_ZN4node10cares_wrap18GetNameInfoReqWrapC1EPNS_11EnvironmentEN2v85LocalINS4_6ObjectEEE
Keybase:_ZN4node10cares_wrap18GetNameInfoReqWrapC2EPNS_11EnvironmentEN2v85LocalINS4_6ObjectEEE
Keybase:_ZN4node10cares_wrap26RegisterExternalReferencesEPNS_25ExternalReferenceRegistryE
Keybase:_ZN4node10cares_wrap7ATraits4SendEPNS0_9QueryWrapIS1_EEPKc
Keybase:_ZN4node10cares_wrap7ATraits5ParseEPNS0_9QueryWrapIS1_EERKNSt4__Cr10unique_ptrINS0_12ResponseDataENS5_14default_deleteIS7_EEEE
Keybase:_ZN4node10cares_wrap8MxTraits4SendEPNS0_9QueryWrapIS1_EEPKc
Keybase:_ZN4node10cares_wrap8MxTraits5ParseEPNS0_9QueryWrapIS1_EERKNSt4__Cr10unique_ptrINS0_12ResponseDataENS5_14default_deleteIS7_EEEE
Keybase:_ZN4node10cares_wrap8NsTraits4SendEPNS0_9QueryWrapIS1_EEPKc
Keybase:_ZN4node10cares_wrap8NsTraits5ParseEPNS0_9QueryWrapIS1_EERKNSt4__Cr10unique_ptrINS0_12ResponseDataENS5_14default_deleteIS7_EEEE
Keybase:_ZN4node10cares_wrap9AnyTraits4SendEPNS0_9QueryWrapIS1_EEPKc
Keybase:_ZN4node10cares_wrap9AnyTraits5ParseEPNS0_9QueryWrapIS1_EERKNSt4__Cr10unique_ptrINS0_12ResponseDataENS5_14default_deleteIS7_EEEE
Keybase:_ZN4node10cares_wrap9CaaTraits4SendEPNS0_9QueryWrapIS1_EEPKc
Keybase:_ZN4node10cares_wrap9CaaTraits5ParseEPNS0_9QueryWrapIS1_EERKNSt4__Cr10unique_ptrINS0_12ResponseDataENS5_14default_deleteIS7_EEEE
Keybase:_ZN4node10cares_wrap9PtrTraits4SendEPNS0_9QueryWrapIS1_EEPKc
Keybase:_ZN4node10cares_wrap9PtrTraits5ParseEPNS0_9QueryWrapIS1_EERKNSt4__Cr10unique_ptrINS0_12ResponseDataENS5_14default_deleteIS7_EEEE
Keybase:_ZN4node10cares_wrap9SoaTraits4SendEPNS0_9QueryWrapIS1_EEPKc
Keybase:_ZN4node10cares_wrap9SoaTraits5ParseEPNS0_9QueryWrapIS1_EERKNSt4__Cr10unique_ptrINS0_12ResponseDataENS5_14default_deleteIS7_EEEE
Keybase:_ZN4node10cares_wrap9SrvTraits4SendEPNS0_9QueryWrapIS1_EEPKc
Keybase:_ZN4node10cares_wrap9SrvTraits5ParseEPNS0_9QueryWrapIS1_EERKNSt4__Cr10unique_ptrINS0_12ResponseDataENS5_14default_deleteIS7_EEEE
Keybase:_ZN4node10cares_wrap9TxtTraits4SendEPNS0_9QueryWrapIS1_EEPKc
Keybase:_ZN4node10cares_wrap9TxtTraits5ParseEPNS0_9QueryWrapIS1_EERKNSt4__Cr10unique_ptrINS0_12ResponseDataENS5_14default_deleteIS7_EEEE
Keybase:_ZN4node10contextify16ContextifyScript10InstanceOfEPNS_11EnvironmentERKN2v85LocalINS4_5ValueEEE
Keybase:_ZN4node10contextify16ContextifyScript11EvalMachineEN2v85LocalINS2_7ContextEEEPNS_11EnvironmentElbbbPNS2_14MicrotaskQueueERKNS2_20FunctionCallbackInfoINS2_5ValueEEE
Keybase:_ZN4node10contextify16ContextifyScript12RunInContextERKN2v820FunctionCallbackInfoINS2_5ValueEEE
Keybase:_ZN4node10contextify16ContextifyScript16CreateCachedDataERKN2v820FunctionCallbackInfoINS2_5ValueEEE
Keybase:_ZN4node10contextify16ContextifyScript26CreatePerIsolatePropertiesEPNS_11IsolateDataEN2v85LocalINS4_14ObjectTemplateEEE
Keybase:_ZN4node10contextify16ContextifyScript26RegisterExternalReferencesEPNS_25ExternalReferenceRegistryE
Keybase:_ZN4node10contextify16ContextifyScript3NewERKN2v820FunctionCallbackInfoINS2_5ValueEEE
Keybase:_ZN4node10contextify16ContextifyScriptC1EPNS_11EnvironmentEN2v85LocalINS4_6ObjectEEE
Keybase:_ZN4node10contextify16ContextifyScriptC2EPNS_11EnvironmentEN2v85LocalINS4_6ObjectEEE
Keybase:_ZN4node10contextify16ContextifyScriptD0Ev
Keybase:_ZN4node10contextify16ContextifyScriptD1Ev
Keybase:_ZN4node10contextify16ContextifyScriptD2Ev
Keybase:_ZN4node10contextify17ContextifyContext11MakeContextERKN2v820FunctionCallbackInfoINS2_5ValueEEE
Keybase:_ZN4node10contextify17ContextifyContext15CreateV8ContextEPN2v87IsolateENS2_5LocalINS2_14ObjectTemplateEEEPKNS_12SnapshotDataEPNS2_14MicrotaskQueueE
Keybase:_ZN4node10contextify17ContextifyContext19IsStillInitializingEPKS1_
Keybase:_ZN4node10contextify17ContextifyContext21PropertyQueryCallbackEN2v85LocalINS2_4NameEEERKNS2_20PropertyCallbackInfoINS2_7IntegerEEE
Keybase:_ZN4node10contextify17ContextifyContext22PropertyGetterCallbackEN2v85LocalINS2_4NameEEERKNS2_20PropertyCallbackInfoINS2_5ValueEEE
Keybase:_ZN4node10contextify17ContextifyContext22PropertySetterCallbackEN2v85LocalINS2_4NameEEENS3_INS2_5ValueEEERKNS2_20PropertyCallbackInfoIvEE
Keybase:_ZN4node10contextify17ContextifyContext23PropertyDefinerCallbackEN2v85LocalINS2_4NameEEERKNS2_18PropertyDescriptorERKNS2_20PropertyCallbackInfoIvEE
Keybase:_ZN4node10contextify17ContextifyContext23PropertyDeleterCallbackEN2v85LocalINS2_4NameEEERKNS2_20PropertyCallbackInfoINS2_7BooleanEEE
Keybase:_ZN4node10contextify17ContextifyContext25InitializeGlobalTemplatesEPNS_11IsolateDataE
Keybase:_ZN4node10contextify17ContextifyContext26CreatePerIsolatePropertiesEPNS_11IsolateDataEN2v85LocalINS4_14ObjectTemplateEEE
Keybase:_ZN4node10contextify17ContextifyContext26PropertyDescriptorCallbackEN2v85LocalINS2_4NameEEERKNS2_20PropertyCallbackInfoINS2_5ValueEEE
Keybase:_ZN4node10contextify17ContextifyContext26PropertyEnumeratorCallbackERKN2v820PropertyCallbackInfoINS2_5ArrayEEE
Keybase:_ZN4node10contextify17ContextifyContext26RegisterExternalReferencesEPNS_25ExternalReferenceRegistryE
Keybase:_ZN4node10contextify17ContextifyContext28IndexedPropertyQueryCallbackEjRKN2v820PropertyCallbackInfoINS2_7IntegerEEE
Keybase:_ZN4node10contextify17ContextifyContext29IndexedPropertyGetterCallbackEjRKN2v820PropertyCallbackInfoINS2_5ValueEEE
Keybase:_ZN4node10contextify17ContextifyContext29IndexedPropertySetterCallbackEjN2v85LocalINS2_5ValueEEERKNS2_20PropertyCallbackInfoIvEE
Keybase:_ZN4node10contextify17ContextifyContext30ContextFromContextifiedSandboxEPNS_11EnvironmentERKN2v85LocalINS4_6ObjectEEE
Keybase:_ZN4node10contextify17ContextifyContext30IndexedPropertyDefinerCallbackEjRKN2v818PropertyDescriptorERKNS2_20PropertyCallbackInfoIvEE
Keybase:_ZN4node10contextify17ContextifyContext30IndexedPropertyDeleterCallbackEjRKN2v820PropertyCallbackInfoINS2_7BooleanEEE
Keybase:_ZN4node10contextify17ContextifyContext33IndexedPropertyDescriptorCallbackEjRKN2v820PropertyCallbackInfoINS2_5ValueEEE
Keybase:_ZN4node10contextify17ContextifyContext33IndexedPropertyEnumeratorCallbackERKN2v820PropertyCallbackInfoINS2_5ArrayEEE
Keybase:_ZN4node10contextify17ContextifyContext3GetEN2v85LocalINS2_6ObjectEEE
Keybase:_ZN4node10contextify17ContextifyContext3NewEN2v85LocalINS2_7ContextEEEPNS_11EnvironmentENS3_INS2_6ObjectEEEPNS0_14ContextOptionsE
Keybase:_ZN4node10contextify17ContextifyContext3NewEPNS_11EnvironmentEN2v85LocalINS4_6ObjectEEEPNS0_14ContextOptionsE
Keybase:_ZN4node10contextify17ContextifyContextC1EPNS_11EnvironmentEN2v85LocalINS4_6ObjectEEENS5_INS4_7ContextEEEPNS0_14ContextOptionsE
Keybase:_ZN4node10contextify17ContextifyContextC2EPNS_11EnvironmentEN2v85LocalINS4_6ObjectEEENS5_INS4_7ContextEEEPNS0_14ContextOptionsE
Keybase:_ZN4node10contextify17ContextifyContextD0Ev
Keybase:_ZN4node10contextify17ContextifyContextD1Ev
Keybase:_ZN4node10contextify17ContextifyContextD2Ev
Keybase:_ZN4node10contextify18ContextifyFunction15CompileFunctionERKN2v820FunctionCallbackInfoINS2_5ValueEEE
Keybase:_ZN4node10contextify18ContextifyFunction26CreatePerIsolatePropertiesEPNS_11IsolateDataEN2v85LocalINS4_14ObjectTemplateEEE
Keybase:_ZN4node10contextify18ContextifyFunction26RegisterExternalReferencesEPNS_25ExternalReferenceRegistryE
Keybase:_ZN4node10contextify18ContextifyFunction29CompileFunctionAndCacheResultEPNS_11EnvironmentEN2v85LocalINS4_7ContextEEEPNS4_14ScriptCompiler6SourceENS4_11LocalVectorINS4_6StringEEENSB_INS4_6ObjectEEENS8_14CompileOptionsEbNS5_INS4_6SymbolEEERKNS_6errors13TryCatchScopeE
Keybase:_ZN4node10contextify20StoreCodeCacheResultEPNS_11EnvironmentEN2v85LocalINS3_6ObjectEEENS3_14ScriptCompiler14CompileOptionsERKNS7_6SourceEbNSt4__Cr10unique_ptrINS7_10CachedDataENSC_14default_deleteISE_EEEE
Keybase:_ZN4node10contextify26CreatePerIsolatePropertiesEPNS_11IsolateDataEN2v85LocalINS3_14ObjectTemplateEEE
Keybase:_ZN4node10contextify26RegisterExternalReferencesEPNS_25ExternalReferenceRegistryE
Keybase:_ZN4node10mksnapshot11BindingData11DeserializeEN2v85LocalINS2_7ContextEEENS3_INS2_6ObjectEEEiPNS_21InternalFieldInfoBaseE
Keybase:_ZN4node10mksnapshot11BindingData23PrepareForSerializationEN2v85LocalINS2_7ContextEEEPNS2_15SnapshotCreatorE
Keybase:_ZN4node10mksnapshot11BindingData9SerializeEi
Keybase:_ZN4node10mksnapshot11BindingDataC1EPNS_5RealmEN2v85LocalINS4_6ObjectEEEPNS1_17InternalFieldInfoE
Keybase:_ZN4node10mksnapshot11BindingDataC2EPNS_5RealmEN2v85LocalINS4_6ObjectEEEPNS1_17InternalFieldInfoE
Keybase:_ZN4node10mksnapshot26CreatePerContextPropertiesEN2v85LocalINS1_6ObjectEEENS2_INS1_5ValueEEENS2_INS1_7ContextEEEPv
Keybase:_ZN4node10mksnapshot26CreatePerIsolatePropertiesEPNS_11IsolateDataEN2v85LocalINS3_14ObjectTemplateEEE
Keybase:_ZN4node10mksnapshot26RegisterExternalReferencesEPNS_25ExternalReferenceRegistryE
Keybase:_ZN4node10permission10InitializeEN2v85LocalINS1_6ObjectEEENS2_INS1_5ValueEEENS2_INS1_7ContextEEEPv
Keybase:_ZN4node10permission10Permission17EnablePermissionsEv
Keybase:_ZN4node10permission10Permission17ThrowAccessDeniedEPNS_11EnvironmentENS0_15PermissionScopeERKNSt4__Cr17basic_string_viewIcNS5_11char_traitsIcEEEE
Keybase:_ZN4node10permission10Permission18PermissionToStringENS0_15PermissionScopeE
Keybase:_ZN4node10permission10Permission18StringToPermissionERKNSt4__Cr12basic_stringIcNS2_11char_traitsIcEENS2_9allocatorIcEEEE
Keybase:_ZN4node10permission10Permission22AsyncThrowAccessDeniedEPNS_11EnvironmentEPNS_2fs9FSReqBaseENS0_15PermissionScopeERKNSt4__Cr17basic_string_viewIcNS8_11char_traitsIcEEEE
Keybase:_ZN4node10permission10Permission5ApplyEPNS_11EnvironmentERKNSt4__Cr6vectorINS4_12basic_stringIcNS4_11char_traitsIcEENS4_9allocatorIcEEEENS9_ISB_EEEENS0_15PermissionScopeE
Keybase:_ZN4node10permission10PermissionC1Ev
Keybase:_ZN4node10permission10PermissionC2Ev
Keybase:_ZN4node10permission12FSPermission11GrantAccessENS0_15PermissionScopeERKNSt4__Cr12basic_stringIcNS3_11char_traitsIcEENS3_9allocatorIcEEEE
Keybase:_ZN4node10permission12FSPermission5ApplyEPNS_11EnvironmentERKNSt4__Cr6vectorINS4_12basic_stringIcNS4_11char_traitsIcEENS4_9allocatorIcEEEENS9_ISB_EEEENS0_15PermissionScopeE
Keybase:_ZN4node10permission12FSPermission9RadixTree6InsertERKNSt4__Cr12basic_stringIcNS3_11char_traitsIcEENS3_9allocatorIcEEEE
Keybase:_ZN4node10permission12FSPermission9RadixTreeC1Ev
Keybase:_ZN4node10permission12FSPermission9RadixTreeC2Ev
Keybase:_ZN4node10permission12FSPermission9RadixTreeD1Ev
Keybase:_ZN4node10permission12FSPermission9RadixTreeD2Ev
Keybase:_ZN4node10permission14WASIPermission5ApplyEPNS_11EnvironmentERKNSt4__Cr6vectorINS4_12basic_stringIcNS4_11char_traitsIcEENS4_9allocatorIcEEEENS9_ISB_EEEENS0_15PermissionScopeE
Keybase:_ZN4node10permission15AddonPermission5ApplyEPNS_11EnvironmentERKNSt4__Cr6vectorINS4_12basic_stringIcNS4_11char_traitsIcEENS4_9allocatorIcEEEENS9_ISB_EEEENS0_15PermissionScopeE
Keybase:_ZN4node10permission16WorkerPermission5ApplyEPNS_11EnvironmentERKNSt4__Cr6vectorINS4_12basic_stringIcNS4_11char_traitsIcEENS4_9allocatorIcEEEENS9_ISB_EEEENS0_15PermissionScopeE
Keybase:_ZN4node10permission19InspectorPermission5ApplyEPNS_11EnvironmentERKNSt4__Cr6vectorINS4_12basic_stringIcNS4_11char_traitsIcEENS4_9allocatorIcEEEENS9_ISB_EEEENS0_15PermissionScopeE
Keybase:_ZN4node10permission22ChildProcessPermission5ApplyEPNS_11EnvironmentERKNSt4__Cr6vectorINS4_12basic_stringIcNS4_11char_traitsIcEENS4_9allocatorIcEEEENS9_ISB_EEEENS0_15PermissionScopeE
Keybase:_ZN4node10permission22GetErrorFlagSuggestionENS0_15PermissionScopeE
Keybase:_ZN4node10permission23CreateAccessDeniedErrorEPNS_11EnvironmentENS0_15PermissionScopeERKNSt4__Cr17basic_string_viewIcNS4_11char_traitsIcEEEE
Keybase:_ZN4node10permission26RegisterExternalReferencesEPNS_25ExternalReferenceRegistryE
Keybase:_ZN4node10task_queue26RegisterExternalReferencesEPNS_25ExternalReferenceRegistryE
Keybase:_ZN4node10webstorage7Storage3NewERKN2v820FunctionCallbackInfoINS2_5ValueEEE
Keybase:_ZN4node10webstorage7Storage4LoadEN2v85LocalINS2_4NameEEE
Keybase:_ZN4node10webstorage7Storage4OpenEv
Keybase:_ZN4node10webstorage7Storage5ClearEv
Keybase:_ZN4node10webstorage7Storage5StoreEN2v85LocalINS2_4NameEEENS3_INS2_5ValueEEE
Keybase:_ZN4node10webstorage7Storage6LengthEv
Keybase:_ZN4node10webstorage7Storage6RemoveEN2v85LocalINS2_4NameEEE
Keybase:_ZN4node10webstorage7Storage7LoadKeyEi
Keybase:_ZN4node10webstorage7Storage9EnumerateEv
Keybase:_ZN4node10webstorage7StorageC1EPNS_11EnvironmentEN2v85LocalINS4_6ObjectEEENSt4__Cr17basic_string_viewIcNS8_11char_traitsIcEEEE
Keybase:_ZN4node10webstorage7StorageC2EPNS_11EnvironmentEN2v85LocalINS4_6ObjectEEENSt4__Cr17basic_string_viewIcNS8_11char_traitsIcEEEE
Keybase:_ZN4node10webstorage7StorageD0Ev
Keybase:_ZN4node10webstorage7StorageD1Ev
Keybase:_ZN4node10webstorage7StorageD2Ev
Keybase:_ZN4node11AddressToJSEPNS_11EnvironmentEPK8sockaddrN2v85LocalINS5_6ObjectEEE
Keybase:_ZN4node11BufferValueC1EPN2v87IsolateENS1_5LocalINS1_5ValueEEE
Keybase:_ZN4node11BufferValueC2EPN2v87IsolateENS1_5LocalINS1_5ValueEEE
Keybase:_ZN4node11ConnectWrapC1EPNS_11EnvironmentEN2v85LocalINS3_6ObjectEEENS_9AsyncWrap12ProviderTypeE
Keybase:_ZN4node11ConnectWrapC2EPNS_11EnvironmentEN2v85LocalINS3_6ObjectEEENS_9AsyncWrap12ProviderTypeE
Keybase:_ZN4node11DecodeBytesEPN2v87IsolateENS0_5LocalINS0_5ValueEEENS_8encodingE
Keybase:_ZN4node11DecodeWriteEPN2v87IsolateEPcmNS0_5LocalINS0_5ValueEEENS_8encodingE
Keybase:_ZN4node11Environment10RunCleanupEv
Keybase:_ZN4node11Environment11GetExecPathERKNSt4__Cr6vectorINS1_12basic_stringIcNS1_11char_traitsIcEENS1_9allocatorIcEEEENS6_IS8_EEEE
Keybase:_ZN4node11Environment12GetNowUint64Ev
Keybase:_ZN4node11Environment12TrackContextEN2v85LocalINS1_7ContextEEE
Keybase:_ZN4node11Environment12TryLoadAddonEPKciRKNSt4__Cr8functionIFbPNS_7binding4DLibEEEE
Keybase:_ZN4node11Environment13ScheduleTimerEl
Keybase:_ZN4node11Environment13TracePromisesEN2v815PromiseHookTypeENS1_5LocalINS1_7PromiseEEENS3_INS1_5ValueEEE
Keybase:_ZN4node11Environment14AddUnmanagedFdEi
Keybase:_ZN4node11Environment14CheckImmediateEP10uv_check_s
Keybase:_ZN4node11Environment14CleanupHandlesEv
Keybase:_ZN4node11Environment14StopCpuProfileENSt4__Cr17basic_string_viewIcNS1_11char_traitsIcEEEE
Keybase:_ZN4node11Environment14ToggleTimerRefEb
Keybase:_ZN4node11Environment14UntrackContextEN2v85LocalINS1_7ContextEEE
Keybase:_ZN4node11Environment15AssignToContextEN2v85LocalINS1_7ContextEEEPNS_5RealmERKNS_11ContextInfoE
Keybase:_ZN4node11Environment15InitializeLibuvEv
Keybase:_ZN4node11Environment15StartCpuProfileENSt4__Cr17basic_string_viewIcNS1_11char_traitsIcEEEE
Keybase:_ZN4node11Environment16TrackShadowRealmEPNS_12shadow_realm11ShadowRealmE
Keybase:_ZN4node11Environment17FlushCompileCacheEv
Keybase:_ZN4node11Environment17RemoveUnmanagedFdEi
Keybase:_ZN4node11Environment17ResetPromiseHooksEN2v85LocalINS1_8FunctionEEES4_S4_S4_
Keybase:_ZN4node11Environment17RunWeakRefCleanupEv
Keybase:_ZN4node11Environment18BuildEmbedderGraphEPN2v87IsolateEPNS1_13EmbedderGraphEPv
Keybase:_ZN4node11Environment18ClosePerEnvHandlesEv
Keybase:_ZN4node11Environment18EnableCompileCacheERKNSt4__Cr12basic_stringIcNS1_11char_traitsIcEENS1_9allocatorIcEEEE
Keybase:_ZN4node11Environment18RunAtExitCallbacksEv
Keybase:_ZN4node11Environment18ToggleImmediateRefEb
Keybase:_ZN4node11Environment18UntrackShadowRealmEPNS_12shadow_realm11ShadowRealmE
Keybase:_ZN4node11Environment19InitializeInspectorENSt4__Cr10unique_ptrINS_9inspector21ParentInspectorHandleENS1_14default_deleteIS4_EEEE
Keybase:_ZN4node11Environment19UnassignFromContextEN2v85LocalINS1_7ContextEEE
Keybase:_ZN4node11Environment21DeserializePropertiesEPKNS_16EnvSerializeInfoE
Keybase:_ZN4node11Environment21InitializeDiagnosticsEv
Keybase:_ZN4node11Environment21InitializeMainContextEN2v85LocalINS1_7ContextEEEPKNS_16EnvSerializeInfoE
Keybase:_ZN4node11Environment21NearHeapLimitCallbackEPvmm
Keybase:_ZN4node11Environment21RunAndClearInterruptsEv
Keybase:_ZN4node11Environment22CollectUVExceptionInfoEN2v85LocalINS1_5ValueEEEiPKcS6_S6_S6_
Keybase:_ZN4node11Environment22InitializeCompileCacheEv
Keybase:_ZN4node11Environment22RequestInterruptFromV8Ev
Keybase:_ZN4node11Environment22RunDeserializeRequestsEv
Keybase:_ZN4node11Environment22release_managed_bufferERK8uv_buf_t
Keybase:_ZN4node11Environment23allocate_managed_bufferEm
Keybase:_ZN4node11Environment24stop_sub_worker_contextsEv
Keybase:_ZN4node11Environment25EnqueueDeserializeRequestEPFvN2v85LocalINS1_7ContextEEENS2_INS1_6ObjectEEEiPNS_21InternalFieldInfoBaseEES6_iS8_
Keybase:_ZN4node11Environment25StartProfilerIdleNotifierEv
Keybase:_ZN4node11Environment27PrintInfoForSnapshotIfDebugEv
Keybase:_ZN4node11Environment27RunAndClearNativeImmediatesEb
Keybase:_ZN4node11Environment33WaitForInspectorFrontendByOptionsEv
Keybase:_ZN4node11Environment4ExitENS_8ExitCodeE
Keybase:_ZN4node11Environment6AtExitEPFvPvES1_
Keybase:_ZN4node11Environment6GetCwdERKNSt4__Cr12basic_stringIcNS1_11char_traitsIcEENS1_9allocatorIcEEEE
Keybase:_ZN4node11Environment6GetNowEv
Keybase:_ZN4node11Environment7ExitEnvENS_9StopFlags5FlagsE
Keybase:_ZN4node11Environment8add_refsEl
Keybase:_ZN4node11Environment9RunTimersEP10uv_timer_s
Keybase:_ZN4node11Environment9SerializeEPN2v815SnapshotCreatorE
Keybase:_ZN4node11EnvironmentC1EPNS_11IsolateDataEPN2v87IsolateERKNSt4__Cr6vectorINS6_12basic_stringIcNS6_11char_traitsIcEENS6_9allocatorIcEEEENSB_ISD_EEEESH_PKNS_16EnvSerializeInfoENS_16EnvironmentFlags5FlagsENS_8ThreadIdENS6_17basic_string_viewIcSA_EE
Keybase:_ZN4node11EnvironmentC2EPNS_11IsolateDataEPN2v87IsolateERKNSt4__Cr6vectorINS6_12basic_stringIcNS6_11char_traitsIcEENS6_9allocatorIcEEEENSB_ISD_EEEESH_PKNS_16EnvSerializeInfoENS_16EnvironmentFlags5FlagsENS_8ThreadIdENS6_17basic_string_viewIcSA_EE
Keybase:_ZN4node11EnvironmentD0Ev
Keybase:_ZN4node11EnvironmentD1Ev
Keybase:_ZN4node11EnvironmentD2Ev
Keybase:_ZN4node11GetCacheKeyENSt4__Cr17basic_string_viewIcNS0_11char_traitsIcEEEENS_14CachedCodeTypeE
Keybase:_ZN4node11IsolateData16CreatePropertiesEv
Keybase:_ZN4node11IsolateData17CreateIsolateDataEPN2v87IsolateEP9uv_loop_sPNS_20MultiIsolatePlatformEPNS_20ArrayBufferAllocatorEPKNS_20EmbedderSnapshotDataENSt4__Cr10shared_ptrINS_17PerIsolateOptionsEEE
Keybase:_ZN4node11IsolateData17wrapper_data_map_E
Keybase:_ZN4node11IsolateData19isolate_data_mutex_E
Keybase:_ZN4node11IsolateData21DeserializePropertiesEPKNS_24IsolateDataSerializeInfoE
Keybase:_ZN4node11IsolateData9SerializeEPN2v815SnapshotCreatorE
Keybase:_ZN4node11IsolateDataC1EPN2v87IsolateEP9uv_loop_sPNS_20MultiIsolatePlatformEPNS_20ArrayBufferAllocatorEPKNS_12SnapshotDataENSt4__Cr10shared_ptrINS_17PerIsolateOptionsEEE
Keybase:_ZN4node11IsolateDataC2EPN2v87IsolateEP9uv_loop_sPNS_20MultiIsolatePlatformEPNS_20ArrayBufferAllocatorEPKNS_12SnapshotDataENSt4__Cr10shared_ptrINS_17PerIsolateOptionsEEE
Keybase:_ZN4node11PathResolveEPNS_11EnvironmentERKNSt4__Cr6vectorINS2_17basic_string_viewIcNS2_11char_traitsIcEEEENS2_9allocatorIS7_EEEE
Keybase:_ZN4node11ProcessEmitEPNS_11EnvironmentENSt4__Cr17basic_string_viewIcNS2_11char_traitsIcEEEEN2v85LocalINS7_5ValueEEE
Keybase:_ZN4node11RAIIIsolateC1EPKNS_12SnapshotDataE
Keybase:_ZN4node11RAIIIsolateC2EPKNS_12SnapshotDataE
Keybase:_ZN4node11RAIIIsolateD1Ev
Keybase:_ZN4node11RAIIIsolateD2Ev
Keybase:_ZN4node11SplitStringENSt4__Cr17basic_string_viewIcNS0_11char_traitsIcEEEES4_
Keybase:_ZN4node11StatWatcher26CreatePerIsolatePropertiesEPNS_11IsolateDataEN2v85LocalINS3_14ObjectTemplateEEE
Keybase:_ZN4node11StatWatcher26RegisterExternalReferencesEPNS_25ExternalReferenceRegistryE
Keybase:_ZN4node11StatWatcher3NewERKN2v820FunctionCallbackInfoINS1_5ValueEEE
Keybase:_ZN4node11StatWatcher5StartERKN2v820FunctionCallbackInfoINS1_5ValueEEE
Keybase:_ZN4node11StatWatcher8CallbackEP12uv_fs_poll_siPK9uv_stat_tS5_
Keybase:_ZN4node11StatWatcherC1EPNS_2fs11BindingDataEN2v85LocalINS4_6ObjectEEEb
Keybase:_ZN4node11StatWatcherC2EPNS_2fs11BindingDataEN2v85LocalINS4_6ObjectEEEb
Keybase:_ZN4node11StringBytes11StorageSizeEPN2v87IsolateENS1_5LocalINS1_5ValueEEENS_8encodingE
Keybase:_ZN4node11StringBytes4SizeEPN2v87IsolateENS1_5LocalINS1_5ValueEEENS_8encodingE
Keybase:_ZN4node11StringBytes5WriteEPN2v87IsolateEPcmNS1_5LocalINS1_5ValueEEENS_8encodingE
Keybase:_ZN4node11StringBytes6EncodeEPN2v87IsolateEPKcNS_8encodingEPNS1_5LocalINS1_5ValueEEE
Keybase:_ZN4node11StringBytes6EncodeEPN2v87IsolateEPKcmNS_8encodingEPNS1_5LocalINS1_5ValueEEE
Keybase:_ZN4node11StringBytes6EncodeEPN2v87IsolateEPKtmPNS1_5LocalINS1_5ValueEEE
Keybase:_ZN4node11StringBytes9WriteUCS2EPN2v87IsolateEPcmNS1_5LocalINS1_6StringEEEi
Keybase:_ZN4node11TraceEnvVarEPNS_11EnvironmentEPKc
Keybase:_ZN4node11TraceEnvVarEPNS_11EnvironmentEPKcN2v85LocalINS4_6StringEEE
Keybase:_ZN4node11TraceEnvVarEPNS_11EnvironmentEPKcS3_
Keybase:_ZN4node11UDPListenerD0Ev
Keybase:_ZN4node11UDPListenerD1Ev
Keybase:_ZN4node11UDPListenerD2Ev
Keybase:_ZN4node11UDPWrapBase10AddMethodsEPNS_11EnvironmentEN2v85LocalINS3_16FunctionTemplateEEE
Keybase:_ZN4node11UDPWrapBase10FromObjectEN2v85LocalINS1_6ObjectEEE
Keybase:_ZN4node11UDPWrapBase12set_listenerEPNS_11UDPListenerE
Keybase:_ZN4node11UDPWrapBase26RegisterExternalReferencesEPNS_25ExternalReferenceRegistryE
Keybase:_ZN4node11UDPWrapBase8RecvStopERKN2v820FunctionCallbackInfoINS1_5ValueEEE
Keybase:_ZN4node11UDPWrapBase9RecvStartERKN2v820FunctionCallbackInfoINS1_5ValueEEE
Keybase:_ZN4node11UDPWrapBaseD0Ev
Keybase:_ZN4node11UDPWrapBaseD1Ev
Keybase:_ZN4node11UDPWrapBaseD2Ev
Keybase:_ZN4node11UVExceptionEPN2v87IsolateEiPKcS4_S4_S4_
Keybase:_ZN4node11Uint32ToHexEj
Keybase:_ZN4node11credentials10SafeGetenvEPKcPNSt4__Cr12basic_stringIcNS3_11char_traitsIcEENS3_9allocatorIcEEEEPNS_11EnvironmentE
Keybase:_ZN4node11credentials26RegisterExternalReferencesEPNS_25ExternalReferenceRegistryE
Keybase:_ZN4node11http_parser15ConnectionsList3AllERKN2v820FunctionCallbackInfoINS2_5ValueEEE
Keybase:_ZN4node11http_parser15ConnectionsList3NewERKN2v820FunctionCallbackInfoINS2_5ValueEEE
Keybase:_ZN4node11http_parser15ConnectionsList4IdleERKN2v820FunctionCallbackInfoINS2_5ValueEEE
Keybase:_ZN4node11http_parser15ConnectionsList6ActiveERKN2v820FunctionCallbackInfoINS2_5ValueEEE
Keybase:_ZN4node11http_parser15ConnectionsList7ExpiredERKN2v820FunctionCallbackInfoINS2_5ValueEEE
Keybase:_ZN4node11http_parser26CreatePerContextPropertiesEN2v85LocalINS1_6ObjectEEENS2_INS1_5ValueEEENS2_INS1_7ContextEEEPv
Keybase:_ZN4node11http_parser26CreatePerIsolatePropertiesEPNS_11IsolateDataEN2v85LocalINS3_14ObjectTemplateEEE
Keybase:_ZN4node11http_parser26RegisterExternalReferencesEPNS_25ExternalReferenceRegistryE
Keybase:_ZN4node11http_parser6Parser8settingsE
Keybase:_ZN4node11per_process11cli_optionsE
Keybase:_ZN4node11per_process11dotenv_fileE
Keybase:_ZN4node11per_process11umask_mutexE
Keybase:_ZN4node11per_process11v8_platformE
Keybase:_ZN4node11per_process12reverted_cveE
Keybase:_ZN4node11per_process13config_readerE
Keybase:_ZN4node11per_process13env_var_mutexE
Keybase:_ZN4node11per_process14v8_initializedE
Keybase:_ZN4node11per_process15node_start_timeE
Keybase:_ZN4node11per_process17cli_options_mutexE
Keybase:_ZN4node11per_process18enabled_debug_listE
Keybase:_ZN4node11per_process18system_environmentE
Keybase:_ZN4node11per_process8metadataE
Keybase:_ZN4node11performance12LoopIdleTimeERKN2v820FunctionCallbackInfoINS1_5ValueEEE
Keybase:_ZN4node11performance13UvMetricsInfoERKN2v820FunctionCallbackInfoINS1_5ValueEEE
Keybase:_ZN4node11performance16PerformanceState10InitializeEmd
Keybase:_ZN4node11performance16PerformanceState11DeserializeEN2v85LocalINS2_7ContextEEEmd
Keybase:_ZN4node11performance16PerformanceState15ResetMilestonesEv
Keybase:_ZN4node11performance16PerformanceState4MarkENS0_20PerformanceMilestoneEm
Keybase:_ZN4node11performance16PerformanceState9SerializeEN2v85LocalINS2_7ContextEEEPNS2_15SnapshotCreatorE
Keybase:_ZN4node11performance16PerformanceStateC1EPN2v87IsolateEmdPKNS1_13SerializeInfoE
Keybase:_ZN4node11performance16PerformanceStateC2EPN2v87IsolateEmdPKNS1_13SerializeInfoE
Keybase:_ZN4node11performance18CreateELDHistogramERKN2v820FunctionCallbackInfoINS1_5ValueEEE
Keybase:_ZN4node11performance20performance_v8_startE
Keybase:_ZN4node11performance21MarkBootstrapCompleteERKN2v820FunctionCallbackInfoINS1_5ValueEEE
Keybase:_ZN4node11performance24GCPerformanceEntryTraits10GetDetailsEPNS_11EnvironmentERKNS0_16PerformanceEntryIS1_EE
Keybase:_ZN4node11performance24MarkGarbageCollectionEndEPN2v87IsolateENS1_6GCTypeENS1_15GCCallbackFlagsEPv
Keybase:_ZN4node11performance25SetupPerformanceObserversERKN2v820FunctionCallbackInfoINS1_5ValueEEE
Keybase:_ZN4node11performance25performance_process_startE
Keybase:_ZN4node11performance26CreatePerContextPropertiesEN2v85LocalINS1_6ObjectEEENS2_INS1_5ValueEEENS2_INS1_7ContextEEEPv
Keybase:_ZN4node11performance26MarkGarbageCollectionStartEPN2v87IsolateENS1_6GCTypeENS1_15GCCallbackFlagsEPv
Keybase:_ZN4node11performance26RegisterExternalReferencesEPNS_25ExternalReferenceRegistryE
Keybase:_ZN4node11performance28GarbageCollectionCleanupHookEPv
Keybase:_ZN4node11performance35performance_process_start_timestampE
Keybase:_ZN4node11performance6NotifyERKN2v820FunctionCallbackInfoINS1_5ValueEEE
Keybase:_ZN4node11performancelsERNSt4__Cr13basic_ostreamIcNS1_11char_traitsIcEEEERKNS0_16PerformanceState13SerializeInfoE
Keybase:_ZN4node11task_runner11EscapeShellENSt4__Cr17basic_string_viewIcNS1_11char_traitsIcEEEE
Keybase:_ZN4node11task_runner13ProcessRunner12ExitCallbackEP12uv_process_sli
Keybase:_ZN4node11task_runner13ProcessRunner23SetEnvironmentVariablesEv
Keybase:_ZN4node11task_runner13ProcessRunner3RunEv
Keybase:_ZN4node11task_runner13ProcessRunner6OnExitEli
Keybase:_ZN4node11task_runner13ProcessRunnerC1ENSt4__Cr10shared_ptrINS_24InitializationResultImplEEERKNS2_4__fs10filesystem4pathENS2_17basic_string_viewIcNS2_11char_traitsIcEEEESE_SE_RKNS2_6vectorISE_NS2_9allocatorISE_EEEE
Keybase:_ZN4node11task_runner13ProcessRunnerC2ENSt4__Cr10shared_ptrINS_24InitializationResultImplEEERKNS2_4__fs10filesystem4pathENS2_17basic_string_viewIcNS2_11char_traitsIcEEEESE_SE_RKNS2_6vectorISE_NS2_9allocatorISE_EEEE
Keybase:_ZN4node11task_runner15FindPackageJsonERKNSt4__Cr4__fs10filesystem4pathE
Keybase:_ZN4node11task_runner17GetPositionalArgsERKNSt4__Cr6vectorINS1_12basic_stringIcNS1_11char_traitsIcEENS1_9allocatorIcEEEENS6_IS8_EEEE
Keybase:_ZN4node11task_runner7RunTaskERKNSt4__Cr10shared_ptrINS_24InitializationResultImplEEENS1_17basic_string_viewIcNS1_11char_traitsIcEEEERKNS1_6vectorISA_NS1_9allocatorISA_EEEE
Keybase:_ZN4node11trim_spacesENSt4__Cr17basic_string_viewIcNS0_11char_traitsIcEEEE
Keybase:_ZN4node12CleanupQueue5DrainEv
Keybase:_ZN4node12ConfigReader11ParseConfigERKNSt4__Cr17basic_string_viewIcNS1_11char_traitsIcEEEE
Keybase:_ZN4node12ConfigReader12GetFlagsSizeEv
Keybase:_ZN4node12ConfigReader15GetDataFromArgsERKNSt4__Cr6vectorINS1_12basic_stringIcNS1_11char_traitsIcEENS1_9allocatorIcEEEENS6_IS8_EEEE
Keybase:_ZN4node12ConfigReader16ParseNodeOptionsEPN8simdjson8fallback8ondemand6objectE
Keybase:_ZN4node12ConfigReader17AssignNodeOptionsEv
Keybase:_ZN4node12DebugOptions12CheckOptionsEPNSt4__Cr6vectorINS1_12basic_stringIcNS1_11char_traitsIcEENS1_9allocatorIcEEEENS6_IS8_EEEESB_
Keybase:_ZN4node12FreePlatformEPNS_20MultiIsolatePlatformE
Keybase:_ZN4node12GetOctalCodeEh
Keybase:_ZN4node12GetPromiseIdEPNS_11EnvironmentEN2v85LocalINS2_7PromiseEEE
Keybase:_ZN4node12MakeCallbackEPN2v87IsolateENS0_5LocalINS0_6ObjectEEENS3_INS0_6StringEEEiPNS3_INS0_5ValueEEE
Keybase:_ZN4node12MakeCallbackEPN2v87IsolateENS0_5LocalINS0_6ObjectEEENS3_INS0_6StringEEEiPNS3_INS0_5ValueEEENS_13async_contextE
Keybase:_ZN4node12MakeCallbackEPN2v87IsolateENS0_5LocalINS0_6ObjectEEENS3_INS0_8FunctionEEEiPNS3_INS0_5ValueEEE
Keybase:_ZN4node12MakeCallbackEPN2v87IsolateENS0_5LocalINS0_6ObjectEEENS3_INS0_8FunctionEEEiPNS3_INS0_5ValueEEENS_13async_contextE
Keybase:_ZN4node12MakeCallbackEPN2v87IsolateENS0_5LocalINS0_6ObjectEEEPKciPNS3_INS0_5ValueEEE
Keybase:_ZN4node12MakeCallbackEPN2v87IsolateENS0_5LocalINS0_6ObjectEEEPKciPNS3_INS0_5ValueEEENS_13async_contextE
Keybase:_ZN4node12NodePlatform10DrainTasksEPN2v87IsolateE
Keybase:_ZN4node12NodePlatform10ForIsolateEPN2v87IsolateE
Keybase:_ZN4node12NodePlatform13CreateJobImplEN2v812TaskPriorityENSt4__Cr10unique_ptrINS1_7JobTaskENS3_14default_deleteIS5_EEEERKNS1_14SourceLocationE
Keybase:_ZN4node12NodePlatform14ForNodeIsolateEPN2v87IsolateE
Keybase:_ZN4node12NodePlatform15RegisterIsolateEPN2v87IsolateEP9uv_loop_s
Keybase:_ZN4node12NodePlatform15RegisterIsolateEPN2v87IsolateEPNS_23IsolatePlatformDelegateE
Keybase:_ZN4node12NodePlatform16GetPageAllocatorEv
Keybase:_ZN4node12NodePlatform16IdleTasksEnabledEPN2v87IsolateE
Keybase:_ZN4node12NodePlatform17UnregisterIsolateEPN2v87IsolateE
Keybase:_ZN4node12NodePlatform20FlushForegroundTasksEPN2v87IsolateE
Keybase:_ZN4node12NodePlatform20GetStackTracePrinterEv
Keybase:_ZN4node12NodePlatform20GetTracingControllerEv
Keybase:_ZN4node12NodePlatform21NumberOfWorkerThreadsEv
Keybase:_ZN4node12NodePlatform22CurrentClockTimeMillisEv
Keybase:_ZN4node12NodePlatform23GetForegroundTaskRunnerEPN2v87IsolateENS1_12TaskPriorityE
Keybase:_ZN4node12NodePlatform26AddIsolateFinishedCallbackEPN2v87IsolateEPFvPvES4_
Keybase:_ZN4node12NodePlatform26PostTaskOnWorkerThreadImplEN2v812TaskPriorityENSt4__Cr10unique_ptrINS1_4TaskENS3_14default_deleteIS5_EEEERKNS1_14SourceLocationE
Keybase:_ZN4node12NodePlatform27MonotonicallyIncreasingTimeEv
Keybase:_ZN4node12NodePlatform33PostDelayedTaskOnWorkerThreadImplEN2v812TaskPriorityENSt4__Cr10unique_ptrINS1_4TaskENS3_14default_deleteIS5_EEEEdRKNS1_14SourceLocationE
Keybase:_ZN4node12NodePlatform8ShutdownEv
Keybase:_ZN4node12NodePlatformC1EiPN2v817TracingControllerEPNS1_13PageAllocatorE
Keybase:_ZN4node12NodePlatformC2EiPN2v817TracingControllerEPNS1_13PageAllocatorE
Keybase:_ZN4node12NodePlatformD0Ev
Keybase:_ZN4node12NodePlatformD1Ev
Keybase:_ZN4node12NodePlatformD2Ev
Keybase:_ZN4node12OnFatalErrorEPKcS1_
Keybase:_ZN4node12ProtoThrowerERKN2v820FunctionCallbackInfoINS0_5ValueEEE
Keybase:_ZN4node12ReadFileSyncEP8_IO_FILE
Keybase:_ZN4node12ReadFileSyncEPNSt4__Cr12basic_stringIcNS0_11char_traitsIcEENS0_9allocatorIcEEEEPKc
Keybase:_ZN4node12RealEnvStore3SetEPN2v87IsolateENS1_5LocalINS1_6StringEEES6_
Keybase:_ZN4node12RealEnvStore6DeleteEPN2v87IsolateENS1_5LocalINS1_6StringEEE
Keybase:_ZN4node12ShutdownWrap6OnDoneEi
Keybase:_ZN4node12SnapshotData19FromEmbedderWrapperEPKNS_20EmbedderSnapshotDataE
Keybase:_ZN4node12SnapshotData6kMagicE
Keybase:_ZN4node12SnapshotData8FromBlobEPS0_NSt4__Cr17basic_string_viewIcNS2_11char_traitsIcEEEE
Keybase:_ZN4node12SnapshotData8FromBlobEPS0_RKNSt4__Cr6vectorIcNS2_9allocatorIcEEEE
Keybase:_ZN4node12SnapshotData8FromFileEPS0_P8_IO_FILE
Keybase:_ZN4node12SnapshotDataD1Ev
Keybase:_ZN4node12SnapshotDataD2Ev
Keybase:_ZN4node12TwoByteValueC1EPN2v87IsolateENS1_5LocalINS1_5ValueEEE
Keybase:_ZN4node12TwoByteValueC2EPN2v87IsolateENS1_5LocalINS1_5ValueEEE
Keybase:_ZN4node12shadow_realm11ShadowRealm12WeakCallbackERKN2v816WeakCallbackInfoIS1_EE
Keybase:_ZN4node12shadow_realm11ShadowRealm14BootstrapRealmEv
Keybase:_ZN4node12shadow_realm11ShadowRealm15set_primordialsEN2v85LocalINS2_6ObjectEEE
Keybase:_ZN4node12shadow_realm11ShadowRealm16set_message_portEN2v85LocalINS2_6ObjectEEE
Keybase:_ZN4node12shadow_realm11ShadowRealm18set_process_objectEN2v85LocalINS2_6ObjectEEE
Keybase:_ZN4node12shadow_realm11ShadowRealm23set_async_hooks_bindingEN2v85LocalINS2_6ObjectEEE
Keybase:_ZN4node12shadow_realm11ShadowRealm24set_promise_hook_handlerEN2v85LocalINS2_8FunctionEEE
Keybase:_ZN4node12shadow_realm11ShadowRealm25set_domexception_functionEN2v85LocalINS2_8FunctionEEE
Keybase:_ZN4node12shadow_realm11ShadowRealm26set_builtin_module_requireEN2v85LocalINS2_8FunctionEEE
Keybase:_ZN4node12shadow_realm11ShadowRealm26set_modules_read_file_syncEN2v85LocalINS2_8FunctionEEE
Keybase:_ZN4node12shadow_realm11ShadowRealm26set_tick_callback_functionEN2v85LocalINS2_8FunctionEEE
Keybase:_ZN4node12shadow_realm11ShadowRealm27set_buffer_prototype_objectEN2v85LocalINS2_6ObjectEEE
Keybase:_ZN4node12shadow_realm11ShadowRealm27set_internal_binding_loaderEN2v85LocalINS2_8FunctionEEE
Keybase:_ZN4node12shadow_realm11ShadowRealm27set_promise_reject_callbackEN2v85LocalINS2_8FunctionEEE
Keybase:_ZN4node12shadow_realm11ShadowRealm27set_source_map_cache_getterEN2v85LocalINS2_8FunctionEEE
Keybase:_ZN4node12shadow_realm11ShadowRealm28set_timers_callback_functionEN2v85LocalINS2_8FunctionEEE
Keybase:_ZN4node12shadow_realm11ShadowRealm28set_udp_constructor_functionEN2v85LocalINS2_8FunctionEEE
Keybase:_ZN4node12shadow_realm11ShadowRealm28set_url_constructor_functionEN2v85LocalINS2_8FunctionEEE
Keybase:_ZN4node12shadow_realm11ShadowRealm29set_async_hooks_init_functionEN2v85LocalINS2_8FunctionEEE
Keybase:_ZN4node12shadow_realm11ShadowRealm29set_process_emit_warning_syncEN2v85LocalINS2_8FunctionEEE
Keybase:_ZN4node12shadow_realm11ShadowRealm29set_snapshot_deserialize_mainEN2v85LocalINS2_8FunctionEEE
Keybase:_ZN4node12shadow_realm11ShadowRealm30set_async_hooks_after_functionEN2v85LocalINS2_8FunctionEEE
Keybase:_ZN4node12shadow_realm11ShadowRealm30set_performance_entry_callbackEN2v85LocalINS2_8FunctionEEE
Keybase:_ZN4node12shadow_realm11ShadowRealm31set_async_hooks_before_functionEN2v85LocalINS2_8FunctionEEE
Keybase:_ZN4node12shadow_realm11ShadowRealm31set_get_source_map_error_sourceEN2v85LocalINS2_8FunctionEEE
Keybase:_ZN4node12shadow_realm11ShadowRealm31set_immediate_callback_functionEN2v85LocalINS2_8FunctionEEE
Keybase:_ZN4node12shadow_realm11ShadowRealm31set_snapshot_serialize_callbackEN2v85LocalINS2_8FunctionEEE
Keybase:_ZN4node12shadow_realm11ShadowRealm32set_async_hooks_destroy_functionEN2v85LocalINS2_8FunctionEEE
Keybase:_ZN4node12shadow_realm11ShadowRealm32set_inspector_enable_async_hooksEN2v85LocalINS2_8FunctionEEE
Keybase:_ZN4node12shadow_realm11ShadowRealm32set_prepare_stack_trace_callbackEN2v85LocalINS2_8FunctionEEE
Keybase:_ZN4node12shadow_realm11ShadowRealm33set_crypto_key_object_constructorEN2v85LocalINS2_8FunctionEEE
Keybase:_ZN4node12shadow_realm11ShadowRealm33set_http2session_on_ping_functionEN2v85LocalINS2_8FunctionEEE
Keybase:_ZN4node12shadow_realm11ShadowRealm33set_inspector_disable_async_hooksEN2v85LocalINS2_8FunctionEEE
Keybase:_ZN4node12shadow_realm11ShadowRealm33set_snapshot_deserialize_callbackEN2v85LocalINS2_8FunctionEEE
Keybase:_ZN4node12shadow_realm11ShadowRealm33set_tls_wrap_constructor_functionEN2v85LocalINS2_8FunctionEEE
Keybase:_ZN4node12shadow_realm11ShadowRealm33set_trace_category_state_functionEN2v85LocalINS2_8FunctionEEE
Keybase:_ZN4node12shadow_realm11ShadowRealm34set_http2session_on_error_functionEN2v85LocalINS2_8FunctionEEE
Keybase:_ZN4node12shadow_realm11ShadowRealm35set_async_hooks_callback_trampolineEN2v85LocalINS2_8FunctionEEE
Keybase:_ZN4node12shadow_realm11ShadowRealm35set_http2session_on_altsvc_functionEN2v85LocalINS2_8FunctionEEE
Keybase:_ZN4node12shadow_realm11ShadowRealm35set_http2session_on_origin_functionEN2v85LocalINS2_8FunctionEEE
Keybase:_ZN4node12shadow_realm11ShadowRealm35set_wasm_streaming_compilation_implEN2v85LocalINS2_8FunctionEEE
Keybase:_ZN4node12shadow_realm11ShadowRealm36set_http2session_on_headers_functionEN2v85LocalINS2_8FunctionEEE
Keybase:_ZN4node12shadow_realm11ShadowRealm36set_maybe_cache_generated_source_mapEN2v85LocalINS2_8FunctionEEE
Keybase:_ZN4node12shadow_realm11ShadowRealm37set_http2session_on_priority_functionEN2v85LocalINS2_8FunctionEEE
Keybase:_ZN4node12shadow_realm11ShadowRealm37set_http2session_on_settings_functionEN2v85LocalINS2_8FunctionEEE
Keybase:_ZN4node12shadow_realm11ShadowRealm37set_inspector_enable_network_trackingEN2v85LocalINS2_8FunctionEEE
Keybase:_ZN4node12shadow_realm11ShadowRealm37set_wasm_streaming_object_constructorEN2v85LocalINS2_8FunctionEEE
Keybase:_ZN4node12shadow_realm11ShadowRealm38set_inspector_disable_network_trackingEN2v85LocalINS2_8FunctionEEE
Keybase:_ZN4node12shadow_realm11ShadowRealm39set_enhance_fatal_stack_after_inspectorEN2v85LocalINS2_8FunctionEEE
Keybase:_ZN4node12shadow_realm11ShadowRealm39set_messaging_deserialize_create_objectEN2v85LocalINS2_8FunctionEEE
Keybase:_ZN4node12shadow_realm11ShadowRealm3NewEPNS_11EnvironmentE
Keybase:_ZN4node12shadow_realm11ShadowRealm40set_async_hooks_promise_resolve_functionEN2v85LocalINS2_8FunctionEEE
Keybase:_ZN4node12shadow_realm11ShadowRealm40set_crypto_key_object_public_constructorEN2v85LocalINS2_8FunctionEEE
Keybase:_ZN4node12shadow_realm11ShadowRealm40set_crypto_key_object_secret_constructorEN2v85LocalINS2_8FunctionEEE
Keybase:_ZN4node12shadow_realm11ShadowRealm40set_enhance_fatal_stack_before_inspectorEN2v85LocalINS2_8FunctionEEE
Keybase:_ZN4node12shadow_realm11ShadowRealm40set_http2session_on_frame_error_functionEN2v85LocalINS2_8FunctionEEE
Keybase:_ZN4node12shadow_realm11ShadowRealm40set_http2session_on_goaway_data_functionEN2v85LocalINS2_8FunctionEEE
Keybase:_ZN4node12shadow_realm11ShadowRealm41set_crypto_key_object_private_constructorEN2v85LocalINS2_8FunctionEEE
Keybase:_ZN4node12shadow_realm11ShadowRealm41set_http2session_on_stream_close_functionEN2v85LocalINS2_8FunctionEEE
Keybase:_ZN4node12shadow_realm11ShadowRealm41set_inspector_console_extension_installerEN2v85LocalINS2_8FunctionEEE
Keybase:_ZN4node12shadow_realm11ShadowRealm41set_primordials_safe_map_prototype_objectEN2v85LocalINS2_6ObjectEEE
Keybase:_ZN4node12shadow_realm11ShadowRealm41set_primordials_safe_set_prototype_objectEN2v85LocalINS2_6ObjectEEE
Keybase:_ZN4node12shadow_realm11ShadowRealm43set_host_import_module_dynamically_callbackEN2v85LocalINS2_8FunctionEEE
Keybase:_ZN4node12shadow_realm11ShadowRealm44set_http2session_on_stream_trailers_functionEN2v85LocalINS2_8FunctionEEE
Keybase:_ZN4node12shadow_realm11ShadowRealm46set_primordials_safe_weak_map_prototype_objectEN2v85LocalINS2_6ObjectEEE
Keybase:_ZN4node12shadow_realm11ShadowRealm46set_primordials_safe_weak_set_prototype_objectEN2v85LocalINS2_6ObjectEEE
Keybase:_ZN4node12shadow_realm11ShadowRealm47set_host_initialize_import_meta_object_callbackEN2v85LocalINS2_8FunctionEEE
Keybase:_ZN4node12shadow_realm11ShadowRealm8DeleteMeEPv
Keybase:_ZN4node12shadow_realm11ShadowRealmC1EPNS_11EnvironmentE
Keybase:_ZN4node12shadow_realm11ShadowRealmC2EPNS_11EnvironmentE
Keybase:_ZN4node12shadow_realm11ShadowRealmD0Ev
Keybase:_ZN4node12shadow_realm11ShadowRealmD1Ev
Keybase:_ZN4node12shadow_realm11ShadowRealmD2Ev
Keybase:_ZN4node12shadow_realm36HostCreateShadowRealmContextCallbackEN2v85LocalINS1_7ContextEEE
Keybase:_ZN4node12signo_stringEi
Keybase:_ZN4node12wasm_web_api10InitializeEN2v85LocalINS1_6ObjectEEENS2_INS1_5ValueEEENS2_INS1_7ContextEEEPv
Keybase:_ZN4node12wasm_web_api17SetImplementationERKN2v820FunctionCallbackInfoINS1_5ValueEEE
Keybase:_ZN4node12wasm_web_api19WasmStreamingObject10InitializeEPNS_11EnvironmentE
Keybase:_ZN4node12wasm_web_api19WasmStreamingObject26RegisterExternalReferencesEPNS_25ExternalReferenceRegistryE
Keybase:_ZN4node12wasm_web_api19WasmStreamingObject3NewERKN2v820FunctionCallbackInfoINS2_5ValueEEE
Keybase:_ZN4node12wasm_web_api19WasmStreamingObject4PushERKN2v820FunctionCallbackInfoINS2_5ValueEEE
Keybase:_ZN4node12wasm_web_api19WasmStreamingObject5AbortERKN2v820FunctionCallbackInfoINS2_5ValueEEE
Keybase:_ZN4node12wasm_web_api19WasmStreamingObject6CreateEPNS_11EnvironmentENSt4__Cr10shared_ptrIN2v813WasmStreamingEEE
Keybase:_ZN4node12wasm_web_api19WasmStreamingObject6FinishERKN2v820FunctionCallbackInfoINS2_5ValueEEE
Keybase:_ZN4node12wasm_web_api19WasmStreamingObject6SetURLERKN2v820FunctionCallbackInfoINS2_5ValueEEE
Keybase:_ZN4node12wasm_web_api25StartStreamingCompilationERKN2v820FunctionCallbackInfoINS1_5ValueEEE
Keybase:_ZN4node12wasm_web_api26RegisterExternalReferencesEPNS_25ExternalReferenceRegistryE
Keybase:_ZN4node13AsyncResource12MakeCallbackEN2v85LocalINS1_6StringEEEiPNS2_INS1_5ValueEEE
Keybase:_ZN4node13AsyncResource12MakeCallbackEN2v85LocalINS1_8FunctionEEEiPNS2_INS1_5ValueEEE
Keybase:_ZN4node13AsyncResource12MakeCallbackEPKciPN2v85LocalINS3_5ValueEEE
Keybase:_ZN4node13AsyncResource12get_resourceEv
Keybase:_ZN4node13AsyncResource13CallbackScopeC1EPS0_
Keybase:_ZN4node13AsyncResource13CallbackScopeC2EPS0_
Keybase:_ZN4node13AsyncResourceC1EPN2v87IsolateENS1_5LocalINS1_6ObjectEEEPKcd
Keybase:_ZN4node13AsyncResourceC2EPN2v87IsolateENS1_5LocalINS1_6ObjectEEEPKcd
Keybase:_ZN4node13AsyncResourceD0Ev
Keybase:_ZN4node13AsyncResourceD1Ev
Keybase:_ZN4node13AsyncResourceD2Ev
Keybase:_ZN4node13CallbackScopeC1EPN2v87IsolateENS1_5LocalINS1_6ObjectEEENS_13async_contextE
Keybase:_ZN4node13CallbackScopeC1EPNS_11EnvironmentEN2v85LocalINS3_6ObjectEEENS_13async_contextE
Keybase:_ZN4node13CallbackScopeC2EPN2v87IsolateENS1_5LocalINS1_6ObjectEEENS_13async_contextE
Keybase:_ZN4node13CallbackScopeC2EPNS_11EnvironmentEN2v85LocalINS3_6ObjectEEENS_13async_contextE
Keybase:_ZN4node13CallbackScopeD1Ev
Keybase:_ZN4node13CallbackScopeD2Ev
Keybase:_ZN4node13EmitAsyncInitEPN2v87IsolateENS0_5LocalINS0_6ObjectEEENS3_INS0_6StringEEEd
Keybase:_ZN4node13EmitAsyncInitEPN2v87IsolateENS0_5LocalINS0_6ObjectEEEPKcd
Keybase:_ZN4node13GetNodeReportEPN2v87IsolateEPKcS4_NS0_5LocalINS0_5ValueEEERNSt4__Cr13basic_ostreamIcNS8_11char_traitsIcEEEE
Keybase:_ZN4node13GetNodeReportEPNS_11EnvironmentEPKcS3_N2v85LocalINS4_5ValueEEERNSt4__Cr13basic_ostreamIcNS8_11char_traitsIcEEEE
Keybase:_ZN4node13GetOctalTableEv
Keybase:_ZN4node13HistogramBase10FastRecordEN2v85LocalINS1_5ValueEEES4_lRNS1_22FastApiCallbackOptionsE
Keybase:_ZN4node13HistogramBase10InitializeEPNS_11IsolateDataEN2v85LocalINS3_14ObjectTemplateEEE
Keybase:_ZN4node13HistogramBase11RecordDeltaERKN2v820FunctionCallbackInfoINS1_5ValueEEE
Keybase:_ZN4node13HistogramBase12fast_record_E
Keybase:_ZN4node13HistogramBase15FastRecordDeltaEN2v85LocalINS1_5ValueEEES4_
Keybase:_ZN4node13HistogramBase18fast_record_delta_E
Keybase:_ZN4node13HistogramBase21HistogramTransferData11DeserializeEPNS_11EnvironmentEN2v85LocalINS4_7ContextEEENSt4__Cr10unique_ptrINS_6worker12TransferDataENS8_14default_deleteISB_EEEE
Keybase:_ZN4node13HistogramBase22GetConstructorTemplateEPNS_11IsolateDataE
Keybase:_ZN4node13HistogramBase26RegisterExternalReferencesEPNS_25ExternalReferenceRegistryE
Keybase:_ZN4node13HistogramBase3AddERKN2v820FunctionCallbackInfoINS1_5ValueEEE
Keybase:_ZN4node13HistogramBase3NewERKN2v820FunctionCallbackInfoINS1_5ValueEEE
Keybase:_ZN4node13HistogramBase6CreateEPNS_11EnvironmentENSt4__Cr10shared_ptrINS_9HistogramEEE
Keybase:_ZN4node13HistogramBase6CreateEPNS_11EnvironmentERKNS_9Histogram7OptionsE
Keybase:_ZN4node13HistogramBase6RecordERKN2v820FunctionCallbackInfoINS1_5ValueEEE
Keybase:_ZN4node13HistogramBaseC1EPNS_11EnvironmentEN2v85LocalINS3_6ObjectEEENSt4__Cr10shared_ptrINS_9HistogramEEE
Keybase:_ZN4node13HistogramBaseC1EPNS_11EnvironmentEN2v85LocalINS3_6ObjectEEERKNS_9Histogram7OptionsE
Keybase:_ZN4node13HistogramBaseC2EPNS_11EnvironmentEN2v85LocalINS3_6ObjectEEENSt4__Cr10shared_ptrINS_9HistogramEEE
Keybase:_ZN4node13HistogramBaseC2EPNS_11EnvironmentEN2v85LocalINS3_6ObjectEEERKNS_9Histogram7OptionsE
Keybase:_ZN4node13HistogramImpl10AddMethodsEPN2v87IsolateENS1_5LocalINS1_16FunctionTemplateEEE
Keybase:_ZN4node13HistogramImpl10FastGetMaxEN2v85LocalINS1_5ValueEEES4_
Keybase:_ZN4node13HistogramImpl10FastGetMinEN2v85LocalINS1_5ValueEEES4_
Keybase:_ZN4node13HistogramImpl10GetExceedsERKN2v820FunctionCallbackInfoINS1_5ValueEEE
Keybase:_ZN4node13HistogramImpl11FastGetMeanEN2v85LocalINS1_5ValueEEES4_
Keybase:_ZN4node13HistogramImpl11fast_reset_E
Keybase:_ZN4node13HistogramImpl12FastGetCountEN2v85LocalINS1_5ValueEEES4_
Keybase:_ZN4node13HistogramImpl12FromJSObjectEN2v85LocalINS1_5ValueEEE
Keybase:_ZN4node13HistogramImpl12GetMaxBigIntERKN2v820FunctionCallbackInfoINS1_5ValueEEE
Keybase:_ZN4node13HistogramImpl12GetMinBigIntERKN2v820FunctionCallbackInfoINS1_5ValueEEE
Keybase:_ZN4node13HistogramImpl13FastGetStddevEN2v85LocalINS1_5ValueEEES4_
Keybase:_ZN4node13HistogramImpl13GetPercentileERKN2v820FunctionCallbackInfoINS1_5ValueEEE
Keybase:_ZN4node13HistogramImpl13fast_get_max_E
Keybase:_ZN4node13HistogramImpl13fast_get_min_E
Keybase:_ZN4node13HistogramImpl14FastGetExceedsEN2v85LocalINS1_5ValueEEES4_
Keybase:_ZN4node13HistogramImpl14GetCountBigIntERKN2v820FunctionCallbackInfoINS1_5ValueEEE
Keybase:_ZN4node13HistogramImpl14GetPercentilesERKN2v820FunctionCallbackInfoINS1_5ValueEEE
Keybase:_ZN4node13HistogramImpl14fast_get_mean_E
Keybase:_ZN4node13HistogramImpl15fast_get_count_E
Keybase:_ZN4node13HistogramImpl16GetExceedsBigIntERKN2v820FunctionCallbackInfoINS1_5ValueEEE
Keybase:_ZN4node13HistogramImpl16fast_get_stddev_E
Keybase:_ZN4node13HistogramImpl17FastGetPercentileEN2v85LocalINS1_5ValueEEES4_d
Keybase:_ZN4node13HistogramImpl17fast_get_exceeds_E
Keybase:_ZN4node13HistogramImpl19GetPercentileBigIntERKN2v820FunctionCallbackInfoINS1_5ValueEEE
Keybase:_ZN4node13HistogramImpl20GetPercentilesBigIntERKN2v820FunctionCallbackInfoINS1_5ValueEEE
Keybase:_ZN4node13HistogramImpl20fast_get_percentile_E
Keybase:_ZN4node13HistogramImpl26RegisterExternalReferencesEPNS_25ExternalReferenceRegistryE
Keybase:_ZN4node13HistogramImpl6GetMaxERKN2v820FunctionCallbackInfoINS1_5ValueEEE
Keybase:_ZN4node13HistogramImpl6GetMinERKN2v820FunctionCallbackInfoINS1_5ValueEEE
Keybase:_ZN4node13HistogramImpl7DoResetERKN2v820FunctionCallbackInfoINS1_5ValueEEE
Keybase:_ZN4node13HistogramImpl7GetMeanERKN2v820FunctionCallbackInfoINS1_5ValueEEE
Keybase:_ZN4node13HistogramImpl8GetCountERKN2v820FunctionCallbackInfoINS1_5ValueEEE
Keybase:_ZN4node13HistogramImpl9FastResetEN2v85LocalINS1_5ValueEEES4_
Keybase:_ZN4node13HistogramImpl9GetStddevERKN2v820FunctionCallbackInfoINS1_5ValueEEE
Keybase:_ZN4node13HistogramImplC1ENSt4__Cr10shared_ptrINS_9HistogramEEE
Keybase:_ZN4node13HistogramImplC1ERKNS_9Histogram7OptionsE
Keybase:_ZN4node13HistogramImplC2ENSt4__Cr10shared_ptrINS_9HistogramEEE
Keybase:_ZN4node13HistogramImplC2ERKNS_9Histogram7OptionsE
Keybase:_ZN4node13ImmediateInfo11DeserializeEN2v85LocalINS1_7ContextEEE
Keybase:_ZN4node13ImmediateInfo9SerializeEN2v85LocalINS1_7ContextEEEPNS1_15SnapshotCreatorE
Keybase:_ZN4node13ImmediateInfoC1EPN2v87IsolateEPKNS0_13SerializeInfoE
Keybase:_ZN4node13ImmediateInfoC2EPN2v87IsolateEPKNS0_13SerializeInfoE
Keybase:_ZN4node13ParseEncodingEPKcNS_8encodingE
Keybase:_ZN4node13ParseEncodingEPN2v87IsolateENS0_5LocalINS0_5ValueEEENS_8encodingE
Keybase:_ZN4node13ParseEncodingEPN2v87IsolateENS0_5LocalINS0_5ValueEEES5_NS_8encodingE
Keybase:_ZN4node13SetFastMethodEN2v85LocalINS0_7ContextEEENS1_INS0_6ObjectEEENSt4__Cr17basic_string_viewIcNS6_11char_traitsIcEEEEPFvRKNS0_20FunctionCallbackInfoINS0_5ValueEEEEPKNS0_9CFunctionE
Keybase:_ZN4node13SetFastMethodEPN2v87IsolateENS0_5LocalINS0_8TemplateEEENSt4__Cr17basic_string_viewIcNS6_11char_traitsIcEEEEPFvRKNS0_20FunctionCallbackInfoINS0_5ValueEEEEPKNS0_9CFunctionE
Keybase:_ZN4node13SetFastMethodEPN2v87IsolateENS0_5LocalINS0_8TemplateEEENSt4__Cr17basic_string_viewIcNS6_11char_traitsIcEEEEPFvRKNS0_20FunctionCallbackInfoINS0_5ValueEEEERKNS0_10MemorySpanIKNS0_9CFunctionEEE
Keybase:_ZN4node13SocketAddress10ToSockAddrEiPKcjP16sockaddr_storage
Keybase:_ZN4node13SocketAddress12FromPeerNameERK8uv_tcp_s
Keybase:_ZN4node13SocketAddress12FromPeerNameERK8uv_udp_s
Keybase:_ZN4node13SocketAddress12FromSockNameERK8uv_tcp_s
Keybase:_ZN4node13SocketAddress12FromSockNameERK8uv_udp_s
Keybase:_ZN4node13SocketAddress3NewEPKcjPS0_
Keybase:_ZN4node13SocketAddress3NewEiPKcjPS0_
Keybase:_ZN4node13SpinEventLoopEPNS_11EnvironmentE
Keybase:_ZN4node13StringDecoder10DecodeDataEPN2v87IsolateEPKcPm
Keybase:_ZN4node13StringDecoder9FlushDataEPN2v87IsolateE
Keybase:_ZN4node13ToOctalStringEh
Keybase:_ZN4node13WriteFileSyncEPKc8uv_buf_t
Keybase:_ZN4node13WriteFileSyncEPKcP8uv_buf_tm
Keybase:_ZN4node13WriteFileSyncEPN2v87IsolateEPKcNS0_5LocalINS0_6StringEEE
Keybase:_ZN4node14BaseObjectList7CleanupEv
Keybase:_ZN4node14CreatePlatformEiPN2v817TracingControllerE
Keybase:_ZN4node14CreatePlatformEiPNS_7tracing17TracingControllerE
Keybase:_ZN4node14EmitBeforeExitEPNS_11EnvironmentE
Keybase:_ZN4node14ErrnoExceptionEPN2v87IsolateEiPKcS4_S4_
Keybase:_ZN4node14FatalExceptionEPN2v87IsolateERKNS0_8TryCatchE
Keybase:_ZN4node14GetMainContextEPNS_11EnvironmentE
Keybase:_ZN4node14GetValidatedFdEPNS_11EnvironmentEN2v85LocalINS2_5ValueEEE
Keybase:_ZN4node14PrincipalRealm14BootstrapRealmEv
Keybase:_ZN4node14PrincipalRealm15set_primordialsEN2v85LocalINS1_6ObjectEEE
Keybase:_ZN4node14PrincipalRealm16set_message_portEN2v85LocalINS1_6ObjectEEE
Keybase:_ZN4node14PrincipalRealm18set_process_objectEN2v85LocalINS1_6ObjectEEE
Keybase:_ZN4node14PrincipalRealm23set_async_hooks_bindingEN2v85LocalINS1_6ObjectEEE
Keybase:_ZN4node14PrincipalRealm24set_promise_hook_handlerEN2v85LocalINS1_8FunctionEEE
Keybase:_ZN4node14PrincipalRealm25set_domexception_functionEN2v85LocalINS1_8FunctionEEE
Keybase:_ZN4node14PrincipalRealm26set_builtin_module_requireEN2v85LocalINS1_8FunctionEEE
Keybase:_ZN4node14PrincipalRealm26set_modules_read_file_syncEN2v85LocalINS1_8FunctionEEE
Keybase:_ZN4node14PrincipalRealm26set_tick_callback_functionEN2v85LocalINS1_8FunctionEEE
Keybase:_ZN4node14PrincipalRealm27set_buffer_prototype_objectEN2v85LocalINS1_6ObjectEEE
Keybase:_ZN4node14PrincipalRealm27set_internal_binding_loaderEN2v85LocalINS1_8FunctionEEE
Keybase:_ZN4node14PrincipalRealm27set_promise_reject_callbackEN2v85LocalINS1_8FunctionEEE
Keybase:_ZN4node14PrincipalRealm27set_source_map_cache_getterEN2v85LocalINS1_8FunctionEEE
Keybase:_ZN4node14PrincipalRealm28set_timers_callback_functionEN2v85LocalINS1_8FunctionEEE
Keybase:_ZN4node14PrincipalRealm28set_udp_constructor_functionEN2v85LocalINS1_8FunctionEEE
Keybase:_ZN4node14PrincipalRealm28set_url_constructor_functionEN2v85LocalINS1_8FunctionEEE
Keybase:_ZN4node14PrincipalRealm29set_async_hooks_init_functionEN2v85LocalINS1_8FunctionEEE
Keybase:_ZN4node14PrincipalRealm29set_process_emit_warning_syncEN2v85LocalINS1_8FunctionEEE
Keybase:_ZN4node14PrincipalRealm29set_snapshot_deserialize_mainEN2v85LocalINS1_8FunctionEEE
Keybase:_ZN4node14PrincipalRealm30set_async_hooks_after_functionEN2v85LocalINS1_8FunctionEEE
Keybase:_ZN4node14PrincipalRealm30set_performance_entry_callbackEN2v85LocalINS1_8FunctionEEE
Keybase:_ZN4node14PrincipalRealm31set_async_hooks_before_functionEN2v85LocalINS1_8FunctionEEE
Keybase:_ZN4node14PrincipalRealm31set_get_source_map_error_sourceEN2v85LocalINS1_8FunctionEEE
Keybase:_ZN4node14PrincipalRealm31set_immediate_callback_functionEN2v85LocalINS1_8FunctionEEE
Keybase:_ZN4node14PrincipalRealm31set_snapshot_serialize_callbackEN2v85LocalINS1_8FunctionEEE
Keybase:_ZN4node14PrincipalRealm32set_async_hooks_destroy_functionEN2v85LocalINS1_8FunctionEEE
Keybase:_ZN4node14PrincipalRealm32set_inspector_enable_async_hooksEN2v85LocalINS1_8FunctionEEE
Keybase:_ZN4node14PrincipalRealm32set_prepare_stack_trace_callbackEN2v85LocalINS1_8FunctionEEE
Keybase:_ZN4node14PrincipalRealm33set_crypto_key_object_constructorEN2v85LocalINS1_8FunctionEEE
Keybase:_ZN4node14PrincipalRealm33set_http2session_on_ping_functionEN2v85LocalINS1_8FunctionEEE
Keybase:_ZN4node14PrincipalRealm33set_inspector_disable_async_hooksEN2v85LocalINS1_8FunctionEEE
Keybase:_ZN4node14PrincipalRealm33set_snapshot_deserialize_callbackEN2v85LocalINS1_8FunctionEEE
Keybase:_ZN4node14PrincipalRealm33set_tls_wrap_constructor_functionEN2v85LocalINS1_8FunctionEEE
Keybase:_ZN4node14PrincipalRealm33set_trace_category_state_functionEN2v85LocalINS1_8FunctionEEE
Keybase:_ZN4node14PrincipalRealm34set_http2session_on_error_functionEN2v85LocalINS1_8FunctionEEE
Keybase:_ZN4node14PrincipalRealm35set_async_hooks_callback_trampolineEN2v85LocalINS1_8FunctionEEE
Keybase:_ZN4node14PrincipalRealm35set_http2session_on_altsvc_functionEN2v85LocalINS1_8FunctionEEE
Keybase:_ZN4node14PrincipalRealm35set_http2session_on_origin_functionEN2v85LocalINS1_8FunctionEEE
Keybase:_ZN4node14PrincipalRealm35set_wasm_streaming_compilation_implEN2v85LocalINS1_8FunctionEEE
Keybase:_ZN4node14PrincipalRealm36set_http2session_on_headers_functionEN2v85LocalINS1_8FunctionEEE
Keybase:_ZN4node14PrincipalRealm36set_maybe_cache_generated_source_mapEN2v85LocalINS1_8FunctionEEE
Keybase:_ZN4node14PrincipalRealm37set_http2session_on_priority_functionEN2v85LocalINS1_8FunctionEEE
Keybase:_ZN4node14PrincipalRealm37set_http2session_on_settings_functionEN2v85LocalINS1_8FunctionEEE
Keybase:_ZN4node14PrincipalRealm37set_inspector_enable_network_trackingEN2v85LocalINS1_8FunctionEEE
Keybase:_ZN4node14PrincipalRealm37set_wasm_streaming_object_constructorEN2v85LocalINS1_8FunctionEEE
Keybase:_ZN4node14PrincipalRealm38set_inspector_disable_network_trackingEN2v85LocalINS1_8FunctionEEE
Keybase:_ZN4node14PrincipalRealm39set_enhance_fatal_stack_after_inspectorEN2v85LocalINS1_8FunctionEEE
Keybase:_ZN4node14PrincipalRealm39set_messaging_deserialize_create_objectEN2v85LocalINS1_8FunctionEEE
Keybase:_ZN4node14PrincipalRealm40set_async_hooks_promise_resolve_functionEN2v85LocalINS1_8FunctionEEE
Keybase:_ZN4node14PrincipalRealm40set_crypto_key_object_public_constructorEN2v85LocalINS1_8FunctionEEE
Keybase:_ZN4node14PrincipalRealm40set_crypto_key_object_secret_constructorEN2v85LocalINS1_8FunctionEEE
Keybase:_ZN4node14PrincipalRealm40set_enhance_fatal_stack_before_inspectorEN2v85LocalINS1_8FunctionEEE
Keybase:_ZN4node14PrincipalRealm40set_http2session_on_frame_error_functionEN2v85LocalINS1_8FunctionEEE
Keybase:_ZN4node14PrincipalRealm40set_http2session_on_goaway_data_functionEN2v85LocalINS1_8FunctionEEE
Keybase:_ZN4node14PrincipalRealm41set_crypto_key_object_private_constructorEN2v85LocalINS1_8FunctionEEE
Keybase:_ZN4node14PrincipalRealm41set_http2session_on_stream_close_functionEN2v85LocalINS1_8FunctionEEE
Keybase:_ZN4node14PrincipalRealm41set_inspector_console_extension_installerEN2v85LocalINS1_8FunctionEEE
Keybase:_ZN4node14PrincipalRealm41set_primordials_safe_map_prototype_objectEN2v85LocalINS1_6ObjectEEE
Keybase:_ZN4node14PrincipalRealm41set_primordials_safe_set_prototype_objectEN2v85LocalINS1_6ObjectEEE
Keybase:_ZN4node14PrincipalRealm43set_host_import_module_dynamically_callbackEN2v85LocalINS1_8FunctionEEE
Keybase:_ZN4node14PrincipalRealm44set_http2session_on_stream_trailers_functionEN2v85LocalINS1_8FunctionEEE
Keybase:_ZN4node14PrincipalRealm46set_primordials_safe_weak_map_prototype_objectEN2v85LocalINS1_6ObjectEEE
Keybase:_ZN4node14PrincipalRealm46set_primordials_safe_weak_set_prototype_objectEN2v85LocalINS1_6ObjectEEE
Keybase:_ZN4node14PrincipalRealm47set_host_initialize_import_meta_object_callbackEN2v85LocalINS1_8FunctionEEE
Keybase:_ZN4node14PrincipalRealmC1EPNS_11EnvironmentEN2v85LocalINS3_7ContextEEEPKNS_18RealmSerializeInfoE
Keybase:_ZN4node14PrincipalRealmC2EPNS_11EnvironmentEN2v85LocalINS3_7ContextEEEPKNS_18RealmSerializeInfoE
Keybase:_ZN4node14PrincipalRealmD0Ev
Keybase:_ZN4node14PrincipalRealmD1Ev
Keybase:_ZN4node14PrincipalRealmD2Ev
Keybase:_ZN4node14SetProtoMethodEPN2v87IsolateENS0_5LocalINS0_16FunctionTemplateEEENSt4__Cr17basic_string_viewIcNS6_11char_traitsIcEEEEPFvRKNS0_20FunctionCallbackInfoINS0_5ValueEEEE
Keybase:_ZN4node14SigintWatchdog12HandleSigintEv
Keybase:_ZN4node14SigintWatchdogC1EPN2v87IsolateEPb
Keybase:_ZN4node14SigintWatchdogC2EPN2v87IsolateEPb
Keybase:_ZN4node14SigintWatchdogD0Ev
Keybase:_ZN4node14SigintWatchdogD1Ev
Keybase:_ZN4node14SigintWatchdogD2Ev
Keybase:_ZN4node14StartExecutionEPNS_11EnvironmentENSt4__Cr8functionIFN2v810MaybeLocalINS4_5ValueEEERKNS_26StartExecutionCallbackInfoEEEE
Keybase:_ZN4node14StreamListener18OnStreamAfterWriteEPNS_9WriteWrapEi
Keybase:_ZN4node14StreamListener21OnStreamAfterShutdownEPNS_12ShutdownWrapEi
Keybase:_ZN4node14StreamListenerD0Ev
Keybase:_ZN4node14StreamListenerD1Ev
Keybase:_ZN4node14StreamListenerD2Ev
Keybase:_ZN4node14StreamResource10ClearErrorEv
Keybase:_ZN4node14StreamResource10DoTryWriteEPP8uv_buf_tPm
Keybase:_ZN4node14StreamResource20RemoveStreamListenerEPNS_14StreamListenerE
Keybase:_ZN4node14StreamResourceD0Ev
Keybase:_ZN4node14StreamResourceD1Ev
Keybase:_ZN4node14StreamResourceD2Ev
Keybase:_ZN4node14options_parser10InitializeEN2v85LocalINS1_6ObjectEEENS2_INS1_5ValueEEENS2_INS1_7ContextEEEPv
Keybase:_ZN4node14options_parser13SplitHostPortERKNSt4__Cr12basic_stringIcNS1_11char_traitsIcEENS1_9allocatorIcEEEEPNS1_6vectorIS7_NS5_IS7_EEEE
Keybase:_ZN4node14options_parser17GetBashCompletionEv
Keybase:_ZN4node14options_parser17GetCLIOptionsInfoERKN2v820FunctionCallbackInfoINS1_5ValueEEE
Keybase:_ZN4node14options_parser18DebugOptionsParserC1Ev
Keybase:_ZN4node14options_parser18DebugOptionsParserC2Ev
Keybase:_ZN4node14options_parser18GetEmbedderOptionsERKN2v820FunctionCallbackInfoINS1_5ValueEEE
Keybase:_ZN4node14options_parser19GetCLIOptionsValuesERKN2v820FunctionCallbackInfoINS1_5ValueEEE
Keybase:_ZN4node14options_parser22GetEnvOptionsInputTypeERKN2v820FunctionCallbackInfoINS1_5ValueEEE
Keybase:_ZN4node14options_parser23PerIsolateOptionsParserC1ERKNS0_24EnvironmentOptionsParserE
Keybase:_ZN4node14options_parser23PerIsolateOptionsParserC2ERKNS0_24EnvironmentOptionsParserE
Keybase:_ZN4node14options_parser23PerProcessOptionsParserC1ERKNS0_23PerIsolateOptionsParserE
Keybase:_ZN4node14options_parser23PerProcessOptionsParserC2ERKNS0_23PerIsolateOptionsParserE
Keybase:_ZN4node14options_parser24EnvironmentOptionsParserC1Ev
Keybase:_ZN4node14options_parser24EnvironmentOptionsParserC2Ev
Keybase:_ZN4node14options_parser26MapEnvOptionsFlagInputTypeEv
Keybase:_ZN4node14options_parser26RegisterExternalReferencesEPNS_25ExternalReferenceRegistryE
Keybase:_ZN4node14options_parser5ParseINS_12DebugOptionsENS_7OptionsEEEvPNSt4__Cr6vectorINS4_12basic_stringIcNS4_11char_traitsIcEENS4_9allocatorIcEEEENS9_ISB_EEEESE_SE_PT_NS_20OptionEnvvarSettingsESE_
Keybase:_ZN4node14options_parser5ParseINS_17PerIsolateOptionsENS_7OptionsEEEvPNSt4__Cr6vectorINS4_12basic_stringIcNS4_11char_traitsIcEENS4_9allocatorIcEEEENS9_ISB_EEEESE_SE_PT_NS_20OptionEnvvarSettingsESE_
Keybase:_ZN4node14options_parser5ParseINS_17PerProcessOptionsENS_7OptionsEEEvPNSt4__Cr6vectorINS4_12basic_stringIcNS4_11char_traitsIcEENS4_9allocatorIcEEEENS9_ISB_EEEESE_SE_PT_NS_20OptionEnvvarSettingsESE_
Keybase:_ZN4node15BlobBindingData11DeserializeEN2v85LocalINS1_7ContextEEENS2_INS1_6ObjectEEEiPNS_21InternalFieldInfoBaseE
Keybase:_ZN4node15BlobBindingData15get_data_objectERKNSt4__Cr12basic_stringIcNS1_11char_traitsIcEENS1_9allocatorIcEEEE
Keybase:_ZN4node15BlobBindingData16StoredDataObjectC1ERKNS_17BaseObjectPtrImplINS_4BlobELb0EEEmRKNSt4__Cr12basic_stringIcNS7_11char_traitsIcEENS7_9allocatorIcEEEE
Keybase:_ZN4node15BlobBindingData16StoredDataObjectC2ERKNS_17BaseObjectPtrImplINS_4BlobELb0EEEmRKNSt4__Cr12basic_stringIcNS7_11char_traitsIcEENS7_9allocatorIcEEEE
Keybase:_ZN4node15BlobBindingData17store_data_objectERKNSt4__Cr12basic_stringIcNS1_11char_traitsIcEENS1_9allocatorIcEEEERKNS0_16StoredDataObjectE
Keybase:_ZN4node15BlobBindingData18revoke_data_objectERKNSt4__Cr12basic_stringIcNS1_11char_traitsIcEENS1_9allocatorIcEEEE
Keybase:_ZN4node15BlobBindingData23PrepareForSerializationEN2v85LocalINS1_7ContextEEEPNS1_15SnapshotCreatorE
Keybase:_ZN4node15BlobBindingData9SerializeEi
Keybase:_ZN4node15BlobBindingDataC1EPNS_5RealmEN2v85LocalINS3_6ObjectEEE
Keybase:_ZN4node15BlobBindingDataC2EPNS_5RealmEN2v85LocalINS3_6ObjectEEE
Keybase:_ZN4node15EmitProcessExitEPNS_11EnvironmentE
Keybase:_ZN4node15EscapeJsonCharsENSt4__Cr17basic_string_viewIcNS0_11char_traitsIcEEEE
Keybase:_ZN4node15FreeEnvironmentEPNS_11EnvironmentE
Keybase:_ZN4node15FreeIsolateDataEPNS_11IsolateDataE
Keybase:_ZN4node15GenDebugSymbolsEv
Keybase:_ZN4node15GetProcessTitleEPKc
Keybase:_ZN4node15LargePagesErrorEi
Keybase:_ZN4node15LibuvStreamWrap10DoShutdownEPNS_12ShutdownWrapE
Keybase:_ZN4node15LibuvStreamWrap10DoTryWriteEPP8uv_buf_tPm
Keybase:_ZN4node15LibuvStreamWrap10InitializeEN2v85LocalINS1_6ObjectEEENS2_INS1_5ValueEEENS2_INS1_7ContextEEEPv
Keybase:_ZN4node15LibuvStreamWrap11SetBlockingERKN2v820FunctionCallbackInfoINS1_5ValueEEE
Keybase:_ZN4node15LibuvStreamWrap12AfterUvWriteEP10uv_write_si
Keybase:_ZN4node15LibuvStreamWrap12GetAsyncWrapEv
Keybase:_ZN4node15LibuvStreamWrap15AfterUvShutdownEP13uv_shutdown_si
Keybase:_ZN4node15LibuvStreamWrap15CreateWriteWrapEN2v85LocalINS1_6ObjectEEE
Keybase:_ZN4node15LibuvStreamWrap17GetWriteQueueSizeERKN2v820FunctionCallbackInfoINS1_5ValueEEE
Keybase:_ZN4node15LibuvStreamWrap18CreateShutdownWrapEN2v85LocalINS1_6ObjectEEE
Keybase:_ZN4node15LibuvStreamWrap22GetConstructorTemplateEPNS_11EnvironmentE
Keybase:_ZN4node15LibuvStreamWrap26RegisterExternalReferencesEPNS_25ExternalReferenceRegistryE
Keybase:_ZN4node15LibuvStreamWrap4FromEPNS_11EnvironmentEN2v85LocalINS3_6ObjectEEE
Keybase:_ZN4node15LibuvStreamWrap5GetFDEv
Keybase:_ZN4node15LibuvStreamWrap7DoWriteEPNS_9WriteWrapEP8uv_buf_tmP11uv_stream_s
Keybase:_ZN4node15LibuvStreamWrap7IsAliveEv
Keybase:_ZN4node15LibuvStreamWrap8OnUvReadElPK8uv_buf_t
Keybase:_ZN4node15LibuvStreamWrap8ReadStopEv
Keybase:_ZN4node15LibuvStreamWrap9IsClosingEv
Keybase:_ZN4node15LibuvStreamWrap9IsIPCPipeEv
Keybase:_ZN4node15LibuvStreamWrap9OnUvAllocEmP8uv_buf_t
Keybase:_ZN4node15LibuvStreamWrap9ReadStartEv
Keybase:_ZN4node15LibuvStreamWrapC2EPNS_11EnvironmentEN2v85LocalINS3_6ObjectEEEP11uv_stream_sNS_9AsyncWrap12ProviderTypeE
Keybase:_ZN4node15LoadEnvironmentEPNS_11EnvironmentENSt4__Cr17basic_string_viewIcNS2_11char_traitsIcEEEENS2_8functionIFvS1_N2v85LocalINS8_5ValueEEESB_EEE
Keybase:_ZN4node15LoadEnvironmentEPNS_11EnvironmentENSt4__Cr8functionIFN2v810MaybeLocalINS4_5ValueEEERKNS_26StartExecutionCallbackInfoEEEENS3_IFvS1_NS4_5LocalIS6_EESE_EEE
Keybase:_ZN4node15NodeCategorySet10InitializeEN2v85LocalINS1_6ObjectEEENS2_INS1_5ValueEEENS2_INS1_7ContextEEEPv
Keybase:_ZN4node15NodeCategorySet26RegisterExternalReferencesEPNS_25ExternalReferenceRegistryE
Keybase:_ZN4node15NodeCategorySet3NewERKN2v820FunctionCallbackInfoINS1_5ValueEEE
Keybase:_ZN4node15NodeCategorySet6EnableERKN2v820FunctionCallbackInfoINS1_5ValueEEE
Keybase:_ZN4node15NodeCategorySet7DisableERKN2v820FunctionCallbackInfoINS1_5ValueEEE
Keybase:_ZN4node15NormalizeStringENSt4__Cr17basic_string_viewIcNS0_11char_traitsIcEEEEbS4_
Keybase:_ZN4node15OOMErrorHandlerEPKcRKN2v810OOMDetailsE
Keybase:_ZN4node15PrintStackTraceEPN2v87IsolateENS0_5LocalINS0_10StackTraceEEENS_16StackTracePrefixE
Keybase:_ZN4node15SnapshotBuilder14CreateSnapshotEPNS_12SnapshotDataEPNS_22CommonEnvironmentSetupE
Keybase:_ZN4node15SnapshotBuilder16GenerateAsSourceEPKcRKNSt4__Cr6vectorINS3_12basic_stringIcNS3_11char_traitsIcEENS3_9allocatorIcEEEENS8_ISA_EEEESE_RKNS_14SnapshotConfigEb
Keybase:_ZN4node15SnapshotBuilder23GetEmbeddedSnapshotDataEv
Keybase:_ZN4node15SnapshotBuilder23InitializeIsolateParamsEPKNS_12SnapshotDataEPN2v87Isolate12CreateParamsE
Keybase:_ZN4node15SnapshotBuilder25CollectExternalReferencesEv
Keybase:_ZN4node15SnapshotBuilder8GenerateEPNS_12SnapshotDataERKNSt4__Cr6vectorINS3_12basic_stringIcNS3_11char_traitsIcEENS3_9allocatorIcEEEENS8_ISA_EEEESE_NS3_8optionalINS3_17basic_string_viewIcS7_EEEERKNS_14SnapshotConfigE
Keybase:_ZN4node15TimerWrapHandle11CleanupHookEPv
Keybase:_ZN4node15TimerWrapHandle3RefEv
Keybase:_ZN4node15TimerWrapHandle4StopEv
Keybase:_ZN4node15TimerWrapHandle5CloseEv
Keybase:_ZN4node15TimerWrapHandle5UnrefEv
Keybase:_ZN4node15TimerWrapHandle6UpdateEmm
Keybase:_ZN4node15linux_at_secureEv
Keybase:_ZN4node16AddLinkedBindingEPNS_11EnvironmentEPKcPFP12napi_value__P10napi_env__S5_Ei
Keybase:_ZN4node16AddLinkedBindingEPNS_11EnvironmentEPKcPFvN2v85LocalINS4_6ObjectEEENS5_INS4_5ValueEEENS5_INS4_7ContextEEEPvESC_
Keybase:_ZN4node16AddLinkedBindingEPNS_11EnvironmentERK11napi_module
Keybase:_ZN4node16AddLinkedBindingEPNS_11EnvironmentERKNS_11node_moduleE
Keybase:_ZN4node16EmitAsyncDestroyEPN2v87IsolateENS_13async_contextE
Keybase:_ZN4node16EmitAsyncDestroyEPNS_11EnvironmentENS_13async_contextE
Keybase:_ZN4node16EnabledDebugList5ParseEPNS_11EnvironmentE
Keybase:_ZN4node16EnabledDebugList5ParseERKNSt4__Cr12basic_stringIcNS1_11char_traitsIcEENS1_9allocatorIcEEEE
Keybase:_ZN4node16GetActiveHandlesERKN2v820FunctionCallbackInfoINS0_5ValueEEE
Keybase:_ZN4node16GetDefaultLocaleERKN2v820FunctionCallbackInfoINS0_5ValueEEE
Keybase:_ZN4node16GetValidFileModeEPNS_11EnvironmentEN2v85LocalINS2_5ValueEEE10uv_fs_type
Keybase:_ZN4node16HandleEnvOptionsENSt4__Cr10shared_ptrINS_18EnvironmentOptionsEEE
Keybase:_ZN4node16HandleEnvOptionsENSt4__Cr10shared_ptrINS_18EnvironmentOptionsEEENS0_8functionIFNS0_12basic_stringIcNS0_11char_traitsIcEENS0_9allocatorIcEEEEPKcEEE
Keybase:_ZN4node16LoadSnapshotDataEPPKNS_12SnapshotDataE
Keybase:_ZN4node16MakeSyncCallbackEPN2v87IsolateENS0_5LocalINS0_6ObjectEEENS3_INS0_8FunctionEEEiPNS3_INS0_5ValueEEE
Keybase:_ZN4node16NodeMainInstance21CreateMainEnvironmentEPNS_8ExitCodeE
Keybase:_ZN4node16NodeMainInstance3RunEPNS_8ExitCodeEPNS_11EnvironmentE
Keybase:_ZN4node16NodeMainInstance3RunEv
Keybase:_ZN4node16NodeMainInstanceC1EPKNS_12SnapshotDataEP9uv_loop_sPNS_20MultiIsolatePlatformERKNSt4__Cr6vectorINS8_12basic_stringIcNS8_11char_traitsIcEENS8_9allocatorIcEEEENSD_ISF_EEEESJ_
Keybase:_ZN4node16NodeMainInstanceC2EPKNS_12SnapshotDataEP9uv_loop_sPNS_20MultiIsolatePlatformERKNSt4__Cr6vectorINS8_12basic_stringIcNS8_11char_traitsIcEENS8_9allocatorIcEEEENSD_ISF_EEEESJ_
Keybase:_ZN4node16NodeMainInstanceD1Ev
Keybase:_ZN4node16NodeMainInstanceD2Ev
Keybase:_ZN4node16RequestInterruptEPNS_11EnvironmentEPFvPvES2_
Keybase:_ZN4node16ToNamespacedPathEPNS_11EnvironmentEPNS_11BufferValueE
Keybase:_ZN4node16WithoutCodeCacheERKNS_13SnapshotFlagsE
Keybase:_ZN4node16WithoutCodeCacheERKNS_14SnapshotConfigE
Keybase:_ZN4node16encoding_binding11BindingData10DecodeUTF8ERKN2v820FunctionCallbackInfoINS2_5ValueEEE
Keybase:_ZN4node16encoding_binding11BindingData10EncodeIntoERKN2v820FunctionCallbackInfoINS2_5ValueEEE
Keybase:_ZN4node16encoding_binding11BindingData11DeserializeEN2v85LocalINS2_7ContextEEENS3_INS2_6ObjectEEEiPNS_21InternalFieldInfoBaseE
Keybase:_ZN4node16encoding_binding11BindingData12DecodeLatin1ERKN2v820FunctionCallbackInfoINS2_5ValueEEE
Keybase:_ZN4node16encoding_binding11BindingData16EncodeUtf8StringERKN2v820FunctionCallbackInfoINS2_5ValueEEE
Keybase:_ZN4node16encoding_binding11BindingData23PrepareForSerializationEN2v85LocalINS2_7ContextEEEPNS2_15SnapshotCreatorE
Keybase:_ZN4node16encoding_binding11BindingData26CreatePerContextPropertiesEN2v85LocalINS2_6ObjectEEENS3_INS2_5ValueEEENS3_INS2_7ContextEEEPv
Keybase:_ZN4node16encoding_binding11BindingData26CreatePerIsolatePropertiesEPNS_11IsolateDataEN2v85LocalINS4_14ObjectTemplateEEE
Keybase:_ZN4node16encoding_binding11BindingData31RegisterTimerExternalReferencesEPNS_25ExternalReferenceRegistryE
Keybase:_ZN4node16encoding_binding11BindingData7ToASCIIERKN2v820FunctionCallbackInfoINS2_5ValueEEE
Keybase:_ZN4node16encoding_binding11BindingData9SerializeEi
Keybase:_ZN4node16encoding_binding11BindingData9ToUnicodeERKN2v820FunctionCallbackInfoINS2_5ValueEEE
Keybase:_ZN4node16encoding_binding11BindingDataC1EPNS_5RealmEN2v85LocalINS4_6ObjectEEEPNS1_17InternalFieldInfoE
Keybase:_ZN4node16encoding_binding11BindingDataC2EPNS_5RealmEN2v85LocalINS4_6ObjectEEEPNS1_17InternalFieldInfoE
Keybase:_ZN4node16internal_only_v810InitializeEN2v85LocalINS1_6ObjectEEENS2_INS1_5ValueEEENS2_INS1_7ContextEEEPv
Keybase:_ZN4node16internal_only_v812QueryObjectsERKN2v820FunctionCallbackInfoINS1_5ValueEEE
Keybase:_ZN4node16internal_only_v826RegisterExternalReferencesEPNS_25ExternalReferenceRegistryE
Keybase:_ZN4node17CreateEnvironmentEPNS_11IsolateDataEN2v85LocalINS2_7ContextEEERKNSt4__Cr6vectorINS6_12basic_stringIcNS6_11char_traitsIcEENS6_9allocatorIcEEEENSB_ISD_EEEESH_NS_16EnvironmentFlags5FlagsENS_8ThreadIdENS6_10unique_ptrINS_21InspectorParentHandleENS6_14default_deleteISM_EEEE
Keybase:_ZN4node17CreateEnvironmentEPNS_11IsolateDataEN2v85LocalINS2_7ContextEEERKNSt4__Cr6vectorINS6_12basic_stringIcNS6_11char_traitsIcEENS6_9allocatorIcEEEENSB_ISD_EEEESH_NS_16EnvironmentFlags5FlagsENS_8ThreadIdENS6_10unique_ptrINS_21InspectorParentHandleENS6_14default_deleteISM_EEEENS6_17basic_string_viewIcSA_EE
Keybase:_ZN4node17CreateIsolateDataEPN2v87IsolateEP9uv_loop_sPNS_20MultiIsolatePlatformEPNS_20ArrayBufferAllocatorEPKNS_20EmbedderSnapshotDataE
Keybase:_ZN4node17InitializeContextEN2v85LocalINS0_7ContextEEE
Keybase:_ZN4node17IntervalHistogram10fast_stop_E
Keybase:_ZN4node17IntervalHistogram11fast_start_E
Keybase:_ZN4node17IntervalHistogram22GetConstructorTemplateEPNS_11EnvironmentE
Keybase:_ZN4node17IntervalHistogram26RegisterExternalReferencesEPNS_25ExternalReferenceRegistryE
Keybase:_ZN4node17IntervalHistogram4StopERKN2v820FunctionCallbackInfoINS1_5ValueEEE
Keybase:_ZN4node17IntervalHistogram5StartERKN2v820FunctionCallbackInfoINS1_5ValueEEE
Keybase:_ZN4node17IntervalHistogram6CreateEPNS_11EnvironmentEiNSt4__Cr8functionIFvRNS_9HistogramEEEERKNS5_7OptionsE
Keybase:_ZN4node17IntervalHistogram6OnStopEv
Keybase:_ZN4node17IntervalHistogram7OnStartENS0_10StartFlagsE
Keybase:_ZN4node17IntervalHistogram7TimerCBEP10uv_timer_s
Keybase:_ZN4node17IntervalHistogram8FastStopEN2v85LocalINS1_5ValueEEES4_
Keybase:_ZN4node17IntervalHistogram9FastStartEN2v85LocalINS1_5ValueEEES4_b
Keybase:_ZN4node17IntervalHistogramC1EPNS_11EnvironmentEN2v85LocalINS3_6ObjectEEENS_9AsyncWrap12ProviderTypeEiNSt4__Cr8functionIFvRNS_9HistogramEEEERKNSB_7OptionsE
Keybase:_ZN4node17IntervalHistogramC2EPNS_11EnvironmentEN2v85LocalINS3_6ObjectEEENS_9AsyncWrap12ProviderTypeEiNSt4__Cr8functionIFvRNS_9HistogramEEEERKNSB_7OptionsE
Keybase:_ZN4node17PerIsolateOptions12CheckOptionsEPNSt4__Cr6vectorINS1_12basic_stringIcNS1_11char_traitsIcEENS1_9allocatorIcEEEENS6_IS8_EEEESB_
Keybase:_ZN4node17PerIsolateOptions31HandleMaxOldSpaceSizePercentageEPNSt4__Cr6vectorINS1_12basic_stringIcNS1_11char_traitsIcEENS1_9allocatorIcEEEENS6_IS8_EEEEPS8_
Keybase:_ZN4node17PerProcessOptions12CheckOptionsEPNSt4__Cr6vectorINS1_12basic_stringIcNS1_11char_traitsIcEENS1_9allocatorIcEEEENS6_IS8_EEEESB_
Keybase:_ZN4node17ProcessGlobalArgsEPNSt4__Cr6vectorINS0_12basic_stringIcNS0_11char_traitsIcEENS0_9allocatorIcEEEENS5_IS7_EEEESA_SA_NS_20OptionEnvvarSettingsE
Keybase:_ZN4node17SetCppgcReferenceEPN2v87IsolateENS0_5LocalINS0_6ObjectEEEPv
Keybase:_ZN4node17SetInstanceMethodEPN2v87IsolateENS0_5LocalINS0_16FunctionTemplateEEENSt4__Cr17basic_string_viewIcNS6_11char_traitsIcEEEEPFvRKNS0_20FunctionCallbackInfoINS0_5ValueEEEE
Keybase:_ZN4node17SocketAddressBase10InitializeEPNS_11EnvironmentEN2v85LocalINS3_6ObjectEEE
Keybase:_ZN4node17SocketAddressBase11HasInstanceEPNS_11EnvironmentEN2v85LocalINS3_5ValueEEE
Keybase:_ZN4node17SocketAddressBase12GetFlowLabelERKN2v820FunctionCallbackInfoINS1_5ValueEEE
Keybase:_ZN4node17SocketAddressBase12LegacyDetailERKN2v820FunctionCallbackInfoINS1_5ValueEEE
Keybase:_ZN4node17SocketAddressBase12TransferData11DeserializeEPNS_11EnvironmentEN2v85LocalINS4_7ContextEEENSt4__Cr10unique_ptrINS_6worker12TransferDataENS8_14default_deleteISB_EEEE
Keybase:_ZN4node17SocketAddressBase22GetConstructorTemplateEPNS_11EnvironmentE
Keybase:_ZN4node17SocketAddressBase3NewERKN2v820FunctionCallbackInfoINS1_5ValueEEE
Keybase:_ZN4node17SocketAddressBase6CreateEPNS_11EnvironmentENSt4__Cr10shared_ptrINS_13SocketAddressEEE
Keybase:_ZN4node17SocketAddressBase6DetailERKN2v820FunctionCallbackInfoINS1_5ValueEEE
Keybase:_ZN4node17SocketAddressBaseC1EPNS_11EnvironmentEN2v85LocalINS3_6ObjectEEENSt4__Cr10shared_ptrINS_13SocketAddressEEE
Keybase:_ZN4node17SocketAddressBaseC2EPNS_11EnvironmentEN2v85LocalINS3_6ObjectEEENSt4__Cr10shared_ptrINS_13SocketAddressEEE
Keybase:_ZN4node17SyncProcessRunner10InitializeEN2v85LocalINS1_6ObjectEEENS2_INS1_5ValueEEENS2_INS1_7ContextEEEPv
Keybase:_ZN4node17SyncProcessRunner12CopyJsStringEN2v85LocalINS1_5ValueEEEPPKc
Keybase:_ZN4node17SyncProcessRunner12ExitCallbackEP12uv_process_sli
Keybase:_ZN4node17SyncProcessRunner12ParseOptionsEN2v85LocalINS1_5ValueEEE
Keybase:_ZN4node17SyncProcessRunner12SetPipeErrorEi
Keybase:_ZN4node17SyncProcessRunner14CloseKillTimerEv
Keybase:_ZN4node17SyncProcessRunner15CloseStdioPipesEv
Keybase:_ZN4node17SyncProcessRunner16BuildOutputArrayEv
Keybase:_ZN4node17SyncProcessRunner16ParseStdioOptionEiN2v85LocalINS1_6ObjectEEE
Keybase:_ZN4node17SyncProcessRunner17BuildResultObjectEv
Keybase:_ZN4node17SyncProcessRunner17CopyJsStringArrayEN2v85LocalINS1_5ValueEEEPPc
Keybase:_ZN4node17SyncProcessRunner17KillTimerCallbackEP10uv_timer_s
Keybase:_ZN4node17SyncProcessRunner17ParseStdioOptionsEN2v85LocalINS1_5ValueEEE
Keybase:_ZN4node17SyncProcessRunner18OnKillTimerTimeoutEv
Keybase:_ZN4node17SyncProcessRunner22KillTimerCloseCallbackEP11uv_handle_s
Keybase:_ZN4node17SyncProcessRunner23TryInitializeAndRunLoopEN2v85LocalINS1_5ValueEEE
Keybase:_ZN4node17SyncProcessRunner25CloseHandlesAndDeleteLoopEv
Keybase:_ZN4node17SyncProcessRunner26RegisterExternalReferencesEPNS_25ExternalReferenceRegistryE
Keybase:_ZN4node17SyncProcessRunner35IncrementBufferSizeAndCheckOverflowEl
Keybase:_ZN4node17SyncProcessRunner3RunEN2v85LocalINS1_5ValueEEE
Keybase:_ZN4node17SyncProcessRunner4KillEv
Keybase:_ZN4node17SyncProcessRunner5SpawnERKN2v820FunctionCallbackInfoINS1_5ValueEEE
Keybase:_ZN4node17SyncProcessRunner6OnExitEli
Keybase:_ZN4node17SyncProcessRunner8GetErrorEv
Keybase:_ZN4node17SyncProcessRunner8SetErrorEi
Keybase:_ZN4node17SyncProcessRunnerC1EPNS_11EnvironmentE
Keybase:_ZN4node17SyncProcessRunnerC2EPNS_11EnvironmentE
Keybase:_ZN4node17SyncProcessRunnerD1Ev
Keybase:_ZN4node17SyncProcessRunnerD2Ev
Keybase:_ZN4node17TriggerNodeReportEPN2v87IsolateEPKcS4_RKNSt4__Cr12basic_stringIcNS5_11char_traitsIcEENS5_9allocatorIcEEEENS0_5LocalINS0_5ValueEEE
Keybase:_ZN4node17TriggerNodeReportEPN2v87IsolateEPNS_11EnvironmentEPKcS6_RKNSt4__Cr12basic_stringIcNS7_11char_traitsIcEENS7_9allocatorIcEEEENS0_5LocalINS0_5ValueEEE
Keybase:_ZN4node17TriggerNodeReportEPNS_11EnvironmentEPKcS3_RKNSt4__Cr12basic_stringIcNS4_11char_traitsIcEENS4_9allocatorIcEEEEN2v85LocalINSD_5ValueEEE
Keybase:_ZN4node17conf_section_nameE
Keybase:_ZN4node18CheckedUvLoopCloseEP9uv_loop_s
Keybase:_ZN4node18ContextEmbedderTag15kNodeContextTagE
Keybase:_ZN4node18ContextEmbedderTag18kNodeContextTagPtrE
Keybase:_ZN4node18DiagnosticFilename12MakeFilenameEmPKcS2_
Keybase:_ZN4node18DiagnosticFilename9LocalTimeEP2tm
Keybase:_ZN4node18EnvironmentOptions12CheckOptionsEPNSt4__Cr6vectorINS1_12basic_stringIcNS1_11char_traitsIcEENS1_9allocatorIcEEEENS6_IS8_EEEESB_
Keybase:_ZN4node18FormatErrorMessageEPN2v87IsolateENS0_5LocalINS0_7ContextEEERKNSt4__Cr12basic_stringIcNS6_11char_traitsIcEENS6_9allocatorIcEEEENS3_INS0_7MessageEEEb
Keybase:_ZN4node18FromNamespacedPathEPNSt4__Cr12basic_stringIcNS0_11char_traitsIcEENS0_9allocatorIcEEEE
Keybase:_ZN4node18GetCacheVersionTagEv
Keybase:_ZN4node18HasSignalJSHandlerEi
Keybase:_ZN4node18PatchProcessObjectERKN2v820FunctionCallbackInfoINS0_5ValueEEE
Keybase:_ZN4node18ReadSnapshotConfigEPKc
Keybase:_ZN4node18RunEmbedderPreloadERKN2v820FunctionCallbackInfoINS0_5ValueEEE
Keybase:_ZN4node18SerializeCodeCacheEN2v85LocalINS0_6ModuleEEE
Keybase:_ZN4node18SerializeCodeCacheEN2v85LocalINS0_8FunctionEEE
Keybase:_ZN4node18SnapshotSerializer5WriteIN2v811StartupDataETnPNSt4__Cr9enable_ifIXntsr3std7is_sameIT_NS4_12basic_stringIcNS4_11char_traitsIcEENS4_9allocatorIcEEEEEE5valueEvE4typeELPv0ETnPNS5_IXntsr3std13is_arithmeticIS6_EE5valueEvE4typeELSG_0EEEmRKS6_
Keybase:_ZN4node18SnapshotSerializer5WriteINS_10AsyncHooks13SerializeInfoETnPNSt4__Cr9enable_ifIXntsr3std7is_sameIT_NS4_12basic_stringIcNS4_11char_traitsIcEENS4_9allocatorIcEEEEEE5valueEvE4typeELPv0ETnPNS5_IXntsr3std13is_arithmeticIS6_EE5valueEvE4typeELSG_0EEEmRKS6_
Keybase:_ZN4node18SnapshotSerializer5WriteINS_11performance16PerformanceState13SerializeInfoETnPNSt4__Cr9enable_ifIXntsr3std7is_sameIT_NS5_12basic_stringIcNS5_11char_traitsIcEENS5_9allocatorIcEEEEEE5valueEvE4typeELPv0ETnPNS6_IXntsr3std13is_arithmeticIS7_EE5valueEvE4typeELSH_0EEEmRKS7_
Keybase:_ZN4node18SnapshotSerializer5WriteINS_13ImmediateInfo13SerializeInfoETnPNSt4__Cr9enable_ifIXntsr3std7is_sameIT_NS4_12basic_stringIcNS4_11char_traitsIcEENS4_9allocatorIcEEEEEE5valueEvE4typeELPv0ETnPNS5_IXntsr3std13is_arithmeticIS6_EE5valueEvE4typeELSG_0EEEmRKS6_
Keybase:_ZN4node18SnapshotSerializer5WriteINS_16EnvSerializeInfoETnPNSt4__Cr9enable_ifIXntsr3std7is_sameIT_NS3_12basic_stringIcNS3_11char_traitsIcEENS3_9allocatorIcEEEEEE5valueEvE4typeELPv0ETnPNS4_IXntsr3std13is_arithmeticIS5_EE5valueEvE4typeELSF_0EEEmRKS5_
Keybase:_ZN4node18SnapshotSerializer5WriteINS_16SnapshotMetadataETnPNSt4__Cr9enable_ifIXntsr3std7is_sameIT_NS3_12basic_stringIcNS3_11char_traitsIcEENS3_9allocatorIcEEEEEE5valueEvE4typeELPv0ETnPNS4_IXntsr3std13is_arithmeticIS5_EE5valueEvE4typeELSF_0EEEmRKS5_
Keybase:_ZN4node18SnapshotSerializer5WriteINS_18RealmSerializeInfoETnPNSt4__Cr9enable_ifIXntsr3std7is_sameIT_NS3_12basic_stringIcNS3_11char_traitsIcEENS3_9allocatorIcEEEEEE5valueEvE4typeELPv0ETnPNS4_IXntsr3std13is_arithmeticIS5_EE5valueEvE4typeELSF_0EEEmRKS5_
Keybase:_ZN4node18SnapshotSerializer5WriteINS_24IsolateDataSerializeInfoETnPNSt4__Cr9enable_ifIXntsr3std7is_sameIT_NS3_12basic_stringIcNS3_11char_traitsIcEENS3_9allocatorIcEEEEEE5valueEvE4typeELPv0ETnPNS4_IXntsr3std13is_arithmeticIS5_EE5valueEvE4typeELSF_0EEEmRKS5_
Keybase:_ZN4node18SnapshotSerializer5WriteINS_8PropInfoETnPNSt4__Cr9enable_ifIXntsr3std7is_sameIT_NS3_12basic_stringIcNS3_11char_traitsIcEENS3_9allocatorIcEEEEEE5valueEvE4typeELPv0ETnPNS4_IXntsr3std13is_arithmeticIS5_EE5valueEvE4typeELSF_0EEEmRKS5_
Keybase:_ZN4node18SnapshotSerializer5WriteINS_8TickInfo13SerializeInfoETnPNSt4__Cr9enable_ifIXntsr3std7is_sameIT_NS4_12basic_stringIcNS4_11char_traitsIcEENS4_9allocatorIcEEEEEE5valueEvE4typeELPv0ETnPNS5_IXntsr3std13is_arithmeticIS6_EE5valueEvE4typeELSG_0EEEmRKS6_
Keybase:_ZN4node18SnapshotSerializer5WriteINS_8builtins13CodeCacheInfoETnPNSt4__Cr9enable_ifIXntsr3std7is_sameIT_NS4_12basic_stringIcNS4_11char_traitsIcEENS4_9allocatorIcEEEEEE5valueEvE4typeELPv0ETnPNS5_IXntsr3std13is_arithmeticIS6_EE5valueEvE4typeELSG_0EEEmRKS6_
Keybase:_ZN4node18SnapshotableObjectC2EPNS_5RealmEN2v85LocalINS3_6ObjectEEENS_18EmbedderObjectTypeE
Keybase:_ZN4node19AppendExceptionLineEPNS_11EnvironmentEN2v85LocalINS2_5ValueEEENS3_INS2_7MessageEEENS_17ErrorHandlingModeE
Keybase:_ZN4node19CompileCacheHandler11GetOrInsertEN2v85LocalINS1_6StringEEES4_NS_14CachedCodeTypeE
Keybase:_ZN4node19CompileCacheHandler13ReadCacheFileEPNS_17CompileCacheEntryE
Keybase:_ZN4node19CompileCacheHandler6EnableEPNS_11EnvironmentERKNSt4__Cr12basic_stringIcNS3_11char_traitsIcEENS3_9allocatorIcEEEE
Keybase:_ZN4node19CompileCacheHandler7PersistEv
Keybase:_ZN4node19CompileCacheHandler9MaybeSaveEPNS_17CompileCacheEntryEN2v85LocalINS3_6ModuleEEEb
Keybase:_ZN4node19CompileCacheHandler9MaybeSaveEPNS_17CompileCacheEntryEN2v85LocalINS3_8FunctionEEEb
Keybase:_ZN4node19CompileCacheHandlerC1EPNS_11EnvironmentE
Keybase:_ZN4node19CompileCacheHandlerC2EPNS_11EnvironmentE
Keybase:_ZN4node19CreateProcessObjectEPNS_5RealmE
Keybase:_ZN4node19DefineZlibConstantsEN2v85LocalINS0_6ObjectEEE
Keybase:_ZN4node19DumpNativeBacktraceEP8_IO_FILE
Keybase:_ZN4node19GetCurrentEventLoopEPN2v87IsolateE
Keybase:_ZN4node19NewFunctionTemplateEPN2v87IsolateEPFvRKNS0_20FunctionCallbackInfoINS0_5ValueEEEENS0_5LocalINS0_9SignatureEEENS0_19ConstructorBehaviorENS0_14SideEffectTypeEPKNS0_9CFunctionE
Keybase:_ZN4node19ResetSignalHandlersEv
Keybase:_ZN4node19SetIsolateUpForNodeEPN2v87IsolateE
Keybase:_ZN4node19SetIsolateUpForNodeEPN2v87IsolateERKNS_15IsolateSettingsE
Keybase:_ZN4node19TraceSigintWatchdog12HandleSigintEv
Keybase:_ZN4node19TraceSigintWatchdog15HandleInterruptEv
Keybase:_ZN4node19TraceSigintWatchdog3NewERKN2v820FunctionCallbackInfoINS1_5ValueEEE
Keybase:_ZN4node19TraceSigintWatchdog4InitEPNS_11EnvironmentEN2v85LocalINS3_6ObjectEEE
Keybase:_ZN4node19TraceSigintWatchdog4StopERKN2v820FunctionCallbackInfoINS1_5ValueEEE
Keybase:_ZN4node19TraceSigintWatchdog5StartERKN2v820FunctionCallbackInfoINS1_5ValueEEE
Keybase:_ZN4node19TraceSigintWatchdogC1EPNS_11EnvironmentEN2v85LocalINS3_6ObjectEEE
Keybase:_ZN4node19TraceSigintWatchdogC2EPNS_11EnvironmentEN2v85LocalINS3_6ObjectEEE
Keybase:_ZN4node19async_context_frame26CreatePerContextPropertiesEN2v85LocalINS1_6ObjectEEENS2_INS1_5ValueEEENS2_INS1_7ContextEEEPv
Keybase:_ZN4node19async_context_frame3setEPN2v87IsolateENS1_5LocalINS1_5ValueEEE
Keybase:_ZN4node19async_context_frame5ScopeC1EPN2v87IsolateENS2_5LocalINS2_5ValueEEE
Keybase:_ZN4node19async_context_frame5ScopeC2EPN2v87IsolateENS2_5LocalINS2_5ValueEEE
Keybase:_ZN4node19async_context_frame5ScopeD1Ev
Keybase:_ZN4node19async_context_frame5ScopeD2Ev
Keybase:_ZN4node19async_context_frame7currentEPN2v87IsolateE
Keybase:_ZN4node19async_context_frame8exchangeEPN2v87IsolateENS1_5LocalINS1_5ValueEEE
Keybase:_ZN4node19node_is_initializedE
Keybase:_ZN4node19sockaddr_for_familyEiPKctP16sockaddr_storage
Keybase:_ZN4node20ArrayBufferAllocator6CreateEb
Keybase:_ZN4node20CollectExceptionInfoEPNS_11EnvironmentEN2v85LocalINS2_6ObjectEEEiPKcS7_S7_S7_S7_
Keybase:_ZN4node20CompileSerializeMainERKN2v820FunctionCallbackInfoINS0_5ValueEEE
Keybase:_ZN4node20EmbedderSnapshotData19BuiltinSnapshotDataEv
Keybase:_ZN4node20EmbedderSnapshotData30CanUseCustomSnapshotPerIsolateEv
Keybase:_ZN4node20EmbedderSnapshotData8FromBlobENSt4__Cr17basic_string_viewIcNS1_11char_traitsIcEEEE
Keybase:_ZN4node20EmbedderSnapshotData8FromBlobERKNSt4__Cr6vectorIcNS1_9allocatorIcEEEE
Keybase:_ZN4node20EmbedderSnapshotData8FromFileEP8_IO_FILE
Keybase:_ZN4node20EmbedderSnapshotDataC1EPKNS_12SnapshotDataEb
Keybase:_ZN4node20EmbedderSnapshotDataC2EPKNS_12SnapshotDataEb
Keybase:_ZN4node20GetAnonymousMainPathEv
Keybase:_ZN4node20GetCurrentStackTraceEPN2v87IsolateEi
Keybase:_ZN4node20GetEnabledCategoriesERKN2v820FunctionCallbackInfoINS0_5ValueEEE
Keybase:_ZN4node20GetPerContextExportsEN2v85LocalINS0_7ContextEEEPNS_11IsolateDataE
Keybase:_ZN4node20GetTracingControllerEv
Keybase:_ZN4node20InternalMakeCallbackEPN2v87IsolateENS0_5LocalINS0_6ObjectEEENS3_INS0_8FunctionEEEiPNS3_INS0_5ValueEEENS_13async_contextES9_
Keybase:_ZN4node20InternalMakeCallbackEPNS_11EnvironmentEN2v85LocalINS2_6ObjectEEES5_NS3_INS2_8FunctionEEEiPNS3_INS2_5ValueEEENS_13async_contextES9_
Keybase:_ZN4node20IsExceptionDecoratedEPNS_11EnvironmentEN2v85LocalINS2_5ValueEEE
Keybase:_ZN4node20MultiIsolatePlatform6CreateEiPN2v817TracingControllerEPNS1_13PageAllocatorE
Keybase:_ZN4node20PrintCaughtExceptionEPN2v87IsolateENS0_5LocalINS0_7ContextEEERKNS0_8TryCatchE
Keybase:_ZN4node20SetSerializeCallbackERKN2v820FunctionCallbackInfoINS0_5ValueEEE
Keybase:_ZN4node20SetTracingControllerEPN2v817TracingControllerE
Keybase:_ZN4node20SigintWatchdogHelper10UnregisterEPNS_18SigintWatchdogBaseE
Keybase:_ZN4node20SigintWatchdogHelper12HandleSignalEiP9siginfo_tPv
Keybase:_ZN4node20SigintWatchdogHelper16HasPendingSignalEv
Keybase:_ZN4node20SigintWatchdogHelper17RunSigintWatchdogEPv
Keybase:_ZN4node20SigintWatchdogHelper22instance_action_mutex_E
Keybase:_ZN4node20SigintWatchdogHelper26InformWatchdogsAboutSignalEv
Keybase:_ZN4node20SigintWatchdogHelper4StopEv
Keybase:_ZN4node20SigintWatchdogHelper5StartEv
Keybase:_ZN4node20SigintWatchdogHelper8RegisterEPNS_18SigintWatchdogBaseE
Keybase:_ZN4node20SigintWatchdogHelper8instanceE
Keybase:_ZN4node20SigintWatchdogHelperC1Ev
Keybase:_ZN4node20SigintWatchdogHelperC2Ev
Keybase:_ZN4node20SigintWatchdogHelperD1Ev
Keybase:_ZN4node20SigintWatchdogHelperD2Ev
Keybase:_ZN4node20SnapshotDeserializer4ReadIN2v811StartupDataETnPNSt4__Cr9enable_ifIXntsr3std7is_sameIT_NS4_12basic_stringIcNS4_11char_traitsIcEENS4_9allocatorIcEEEEEE5valueEvE4typeELPv0ETnPNS5_IXntsr3std13is_arithmeticIS6_EE5valueEvE4typeELSG_0EEES6_v
Keybase:_ZN4node20SnapshotDeserializer4ReadINS_10AsyncHooks13SerializeInfoETnPNSt4__Cr9enable_ifIXntsr3std7is_sameIT_NS4_12basic_stringIcNS4_11char_traitsIcEENS4_9allocatorIcEEEEEE5valueEvE4typeELPv0ETnPNS5_IXntsr3std13is_arithmeticIS6_EE5valueEvE4typeELSG_0EEES6_v
Keybase:_ZN4node20SnapshotDeserializer4ReadINS_11performance16PerformanceState13SerializeInfoETnPNSt4__Cr9enable_ifIXntsr3std7is_sameIT_NS5_12basic_stringIcNS5_11char_traitsIcEENS5_9allocatorIcEEEEEE5valueEvE4typeELPv0ETnPNS6_IXntsr3std13is_arithmeticIS7_EE5valueEvE4typeELSH_0EEES7_v
Keybase:_ZN4node20SnapshotDeserializer4ReadINS_13ImmediateInfo13SerializeInfoETnPNSt4__Cr9enable_ifIXntsr3std7is_sameIT_NS4_12basic_stringIcNS4_11char_traitsIcEENS4_9allocatorIcEEEEEE5valueEvE4typeELPv0ETnPNS5_IXntsr3std13is_arithmeticIS6_EE5valueEvE4typeELSG_0EEES6_v
Keybase:_ZN4node20SnapshotDeserializer4ReadINS_16EnvSerializeInfoETnPNSt4__Cr9enable_ifIXntsr3std7is_sameIT_NS3_12basic_stringIcNS3_11char_traitsIcEENS3_9allocatorIcEEEEEE5valueEvE4typeELPv0ETnPNS4_IXntsr3std13is_arithmeticIS5_EE5valueEvE4typeELSF_0EEES5_v
Keybase:_ZN4node20SnapshotDeserializer4ReadINS_16SnapshotMetadataETnPNSt4__Cr9enable_ifIXntsr3std7is_sameIT_NS3_12basic_stringIcNS3_11char_traitsIcEENS3_9allocatorIcEEEEEE5valueEvE4typeELPv0ETnPNS4_IXntsr3std13is_arithmeticIS5_EE5valueEvE4typeELSF_0EEES5_v
Keybase:_ZN4node20SnapshotDeserializer4ReadINS_18RealmSerializeInfoETnPNSt4__Cr9enable_ifIXntsr3std7is_sameIT_NS3_12basic_stringIcNS3_11char_traitsIcEENS3_9allocatorIcEEEEEE5valueEvE4typeELPv0ETnPNS4_IXntsr3std13is_arithmeticIS5_EE5valueEvE4typeELSF_0EEES5_v
Keybase:_ZN4node20SnapshotDeserializer4ReadINS_24IsolateDataSerializeInfoETnPNSt4__Cr9enable_ifIXntsr3std7is_sameIT_NS3_12basic_stringIcNS3_11char_traitsIcEENS3_9allocatorIcEEEEEE5valueEvE4typeELPv0ETnPNS4_IXntsr3std13is_arithmeticIS5_EE5valueEvE4typeELSF_0EEES5_v
Keybase:_ZN4node20SnapshotDeserializer4ReadINS_8PropInfoETnPNSt4__Cr9enable_ifIXntsr3std7is_sameIT_NS3_12basic_stringIcNS3_11char_traitsIcEENS3_9allocatorIcEEEEEE5valueEvE4typeELPv0ETnPNS4_IXntsr3std13is_arithmeticIS5_EE5valueEvE4typeELSF_0EEES5_v
Keybase:_ZN4node20SnapshotDeserializer4ReadINS_8TickInfo13SerializeInfoETnPNSt4__Cr9enable_ifIXntsr3std7is_sameIT_NS4_12basic_stringIcNS4_11char_traitsIcEENS4_9allocatorIcEEEEEE5valueEvE4typeELPv0ETnPNS5_IXntsr3std13is_arithmeticIS6_EE5valueEvE4typeELSG_0EEES6_v
Keybase:_ZN4node20SnapshotDeserializer4ReadINS_8builtins13CodeCacheInfoETnPNSt4__Cr9enable_ifIXntsr3std7is_sameIT_NS4_12basic_stringIcNS4_11char_traitsIcEENS4_9allocatorIcEEEEEE5valueEvE4typeELPv0ETnPNS5_IXntsr3std13is_arithmeticIS6_EE5valueEvE4typeELSG_0EEES6_v
Keybase:_ZN4node20SyncProcessStdioPipe10InitializeEP9uv_loop_s
Keybase:_ZN4node20SyncProcessStdioPipe12ReadCallbackEP11uv_stream_slPK8uv_buf_t
Keybase:_ZN4node20SyncProcessStdioPipe13AllocCallbackEP11uv_handle_smP8uv_buf_t
Keybase:_ZN4node20SyncProcessStdioPipe13CloseCallbackEP11uv_handle_s
Keybase:_ZN4node20SyncProcessStdioPipe13WriteCallbackEP10uv_write_si
Keybase:_ZN4node20SyncProcessStdioPipe16ShutdownCallbackEP13uv_shutdown_si
Keybase:_ZN4node20SyncProcessStdioPipe5CloseEv
Keybase:_ZN4node20SyncProcessStdioPipe5StartEv
Keybase:_ZN4node20SyncProcessStdioPipeC1EPNS_17SyncProcessRunnerEbb8uv_buf_t
Keybase:_ZN4node20SyncProcessStdioPipeC2EPNS_17SyncProcessRunnerEbb8uv_buf_t
Keybase:_ZN4node20SyncProcessStdioPipeD1Ev
Keybase:_ZN4node20SyncProcessStdioPipeD2Ev
Keybase:_ZN4node21CallbackInfoFromArrayEN2v85LocalINS0_7ContextEEENS1_INS0_5ValueEEE
Keybase:_ZN4node21EmitProcessBeforeExitEPNS_11EnvironmentE
Keybase:_ZN4node21FormatCaughtExceptionEPN2v87IsolateENS0_5LocalINS0_7ContextEEENS3_INS0_5ValueEEENS3_INS0_7MessageEEEb
Keybase:_ZN4node21FormatCaughtExceptionEPN2v87IsolateENS0_5LocalINS0_7ContextEEERKNS0_8TryCatchE
Keybase:_ZN4node21GetCurrentEnvironmentEN2v85LocalINS0_7ContextEEE
Keybase:_ZN4node21GetTraceEnvVarOptionsEPNS_11EnvironmentE
Keybase:_ZN4node21InitializePrimordialsEN2v85LocalINS0_7ContextEEEPNS_11IsolateDataE
Keybase:_ZN4node21InternalCallbackScope5CloseEv
Keybase:_ZN4node21InternalCallbackScopeC1EPNS_11EnvironmentENSt4__Cr7variantIJN2v85LocalINS5_6ObjectEEEPS8_EEERKNS_13async_contextEiNS6_INS5_5ValueEEE
Keybase:_ZN4node21InternalCallbackScopeC1EPNS_9AsyncWrapEi
Keybase:_ZN4node21InternalCallbackScopeC2EPNS_11EnvironmentENSt4__Cr7variantIJN2v85LocalINS5_6ObjectEEEPS8_EEERKNS_13async_contextEiNS6_INS5_5ValueEEE
Keybase:_ZN4node21InternalCallbackScopeC2EPNS_9AsyncWrapEi
Keybase:_ZN4node21InternalCallbackScopeD1Ev
Keybase:_ZN4node21InternalCallbackScopeD2Ev
Keybase:_ZN4node21LowMemoryNotificationEv
Keybase:_ZN4node21PromiseRejectCallbackEN2v820PromiseRejectMessageE
Keybase:_ZN4node21RegisterSignalHandlerEiPFviP9siginfo_tPvEb
Keybase:_ZN4node21SetMethodNoSideEffectEN2v85LocalINS0_7ContextEEENS1_INS0_6ObjectEEENSt4__Cr17basic_string_viewIcNS6_11char_traitsIcEEEEPFvRKNS0_20FunctionCallbackInfoINS0_5ValueEEEE
Keybase:_ZN4node21SetMethodNoSideEffectEPN2v87IsolateENS0_5LocalINS0_8TemplateEEENSt4__Cr17basic_string_viewIcNS6_11char_traitsIcEEEEPFvRKNS0_20FunctionCallbackInfoINS0_5ValueEEEE
Keybase:_ZN4node21SetProcessExitHandlerEPNS_11EnvironmentEONSt4__Cr8functionIFvS1_NS_8ExitCodeEEEE
Keybase:_ZN4node21SetProcessExitHandlerEPNS_11EnvironmentEONSt4__Cr8functionIFvS1_iEEE
Keybase:_ZN4node21SpinEventLoopInternalEPNS_11EnvironmentE
Keybase:_ZN4node21ThrowErrStringTooLongEPN2v87IsolateE
Keybase:_ZN4node21experimental_warningsE
Keybase:_ZN4node22CommonEnvironmentSetup14CreateSnapshotEv
Keybase:_ZN4node22CommonEnvironmentSetup16snapshot_creatorEv
Keybase:_ZN4node22CommonEnvironmentSetup21CreateForSnapshottingEPNS_20MultiIsolatePlatformEPNSt4__Cr6vectorINS3_12basic_stringIcNS3_11char_traitsIcEENS3_9allocatorIcEEEENS8_ISA_EEEERKSC_SF_RKNS_14SnapshotConfigE
Keybase:_ZN4node22CommonEnvironmentSetupC1EPNS_20MultiIsolatePlatformEPNSt4__Cr6vectorINS3_12basic_stringIcNS3_11char_traitsIcEENS3_9allocatorIcEEEENS8_ISA_EEEENS3_8functionIFPNS_11EnvironmentEPKS0_EEE
Keybase:_ZN4node22CommonEnvironmentSetupC1EPNS_20MultiIsolatePlatformEPNSt4__Cr6vectorINS3_12basic_stringIcNS3_11char_traitsIcEENS3_9allocatorIcEEEENS8_ISA_EEEEPKNS_20EmbedderSnapshotDataEjNS3_8functionIFPNS_11EnvironmentEPKS0_EEEPKNS_14SnapshotConfigE
Keybase:_ZN4node22CommonEnvironmentSetupC2EPNS_20MultiIsolatePlatformEPNSt4__Cr6vectorINS3_12basic_stringIcNS3_11char_traitsIcEENS3_9allocatorIcEEEENS8_ISA_EEEENS3_8functionIFPNS_11EnvironmentEPKS0_EEE
Keybase:_ZN4node22CommonEnvironmentSetupC2EPNS_20MultiIsolatePlatformEPNSt4__Cr6vectorINS3_12basic_stringIcNS3_11char_traitsIcEENS3_9allocatorIcEEEENS8_ISA_EEEEPKNS_20EmbedderSnapshotDataEjNS3_8functionIFPNS_11EnvironmentEPKS0_EEEPKNS_14SnapshotConfigE
Keybase:_ZN4node22CommonEnvironmentSetupD1Ev
Keybase:_ZN4node22CommonEnvironmentSetupD2Ev
Keybase:_ZN4node22CreateEnvProxyTemplateEPNS_11IsolateDataE
Keybase:_ZN4node22CustomBufferJSListener12OnStreamReadElRK8uv_buf_t
Keybase:_ZN4node22CustomBufferJSListener13OnStreamAllocEm
Keybase:_ZN4node22EmitToJSStreamListener12OnStreamReadElRK8uv_buf_t
Keybase:_ZN4node22EmitToJSStreamListener13OnStreamAllocEm
Keybase:_ZN4node22InitializeNodeWithArgsEPNSt4__Cr6vectorINS0_12basic_stringIcNS0_11char_traitsIcEENS0_9allocatorIcEEEENS5_IS7_EEEESA_SA_NS_26ProcessInitializationFlags5FlagsE
Keybase:_ZN4node22ParseNodeOptionsEnvVarERKNSt4__Cr12basic_stringIcNS0_11char_traitsIcEENS0_9allocatorIcEEEEPNS0_6vectorIS6_NS4_IS6_EEEE
Keybase:_ZN4node22PerIsolatePlatformData10FlushTasksEP10uv_async_s
Keybase:_ZN4node22PerIsolatePlatformData12PostTaskImplENSt4__Cr10unique_ptrIN2v84TaskENS1_14default_deleteIS4_EEEERKNS3_14SourceLocationE
Keybase:_ZN4node22PerIsolatePlatformData16PostIdleTaskImplENSt4__Cr10unique_ptrIN2v88IdleTaskENS1_14default_deleteIS4_EEEERKNS3_14SourceLocationE
Keybase:_ZN4node22PerIsolatePlatformData17RunForegroundTaskENSt4__Cr10unique_ptrIN2v84TaskENS1_14default_deleteIS4_EEEE
Keybase:_ZN4node22PerIsolatePlatformData17RunForegroundTaskEP10uv_timer_s
Keybase:_ZN4node22PerIsolatePlatformData19AddShutdownCallbackEPFvPvES1_
Keybase:_ZN4node22PerIsolatePlatformData19DecreaseHandleCountEv
Keybase:_ZN4node22PerIsolatePlatformData19PostDelayedTaskImplENSt4__Cr10unique_ptrIN2v84TaskENS1_14default_deleteIS4_EEEEdRKNS3_14SourceLocationE
Keybase:_ZN4node22PerIsolatePlatformData23GetForegroundTaskRunnerEv
Keybase:_ZN4node22PerIsolatePlatformData23PostNonNestableTaskImplENSt4__Cr10unique_ptrIN2v84TaskENS1_14default_deleteIS4_EEEERKNS3_14SourceLocationE
Keybase:_ZN4node22PerIsolatePlatformData24DeleteFromScheduledTasksEPNS_11DelayedTaskE
Keybase:_ZN4node22PerIsolatePlatformData28FlushForegroundTasksInternalEv
Keybase:_ZN4node22PerIsolatePlatformData30PostNonNestableDelayedTaskImplENSt4__Cr10unique_ptrIN2v84TaskENS1_14default_deleteIS4_EEEEdRKNS3_14SourceLocationE
Keybase:_ZN4node22PerIsolatePlatformData8ShutdownEv
Keybase:_ZN4node22PerIsolatePlatformDataC1EPN2v87IsolateEP9uv_loop_sNS_21PlatformDebugLogLevelE
Keybase:_ZN4node22PerIsolatePlatformDataC2EPN2v87IsolateEP9uv_loop_sNS_21PlatformDebugLogLevelE
Keybase:_ZN4node22PerIsolatePlatformDataD0Ev
Keybase:_ZN4node22PerIsolatePlatformDataD1Ev
Keybase:_ZN4node22PerIsolatePlatformDataD2Ev
Keybase:_ZN4node22PrintCurrentStackTraceEPN2v87IsolateENS_16StackTracePrefixE
Keybase:_ZN4node22ProcessEmitWarningSyncEPNS_11EnvironmentENSt4__Cr17basic_string_viewIcNS2_11char_traitsIcEEEE
Keybase:_ZN4node22SetConstructorFunctionEN2v85LocalINS0_7ContextEEENS1_INS0_6ObjectEEENS1_INS0_6StringEEENS1_INS0_16FunctionTemplateEEENS_26SetConstructorFunctionFlagE
Keybase:_ZN4node22SetConstructorFunctionEN2v85LocalINS0_7ContextEEENS1_INS0_6ObjectEEEPKcNS1_INS0_16FunctionTemplateEEENS_26SetConstructorFunctionFlagE
Keybase:_ZN4node22SetConstructorFunctionEPN2v87IsolateENS0_5LocalINS0_8TemplateEEENS3_INS0_6StringEEENS3_INS0_16FunctionTemplateEEENS_26SetConstructorFunctionFlagE
Keybase:_ZN4node22SetConstructorFunctionEPN2v87IsolateENS0_5LocalINS0_8TemplateEEEPKcNS3_INS0_16FunctionTemplateEEENS_26SetConstructorFunctionFlagE
Keybase:_ZN4node22SetDeserializeCallbackERKN2v820FunctionCallbackInfoINS0_5ValueEEE
Keybase:_ZN4node22SetIsolateMiscHandlersEPN2v87IsolateERKNS_15IsolateSettingsE
Keybase:_ZN4node22SocketAddressBlockList16AddSocketAddressERKNSt4__Cr10shared_ptrINS_13SocketAddressEEE
Keybase:_ZN4node22SocketAddressBlockList17SocketAddressRule5ApplyERKNSt4__Cr10shared_ptrINS_13SocketAddressEEE
Keybase:_ZN4node22SocketAddressBlockList17SocketAddressRule8ToStringEv
Keybase:_ZN4node22SocketAddressBlockList17SocketAddressRuleC1ERKNSt4__Cr10shared_ptrINS_13SocketAddressEEE
Keybase:_ZN4node22SocketAddressBlockList17SocketAddressRuleC2ERKNSt4__Cr10shared_ptrINS_13SocketAddressEEE
Keybase:_ZN4node22SocketAddressBlockList19RemoveSocketAddressERKNSt4__Cr10shared_ptrINS_13SocketAddressEEE
Keybase:_ZN4node22SocketAddressBlockList20AddSocketAddressMaskERKNSt4__Cr10shared_ptrINS_13SocketAddressEEEi
Keybase:_ZN4node22SocketAddressBlockList21AddSocketAddressRangeERKNSt4__Cr10shared_ptrINS_13SocketAddressEEES6_
Keybase:_ZN4node22SocketAddressBlockList21SocketAddressMaskRule5ApplyERKNSt4__Cr10shared_ptrINS_13SocketAddressEEE
Keybase:_ZN4node22SocketAddressBlockList21SocketAddressMaskRule8ToStringEv
Keybase:_ZN4node22SocketAddressBlockList21SocketAddressMaskRuleC1ERKNSt4__Cr10shared_ptrINS_13SocketAddressEEEi
Keybase:_ZN4node22SocketAddressBlockList21SocketAddressMaskRuleC2ERKNSt4__Cr10shared_ptrINS_13SocketAddressEEEi
Keybase:_ZN4node22SocketAddressBlockList22SocketAddressRangeRule5ApplyERKNSt4__Cr10shared_ptrINS_13SocketAddressEEE
Keybase:_ZN4node22SocketAddressBlockList22SocketAddressRangeRule8ToStringEv
Keybase:_ZN4node22SocketAddressBlockList22SocketAddressRangeRuleC1ERKNSt4__Cr10shared_ptrINS_13SocketAddressEEES7_
Keybase:_ZN4node22SocketAddressBlockList22SocketAddressRangeRuleC2ERKNSt4__Cr10shared_ptrINS_13SocketAddressEEES7_
Keybase:_ZN4node22SocketAddressBlockList5ApplyERKNSt4__Cr10shared_ptrINS_13SocketAddressEEE
Keybase:_ZN4node22SocketAddressBlockList9ListRulesEPNS_11EnvironmentE
Keybase:_ZN4node22SocketAddressBlockList9ListRulesEPNS_11EnvironmentEPN2v811LocalVectorINS3_5ValueEEE
Keybase:_ZN4node22SocketAddressBlockListC1ENSt4__Cr10shared_ptrIS0_EE
Keybase:_ZN4node22SocketAddressBlockListC2ENSt4__Cr10shared_ptrIS0_EE
Keybase:_ZN4node22TearDownOncePerProcessEv
Keybase:_ZN4node23DumpJavaScriptBacktraceEP8_IO_FILE
Keybase:_ZN4node23EmitProcessExitInternalEPNS_11EnvironmentE
Keybase:_ZN4node23GetArrayBufferAllocatorEPNS_11IsolateDataE
Keybase:_ZN4node23GetMultiIsolatePlatformEPNS_11EnvironmentE
Keybase:_ZN4node23GetMultiIsolatePlatformEPNS_11IsolateDataE
Keybase:_ZN4node23IsConstructCallCallbackERKN2v820FunctionCallbackInfoINS0_5ValueEEE
Keybase:_ZN4node23SetIsolateErrorHandlersEPN2v87IsolateERKNS_15IsolateSettingsE
Keybase:_ZN4node23WorkerThreadsTaskRunner13BlockingDrainEv
Keybase:_ZN4node23WorkerThreadsTaskRunner15PostDelayedTaskENSt4__Cr10unique_ptrIN2v84TaskENS1_14default_deleteIS4_EEEEd
Keybase:_ZN4node23WorkerThreadsTaskRunner8PostTaskENSt4__Cr10unique_ptrIN2v84TaskENS1_14default_deleteIS4_EEEE
Keybase:_ZN4node23WorkerThreadsTaskRunner8ShutdownEv
Keybase:_ZN4node23WorkerThreadsTaskRunnerC1EiNS_21PlatformDebugLogLevelE
Keybase:_ZN4node23WorkerThreadsTaskRunnerC2EiNS_21PlatformDebugLogLevelE
Keybase:_ZN4node24FreeArrayBufferAllocatorEPNS_20ArrayBufferAllocatorE
Keybase:_ZN4node24GetInspectorParentHandleEPNS_11EnvironmentENS_8ThreadIdENSt4__Cr17basic_string_viewIcNS3_11char_traitsIcEEEES7_
Keybase:_ZN4node24GetInspectorParentHandleEPNS_11EnvironmentENS_8ThreadIdEPKc
Keybase:_ZN4node24GetInspectorParentHandleEPNS_11EnvironmentENS_8ThreadIdEPKcS4_
Keybase:_ZN4node24InitializeContextRuntimeEN2v85LocalINS0_7ContextEEE
Keybase:_ZN4node24InitializeOncePerProcessERKNSt4__Cr6vectorINS0_12basic_stringIcNS0_11char_traitsIcEENS0_9allocatorIcEEEENS5_IS7_EEEENS_26ProcessInitializationFlags5FlagsE
Keybase:_ZN4node24InitializePrivateSymbolsEN2v85LocalINS0_7ContextEEEPNS_11IsolateDataE
Keybase:_ZN4node24NodeArrayBufferAllocator21AllocateUninitializedEm
Keybase:_ZN4node24NodeArrayBufferAllocator4FreeEPvm
Keybase:_ZN4node24NodeArrayBufferAllocator8AllocateEm
Keybase:_ZN4node24NodeArrayBufferAllocatorC1Ev
Keybase:_ZN4node24NodeArrayBufferAllocatorC2Ev
Keybase:_ZN4node24NodeArrayBufferAllocatorD0Ev
Keybase:_ZN4node24NodeArrayBufferAllocatorD1Ev
Keybase:_ZN4node24NodeArrayBufferAllocatorD2Ev
Keybase:_ZN4node24SerializeNodeContextDataEN2v85LocalINS0_7ContextEEEiPv
Keybase:_ZN4node25AddEnvironmentCleanupHookEPN2v87IsolateEPFvPvES3_
Keybase:_ZN4node25DefaultProcessExitHandlerEPNS_11EnvironmentEi
Keybase:_ZN4node25ExternalReferenceRegistry19external_referencesEv
Keybase:_ZN4node25ExternalReferenceRegistryC1Ev
Keybase:_ZN4node25ExternalReferenceRegistryC2Ev
Keybase:_ZN4node25GetEnvironmentIsolateDataEPNS_11EnvironmentE
Keybase:_ZN4node25MapStaticCodeToLargePagesEv
Keybase:_ZN4node25PrepareStackTraceCallbackEN2v85LocalINS0_7ContextEEENS1_INS0_5ValueEEENS1_INS0_5ArrayEEE
Keybase:_ZN4node25ProcessEmitWarningGenericEPNS_11EnvironmentENSt4__Cr17basic_string_viewIcNS2_11char_traitsIcEEEES6_S6_
Keybase:_ZN4node25SetFastMethodNoSideEffectEN2v85LocalINS0_7ContextEEENS1_INS0_6ObjectEEENSt4__Cr17basic_string_viewIcNS6_11char_traitsIcEEEEPFvRKNS0_20FunctionCallbackInfoINS0_5ValueEEEEPKNS0_9CFunctionE
Keybase:_ZN4node25SetFastMethodNoSideEffectEPN2v87IsolateENS0_5LocalINS0_8TemplateEEENSt4__Cr17basic_string_viewIcNS6_11char_traitsIcEEEEPFvRKNS0_20FunctionCallbackInfoINS0_5ValueEEEEPKNS0_9CFunctionE
Keybase:_ZN4node25SetFastMethodNoSideEffectEPN2v87IsolateENS0_5LocalINS0_8TemplateEEENSt4__Cr17basic_string_viewIcNS6_11char_traitsIcEEEEPFvRKNS0_20FunctionCallbackInfoINS0_5ValueEEEERKNS0_10MemorySpanIKNS0_9CFunctionEEE
Keybase:_ZN4node25TrapWebAssemblyOrContinueEiP9siginfo_tPv
Keybase:_ZN4node26BuildCodeCacheFromSnapshotEPNS_12SnapshotDataERKNSt4__Cr6vectorINS2_12basic_stringIcNS2_11char_traitsIcEENS2_9allocatorIcEEEENS7_IS9_EEEESD_
Keybase:_ZN4node26CreateArrayBufferAllocatorEv
Keybase:_ZN4node26DecreaseSignalHandlerCountEi
Keybase:_ZN4node26DeserializeNodeContextDataEN2v85LocalINS0_7ContextEEEiNS0_11StartupDataEPv
Keybase:_ZN4node26DetermineSpecificErrorTypeEPNS_11EnvironmentEN2v85LocalINS2_5ValueEEE
Keybase:_ZN4node26RAIIIsolateWithoutEnteringC1EPKNS_12SnapshotDataE
Keybase:_ZN4node26RAIIIsolateWithoutEnteringC2EPKNS_12SnapshotDataE
Keybase:_ZN4node26RAIIIsolateWithoutEnteringD1Ev
Keybase:_ZN4node26RAIIIsolateWithoutEnteringD2Ev
Keybase:_ZN4node26SetDeserializeMainFunctionERKN2v820FunctionCallbackInfoINS0_5ValueEEE
Keybase:_ZN4node26SetProtoMethodNoSideEffectEPN2v87IsolateENS0_5LocalINS0_16FunctionTemplateEEENSt4__Cr17basic_string_viewIcNS6_11char_traitsIcEEEEPFvRKNS0_20FunctionCallbackInfoINS0_5ValueEEEE
Keybase:_ZN4node26SocketAddressBlockListWrap10AddAddressERKN2v820FunctionCallbackInfoINS1_5ValueEEE
Keybase:_ZN4node26SocketAddressBlockListWrap10InitializeEN2v85LocalINS1_6ObjectEEENS2_INS1_5ValueEEENS2_INS1_7ContextEEEPv
Keybase:_ZN4node26SocketAddressBlockListWrap11HasInstanceEPNS_11EnvironmentEN2v85LocalINS3_5ValueEEE
Keybase:_ZN4node26SocketAddressBlockListWrap12TransferData11DeserializeEPNS_11EnvironmentEN2v85LocalINS4_7ContextEEENSt4__Cr10unique_ptrINS_6worker12TransferDataENS8_14default_deleteISB_EEEE
Keybase:_ZN4node26SocketAddressBlockListWrap22GetConstructorTemplateEPNS_11EnvironmentE
Keybase:_ZN4node26SocketAddressBlockListWrap3NewEPNS_11EnvironmentE
Keybase:_ZN4node26SocketAddressBlockListWrap3NewEPNS_11EnvironmentENSt4__Cr10shared_ptrINS_22SocketAddressBlockListEEE
Keybase:_ZN4node26SocketAddressBlockListWrap3NewERKN2v820FunctionCallbackInfoINS1_5ValueEEE
Keybase:_ZN4node26SocketAddressBlockListWrap5CheckERKN2v820FunctionCallbackInfoINS1_5ValueEEE
Keybase:_ZN4node26SocketAddressBlockListWrap8AddRangeERKN2v820FunctionCallbackInfoINS1_5ValueEEE
Keybase:_ZN4node26SocketAddressBlockListWrap8GetRulesERKN2v820FunctionCallbackInfoINS1_5ValueEEE
Keybase:_ZN4node26SocketAddressBlockListWrap9AddSubnetERKN2v820FunctionCallbackInfoINS1_5ValueEEE
Keybase:_ZN4node26SocketAddressBlockListWrapC1EPNS_11EnvironmentEN2v85LocalINS3_6ObjectEEENSt4__Cr10shared_ptrINS_22SocketAddressBlockListEEE
Keybase:_ZN4node26SocketAddressBlockListWrapC2EPNS_11EnvironmentEN2v85LocalINS3_6ObjectEEENSt4__Cr10shared_ptrINS_22SocketAddressBlockListEEE
Keybase:_ZN4node26TrackingTraceStateObserver24UpdateTraceCategoryStateEv
Keybase:_ZN4node26napi_module_to_node_moduleEPK11napi_module
Keybase:_ZN4node27AllocateEnvironmentThreadIdEv
Keybase:_ZN4node27AsyncHooksGetTriggerAsyncIdEPN2v87IsolateE
Keybase:_ZN4node27GetHumanReadableProcessNameEv
Keybase:_ZN4node27InitializePerIsolateSymbolsEN2v85LocalINS0_7ContextEEEPNS_11IsolateDataE
Keybase:_ZN4node27PrintLibuvHandleInformationEP9uv_loop_sP8_IO_FILE
Keybase:_ZN4node28GenerateAndWriteSnapshotDataEPPKNS_12SnapshotDataEPKNS_24InitializationResultImplE
Keybase:_ZN4node28GetCurrentTimeInMicrosecondsEv
Keybase:_ZN4node28NativeSymbolDebuggingContext18GetLoadedLibrariesEv
Keybase:_ZN4node28NativeSymbolDebuggingContext3NewEv
Keybase:_ZN4node28RemoveEnvironmentCleanupHookEPN2v87IsolateEPFvPvES3_
Keybase:_ZN4node28SerializeSnapshotableObjectsEPNS_5RealmEPN2v815SnapshotCreatorEPNS_18RealmSerializeInfoE
Keybase:_ZN4node29AsyncHooksGetExecutionAsyncIdEN2v85LocalINS0_7ContextEEE
Keybase:_ZN4node29AsyncHooksGetExecutionAsyncIdEPN2v87IsolateE
Keybase:_ZN4node29BuildSnapshotWithoutCodeCacheEPNS_12SnapshotDataERKNSt4__Cr6vectorINS2_12basic_stringIcNS2_11char_traitsIcEENS2_9allocatorIcEEEENS7_IS9_EEEESD_NS2_8optionalINS2_17basic_string_viewIcS6_EEEERKNS_14SnapshotConfigE
Keybase:_ZN4node29DebuggingArrayBufferAllocator15RegisterPointerEPvm
Keybase:_ZN4node29DebuggingArrayBufferAllocator17UnregisterPointerEPvm
Keybase:_ZN4node29DebuggingArrayBufferAllocator21AllocateUninitializedEm
Keybase:_ZN4node29DebuggingArrayBufferAllocator23RegisterPointerInternalEPvm
Keybase:_ZN4node29DebuggingArrayBufferAllocator25UnregisterPointerInternalEPvm
Keybase:_ZN4node29DebuggingArrayBufferAllocator4FreeEPvm
Keybase:_ZN4node29DebuggingArrayBufferAllocator8AllocateEm
Keybase:_ZN4node29DebuggingArrayBufferAllocatorD0Ev
Keybase:_ZN4node29DebuggingArrayBufferAllocatorD1Ev
Keybase:_ZN4node29DebuggingArrayBufferAllocatorD2Ev
Keybase:_ZN4node29DeserializeNodeInternalFieldsEN2v85LocalINS0_6ObjectEEEiNS0_11StartupDataEPv
Keybase:_ZN4node29ProcessEmitDeprecationWarningEPNS_11EnvironmentERKNSt4__Cr12basic_stringIcNS2_11char_traitsIcEENS2_9allocatorIcEEEENS2_17basic_string_viewIcS5_EE
Keybase:_ZN4node29SetIsolateCreateParamsForNodeEPN2v87Isolate12CreateParamsE
Keybase:_ZN4node2fs10FileHandle10AfterCloseEv
Keybase:_ZN4node2fs10FileHandle10DoShutdownEPNS_12ShutdownWrapE
Keybase:_ZN4node2fs10FileHandle12ClosePromiseEv
Keybase:_ZN4node2fs10FileHandle12TransferData11DeserializeEPNS_11EnvironmentEN2v85LocalINS5_7ContextEEENSt4__Cr10unique_ptrINS_6worker12TransferDataENS9_14default_deleteISC_EEEE
Keybase:_ZN4node2fs10FileHandle12TransferDataC1Ei
Keybase:_ZN4node2fs10FileHandle12TransferDataC2Ei
Keybase:_ZN4node2fs10FileHandle12TransferDataD0Ev
Keybase:_ZN4node2fs10FileHandle12TransferDataD1Ev
Keybase:_ZN4node2fs10FileHandle12TransferDataD2Ev
Keybase:_ZN4node2fs10FileHandle18CreateShutdownWrapEN2v85LocalINS2_6ObjectEEE
Keybase:_ZN4node2fs10FileHandle20TransferForMessagingEv
Keybase:_ZN4node2fs10FileHandle3NewEPNS0_11BindingDataEiN2v85LocalINS4_6ObjectEEENSt4__Cr8optionalIlEESA_
Keybase:_ZN4node2fs10FileHandle3NewERKN2v820FunctionCallbackInfoINS2_5ValueEEE
Keybase:_ZN4node2fs10FileHandle5CloseERKN2v820FunctionCallbackInfoINS2_5ValueEEE
Keybase:_ZN4node2fs10FileHandle7DoWriteEPNS_9WriteWrapEP8uv_buf_tmP11uv_stream_s
Keybase:_ZN4node2fs10FileHandle7ReleaseEv
Keybase:_ZN4node2fs10FileHandle8CloseReq11file_handleEv
Keybase:_ZN4node2fs10FileHandle8CloseReq6RejectEN2v85LocalINS3_5ValueEEE
Keybase:_ZN4node2fs10FileHandle8CloseReq7ResolveEv
Keybase:_ZN4node2fs10FileHandle8CloseReqC1EPNS_11EnvironmentEN2v85LocalINS5_6ObjectEEENS6_INS5_7PromiseEEENS6_INS5_5ValueEEE
Keybase:_ZN4node2fs10FileHandle8CloseReqC2EPNS_11EnvironmentEN2v85LocalINS5_6ObjectEEENS6_INS5_7PromiseEEENS6_INS5_5ValueEEE
Keybase:_ZN4node2fs10FileHandle8CloseReqD0Ev
Keybase:_ZN4node2fs10FileHandle8CloseReqD1Ev
Keybase:_ZN4node2fs10FileHandle8CloseReqD2Ev
Keybase:_ZN4node2fs10FileHandle8ReadStopEv
Keybase:_ZN4node2fs10FileHandle9ReadStartEv
Keybase:_ZN4node2fs10FileHandle9ReleaseFDERKN2v820FunctionCallbackInfoINS2_5ValueEEE
Keybase:_ZN4node2fs10FileHandleC1EPNS0_11BindingDataEN2v85LocalINS4_6ObjectEEEi
Keybase:_ZN4node2fs10FileHandleC2EPNS0_11BindingDataEN2v85LocalINS4_6ObjectEEEi
Keybase:_ZN4node2fs10FileHandleD0Ev
Keybase:_ZN4node2fs10FileHandleD1Ev
Keybase:_ZN4node2fs10FileHandleD2Ev
Keybase:_ZN4node2fs10MKDirpSyncEP9uv_loop_sP7uv_fs_sRKNSt4__Cr12basic_stringIcNS5_11char_traitsIcEENS5_9allocatorIcEEEEiPFvS4_E
Keybase:_ZN4node2fs11AfterMkdirpEP7uv_fs_s
Keybase:_ZN4node2fs11AfterNoArgsEP7uv_fs_s
Keybase:_ZN4node2fs11AfterStatFsEP7uv_fs_s
Keybase:_ZN4node2fs11BindingData11DeserializeEN2v85LocalINS2_7ContextEEENS3_INS2_6ObjectEEEiPNS_21InternalFieldInfoBaseE
Keybase:_ZN4node2fs11BindingData14FilePathIsFileEPNS_11EnvironmentERKNSt4__Cr12basic_stringIcNS4_11char_traitsIcEENS4_9allocatorIcEEEEN2v85LocalINSD_8FunctionEEE
Keybase:_ZN4node2fs11BindingData17LegacyMainResolveERKN2v820FunctionCallbackInfoINS2_5ValueEEE
Keybase:_ZN4node2fs11BindingData23PrepareForSerializationEN2v85LocalINS2_7ContextEEEPNS2_15SnapshotCreatorE
Keybase:_ZN4node2fs11BindingData26CreatePerIsolatePropertiesEPNS_11IsolateDataEN2v85LocalINS4_14ObjectTemplateEEE
Keybase:_ZN4node2fs11BindingData26RegisterExternalReferencesEPNS_25ExternalReferenceRegistryE
Keybase:_ZN4node2fs11BindingData9SerializeEi
Keybase:_ZN4node2fs11BindingDataC1EPNS_5RealmEN2v85LocalINS4_6ObjectEEEPNS1_17InternalFieldInfoE
Keybase:_ZN4node2fs11BindingDataC2EPNS_5RealmEN2v85LocalINS4_6ObjectEEEPNS1_17InternalFieldInfoE
Keybase:_ZN4node2fs11MKDirpAsyncEP9uv_loop_sP7uv_fs_sPKciPFvS4_E
Keybase:_ZN4node2fs11isInsideDirERKNSt4__Cr4__fs10filesystem4pathES6_
Keybase:_ZN4node2fs12AfterIntegerEP7uv_fs_s
Keybase:_ZN4node2fs12AfterScanDirEP7uv_fs_s
Keybase:_ZN4node2fs13FSReqCallback11ResolveStatEPK9uv_stat_t
Keybase:_ZN4node2fs13FSReqCallback13ResolveStatFsEPK11uv_statfs_s
Keybase:_ZN4node2fs13FSReqCallback14SetReturnValueERKN2v820FunctionCallbackInfoINS2_5ValueEEE
Keybase:_ZN4node2fs13FSReqCallback6RejectEN2v85LocalINS2_5ValueEEE
Keybase:_ZN4node2fs13FSReqCallback7ResolveEN2v85LocalINS2_5ValueEEE
Keybase:_ZN4node2fs14AfterStringPtrEP7uv_fs_s
Keybase:_ZN4node2fs15AfterStringPathEP7uv_fs_s
Keybase:_ZN4node2fs15FSReqAfterScope5ClearEv
Keybase:_ZN4node2fs15FSReqAfterScope6RejectEP7uv_fs_s
Keybase:_ZN4node2fs15FSReqAfterScope7ProceedEv
Keybase:_ZN4node2fs15FSReqAfterScopeC1EPNS0_9FSReqBaseEP7uv_fs_s
Keybase:_ZN4node2fs15FSReqAfterScopeC2EPNS0_9FSReqBaseEP7uv_fs_s
Keybase:_ZN4node2fs15FSReqAfterScopeD1Ev
Keybase:_ZN4node2fs15FSReqAfterScopeD2Ev
Keybase:_ZN4node2fs16NewFSReqCallbackERKN2v820FunctionCallbackInfoINS1_5ValueEEE
Keybase:_ZN4node2fs18FileHandleReadWrapC1EPNS0_10FileHandleEN2v85LocalINS4_6ObjectEEE
Keybase:_ZN4node2fs18FileHandleReadWrapC2EPNS0_10FileHandleEN2v85LocalINS4_6ObjectEEE
Keybase:_ZN4node2fs18FileHandleReadWrapD0Ev
Keybase:_ZN4node2fs18FileHandleReadWrapD1Ev
Keybase:_ZN4node2fs18FileHandleReadWrapD2Ev
Keybase:_ZN4node2fs19AfterOpenFileHandleEP7uv_fs_s
Keybase:_ZN4node2fs20normalizePathToArrayERKNSt4__Cr4__fs10filesystem4pathE
Keybase:_ZN4node2fs26RegisterExternalReferencesEPNS_25ExternalReferenceRegistryE
Keybase:_ZN4node2fs5CloseERKN2v820FunctionCallbackInfoINS1_5ValueEEE
Keybase:_ZN4node2fs6AccessERKN2v820FunctionCallbackInfoINS1_5ValueEEE
Keybase:_ZN4node2fs9AfterStatEP7uv_fs_s
Keybase:_ZN4node2fs9FSReqBase12binding_dataEv
Keybase:_ZN4node2fs9FSReqBaseD0Ev
Keybase:_ZN4node2fs9FSReqBaseD1Ev
Keybase:_ZN4node2fs9FSReqBaseD2Ev
Keybase:_ZN4node2os10InitializeEN2v85LocalINS1_6ObjectEEENS2_INS1_5ValueEEENS2_INS1_7ContextEEEPv
Keybase:_ZN4node2os18FastGetTotalMemoryEN2v85LocalINS1_5ValueEEE
Keybase:_ZN4node2os26RegisterExternalReferencesEPNS_25ExternalReferenceRegistryE
Keybase:_ZN4node2os27FastGetAvailableParallelismEN2v85LocalINS1_5ValueEEE
Keybase:_ZN4node2uv10InitializeEN2v85LocalINS1_6ObjectEEENS2_INS1_5ValueEEENS2_INS1_7ContextEEEPv
Keybase:_ZN4node2uv13GetErrMessageERKN2v820FunctionCallbackInfoINS1_5ValueEEE
Keybase:_ZN4node2uv26RegisterExternalReferencesEPNS_25ExternalReferenceRegistryE
Keybase:_ZN4node2uv7ErrNameERKN2v820FunctionCallbackInfoINS1_5ValueEEE
Keybase:_ZN4node2uv9GetErrMapERKN2v820FunctionCallbackInfoINS1_5ValueEEE
Keybase:_ZN4node30ProcessEmitExperimentalWarningEPNS_11EnvironmentERKNSt4__Cr12basic_stringIcNS2_11char_traitsIcEENS2_9allocatorIcEEEE
Keybase:_ZN4node30ReportWritesToJSStreamListener18OnStreamAfterWriteEPNS_9WriteWrapEi
Keybase:_ZN4node30ReportWritesToJSStreamListener21OnStreamAfterShutdownEPNS_12ShutdownWrapEi
Keybase:_ZN4node30ReportWritesToJSStreamListener24OnStreamAfterReqFinishedEPNS_9StreamReqEi
Keybase:_ZN4node30ShouldAbortOnUncaughtExceptionEPN2v87IsolateE
Keybase:_ZN4node31AllowWasmCodeGenerationCallbackEN2v85LocalINS0_7ContextEEENS1_INS0_6StringEEE
Keybase:_ZN4node31ModifyCodeGenerationFromStringsEN2v85LocalINS0_7ContextEEENS1_INS0_5ValueEEEb
Keybase:_ZN4node31RegisterTypesExternalReferencesEPNS_25ExternalReferenceRegistryE
Keybase:_ZN4node32InitializeBaseContextForSnapshotEN2v85LocalINS0_7ContextEEE
Keybase:_ZN4node32InitializeMainContextForSnapshotEN2v85LocalINS0_7ContextEEE
Keybase:_ZN4node32RegisterConfigExternalReferencesEPNS_25ExternalReferenceRegistryE
Keybase:_ZN4node32RegisterEnvVarExternalReferencesEPNS_25ExternalReferenceRegistryE
Keybase:_ZN4node33AddEnvironmentCleanupHookInternalEPN2v87IsolateEPFvPvPFvS3_ES3_ES3_
Keybase:_ZN4node33DefaultProcessExitHandlerInternalEPNS_11EnvironmentENS_8ExitCodeE
Keybase:_ZN4node33RegisterProcessExternalReferencesEPNS_25ExternalReferenceRegistryE
Keybase:_ZN4node34SerializeNodeContextInternalFieldsEN2v85LocalINS0_6ObjectEEEiPv
Keybase:_ZN4node36RemoveEnvironmentCleanupHookInternalEPNS_9ACHHandleE
Keybase:_ZN4node39RegisterStringDecoderExternalReferencesEPNS_25ExternalReferenceRegistryE
Keybase:_ZN4node3sea10InitializeEN2v85LocalINS1_6ObjectEEENS2_INS1_5ValueEEENS2_INS1_7ContextEEEPv
Keybase:_ZN4node3sea12GetAssetKeysERKN2v820FunctionCallbackInfoINS1_5ValueEEE
Keybase:_ZN4node3sea15FixupArgsForSEAEiPPc
Keybase:_ZN4node3sea18IsSingleExecutableEv
Keybase:_ZN4node3sea25BuildSingleExecutableBlobERKNSt4__Cr12basic_stringIcNS1_11char_traitsIcEENS1_9allocatorIcEEEERKNS1_6vectorIS7_NS5_IS7_EEEESE_
Keybase:_ZN4node3sea26RegisterExternalReferencesEPNS_25ExternalReferenceRegistryE
Keybase:_ZN4node3sea28FindSingleExecutableResourceEv
Keybase:_ZN4node3sea30IsExperimentalSeaWarningNeededERKN2v820FunctionCallbackInfoINS1_5ValueEEE
Keybase:_ZN4node3sea31LoadSingleExecutableApplicationERKNS_26StartExecutionCallbackInfoE
Keybase:_ZN4node3sea36MaybeLoadSingleExecutableApplicationEPNS_11EnvironmentE
Keybase:_ZN4node3sea5IsSeaERKN2v820FunctionCallbackInfoINS1_5ValueEEE
Keybase:_ZN4node3sea8GetAssetERKN2v820FunctionCallbackInfoINS1_5ValueEEE
Keybase:_ZN4node3url11BindingData11DeserializeEN2v85LocalINS2_7ContextEEENS3_INS2_6ObjectEEEiPNS_21InternalFieldInfoBaseE
Keybase:_ZN4node3url11BindingData12FastCanParseEN2v85LocalINS2_5ValueEEERKNS2_17FastOneByteStringE
Keybase:_ZN4node3url11BindingData13DomainToASCIIERKN2v820FunctionCallbackInfoINS2_5ValueEEE
Keybase:_ZN4node3url11BindingData13PathToFileURLERKN2v820FunctionCallbackInfoINS2_5ValueEEE
Keybase:_ZN4node3url11BindingData15DomainToUnicodeERKN2v820FunctionCallbackInfoINS2_5ValueEEE
Keybase:_ZN4node3url11BindingData16UpdateComponentsERKN3ada14url_componentsENS2_6scheme4typeE
Keybase:_ZN4node3url11BindingData20FastCanParseWithBaseEN2v85LocalINS2_5ValueEEERKNS2_17FastOneByteStringES8_
Keybase:_ZN4node3url11BindingData23PrepareForSerializationEN2v85LocalINS2_7ContextEEEPNS2_15SnapshotCreatorE
Keybase:_ZN4node3url11BindingData23fast_can_parse_methods_E
Keybase:_ZN4node3url11BindingData26CreatePerContextPropertiesEN2v85LocalINS2_6ObjectEEENS3_INS2_5ValueEEENS3_INS2_7ContextEEEPv
Keybase:_ZN4node3url11BindingData26CreatePerIsolatePropertiesEPNS_11IsolateDataEN2v85LocalINS4_14ObjectTemplateEEE
Keybase:_ZN4node3url11BindingData26RegisterExternalReferencesEPNS_25ExternalReferenceRegistryE
Keybase:_ZN4node3url11BindingData5ParseERKN2v820FunctionCallbackInfoINS2_5ValueEEE
Keybase:_ZN4node3url11BindingData6FormatERKN2v820FunctionCallbackInfoINS2_5ValueEEE
Keybase:_ZN4node3url11BindingData6UpdateERKN2v820FunctionCallbackInfoINS2_5ValueEEE
Keybase:_ZN4node3url11BindingData8CanParseERKN2v820FunctionCallbackInfoINS2_5ValueEEE
Keybase:_ZN4node3url11BindingData9GetOriginERKN2v820FunctionCallbackInfoINS2_5ValueEEE
Keybase:_ZN4node3url11BindingData9SerializeEi
Keybase:_ZN4node3url11BindingDataC1EPNS_5RealmEN2v85LocalINS4_6ObjectEEE
Keybase:_ZN4node3url11BindingDataC2EPNS_5RealmEN2v85LocalINS4_6ObjectEEE
Keybase:_ZN4node3url12FromFilePathENSt4__Cr17basic_string_viewIcNS1_11char_traitsIcEEEE
Keybase:_ZN4node3url13FileURLToPathEPNS_11EnvironmentERKN3ada14url_aggregatorE
Keybase:_ZN4node3url15EncodePathCharsENSt4__Cr17basic_string_viewIcNS1_11char_traitsIcEEEENS0_2OSE
Keybase:_ZN4node3url15ThrowInvalidURLEPNS_11EnvironmentENSt4__Cr17basic_string_viewIcNS3_11char_traitsIcEEEENS3_8optionalINS3_12basic_stringIcS6_NS3_9allocatorIcEEEEEE
Keybase:_ZN4node4Blob11HasInstanceEPNS_11EnvironmentEN2v85LocalINS3_5ValueEEE
Keybase:_ZN4node4Blob13GetDataObjectERKN2v820FunctionCallbackInfoINS1_5ValueEEE
Keybase:_ZN4node4Blob15RevokeObjectURLERKN2v820FunctionCallbackInfoINS1_5ValueEEE
Keybase:_ZN4node4Blob15StoreDataObjectERKN2v820FunctionCallbackInfoINS1_5ValueEEE
Keybase:_ZN4node4Blob16BlobTransferData11DeserializeEPNS_11EnvironmentEN2v85LocalINS4_7ContextEEENSt4__Cr10unique_ptrINS_6worker12TransferDataENS8_14default_deleteISB_EEEE
Keybase:_ZN4node4Blob22GetConstructorTemplateEPNS_11EnvironmentE
Keybase:_ZN4node4Blob26CreatePerContextPropertiesEN2v85LocalINS1_6ObjectEEENS2_INS1_5ValueEEENS2_INS1_7ContextEEEPv
Keybase:_ZN4node4Blob26CreatePerIsolatePropertiesEPNS_11IsolateDataEN2v85LocalINS3_14ObjectTemplateEEE
Keybase:_ZN4node4Blob26RegisterExternalReferencesEPNS_25ExternalReferenceRegistryE
Keybase:_ZN4node4Blob3NewERKN2v820FunctionCallbackInfoINS1_5ValueEEE
Keybase:_ZN4node4Blob5SliceEPNS_11EnvironmentEmm
Keybase:_ZN4node4Blob6CreateEPNS_11EnvironmentENSt4__Cr10shared_ptrINS_9DataQueueEEE
Keybase:_ZN4node4Blob6Reader11HasInstanceEPNS_11EnvironmentEN2v85LocalINS4_5ValueEEE
Keybase:_ZN4node4Blob6Reader22GetConstructorTemplateEPNS_11EnvironmentE
Keybase:_ZN4node4Blob6Reader4PullERKN2v820FunctionCallbackInfoINS2_5ValueEEE
Keybase:_ZN4node4Blob6Reader6CreateEPNS_11EnvironmentENS_17BaseObjectPtrImplIS0_Lb0EEE
Keybase:_ZN4node4Blob6ReaderC1EPNS_11EnvironmentEN2v85LocalINS4_6ObjectEEENS_17BaseObjectPtrImplIS0_Lb0EEE
Keybase:_ZN4node4Blob6ReaderC2EPNS_11EnvironmentEN2v85LocalINS4_6ObjectEEENS_17BaseObjectPtrImplIS0_Lb0EEE
Keybase:_ZN4node4Blob7ToSliceERKN2v820FunctionCallbackInfoINS1_5ValueEEE
Keybase:_ZN4node4Blob9GetReaderERKN2v820FunctionCallbackInfoINS1_5ValueEEE
Keybase:_ZN4node4BlobC1EPNS_11EnvironmentEN2v85LocalINS3_6ObjectEEENSt4__Cr10shared_ptrINS_9DataQueueEEE
Keybase:_ZN4node4BlobC2EPNS_11EnvironmentEN2v85LocalINS3_6ObjectEEENSt4__Cr10shared_ptrINS_9DataQueueEEE
Keybase:_ZN4node4EmitEPNS_11EnvironmentEdNS_10AsyncHooks6FieldsEN2v85LocalINS4_8FunctionEEE
Keybase:_ZN4node4ExitENS_8ExitCodeE
Keybase:_ZN4node4StopEPNS_11EnvironmentENS_9StopFlags5FlagsE
Keybase:_ZN4node4heap10InitializeEN2v85LocalINS1_6ObjectEEENS2_INS1_5ValueEEENS2_INS1_7ContextEEEPv
Keybase:_ZN4node4heap13WriteSnapshotEPNS_11EnvironmentEPKcN2v812HeapProfiler19HeapSnapshotOptionsE
Keybase:_ZN4node4heap18BuildEmbedderGraphERKN2v820FunctionCallbackInfoINS1_5ValueEEE
Keybase:_ZN4node4heap18DeleteHeapSnapshotEPKN2v812HeapSnapshotE
Keybase:_ZN4node4heap19TriggerHeapSnapshotERKN2v820FunctionCallbackInfoINS1_5ValueEEE
Keybase:_ZN4node4heap22GetHeapSnapshotOptionsEN2v85LocalINS1_5ValueEEE
Keybase:_ZN4node4heap24CreateHeapSnapshotStreamEPNS_11EnvironmentEONSt4__Cr10unique_ptrIKN2v812HeapSnapshotENS_15FunctionDeleterIS7_XadL_ZNS0_18DeleteHeapSnapshotEPS7_EEEEEE
Keybase:_ZN4node4heap24CreateHeapSnapshotStreamERKN2v820FunctionCallbackInfoINS1_5ValueEEE
Keybase:_ZN4node4heap26RegisterExternalReferencesEPNS_25ExternalReferenceRegistryE
Keybase:_ZN4node4i18n15ConverterObject3HasERKN2v820FunctionCallbackInfoINS2_5ValueEEE
Keybase:_ZN4node4i18n15ConverterObject6CreateERKN2v820FunctionCallbackInfoINS2_5ValueEEE
Keybase:_ZN4node4i18n15ConverterObject6DecodeERKN2v820FunctionCallbackInfoINS2_5ValueEEE
Keybase:_ZN4node4i18n15ConverterObjectC1EPNS_11EnvironmentEN2v85LocalINS4_6ObjectEEEP10UConverteriPKc
Keybase:_ZN4node4i18n15ConverterObjectC2EPNS_11EnvironmentEN2v85LocalINS4_6ObjectEEEP10UConverteriPKc
Keybase:_ZN4node4i18n18SetDefaultTimeZoneEPKc
Keybase:_ZN4node4i18n22InitializeICUDirectoryERKNSt4__Cr12basic_stringIcNS1_11char_traitsIcEENS1_9allocatorIcEEEEPS7_
Keybase:_ZN4node4i18n26CreatePerContextPropertiesEN2v85LocalINS1_6ObjectEEENS2_INS1_5ValueEEENS2_INS1_7ContextEEEPv
Keybase:_ZN4node4i18n26RegisterExternalReferencesEPNS_25ExternalReferenceRegistryE
Keybase:_ZN4node4i18n9Converter15set_subst_charsEPKc
Keybase:_ZN4node4i18n9Converter5resetEv
Keybase:_ZN4node4i18n9ConverterC1EP10UConverterPKc
Keybase:_ZN4node4i18n9ConverterC1EPKcS3_
Keybase:_ZN4node4i18n9ConverterC2EP10UConverterPKc
Keybase:_ZN4node4i18n9ConverterC2EPKcS3_
Keybase:_ZN4node4util10InitializeEN2v85LocalINS1_6ObjectEEENS2_INS1_5ValueEEENS2_INS1_7ContextEEEPv
Keybase:_ZN4node4util23fast_guess_handle_type_E
Keybase:_ZN4node4util24ArrayBufferViewHasBufferERKN2v820FunctionCallbackInfoINS1_5ValueEEE
Keybase:_ZN4node4util26RegisterExternalReferencesEPNS_25ExternalReferenceRegistryE
Keybase:_ZN4node4wasi4WASI10EnvironGetERS1_NS0_10WasmMemoryEjj
Keybase:_ZN4node4wasi4WASI10FdAllocateERS1_NS0_10WasmMemoryEjmm
Keybase:_ZN4node4wasi4WASI10FdDatasyncERS1_NS0_10WasmMemoryEj
Keybase:_ZN4node4wasi4WASI10FdRenumberERS1_NS0_10WasmMemoryEjj
Keybase:_ZN4node4wasi4WASI10PathRenameERS1_NS0_10WasmMemoryEjjjjjj
Keybase:_ZN4node4wasi4WASI10PollOneoffERS1_NS0_10WasmMemoryEjjjj
Keybase:_ZN4node4wasi4WASI10SchedYieldERS1_NS0_10WasmMemoryE
Keybase:_ZN4node4wasi4WASI10SockAcceptERS1_NS0_10WasmMemoryEjjj
Keybase:_ZN4node4wasi4WASI10_SetMemoryERKN2v820FunctionCallbackInfoINS2_5ValueEEE
Keybase:_ZN4node4wasi4WASI11ClockResGetERS1_NS0_10WasmMemoryEjj
Keybase:_ZN4node4wasi4WASI11FdFdstatGetERS1_NS0_10WasmMemoryEjj
Keybase:_ZN4node4wasi4WASI11PathSymlinkERS1_NS0_10WasmMemoryEjjjjj
Keybase:_ZN4node4wasi4WASI12ArgsSizesGetERS1_NS0_10WasmMemoryEjj
Keybase:_ZN4node4wasi4WASI12ClockTimeGetERS1_NS0_10WasmMemoryEjmj
Keybase:_ZN4node4wasi4WASI12FdPrestatGetERS1_NS0_10WasmMemoryEjj
Keybase:_ZN4node4wasi4WASI12PathReadlinkERS1_NS0_10WasmMemoryEjjjjjj
Keybase:_ZN4node4wasi4WASI12SockShutdownERS1_NS0_10WasmMemoryEjj
Keybase:_ZN4node4wasi4WASI13FdFilestatGetERS1_NS0_10WasmMemoryEjj
Keybase:_ZN4node4wasi4WASI14PathUnlinkFileERS1_NS0_10WasmMemoryEjjj
Keybase:_ZN4node4wasi4WASI15EnvironSizesGetERS1_NS0_10WasmMemoryEjj
Keybase:_ZN4node4wasi4WASI15PathFilestatGetERS1_NS0_10WasmMemoryEjjjjj
Keybase:_ZN4node4wasi4WASI16FdFdstatSetFlagsERS1_NS0_10WasmMemoryEjj
Keybase:_ZN4node4wasi4WASI16FdPrestatDirNameERS1_NS0_10WasmMemoryEjjj
Keybase:_ZN4node4wasi4WASI17FdFdstatSetRightsERS1_NS0_10WasmMemoryEjmm
Keybase:_ZN4node4wasi4WASI17FdFilestatSetSizeERS1_NS0_10WasmMemoryEjm
Keybase:_ZN4node4wasi4WASI18FdFilestatSetTimesERS1_NS0_10WasmMemoryEjmmj
Keybase:_ZN4node4wasi4WASI19PathCreateDirectoryERS1_NS0_10WasmMemoryEjjj
Keybase:_ZN4node4wasi4WASI19PathRemoveDirectoryERS1_NS0_10WasmMemoryEjjj
Keybase:_ZN4node4wasi4WASI20PathFilestatSetTimesERS1_NS0_10WasmMemoryEjjjjmmj
Keybase:_ZN4node4wasi4WASI21DecreaseAllocatedSizeEm
Keybase:_ZN4node4wasi4WASI21IncreaseAllocatedSizeEm
Keybase:_ZN4node4wasi4WASI3NewERKN2v820FunctionCallbackInfoINS2_5ValueEEE
Keybase:_ZN4node4wasi4WASI6FdReadERS1_NS0_10WasmMemoryEjjjj
Keybase:_ZN4node4wasi4WASI6FdSeekERS1_NS0_10WasmMemoryEjljj
Keybase:_ZN4node4wasi4WASI6FdSyncERS1_NS0_10WasmMemoryEj
Keybase:_ZN4node4wasi4WASI6FdTellERS1_NS0_10WasmMemoryEjj
Keybase:_ZN4node4wasi4WASI7ArgsGetERS1_NS0_10WasmMemoryEjj
Keybase:_ZN4node4wasi4WASI7FdCloseERS1_NS0_10WasmMemoryEj
Keybase:_ZN4node4wasi4WASI7FdPreadERS1_NS0_10WasmMemoryEjjjmj
Keybase:_ZN4node4wasi4WASI7FdWriteERS1_NS0_10WasmMemoryEjjjj
Keybase:_ZN4node4wasi4WASI8FdAdviseERS1_NS0_10WasmMemoryEjmmj
Keybase:_ZN4node4wasi4WASI8FdPwriteERS1_NS0_10WasmMemoryEjjjmj
Keybase:_ZN4node4wasi4WASI8PathLinkERS1_NS0_10WasmMemoryEjjjjjjj
Keybase:_ZN4node4wasi4WASI8PathOpenERS1_NS0_10WasmMemoryEjjjjjmmjj
Keybase:_ZN4node4wasi4WASI8ProcExitERS1_NS0_10WasmMemoryEj
Keybase:_ZN4node4wasi4WASI8SockRecvERS1_NS0_10WasmMemoryEjjjjjj
Keybase:_ZN4node4wasi4WASI8SockSendERS1_NS0_10WasmMemoryEjjjjj
Keybase:_ZN4node4wasi4WASI9FdReaddirERS1_NS0_10WasmMemoryEjjjmj
Keybase:_ZN4node4wasi4WASI9ProcRaiseERS1_NS0_10WasmMemoryEj
Keybase:_ZN4node4wasi4WASI9RandomGetERS1_NS0_10WasmMemoryEjj
Keybase:_ZN4node4wasi4WASIC1EPNS_11EnvironmentEN2v85LocalINS4_6ObjectEEEP16uvwasi_options_s
Keybase:_ZN4node4wasi4WASIC2EPNS_11EnvironmentEN2v85LocalINS4_6ObjectEEEP16uvwasi_options_s
Keybase:_ZN4node4wasi4WASID0Ev
Keybase:_ZN4node4wasi4WASID1Ev
Keybase:_ZN4node4wasi4WASID2Ev
Keybase:_ZN4node5Realm10RunCleanupEv
Keybase:_ZN4node5Realm16CreatePropertiesEv
Keybase:_ZN4node5Realm16RunBootstrappingEv
Keybase:_ZN4node5Realm17DoneBootstrappingEv
Keybase:_ZN4node5Realm19ExecuteBootstrapperEPKc
Keybase:_ZN4node5Realm20PrintInfoForSnapshotEv
Keybase:_ZN4node5Realm21DeserializePropertiesEPKNS_18RealmSerializeInfoE
Keybase:_ZN4node5Realm25VerifyNoStrongBaseObjectsEv
Keybase:_ZN4node5Realm9SerializeEPN2v815SnapshotCreatorE
Keybase:_ZN4node5RealmC2EPNS_11EnvironmentEN2v85LocalINS3_7ContextEEENS0_4KindE
Keybase:_ZN4node5RealmD0Ev
Keybase:_ZN4node5RealmD1Ev
Keybase:_ZN4node5RealmD2Ev
Keybase:_ZN4node5StartEiPPc
Keybase:_ZN4node5http210GetFrameIDEPK13nghttp2_frame
Keybase:_ZN4node5http210Http2ScopeC1EPNS0_11Http2StreamE
Keybase:_ZN4node5http210Http2ScopeC1EPNS0_12Http2SessionE
Keybase:_ZN4node5http210Http2ScopeC2EPNS0_11Http2StreamE
Keybase:_ZN4node5http210Http2ScopeC2EPNS0_12Http2SessionE
Keybase:_ZN4node5http210Http2ScopeD1Ev
Keybase:_ZN4node5http210Http2ScopeD2Ev
Keybase:_ZN4node5http210InitializeEN2v85LocalINS1_6ObjectEEENS2_INS1_5ValueEEENS2_INS1_7ContextEEEPv
Keybase:_ZN4node5http211Http2Stream10DoShutdownEPNS_12ShutdownWrapE
Keybase:_ZN4node5http211Http2Stream10OnTrailersEv
Keybase:_ZN4node5http211Http2Stream10SubmitInfoERKNS_9NgHeadersINS0_18Http2HeadersTraitsEEE
Keybase:_ZN4node5http211Http2Stream11PushPromiseERKN2v820FunctionCallbackInfoINS2_5ValueEEE
Keybase:_ZN4node5http211Http2Stream12RefreshStateERKN2v820FunctionCallbackInfoINS2_5ValueEEE
Keybase:_ZN4node5http211Http2Stream12StartHeadersE24nghttp2_headers_category
Keybase:_ZN4node5http211Http2Stream14EmitStatisticsEv
Keybase:_ZN4node5http211Http2Stream14FlushRstStreamEv
Keybase:_ZN4node5http211Http2Stream14SubmitPriorityERKNS0_13Http2PriorityEb
Keybase:_ZN4node5http211Http2Stream14SubmitResponseERKNS_9NgHeadersINS0_18Http2HeadersTraitsEEEi
Keybase:_ZN4node5http211Http2Stream14SubmitTrailersERKNS_9NgHeadersINS0_18Http2HeadersTraitsEEE
Keybase:_ZN4node5http211Http2Stream15SubmitRstStreamEj
Keybase:_ZN4node5http211Http2Stream17SubmitPushPromiseERKNS_9NgHeadersINS0_18Http2HeadersTraitsEEEPii
Keybase:_ZN4node5http211Http2Stream18CreateShutdownWrapEN2v85LocalINS2_6ObjectEEE
Keybase:_ZN4node5http211Http2Stream32DecrementAvailableOutboundLengthEm
Keybase:_ZN4node5http211Http2Stream32IncrementAvailableOutboundLengthEm
Keybase:_ZN4node5http211Http2Stream3NewEPNS0_12Http2SessionEi24nghttp2_headers_categoryi
Keybase:_ZN4node5http211Http2Stream4InfoERKN2v820FunctionCallbackInfoINS2_5ValueEEE
Keybase:_ZN4node5http211Http2Stream5CloseEi
Keybase:_ZN4node5http211Http2Stream5GetIDERKN2v820FunctionCallbackInfoINS2_5ValueEEE
Keybase:_ZN4node5http211Http2Stream7DestroyERKN2v820FunctionCallbackInfoINS2_5ValueEEE
Keybase:_ZN4node5http211Http2Stream7DestroyEv
Keybase:_ZN4node5http211Http2Stream7DoWriteEPNS_9WriteWrapEP8uv_buf_tmP11uv_stream_s
Keybase:_ZN4node5http211Http2Stream7RespondERKN2v820FunctionCallbackInfoINS2_5ValueEEE
Keybase:_ZN4node5http211Http2Stream8PriorityERKN2v820FunctionCallbackInfoINS2_5ValueEEE
Keybase:_ZN4node5http211Http2Stream8Provider6Stream6OnReadEP15nghttp2_sessioniPhmPjP19nghttp2_data_sourcePv
Keybase:_ZN4node5http211Http2Stream8Provider6StreamC1EPS1_i
Keybase:_ZN4node5http211Http2Stream8Provider6StreamC1Ei
Keybase:_ZN4node5http211Http2Stream8Provider6StreamC2EPS1_i
Keybase:_ZN4node5http211Http2Stream8Provider6StreamC2Ei
Keybase:_ZN4node5http211Http2Stream8ProviderC1EPS1_i
Keybase:_ZN4node5http211Http2Stream8ProviderC1Ei
Keybase:_ZN4node5http211Http2Stream8ProviderC2EPS1_i
Keybase:_ZN4node5http211Http2Stream8ProviderC2Ei
Keybase:_ZN4node5http211Http2Stream8ProviderD0Ev
Keybase:_ZN4node5http211Http2Stream8ProviderD1Ev
Keybase:_ZN4node5http211Http2Stream8ProviderD2Ev
Keybase:_ZN4node5http211Http2Stream8ReadStopEv
Keybase:_ZN4node5http211Http2Stream8TrailersERKN2v820FunctionCallbackInfoINS2_5ValueEEE
Keybase:_ZN4node5http211Http2Stream9AddHeaderEP13nghttp2_rcbufS3_h
Keybase:_ZN4node5http211Http2Stream9ReadStartEv
Keybase:_ZN4node5http211Http2Stream9RstStreamERKN2v820FunctionCallbackInfoINS2_5ValueEEE
Keybase:_ZN4node5http211Http2StreamC1EPNS0_12Http2SessionEN2v85LocalINS4_6ObjectEEEi24nghttp2_headers_categoryi
Keybase:_ZN4node5http211Http2StreamC2EPNS0_12Http2SessionEN2v85LocalINS4_6ObjectEEEi24nghttp2_headers_categoryi
Keybase:_ZN4node5http211Http2StreamD0Ev
Keybase:_ZN4node5http211Http2StreamD1Ev
Keybase:_ZN4node5http211Http2StreamD2Ev
Keybase:_ZN4node5http212Http2OptionsC1EPNS0_10Http2StateENS0_11SessionTypeE
Keybase:_ZN4node5http212Http2OptionsC2EPNS0_10Http2StateENS0_11SessionTypeE
Keybase:_ZN4node5http212Http2Session10FindStreamEi
Keybase:_ZN4node5http212Http2Session10OnSendDataEP15nghttp2_sessionP13nghttp2_framePKhmP19nghttp2_data_sourcePv
Keybase:_ZN4node5http212Http2Session11AddSettingsEN2v85LocalINS2_8FunctionEEE
Keybase:_ZN4node5http212Http2Session11OnFrameSentEP15nghttp2_sessionPK13nghttp2_framePv
Keybase:_ZN4node5http212Http2Session11PopSettingsEv
Keybase:_ZN4node5http212Http2Session12CanAddStreamEv
Keybase:_ZN4node5http212Http2Session12OnStreamReadElRK8uv_buf_t
Keybase:_ZN4node5http212Http2Session12RefreshStateERKN2v820FunctionCallbackInfoINS2_5ValueEEE
Keybase:_ZN4node5http212Http2Session12RemoveStreamEi
Keybase:_ZN4node5http212Http2Session13ClearOutgoingEi
Keybase:_ZN4node5http212Http2Session13DecrefHeadersEPK13nghttp2_frame
Keybase:_ZN4node5http212Http2Session13OnNghttpErrorEP15nghttp2_sessioniPKcmPv
Keybase:_ZN4node5http212Http2Session13OnStreamAllocEm
Keybase:_ZN4node5http212Http2Session13OnStreamCloseEP15nghttp2_sessionijPv
Keybase:_ZN4node5http212Http2Session13SubmitRequestERKNS0_13Http2PriorityERKNS_9NgHeadersINS0_18Http2HeadersTraitsEEEPii
Keybase:_ZN4node5http212Http2Session14EmitStatisticsEv
Keybase:_ZN4node5http212Http2Session14HasPendingDataERKN2v820FunctionCallbackInfoINS2_5ValueEEE
Keybase:_ZN4node5http212Http2Session14OnFrameNotSentEP15nghttp2_sessionPK13nghttp2_frameiPv
Keybase:_ZN4node5http212Http2Session14OnFrameReceiveEP15nghttp2_sessionPK13nghttp2_framePv
Keybase:_ZN4node5http212Http2Session14OnInvalidFrameEP15nghttp2_sessionPK13nghttp2_frameiPv
Keybase:_ZN4node5http212Http2Session15HandleDataFrameEPK13nghttp2_frame
Keybase:_ZN4node5http212Http2Session15HandlePingFrameEPK13nghttp2_frame
Keybase:_ZN4node5http212Http2Session15OnInvalidHeaderEP15nghttp2_sessionPK13nghttp2_frameP13nghttp2_rcbufS8_hPv
Keybase:_ZN4node5http212Http2Session15OnSelectPaddingEP15nghttp2_sessionPK13nghttp2_framemPv
Keybase:_ZN4node5http212Http2Session15SendPendingDataEv
Keybase:_ZN4node5http212Http2Session15SetNextStreamIDERKN2v820FunctionCallbackInfoINS2_5ValueEEE
Keybase:_ZN4node5http212Http2Session16ConsumeHTTP2DataEv
Keybase:_ZN4node5http212Http2Session16MaybeStopReadingEv
Keybase:_ZN4node5http212Http2Session16OnHeaderCallbackEP15nghttp2_sessionPK13nghttp2_frameP13nghttp2_rcbufS8_hPv
Keybase:_ZN4node5http212Http2Session16SetGracefulCloseERKN2v820FunctionCallbackInfoINS2_5ValueEEE
Keybase:_ZN4node5http212Http2Session16UpdateChunksSentERKN2v820FunctionCallbackInfoINS2_5ValueEEE
Keybase:_ZN4node5http212Http2Session17HandleAltSvcFrameEPK13nghttp2_frame
Keybase:_ZN4node5http212Http2Session17HandleGoawayFrameEPK13nghttp2_frame
Keybase:_ZN4node5http212Http2Session17HandleOriginFrameEPK13nghttp2_frame
Keybase:_ZN4node5http212Http2Session17StopTrackingRcbufEP13nghttp2_rcbuf
Keybase:_ZN4node5http212Http2Session18HandleHeadersFrameEPK13nghttp2_frame
Keybase:_ZN4node5http212Http2Session18MaybeScheduleWriteEv
Keybase:_ZN4node5http212Http2Session18OnStreamAfterWriteEPNS_9WriteWrapEi
Keybase:_ZN4node5http212Http2Session18PushOutgoingBufferEONS0_18NgHttp2StreamWriteE
Keybase:_ZN4node5http212Http2Session18SetLocalWindowSizeERKN2v820FunctionCallbackInfoINS2_5ValueEEE
Keybase:_ZN4node5http212Http2Session19HandlePriorityFrameEPK13nghttp2_frame
Keybase:_ZN4node5http212Http2Session19HandleSettingsFrameEPK13nghttp2_frame
Keybase:_ZN4node5http212Http2Session19OnDataChunkReceivedEP15nghttp2_sessionhiPKhmPv
Keybase:_ZN4node5http212Http2Session20CopyDataIntoOutgoingEPKhm
Keybase:_ZN4node5http212Http2Session21DecreaseAllocatedSizeEm
Keybase:_ZN4node5http212Http2Session21IncreaseAllocatedSizeEm
Keybase:_ZN4node5http212Http2Session21OnDWordAlignedPaddingEmm
Keybase:_ZN4node5http212Http2Session21OnMaxFrameSizePaddingEmm
Keybase:_ZN4node5http212Http2Session21callback_struct_savedE
Keybase:_ZN4node5http212Http2Session22OnBeginHeadersCallbackEP15nghttp2_sessionPK13nghttp2_framePv
Keybase:_ZN4node5http212Http2Session25UpdateLocalCustomSettingsEmP22nghttp2_settings_entry
Keybase:_ZN4node5http212Http2Session26HasWritesOnSocketForStreamEPNS0_11Http2StreamE
Keybase:_ZN4node5http212Http2Session32FetchAllowedRemoteCustomSettingsEv
Keybase:_ZN4node5http212Http2Session32MaybeNotifyGracefulCloseCompleteEv
Keybase:_ZN4node5http212Http2Session3NewERKN2v820FunctionCallbackInfoINS2_5ValueEEE
Keybase:_ZN4node5http212Http2Session4PingERKN2v820FunctionCallbackInfoINS2_5ValueEEE
Keybase:_ZN4node5http212Http2Session5CloseEjb
Keybase:_ZN4node5http212Http2Session6AltSvcERKN2v820FunctionCallbackInfoINS2_5ValueEEE
Keybase:_ZN4node5http212Http2Session6AltSvcEiPhmS2_m
Keybase:_ZN4node5http212Http2Session6GoawayERKN2v820FunctionCallbackInfoINS2_5ValueEEE
Keybase:_ZN4node5http212Http2Session6GoawayEjiPKhm
Keybase:_ZN4node5http212Http2Session6OriginERKN2v820FunctionCallbackInfoINS2_5ValueEEE
Keybase:_ZN4node5http212Http2Session6OriginERKNS0_7OriginsE
Keybase:_ZN4node5http212Http2Session7AddPingEPKhN2v85LocalINS4_8FunctionEEE
Keybase:_ZN4node5http212Http2Session7ConsumeEN2v85LocalINS2_6ObjectEEE
Keybase:_ZN4node5http212Http2Session7ConsumeERKN2v820FunctionCallbackInfoINS2_5ValueEEE
Keybase:_ZN4node5http212Http2Session7DestroyERKN2v820FunctionCallbackInfoINS2_5ValueEEE
Keybase:_ZN4node5http212Http2Session7PopPingEv
Keybase:_ZN4node5http212Http2Session7ReceiveERKN2v820FunctionCallbackInfoINS2_5ValueEEE
Keybase:_ZN4node5http212Http2Session7RequestERKN2v820FunctionCallbackInfoINS2_5ValueEEE
Keybase:_ZN4node5http212Http2Session8SettingsERKN2v820FunctionCallbackInfoINS2_5ValueEEE
Keybase:_ZN4node5http212Http2Session9AddStreamEPNS0_11Http2StreamE
Keybase:_ZN4node5http212Http2Session9CallbacksC1Eb
Keybase:_ZN4node5http212Http2Session9CallbacksC2Eb
Keybase:_ZN4node5http212Http2SessionC1EPNS0_10Http2StateEN2v85LocalINS4_6ObjectEEENS0_11SessionTypeE
Keybase:_ZN4node5http212Http2SessionC2EPNS0_10Http2StateEN2v85LocalINS4_6ObjectEEENS0_11SessionTypeE
Keybase:_ZN4node5http212Http2SessionD0Ev
Keybase:_ZN4node5http212Http2SessionD1Ev
Keybase:_ZN4node5http212Http2SessionD2Ev
Keybase:_ZN4node5http212PackSettingsERKN2v820FunctionCallbackInfoINS1_5ValueEEE
Keybase:_ZN4node5http213Http2PriorityC1EPNS_11EnvironmentEN2v85LocalINS4_5ValueEEES7_S7_
Keybase:_ZN4node5http213Http2PriorityC2EPNS_11EnvironmentEN2v85LocalINS4_5ValueEEES7_S7_
Keybase:_ZN4node5http213Http2Settings15RefreshDefaultsEPNS0_10Http2StateE
Keybase:_ZN4node5http213Http2Settings4DoneEb
Keybase:_ZN4node5http213Http2Settings4InitEPNS0_10Http2StateEP22nghttp2_settings_entry
Keybase:_ZN4node5http213Http2Settings4PackEPNS0_10Http2StateE
Keybase:_ZN4node5http213Http2Settings4PackEPNS_11EnvironmentEmPK22nghttp2_settings_entry
Keybase:_ZN4node5http213Http2Settings4PackEv
Keybase:_ZN4node5http213Http2Settings4SendEv
Keybase:_ZN4node5http213Http2Settings6UpdateEPNS0_12Http2SessionEPFjP15nghttp2_session19nghttp2_settings_idEb
Keybase:_ZN4node5http213Http2SettingsC1EPNS0_12Http2SessionEN2v85LocalINS4_6ObjectEEENS5_INS4_8FunctionEEEm
Keybase:_ZN4node5http213Http2SettingsC2EPNS0_12Http2SessionEN2v85LocalINS4_6ObjectEEENS5_INS4_8FunctionEEEm
Keybase:_ZN4node5http215HttpErrorStringERKN2v820FunctionCallbackInfoINS1_5ValueEEE
Keybase:_ZN4node5http219Http2StreamListener12OnStreamReadElRK8uv_buf_t
Keybase:_ZN4node5http219Http2StreamListener13OnStreamAllocEm
Keybase:_ZN4node5http220SetCallbackFunctionsERKN2v820FunctionCallbackInfoINS1_5ValueEEE
Keybase:_ZN4node5http222RefreshDefaultSettingsERKN2v820FunctionCallbackInfoINS1_5ValueEEE
Keybase:_ZN4node5http225TranslateNghttp2ErrorCodeEi
Keybase:_ZN4node5http233Http2StreamPerformanceEntryTraits10GetDetailsEPNS_11EnvironmentERKNS_11performance16PerformanceEntryIS1_EE
Keybase:_ZN4node5http234Http2SessionPerformanceEntryTraits10GetDetailsEPNS_11EnvironmentERKNS_11performance16PerformanceEntryIS1_EE
Keybase:_ZN4node5http27OriginsC1EPNS_11EnvironmentEN2v85LocalINS4_6StringEEEm
Keybase:_ZN4node5http27OriginsC2EPNS_11EnvironmentEN2v85LocalINS4_6StringEEEm
Keybase:_ZN4node5http29Http2Ping17DetachFromSessionEv
Keybase:_ZN4node5http29Http2Ping4DoneEbPKh
Keybase:_ZN4node5http29Http2Ping4SendEPKh
Keybase:_ZN4node5http29Http2PingC1EPNS0_12Http2SessionEN2v85LocalINS4_6ObjectEEENS5_INS4_8FunctionEEE
Keybase:_ZN4node5http29Http2PingC2EPNS0_12Http2SessionEN2v85LocalINS4_6ObjectEEENS5_INS4_8FunctionEEE
Keybase:_ZN4node6AssertERKNS_13AssertionInfoE
Keybase:_ZN4node6AtExitEPNS_11EnvironmentEPFvPvES2_
Keybase:_ZN4node6Buffer11HasInstanceEN2v85LocalINS1_5ValueEEE
Keybase:_ZN4node6Buffer11HasInstanceEN2v85LocalINS1_6ObjectEEE
Keybase:_ZN4node6Buffer26RegisterExternalReferencesEPNS_25ExternalReferenceRegistryE
Keybase:_ZN4node6Buffer3NewEPN2v87IsolateENS1_5LocalINS1_11ArrayBufferEEEmm
Keybase:_ZN4node6Buffer3NewEPN2v87IsolateENS1_5LocalINS1_6StringEEENS_8encodingE
Keybase:_ZN4node6Buffer3NewEPN2v87IsolateEPcm
Keybase:_ZN4node6Buffer3NewEPN2v87IsolateEPcmPFvS4_PvES5_
Keybase:_ZN4node6Buffer3NewEPN2v87IsolateEm
Keybase:_ZN4node6Buffer3NewEPNS_11EnvironmentEN2v85LocalINS3_11ArrayBufferEEEmm
Keybase:_ZN4node6Buffer3NewEPNS_11EnvironmentEPcm
Keybase:_ZN4node6Buffer3NewEPNS_11EnvironmentEPcmPFvS3_PvES4_
Keybase:_ZN4node6Buffer3NewEPNS_11EnvironmentEm
Keybase:_ZN4node6Buffer4CopyEPN2v87IsolateEPKcm
Keybase:_ZN4node6Buffer4CopyEPNS_11EnvironmentEPKcm
Keybase:_ZN4node6Buffer4DataEN2v85LocalINS1_5ValueEEE
Keybase:_ZN4node6Buffer4DataEN2v85LocalINS1_6ObjectEEE
Keybase:_ZN4node6Buffer6LengthEN2v85LocalINS1_5ValueEEE
Keybase:_ZN4node6Buffer6LengthEN2v85LocalINS1_6ObjectEEE
Keybase:_ZN4node6Dotenv12ParseContentENSt4__Cr17basic_string_viewIcNS1_11char_traitsIcEEEE
Keybase:_ZN4node6Dotenv14SetEnvironmentEPNS_11EnvironmentE
Keybase:_ZN4node6Dotenv15GetDataFromArgsERKNSt4__Cr6vectorINS1_12basic_stringIcNS1_11char_traitsIcEENS1_9allocatorIcEEEENS6_IS8_EEEE
Keybase:_ZN4node6Dotenv9ParsePathENSt4__Cr17basic_string_viewIcNS1_11char_traitsIcEEEE
Keybase:_ZN4node6EncodeEPN2v87IsolateEPKcmNS_8encodingE
Keybase:_ZN4node6EncodeEPN2v87IsolateEPKtm
Keybase:_ZN4node6FWriteEP8_IO_FILERKNSt4__Cr12basic_stringIcNS2_11char_traitsIcEENS2_9allocatorIcEEEE
Keybase:_ZN4node6crypto10ByteSource10FromBufferEN2v85LocalINS2_5ValueEEEb
Keybase:_ZN4node6crypto10ByteSource10FromStringEPNS_11EnvironmentEN2v85LocalINS4_6StringEEEb
Keybase:_ZN4node6crypto10ByteSource13ToArrayBufferEPNS_11EnvironmentE
Keybase:_ZN4node6crypto10ByteSource17FromEncodedStringEPNS_11EnvironmentEN2v85LocalINS4_6StringEEENS_8encodingE
Keybase:_ZN4node6crypto10ByteSource18FromSecretKeyBytesEPNS_11EnvironmentEN2v85LocalINS4_5ValueEEE
Keybase:_ZN4node6crypto10ByteSource18FromStringOrBufferEPNS_11EnvironmentEN2v85LocalINS4_5ValueEEE
Keybase:_ZN4node6crypto10ByteSource18NullTerminatedCopyEPNS_11EnvironmentEN2v85LocalINS4_5ValueEEE
Keybase:_ZN4node6crypto10ByteSource21ReleaseToBackingStoreEPNS_11EnvironmentE
Keybase:_ZN4node6crypto10ByteSource28FromSymmetricKeyObjectHandleEN2v85LocalINS2_5ValueEEE
Keybase:_ZN4node6crypto10ByteSource7ForeignEPKvm
Keybase:_ZN4node6crypto10ByteSource7FromBIOERKN7ncrypto10BIOPointerE
Keybase:_ZN4node6crypto10ByteSource8ToBufferEPNS_11EnvironmentE
Keybase:_ZN4node6crypto10ByteSource9AllocatedEPvm
Keybase:_ZN4node6crypto10ByteSourceC1EOS1_
Keybase:_ZN4node6crypto10ByteSourceC2EOS1_
Keybase:_ZN4node6crypto10ByteSourceD1Ev
Keybase:_ZN4node6crypto10ByteSourceD2Ev
Keybase:_ZN4node6crypto10ByteSourceaSEOS1_
Keybase:_ZN4node6crypto10CipherBase10CommonInitEPKcRKN7ncrypto6CipherEPKhiS9_ij
Keybase:_ZN4node6crypto10CipherBase10GetAuthTagERKN2v820FunctionCallbackInfoINS2_5ValueEEE
Keybase:_ZN4node6crypto10CipherBase10GetCiphersERKN2v820FunctionCallbackInfoINS2_5ValueEEE
Keybase:_ZN4node6crypto10CipherBase10InitializeEPNS_11EnvironmentEN2v85LocalINS4_6ObjectEEE
Keybase:_ZN4node6crypto10CipherBase10SetAuthTagERKN2v820FunctionCallbackInfoINS2_5ValueEEE
Keybase:_ZN4node6crypto10CipherBase13GetSSLCiphersERKN2v820FunctionCallbackInfoINS2_5ValueEEE
Keybase:_ZN4node6crypto10CipherBase14SetAutoPaddingERKN2v820FunctionCallbackInfoINS2_5ValueEEE
Keybase:_ZN4node6crypto10CipherBase14SetAutoPaddingEb
Keybase:_ZN4node6crypto10CipherBase17InitAuthenticatedEPKcij
Keybase:_ZN4node6crypto10CipherBase21CheckCCMMessageLengthEi
Keybase:_ZN4node6crypto10CipherBase25MaybePassAuthTagToOpenSSLEv
Keybase:_ZN4node6crypto10CipherBase26RegisterExternalReferencesEPNS_25ExternalReferenceRegistryE
Keybase:_ZN4node6crypto10CipherBase3NewERKN2v820FunctionCallbackInfoINS2_5ValueEEE
Keybase:_ZN4node6crypto10CipherBase4InitEPKcRKNS0_25ArrayBufferOrViewContentsIhEEj
Keybase:_ZN4node6crypto10CipherBase4InitERKN2v820FunctionCallbackInfoINS2_5ValueEEE
Keybase:_ZN4node6crypto10CipherBase5FinalEPNSt4__Cr10unique_ptrIN2v812BackingStoreENS2_14default_deleteIS5_EEEE
Keybase:_ZN4node6crypto10CipherBase5FinalERKN2v820FunctionCallbackInfoINS2_5ValueEEE
Keybase:_ZN4node6crypto10CipherBase6InitIvEPKcRKNS0_10ByteSourceERKNS0_25ArrayBufferOrViewContentsIhEEj
Keybase:_ZN4node6crypto10CipherBase6InitIvERKN2v820FunctionCallbackInfoINS2_5ValueEEE
Keybase:_ZN4node6crypto10CipherBase6SetAADERKN2v820FunctionCallbackInfoINS2_5ValueEEE
Keybase:_ZN4node6crypto10CipherBase6SetAADERKNS0_25ArrayBufferOrViewContentsIhEEi
Keybase:_ZN4node6crypto10CipherBase6UpdateEPKcmPNSt4__Cr10unique_ptrIN2v812BackingStoreENS4_14default_deleteIS7_EEEE
Keybase:_ZN4node6crypto10CipherBase6UpdateERKN2v820FunctionCallbackInfoINS2_5ValueEEE
Keybase:_ZN4node6crypto10CipherBaseC1EPNS_11EnvironmentEN2v85LocalINS4_6ObjectEEENS1_10CipherKindE
Keybase:_ZN4node6crypto10CipherBaseC2EPNS_11EnvironmentEN2v85LocalINS4_6ObjectEEENS1_10CipherKindE
Keybase:_ZN4node6crypto10HKDFConfigC1EOS1_
Keybase:_ZN4node6crypto10HKDFConfigC2EOS1_
Keybase:_ZN4node6crypto10HKDFConfigaSEOS1_
Keybase:_ZN4node6crypto10HKDFTraits10DeriveBitsEPNS_11EnvironmentERKNS0_10HKDFConfigEPNS0_10ByteSourceENS0_13CryptoJobModeE
Keybase:_ZN4node6crypto10HKDFTraits12EncodeOutputEPNS_11EnvironmentERKNS0_10HKDFConfigEPNS0_10ByteSourceE
Keybase:_ZN4node6crypto10HKDFTraits16AdditionalConfigENS0_13CryptoJobModeERKN2v820FunctionCallbackInfoINS3_5ValueEEEjPNS0_10HKDFConfigE
Keybase:_ZN4node6crypto10HashConfigC1EOS1_
Keybase:_ZN4node6crypto10HashConfigC2EOS1_
Keybase:_ZN4node6crypto10HashConfigaSEOS1_
Keybase:_ZN4node6crypto10HashTraits10DeriveBitsEPNS_11EnvironmentERKNS0_10HashConfigEPNS0_10ByteSourceENS0_13CryptoJobModeE
Keybase:_ZN4node6crypto10HashTraits12EncodeOutputEPNS_11EnvironmentERKNS0_10HashConfigEPNS0_10ByteSourceE
Keybase:_ZN4node6crypto10HashTraits16AdditionalConfigENS0_13CryptoJobModeERKN2v820FunctionCallbackInfoINS3_5ValueEEEjPNS0_10HashConfigE
Keybase:_ZN4node6crypto10HmacConfigC1EOS1_
Keybase:_ZN4node6crypto10HmacConfigC2EOS1_
Keybase:_ZN4node6crypto10HmacConfigaSEOS1_
Keybase:_ZN4node6crypto10HmacTraits10DeriveBitsEPNS_11EnvironmentERKNS0_10HmacConfigEPNS0_10ByteSourceENS0_13CryptoJobModeE
Keybase:_ZN4node6crypto10HmacTraits12EncodeOutputEPNS_11EnvironmentERKNS0_10HmacConfigEPNS0_10ByteSourceE
Keybase:_ZN4node6crypto10HmacTraits16AdditionalConfigENS0_13CryptoJobModeERKN2v820FunctionCallbackInfoINS3_5ValueEEEjPNS0_10HmacConfigE
Keybase:_ZN4node6crypto10InitializeEN2v85LocalINS1_6ObjectEEENS2_INS1_5ValueEEENS2_INS1_7ContextEEEPv
Keybase:_ZN4node6crypto10SignTraits10DeriveBitsEPNS_11EnvironmentERKNS0_17SignConfigurationEPNS0_10ByteSourceENS0_13CryptoJobModeE
Keybase:_ZN4node6crypto10SignTraits12EncodeOutputEPNS_11EnvironmentERKNS0_17SignConfigurationEPNS0_10ByteSourceE
Keybase:_ZN4node6crypto10SignTraits16AdditionalConfigENS0_13CryptoJobModeERKN2v820FunctionCallbackInfoINS3_5ValueEEEjPNS0_17SignConfigurationE
Keybase:_ZN4node6crypto11GetPeerCertEPNS_11EnvironmentERKN7ncrypto10SSLPointerEbb
Keybase:_ZN4node6crypto11ManagedX509C1EON7ncrypto11X509PointerE
Keybase:_ZN4node6crypto11ManagedX509C1ERKS1_
Keybase:_ZN4node6crypto11ManagedX509C2EON7ncrypto11X509PointerE
Keybase:_ZN4node6crypto11ManagedX509C2ERKS1_
Keybase:_ZN4node6crypto11ManagedX509aSERKS1_
Keybase:_ZN4node6crypto12DHBitsTraits10DeriveBitsEPNS_11EnvironmentERKNS0_12DHBitsConfigEPNS0_10ByteSourceENS0_13CryptoJobModeE
Keybase:_ZN4node6crypto12DHBitsTraits12EncodeOutputEPNS_11EnvironmentERKNS0_12DHBitsConfigEPNS0_10ByteSourceE
Keybase:_ZN4node6crypto12DHBitsTraits16AdditionalConfigENS0_13CryptoJobModeERKN2v820FunctionCallbackInfoINS3_5ValueEEEjPNS0_12DHBitsConfigE
Keybase:_ZN4node6crypto12EncodeBignumEPNS_11EnvironmentEPK9bignum_stiPN2v85LocalINS6_5ValueEEE
Keybase:_ZN4node6crypto12PBKDF2ConfigC1EOS1_
Keybase:_ZN4node6crypto12PBKDF2ConfigC2EOS1_
Keybase:_ZN4node6crypto12PBKDF2ConfigaSEOS1_
Keybase:_ZN4node6crypto12PBKDF2Traits10DeriveBitsEPNS_11EnvironmentERKNS0_12PBKDF2ConfigEPNS0_10ByteSourceENS0_13CryptoJobModeE
Keybase:_ZN4node6crypto12PBKDF2Traits12EncodeOutputEPNS_11EnvironmentERKNS0_12PBKDF2ConfigEPNS0_10ByteSourceE
Keybase:_ZN4node6crypto12PBKDF2Traits16AdditionalConfigENS0_13CryptoJobModeERKN2v820FunctionCallbackInfoINS3_5ValueEEEjPNS0_12PBKDF2ConfigE
Keybase:_ZN4node6crypto12ScryptConfigC1EOS1_
Keybase:_ZN4node6crypto12ScryptConfigC2EOS1_
Keybase:_ZN4node6crypto12ScryptConfigaSEOS1_
Keybase:_ZN4node6crypto12ScryptTraits10DeriveBitsEPNS_11EnvironmentERKNS0_12ScryptConfigEPNS0_10ByteSourceENS0_13CryptoJobModeE
Keybase:_ZN4node6crypto12ScryptTraits12EncodeOutputEPNS_11EnvironmentERKNS0_12ScryptConfigEPNS0_10ByteSourceE
Keybase:_ZN4node6crypto12ScryptTraits16AdditionalConfigENS0_13CryptoJobModeERKN2v820FunctionCallbackInfoINS3_5ValueEEEjPNS0_12ScryptConfigE
Keybase:_ZN4node6crypto12isSelfIssuedEP7x509_st
Keybase:_ZN4node6crypto13DiffieHellman10InitializeEPNS_11EnvironmentEN2v85LocalINS4_6ObjectEEE
Keybase:_ZN4node6crypto13DiffieHellman26RegisterExternalReferencesEPNS_25ExternalReferenceRegistryE
Keybase:_ZN4node6crypto13DiffieHellmanC1EPNS_11EnvironmentEN2v85LocalINS4_6ObjectEEEN7ncrypto9DHPointerE
Keybase:_ZN4node6crypto13DiffieHellmanC2EPNS_11EnvironmentEN2v85LocalINS4_6ObjectEEEN7ncrypto9DHPointerE
Keybase:_ZN4node6crypto13GetCipherInfoEPNS_11EnvironmentERKN7ncrypto10SSLPointerE
Keybase:_ZN4node6crypto13GetFipsCryptoERKN2v820FunctionCallbackInfoINS1_5ValueEEE
Keybase:_ZN4node6crypto13GetTLSSessionEPKhm
Keybase:_ZN4node6crypto13KeyObjectData12CreateSecretENS0_10ByteSourceE
Keybase:_ZN4node6crypto13KeyObjectData12GetParsedKeyENS0_7KeyTypeEPNS_11EnvironmentEON7ncrypto13EVPKeyPointerENS0_14ParseKeyResultEPKc
Keybase:_ZN4node6crypto13KeyObjectData16CreateAsymmetricENS0_7KeyTypeEON7ncrypto13EVPKeyPointerE
Keybase:_ZN4node6crypto13KeyObjectData18ToEncodedPublicKeyEPNS_11EnvironmentERKN7ncrypto13EVPKeyPointer27AsymmetricKeyEncodingConfigEPN2v85LocalINS9_5ValueEEE
Keybase:_ZN4node6crypto13KeyObjectData19GetPrivateKeyFromJsERKN2v820FunctionCallbackInfoINS2_5ValueEEEPjb
Keybase:_ZN4node6crypto13KeyObjectData19ToEncodedPrivateKeyEPNS_11EnvironmentERKN7ncrypto13EVPKeyPointer24PrivateKeyEncodingConfigEPN2v85LocalINS9_5ValueEEE
Keybase:_ZN4node6crypto13KeyObjectData26GetPublicKeyEncodingFromJsERKN2v820FunctionCallbackInfoINS2_5ValueEEEPjNS0_18KeyEncodingContextE
Keybase:_ZN4node6crypto13KeyObjectData27GetPrivateKeyEncodingFromJsERKN2v820FunctionCallbackInfoINS2_5ValueEEEPjNS0_18KeyEncodingContextE
Keybase:_ZN4node6crypto13KeyObjectData27GetPublicOrPrivateKeyFromJsERKN2v820FunctionCallbackInfoINS2_5ValueEEEPj
Keybase:_ZN4node6crypto13KeyObjectDataC1EDn
Keybase:_ZN4node6crypto13KeyObjectDataC1ENS0_10ByteSourceE
Keybase:_ZN4node6crypto13KeyObjectDataC1ENS0_7KeyTypeEON7ncrypto13EVPKeyPointerE
Keybase:_ZN4node6crypto13KeyObjectDataC2EDn
Keybase:_ZN4node6crypto13KeyObjectDataC2ENS0_10ByteSourceE
Keybase:_ZN4node6crypto13KeyObjectDataC2ENS0_7KeyTypeEON7ncrypto13EVPKeyPointerE
Keybase:_ZN4node6crypto13SecureContext10InitializeEPNS_11EnvironmentEN2v85LocalINS4_6ObjectEEE
Keybase:_ZN4node6crypto13SecureContext10LoadPKCS12ERKN2v820FunctionCallbackInfoINS2_5ValueEEE
Keybase:_ZN4node6crypto13SecureContext10SetCiphersERKN2v820FunctionCallbackInfoINS2_5ValueEEE
Keybase:_ZN4node6crypto13SecureContext10SetDHParamERKN2v820FunctionCallbackInfoINS2_5ValueEEE
Keybase:_ZN4node6crypto13SecureContext10SetOptionsERKN2v820FunctionCallbackInfoINS2_5ValueEEE
Keybase:_ZN4node6crypto13SecureContext10SetSigalgsERKN2v820FunctionCallbackInfoINS2_5ValueEEE
Keybase:_ZN4node6crypto13SecureContext11GetMaxProtoERKN2v820FunctionCallbackInfoINS2_5ValueEEE
Keybase:_ZN4node6crypto13SecureContext11GetMinProtoERKN2v820FunctionCallbackInfoINS2_5ValueEEE
Keybase:_ZN4node6crypto13SecureContext11HasInstanceEPNS_11EnvironmentERKN2v85LocalINS4_5ValueEEE
Keybase:_ZN4node6crypto13SecureContext11SetMaxProtoERKN2v820FunctionCallbackInfoINS2_5ValueEEE
Keybase:_ZN4node6crypto13SecureContext11SetMinProtoERKN2v820FunctionCallbackInfoINS2_5ValueEEE
Keybase:_ZN4node6crypto13SecureContext12AddRootCertsERKN2v820FunctionCallbackInfoINS2_5ValueEEE
Keybase:_ZN4node6crypto13SecureContext12SetECDHCurveERKN2v820FunctionCallbackInfoINS2_5ValueEEE
Keybase:_ZN4node6crypto13SecureContext12SetRootCertsEv
Keybase:_ZN4node6crypto13SecureContext13GetTicketKeysERKN2v820FunctionCallbackInfoINS2_5ValueEEE
Keybase:_ZN4node6crypto13SecureContext13SetTicketKeysERKN2v820FunctionCallbackInfoINS2_5ValueEEE
Keybase:_ZN4node6crypto13SecureContext15SetCipherSuitesERKN2v820FunctionCallbackInfoINS2_5ValueEEE
Keybase:_ZN4node6crypto13SecureContext16SetX509StoreFlagEm
Keybase:_ZN4node6crypto13SecureContext17SetKeylogCallbackEPFvPK6ssl_stPKcE
Keybase:_ZN4node6crypto13SecureContext17SetSessionTimeoutERKN2v820FunctionCallbackInfoINS2_5ValueEEE
Keybase:_ZN4node6crypto13SecureContext17TicketKeyCallbackEP6ssl_stPhS4_P17evp_cipher_ctx_stP11hmac_ctx_sti
Keybase:_ZN4node6crypto13SecureContext19SetSessionIdContextERKN2v820FunctionCallbackInfoINS2_5ValueEEE
Keybase:_ZN4node6crypto13SecureContext21SetGetSessionCallbackEPFP14ssl_session_stP6ssl_stPKhiPiE
Keybase:_ZN4node6crypto13SecureContext21SetNewSessionCallbackEPFiP6ssl_stP14ssl_session_stE
Keybase:_ZN4node6crypto13SecureContext22GetConstructorTemplateEPNS_11EnvironmentE
Keybase:_ZN4node6crypto13SecureContext23EnableTicketKeyCallbackERKN2v820FunctionCallbackInfoINS2_5ValueEEE
Keybase:_ZN4node6crypto13SecureContext25SetAllowPartialTrustChainERKN2v820FunctionCallbackInfoINS2_5ValueEEE
Keybase:_ZN4node6crypto13SecureContext26RegisterExternalReferencesEPNS_25ExternalReferenceRegistryE
Keybase:_ZN4node6crypto13SecureContext27SetSelectSNIContextCallbackEPFiP6ssl_stPiPvE
Keybase:_ZN4node6crypto13SecureContext27TicketCompatibilityCallbackEP6ssl_stPhS4_P17evp_cipher_ctx_stP11hmac_ctx_sti
Keybase:_ZN4node6crypto13SecureContext36GetCertStoreOwnedByThisSecureContextEv
Keybase:_ZN4node6crypto13SecureContext3NewERKN2v820FunctionCallbackInfoINS2_5ValueEEE
Keybase:_ZN4node6crypto13SecureContext4InitERKN2v820FunctionCallbackInfoINS2_5ValueEEE
Keybase:_ZN4node6crypto13SecureContext5CloseERKN2v820FunctionCallbackInfoINS2_5ValueEEE
Keybase:_ZN4node6crypto13SecureContext6AddCRLERKN2v820FunctionCallbackInfoINS2_5ValueEEE
Keybase:_ZN4node6crypto13SecureContext6CreateEPNS_11EnvironmentE
Keybase:_ZN4node6crypto13SecureContext6SetCRLEPNS_11EnvironmentERKN7ncrypto10BIOPointerE
Keybase:_ZN4node6crypto13SecureContext6SetKeyERKN2v820FunctionCallbackInfoINS2_5ValueEEE
Keybase:_ZN4node6crypto13SecureContext6UseKeyEPNS_11EnvironmentERKNS0_13KeyObjectDataE
Keybase:_ZN4node6crypto13SecureContext7AddCertEPNS_11EnvironmentEON7ncrypto10BIOPointerE
Keybase:_ZN4node6crypto13SecureContext7SetCertERKN2v820FunctionCallbackInfoINS2_5ValueEEE
Keybase:_ZN4node6crypto13SecureContext9AddCACertERKN2v820FunctionCallbackInfoINS2_5ValueEEE
Keybase:_ZN4node6crypto13SecureContext9CreateSSLEv
Keybase:_ZN4node6crypto13SecureContext9CtxGetterERKN2v820FunctionCallbackInfoINS2_5ValueEEE
Keybase:_ZN4node6crypto13SecureContext9SetCACertERKN7ncrypto10BIOPointerE
Keybase:_ZN4node6crypto13SecureContextC1EPNS_11EnvironmentEN2v85LocalINS4_6ObjectEEE
Keybase:_ZN4node6crypto13SecureContextC2EPNS_11EnvironmentEN2v85LocalINS4_6ObjectEEE
Keybase:_ZN4node6crypto13SecureContextD0Ev
Keybase:_ZN4node6crypto13SecureContextD1Ev
Keybase:_ZN4node6crypto13SecureContextD2Ev
Keybase:_ZN4node6crypto13SetFipsCryptoERKN2v820FunctionCallbackInfoINS1_5ValueEEE
Keybase:_ZN4node6crypto13UseSNIContextERKN7ncrypto10SSLPointerENS_17BaseObjectPtrImplINS0_13SecureContextELb0EEE
Keybase:_ZN4node6crypto14DhKeyGenTraits16AdditionalConfigENS0_13CryptoJobModeERKN2v820FunctionCallbackInfoINS3_5ValueEEEPjPNS0_16KeyPairGenConfigINS0_15DhKeyPairParamsEEE
Keybase:_ZN4node6crypto14DhKeyGenTraits5SetupEPNS0_16KeyPairGenConfigINS0_15DhKeyPairParamsEEE
Keybase:_ZN4node6crypto14ECDHBitsTraits10DeriveBitsEPNS_11EnvironmentERKNS0_14ECDHBitsConfigEPNS0_10ByteSourceENS0_13CryptoJobModeE
Keybase:_ZN4node6crypto14ECDHBitsTraits12EncodeOutputEPNS_11EnvironmentERKNS0_14ECDHBitsConfigEPNS0_10ByteSourceE
Keybase:_ZN4node6crypto14ECDHBitsTraits16AdditionalConfigENS0_13CryptoJobModeERKN2v820FunctionCallbackInfoINS3_5ValueEEEjPNS0_14ECDHBitsConfigE
Keybase:_ZN4node6crypto14EcKeyGenTraits16AdditionalConfigENS0_13CryptoJobModeERKN2v820FunctionCallbackInfoINS3_5ValueEEEPjPNS0_16KeyPairGenConfigINS0_15EcKeyPairParamsEEE
Keybase:_ZN4node6crypto14EcKeyGenTraits5SetupEPNS0_16KeyPairGenConfigINS0_15EcKeyPairParamsEEE
Keybase:_ZN4node6crypto14ExportJWKEcKeyEPNS_11EnvironmentERKNS0_13KeyObjectDataEN2v85LocalINS6_6ObjectEEE
Keybase:_ZN4node6crypto14ExportJWKEdKeyEPNS_11EnvironmentERKNS0_13KeyObjectDataEN2v85LocalINS6_6ObjectEEE
Keybase:_ZN4node6crypto14GetDhKeyDetailEPNS_11EnvironmentERKNS0_13KeyObjectDataEN2v85LocalINS6_6ObjectEEE
Keybase:_ZN4node6crypto14GetEcKeyDetailEPNS_11EnvironmentERKNS0_13KeyObjectDataEN2v85LocalINS6_6ObjectEEE
Keybase:_ZN4node6crypto14GroupOrderSizeERKN7ncrypto13EVPKeyPointerE
Keybase:_ZN4node6crypto14ImportJWKEcKeyEPNS_11EnvironmentEN2v85LocalINS3_6ObjectEEERKNS3_20FunctionCallbackInfoINS3_5ValueEEEj
Keybase:_ZN4node6crypto14InitCryptoOnceEPN2v87IsolateE
Keybase:_ZN4node6crypto14InitCryptoOnceEv
Keybase:_ZN4node6crypto14TestFipsCryptoERKN2v820FunctionCallbackInfoINS1_5ValueEEE
Keybase:_ZN4node6crypto15AESCipherConfigC1EOS1_
Keybase:_ZN4node6crypto15AESCipherConfigC2EOS1_
Keybase:_ZN4node6crypto15AESCipherConfigaSEOS1_
Keybase:_ZN4node6crypto15AESCipherTraits16AdditionalConfigENS0_13CryptoJobModeERKN2v820FunctionCallbackInfoINS3_5ValueEEEjNS0_19WebCryptoCipherModeEPNS0_15AESCipherConfigE
Keybase:_ZN4node6crypto15AESCipherTraits8DoCipherEPNS_11EnvironmentERKNS0_13KeyObjectDataENS0_19WebCryptoCipherModeERKNS0_15AESCipherConfigERKNS0_10ByteSourceEPSB_
Keybase:_ZN4node6crypto15DsaKeyGenTraits16AdditionalConfigENS0_13CryptoJobModeERKN2v820FunctionCallbackInfoINS3_5ValueEEEPjPNS0_16KeyPairGenConfigINS0_16DsaKeyPairParamsEEE
Keybase:_ZN4node6crypto15DsaKeyGenTraits5SetupEPNS0_16KeyPairGenConfigINS0_16DsaKeyPairParamsEEE
Keybase:_ZN4node6crypto15ECPointToBufferEPNS_11EnvironmentEPK11ec_group_stPK11ec_point_st23point_conversion_form_tPPKc
Keybase:_ZN4node6crypto15ExportJWKRsaKeyEPNS_11EnvironmentERKNS0_13KeyObjectDataEN2v85LocalINS6_6ObjectEEE
Keybase:_ZN4node6crypto15GetDsaKeyDetailEPNS_11EnvironmentERKNS0_13KeyObjectDataEN2v85LocalINS6_6ObjectEEE
Keybase:_ZN4node6crypto15GetEphemeralKeyEPNS_11EnvironmentERKN7ncrypto10SSLPointerE
Keybase:_ZN4node6crypto15GetRsaKeyDetailEPNS_11EnvironmentERKNS0_13KeyObjectDataEN2v85LocalINS6_6ObjectEEE
Keybase:_ZN4node6crypto15ImportJWKRsaKeyEPNS_11EnvironmentEN2v85LocalINS3_6ObjectEEERKNS3_20FunctionCallbackInfoINS3_5ValueEEEj
Keybase:_ZN4node6crypto15KeyObjectHandle10InitializeEPNS_11EnvironmentE
Keybase:_ZN4node6crypto15KeyObjectHandle11HasInstanceEPNS_11EnvironmentEN2v85LocalINS4_5ValueEEE
Keybase:_ZN4node6crypto15KeyObjectHandle12GetKeyDetailERKN2v820FunctionCallbackInfoINS2_5ValueEEE
Keybase:_ZN4node6crypto15KeyObjectHandle14CheckEcKeyDataERKN2v820FunctionCallbackInfoINS2_5ValueEEE
Keybase:_ZN4node6crypto15KeyObjectHandle19GetSymmetricKeySizeERKN2v820FunctionCallbackInfoINS2_5ValueEEE
Keybase:_ZN4node6crypto15KeyObjectHandle20GetAsymmetricKeyTypeERKN2v820FunctionCallbackInfoINS2_5ValueEEE
Keybase:_ZN4node6crypto15KeyObjectHandle26RegisterExternalReferencesEPNS_25ExternalReferenceRegistryE
Keybase:_ZN4node6crypto15KeyObjectHandle3NewERKN2v820FunctionCallbackInfoINS2_5ValueEEE
Keybase:_ZN4node6crypto15KeyObjectHandle4DataEv
Keybase:_ZN4node6crypto15KeyObjectHandle4InitERKN2v820FunctionCallbackInfoINS2_5ValueEEE
Keybase:_ZN4node6crypto15KeyObjectHandle6CreateEPNS_11EnvironmentERKNS0_13KeyObjectDataE
Keybase:_ZN4node6crypto15KeyObjectHandle6EqualsERKN2v820FunctionCallbackInfoINS2_5ValueEEE
Keybase:_ZN4node6crypto15KeyObjectHandle6ExportERKN2v820FunctionCallbackInfoINS2_5ValueEEE
Keybase:_ZN4node6crypto15KeyObjectHandle7InitJWKERKN2v820FunctionCallbackInfoINS2_5ValueEEE
Keybase:_ZN4node6crypto15KeyObjectHandle9ExportJWKERKN2v820FunctionCallbackInfoINS2_5ValueEEE
Keybase:_ZN4node6crypto15KeyObjectHandle9InitECRawERKN2v820FunctionCallbackInfoINS2_5ValueEEE
Keybase:_ZN4node6crypto15KeyObjectHandle9InitEDRawERKN2v820FunctionCallbackInfoINS2_5ValueEEE
Keybase:_ZN4node6crypto15KeyObjectHandleC1EPNS_11EnvironmentEN2v85LocalINS4_6ObjectEEE
Keybase:_ZN4node6crypto15KeyObjectHandleC2EPNS_11EnvironmentEN2v85LocalINS4_6ObjectEEE
Keybase:_ZN4node6crypto15NativeKeyObject10InitializeEPNS_11EnvironmentEN2v85LocalINS4_6ObjectEEE
Keybase:_ZN4node6crypto15NativeKeyObject21KeyObjectTransferData11DeserializeEPNS_11EnvironmentEN2v85LocalINS5_7ContextEEENSt4__Cr10unique_ptrINS_6worker12TransferDataENS9_14default_deleteISC_EEEE
Keybase:_ZN4node6crypto15NativeKeyObject26CreateNativeKeyObjectClassERKN2v820FunctionCallbackInfoINS2_5ValueEEE
Keybase:_ZN4node6crypto15NativeKeyObject26RegisterExternalReferencesEPNS_25ExternalReferenceRegistryE
Keybase:_ZN4node6crypto15NativeKeyObject3NewERKN2v820FunctionCallbackInfoINS2_5ValueEEE
Keybase:_ZN4node6crypto15RSACipherConfigC1EOS1_
Keybase:_ZN4node6crypto15RSACipherConfigC2EOS1_
Keybase:_ZN4node6crypto15RSACipherTraits16AdditionalConfigENS0_13CryptoJobModeERKN2v820FunctionCallbackInfoINS3_5ValueEEEjNS0_19WebCryptoCipherModeEPNS0_15RSACipherConfigE
Keybase:_ZN4node6crypto15RSACipherTraits8DoCipherEPNS_11EnvironmentERKNS0_13KeyObjectDataENS0_19WebCryptoCipherModeERKNS0_15RSACipherConfigERKNS0_10ByteSourceEPSB_
Keybase:_ZN4node6crypto15RsaKeyGenTraits16AdditionalConfigENS0_13CryptoJobModeERKN2v820FunctionCallbackInfoINS3_5ValueEEEPjPNS0_16KeyPairGenConfigINS0_16RsaKeyPairParamsEEE
Keybase:_ZN4node6crypto15RsaKeyGenTraits5SetupEPNS0_16KeyPairGenConfigINS0_16RsaKeyPairParamsEEE
Keybase:_ZN4node6crypto15SetEncodedValueEPNS_11EnvironmentEN2v85LocalINS3_6ObjectEEENS4_INS3_6StringEEEPK9bignum_sti
Keybase:_ZN4node6crypto15SetRsaOaepLabelERKNSt4__Cr10unique_ptrI15evp_pkey_ctx_stN7ncrypto15FunctionDeleterIS3_XadL_Z17EVP_PKEY_CTX_freeEEEEEERKNS0_10ByteSourceE
Keybase:_ZN4node6crypto15UseExtraCaCertsERKNSt4__Cr12basic_stringIcNS1_11char_traitsIcEENS1_9allocatorIcEEEE
Keybase:_ZN4node6crypto15X509Certificate10InitializeEPNS_11EnvironmentEN2v85LocalINS4_6ObjectEEE
Keybase:_ZN4node6crypto15X509Certificate11GetPeerCertEPNS_11EnvironmentERKN7ncrypto10SSLPointerENS1_22GetPeerCertificateFlagE
Keybase:_ZN4node6crypto15X509Certificate11HasInstanceEPNS_11EnvironmentEN2v85LocalINS4_6ObjectEEE
Keybase:_ZN4node6crypto15X509Certificate22GetConstructorTemplateEPNS_11EnvironmentE
Keybase:_ZN4node6crypto15X509Certificate26RegisterExternalReferencesEPNS_25ExternalReferenceRegistryE
Keybase:_ZN4node6crypto15X509Certificate27X509CertificateTransferData11DeserializeEPNS_11EnvironmentEN2v85LocalINS5_7ContextEEENSt4__Cr10unique_ptrINS_6worker12TransferDataENS9_14default_deleteISC_EEEE
Keybase:_ZN4node6crypto15X509Certificate3NewEPNS_11EnvironmentEN7ncrypto11X509PointerEP13stack_st_X509
Keybase:_ZN4node6crypto15X509Certificate3NewEPNS_11EnvironmentENSt4__Cr10shared_ptrINS0_11ManagedX509EEEP13stack_st_X509
Keybase:_ZN4node6crypto15X509Certificate7GetCertEPNS_11EnvironmentERKN7ncrypto10SSLPointerE
Keybase:_ZN4node6crypto15X509Certificate8toObjectEPNS_11EnvironmentE
Keybase:_ZN4node6crypto15X509Certificate8toObjectEPNS_11EnvironmentERKN7ncrypto8X509ViewE
Keybase:_ZN4node6crypto15X509CertificateC1EPNS_11EnvironmentEN2v85LocalINS4_6ObjectEEENSt4__Cr10shared_ptrINS0_11ManagedX509EEES7_
Keybase:_ZN4node6crypto15X509CertificateC2EPNS_11EnvironmentEN2v85LocalINS4_6ObjectEEENSt4__Cr10shared_ptrINS0_11ManagedX509EEES7_
Keybase:_ZN4node6crypto16CheckPrimeTraits10DeriveBitsEPNS_11EnvironmentERKNS0_16CheckPrimeConfigEPNS0_10ByteSourceENS0_13CryptoJobModeE
Keybase:_ZN4node6crypto16CheckPrimeTraits12EncodeOutputEPNS_11EnvironmentERKNS0_16CheckPrimeConfigEPNS0_10ByteSourceE
Keybase:_ZN4node6crypto16CheckPrimeTraits16AdditionalConfigENS0_13CryptoJobModeERKN2v820FunctionCallbackInfoINS3_5ValueEEEjPNS0_16CheckPrimeConfigE
Keybase:_ZN4node6crypto16CryptoErrorStore7CaptureEv
Keybase:_ZN4node6crypto16GetCryptoJobModeEN2v85LocalINS1_5ValueEEE
Keybase:_ZN4node6crypto16GetCurveFromNameEPKc
Keybase:_ZN4node6crypto16NewRootCertStoreEv
Keybase:_ZN4node6crypto16PKEY_SPKI_ExportERKNS0_13KeyObjectDataEPNS0_10ByteSourceE
Keybase:_ZN4node6crypto16PasswordCallbackEPciiPv
Keybase:_ZN4node6crypto16ThrowCryptoErrorEPNS_11EnvironmentEmPKc
Keybase:_ZN4node6crypto17ClientHelloParser11ParseHeaderEPKhm
Keybase:_ZN4node6crypto17ClientHelloParser14ParseExtensionEtPKhm
Keybase:_ZN4node6crypto17ClientHelloParser17ParseRecordHeaderEPKhm
Keybase:_ZN4node6crypto17ClientHelloParser19ParseTLSClientHelloEPKhm
Keybase:_ZN4node6crypto17ClientHelloParser5ParseEPKhm
Keybase:_ZN4node6crypto17DHKeyExportTraits16AdditionalConfigERKN2v820FunctionCallbackInfoINS2_5ValueEEEjPNS0_17DHKeyExportConfigE
Keybase:_ZN4node6crypto17DHKeyExportTraits8DoExportERKNS0_13KeyObjectDataENS0_18WebCryptoKeyFormatERKNS0_17DHKeyExportConfigEPNS0_10ByteSourceE
Keybase:_ZN4node6crypto17ECKeyExportTraits16AdditionalConfigERKN2v820FunctionCallbackInfoINS2_5ValueEEEjPNS0_17ECKeyExportConfigE
Keybase:_ZN4node6crypto17ECKeyExportTraits8DoExportERKNS0_13KeyObjectDataENS0_18WebCryptoKeyFormatERKNS0_17ECKeyExportConfigEPNS0_10ByteSourceE
Keybase:_ZN4node6crypto17PKEY_PKCS8_ExportERKNS0_13KeyObjectDataEPNS0_10ByteSourceE
Keybase:_ZN4node6crypto17RandomBytesTraits10DeriveBitsEPNS_11EnvironmentERKNS0_17RandomBytesConfigEPNS0_10ByteSourceENS0_13CryptoJobModeE
Keybase:_ZN4node6crypto17RandomBytesTraits12EncodeOutputEPNS_11EnvironmentERKNS0_17RandomBytesConfigEPNS0_10ByteSourceE
Keybase:_ZN4node6crypto17RandomBytesTraits16AdditionalConfigENS0_13CryptoJobModeERKN2v820FunctionCallbackInfoINS3_5ValueEEEjPNS0_17RandomBytesConfigE
Keybase:_ZN4node6crypto17RandomPrimeTraits10DeriveBitsEPNS_11EnvironmentERKNS0_17RandomPrimeConfigEPNS0_10ByteSourceENS0_13CryptoJobModeE
Keybase:_ZN4node6crypto17RandomPrimeTraits12EncodeOutputEPNS_11EnvironmentERKNS0_17RandomPrimeConfigEPNS0_10ByteSourceE
Keybase:_ZN4node6crypto17RandomPrimeTraits16AdditionalConfigENS0_13CryptoJobModeERKN2v820FunctionCallbackInfoINS3_5ValueEEEjPNS0_17RandomPrimeConfigE
Keybase:_ZN4node6crypto17SignConfigurationC1EOS1_
Keybase:_ZN4node6crypto17SignConfigurationC2EOS1_
Keybase:_ZN4node6crypto17SignConfigurationaSEOS1_
Keybase:_ZN4node6crypto18NoPasswordCallbackEPciiPv
Keybase:_ZN4node6crypto18ProcessFipsOptionsEv
Keybase:_ZN4node6crypto18RSAKeyExportTraits16AdditionalConfigERKN2v820FunctionCallbackInfoINS2_5ValueEEEjPNS0_18RSAKeyExportConfigE
Keybase:_ZN4node6crypto18RSAKeyExportTraits8DoExportERKNS0_13KeyObjectDataENS0_18WebCryptoKeyFormatERKNS0_18RSAKeyExportConfigEPNS0_10ByteSourceE
Keybase:_ZN4node6crypto18ResetRootCertStoreERKN2v820FunctionCallbackInfoINS1_5ValueEEE
Keybase:_ZN4node6crypto18SecretKeyGenTraits16AdditionalConfigENS0_13CryptoJobModeERKN2v820FunctionCallbackInfoINS3_5ValueEEEPjPNS0_18SecretKeyGenConfigE
Keybase:_ZN4node6crypto18SecretKeyGenTraits8DoKeyGenEPNS_11EnvironmentEPNS0_18SecretKeyGenConfigE
Keybase:_ZN4node6crypto18SecretKeyGenTraits9EncodeKeyEPNS_11EnvironmentEPNS0_18SecretKeyGenConfigE
Keybase:_ZN4node6crypto19GetOKPCurveFromNameEPKc
Keybase:_ZN4node6crypto19NidKeyPairGenTraits16AdditionalConfigENS0_13CryptoJobModeERKN2v820FunctionCallbackInfoINS3_5ValueEEEPjPNS0_16KeyPairGenConfigINS0_16NidKeyPairParamsEEE
Keybase:_ZN4node6crypto19NidKeyPairGenTraits5SetupEPNS0_16KeyPairGenConfigINS0_16NidKeyPairParamsEEE
Keybase:_ZN4node6crypto20GetCurrentCipherNameEPNS_11EnvironmentERKN7ncrypto10SSLPointerE
Keybase:_ZN4node6crypto21ArrayOfStringsToX509sEN2v85LocalINS1_7ContextEEENS2_INS1_5ArrayEEEPNSt4__Cr6vectorIP7x509_stNS7_9allocatorISA_EEEE
Keybase:_ZN4node6crypto21VerifyPeerCertificateERKN7ncrypto10SSLPointerEl
Keybase:_ZN4node6crypto22GetExtraCACertificatesERKN2v820FunctionCallbackInfoINS1_5ValueEEE
Keybase:_ZN4node6crypto22GetValidationErrorCodeEPNS_11EnvironmentEi
Keybase:_ZN4node6crypto23GetCurrentCipherVersionEPNS_11EnvironmentERKN7ncrypto10SSLPointerE
Keybase:_ZN4node6crypto23GetDigestImplementationEPNS_11EnvironmentEN2v85LocalINS3_5ValueEEES6_S6_
Keybase:_ZN4node6crypto23GetSystemCACertificatesERKN2v820FunctionCallbackInfoINS1_5ValueEEE
Keybase:_ZN4node6crypto23GetUserRootCertificatesERKN2v820FunctionCallbackInfoINS1_5ValueEEE
Keybase:_ZN4node6crypto23InternalVerifyIntegrityERKN2v820FunctionCallbackInfoINS1_5ValueEEE
Keybase:_ZN4node6crypto24GetOpenSSLSecLevelCryptoERKN2v820FunctionCallbackInfoINS1_5ValueEEE
Keybase:_ZN4node6crypto24GetOrCreateRootCertStoreEv
Keybase:_ZN4node6crypto24GetValidationErrorReasonEPNS_11EnvironmentEi
Keybase:_ZN4node6crypto26GetBundledRootCertificatesERKN2v820FunctionCallbackInfoINS1_5ValueEEE
Keybase:_ZN4node6crypto26GetSupportedHashAlgorithmsEPNS_11EnvironmentE
Keybase:_ZN4node6crypto26RegisterExternalReferencesEPNS_25ExternalReferenceRegistryE
Keybase:_ZN4node6crypto26cryptoErrorListToExceptionEPNS_11EnvironmentERKN7ncrypto15CryptoErrorListE
Keybase:_ZN4node6crypto27SaveSupportedHashAlgorithmsEPK9env_md_stPKcS5_Pv
Keybase:_ZN4node6crypto28GetOpenSSLSystemCertificatesEPNSt4__Cr6vectorIP7x509_stNS1_9allocatorIS4_EEEE
Keybase:_ZN4node6crypto29CleanupCachedRootCertificatesEv
Keybase:_ZN4node6crypto29SSL_CTX_use_certificate_chainEP10ssl_ctx_stON7ncrypto10BIOPointerEPNS3_11X509PointerES7_
Keybase:_ZN4node6crypto33StartLoadingCertificatesOffThreadERKN2v820FunctionCallbackInfoINS1_5ValueEEE
Keybase:_ZN4node6crypto3AES10InitializeEPNS_11EnvironmentEN2v85LocalINS4_6ObjectEEE
Keybase:_ZN4node6crypto3AES26RegisterExternalReferencesEPNS_25ExternalReferenceRegistryE
Keybase:_ZN4node6crypto4ECDH10ConvertKeyERKN2v820FunctionCallbackInfoINS2_5ValueEEE
Keybase:_ZN4node6crypto4ECDH10InitializeEPNS_11EnvironmentEN2v85LocalINS4_6ObjectEEE
Keybase:_ZN4node6crypto4ECDH12GenerateKeysERKN2v820FunctionCallbackInfoINS2_5ValueEEE
Keybase:_ZN4node6crypto4ECDH12GetPublicKeyERKN2v820FunctionCallbackInfoINS2_5ValueEEE
Keybase:_ZN4node6crypto4ECDH12SetPublicKeyERKN2v820FunctionCallbackInfoINS2_5ValueEEE
Keybase:_ZN4node6crypto4ECDH13BufferToPointEPNS_11EnvironmentEPK11ec_group_stN2v85LocalINS7_5ValueEEE
Keybase:_ZN4node6crypto4ECDH13ComputeSecretERKN2v820FunctionCallbackInfoINS2_5ValueEEE
Keybase:_ZN4node6crypto4ECDH13GetPrivateKeyERKN2v820FunctionCallbackInfoINS2_5ValueEEE
Keybase:_ZN4node6crypto4ECDH13SetPrivateKeyERKN2v820FunctionCallbackInfoINS2_5ValueEEE
Keybase:_ZN4node6crypto4ECDH14IsKeyPairValidEv
Keybase:_ZN4node6crypto4ECDH18IsKeyValidForCurveERKN7ncrypto13BignumPointerE
Keybase:_ZN4node6crypto4ECDH26RegisterExternalReferencesEPNS_25ExternalReferenceRegistryE
Keybase:_ZN4node6crypto4ECDH3NewERKN2v820FunctionCallbackInfoINS2_5ValueEEE
Keybase:_ZN4node6crypto4ECDH9GetCurvesERKN2v820FunctionCallbackInfoINS2_5ValueEEE
Keybase:_ZN4node6crypto4ECDHC1EPNS_11EnvironmentEN2v85LocalINS4_6ObjectEEEON7ncrypto12ECKeyPointerE
Keybase:_ZN4node6crypto4ECDHC2EPNS_11EnvironmentEN2v85LocalINS4_6ObjectEEEON7ncrypto12ECKeyPointerE
Keybase:_ZN4node6crypto4Hash10HashDigestERKN2v820FunctionCallbackInfoINS2_5ValueEEE
Keybase:_ZN4node6crypto4Hash10HashUpdateEPKcm
Keybase:_ZN4node6crypto4Hash10HashUpdateERKN2v820FunctionCallbackInfoINS2_5ValueEEE
Keybase:_ZN4node6crypto4Hash10InitializeEPNS_11EnvironmentEN2v85LocalINS4_6ObjectEEE
Keybase:_ZN4node6crypto4Hash13OneShotDigestERKN2v820FunctionCallbackInfoINS2_5ValueEEE
Keybase:_ZN4node6crypto4Hash16GetCachedAliasesERKN2v820FunctionCallbackInfoINS2_5ValueEEE
Keybase:_ZN4node6crypto4Hash26RegisterExternalReferencesEPNS_25ExternalReferenceRegistryE
Keybase:_ZN4node6crypto4Hash3NewERKN2v820FunctionCallbackInfoINS2_5ValueEEE
Keybase:_ZN4node6crypto4Hash8HashInitEPK9env_md_stN2v85MaybeIjEE
Keybase:_ZN4node6crypto4Hash9GetHashesERKN2v820FunctionCallbackInfoINS2_5ValueEEE
Keybase:_ZN4node6crypto4HashC1EPNS_11EnvironmentEN2v85LocalINS4_6ObjectEEE
Keybase:_ZN4node6crypto4HashC2EPNS_11EnvironmentEN2v85LocalINS4_6ObjectEEE
Keybase:_ZN4node6crypto4Hmac10HmacDigestERKN2v820FunctionCallbackInfoINS2_5ValueEEE
Keybase:_ZN4node6crypto4Hmac10HmacUpdateEPKcm
Keybase:_ZN4node6crypto4Hmac10HmacUpdateERKN2v820FunctionCallbackInfoINS2_5ValueEEE
Keybase:_ZN4node6crypto4Hmac10InitializeEPNS_11EnvironmentEN2v85LocalINS4_6ObjectEEE
Keybase:_ZN4node6crypto4Hmac26RegisterExternalReferencesEPNS_25ExternalReferenceRegistryE
Keybase:_ZN4node6crypto4Hmac3NewERKN2v820FunctionCallbackInfoINS2_5ValueEEE
Keybase:_ZN4node6crypto4Hmac8HmacInitEPKcS3_i
Keybase:_ZN4node6crypto4Hmac8HmacInitERKN2v820FunctionCallbackInfoINS2_5ValueEEE
Keybase:_ZN4node6crypto4HmacC1EPNS_11EnvironmentEN2v85LocalINS4_6ObjectEEE
Keybase:_ZN4node6crypto4HmacC2EPNS_11EnvironmentEN2v85LocalINS4_6ObjectEEE
Keybase:_ZN4node6crypto4Keys10InitializeEPNS_11EnvironmentEN2v85LocalINS4_6ObjectEEE
Keybase:_ZN4node6crypto4Keys26RegisterExternalReferencesEPNS_25ExternalReferenceRegistryE
Keybase:_ZN4node6crypto4Sign10InitializeEPNS_11EnvironmentEN2v85LocalINS4_6ObjectEEE
Keybase:_ZN4node6crypto4Sign10SignUpdateERKN2v820FunctionCallbackInfoINS2_5ValueEEE
Keybase:_ZN4node6crypto4Sign26RegisterExternalReferencesEPNS_25ExternalReferenceRegistryE
Keybase:_ZN4node6crypto4Sign3NewERKN2v820FunctionCallbackInfoINS2_5ValueEEE
Keybase:_ZN4node6crypto4Sign8SignInitERKN2v820FunctionCallbackInfoINS2_5ValueEEE
Keybase:_ZN4node6crypto4Sign9SignFinalERKN2v820FunctionCallbackInfoINS2_5ValueEEE
Keybase:_ZN4node6crypto4Sign9SignFinalERKN7ncrypto13EVPKeyPointerEiRKN2v85MaybeIiEENS0_9DSASigEncE
Keybase:_ZN4node6crypto4SignC1EPNS_11EnvironmentEN2v85LocalINS4_6ObjectEEE
Keybase:_ZN4node6crypto4SignC2EPNS_11EnvironmentEN2v85LocalINS4_6ObjectEEE
Keybase:_ZN4node6crypto4Util10InitializeEPNS_11EnvironmentEN2v85LocalINS4_6ObjectEEE
Keybase:_ZN4node6crypto4Util26RegisterExternalReferencesEPNS_25ExternalReferenceRegistryE
Keybase:_ZN4node6crypto5SPKAC10InitializeEPNS_11EnvironmentEN2v85LocalINS4_6ObjectEEE
Keybase:_ZN4node6crypto5SPKAC11VerifySpkacERKN2v820FunctionCallbackInfoINS2_5ValueEEE
Keybase:_ZN4node6crypto5SPKAC15ExportChallengeERKN2v820FunctionCallbackInfoINS2_5ValueEEE
Keybase:_ZN4node6crypto5SPKAC15ExportPublicKeyERKN2v820FunctionCallbackInfoINS2_5ValueEEE
Keybase:_ZN4node6crypto5SPKAC26RegisterExternalReferencesEPNS_25ExternalReferenceRegistryE
Keybase:_ZN4node6crypto5error8DecorateEPNS_11EnvironmentEN2v85LocalINS4_6ObjectEEEm
Keybase:_ZN4node6crypto6DSAAlg10InitializeEPNS_11EnvironmentEN2v85LocalINS4_6ObjectEEE
Keybase:_ZN4node6crypto6DSAAlg26RegisterExternalReferencesEPNS_25ExternalReferenceRegistryE
Keybase:_ZN4node6crypto6Keygen10InitializeEPNS_11EnvironmentEN2v85LocalINS4_6ObjectEEE
Keybase:_ZN4node6crypto6Keygen26RegisterExternalReferencesEPNS_25ExternalReferenceRegistryE
Keybase:_ZN4node6crypto6RSAAlg10InitializeEPNS_11EnvironmentEN2v85LocalINS4_6ObjectEEE
Keybase:_ZN4node6crypto6RSAAlg26RegisterExternalReferencesEPNS_25ExternalReferenceRegistryE
Keybase:_ZN4node6crypto6Random10InitializeEPNS_11EnvironmentEN2v85LocalINS4_6ObjectEEE
Keybase:_ZN4node6crypto6Random26RegisterExternalReferencesEPNS_25ExternalReferenceRegistryE
Keybase:_ZN4node6crypto6Timing10InitializeEPNS_11EnvironmentEN2v85LocalINS4_6ObjectEEE
Keybase:_ZN4node6crypto6Timing15TimingSafeEqualERKN2v820FunctionCallbackInfoINS2_5ValueEEE
Keybase:_ZN4node6crypto6Timing19FastTimingSafeEqualEN2v85LocalINS2_5ValueEEES5_S5_RNS2_22FastApiCallbackOptionsE
Keybase:_ZN4node6crypto6Timing26RegisterExternalReferencesEPNS_25ExternalReferenceRegistryE
Keybase:_ZN4node6crypto6Verify10InitializeEPNS_11EnvironmentEN2v85LocalINS4_6ObjectEEE
Keybase:_ZN4node6crypto6Verify10VerifyInitERKN2v820FunctionCallbackInfoINS2_5ValueEEE
Keybase:_ZN4node6crypto6Verify11VerifyFinalERKN2v820FunctionCallbackInfoINS2_5ValueEEE
Keybase:_ZN4node6crypto6Verify11VerifyFinalERKN7ncrypto13EVPKeyPointerERKNS0_10ByteSourceEiRKN2v85MaybeIiEEPb
Keybase:_ZN4node6crypto6Verify12VerifyUpdateERKN2v820FunctionCallbackInfoINS2_5ValueEEE
Keybase:_ZN4node6crypto6Verify26RegisterExternalReferencesEPNS_25ExternalReferenceRegistryE
Keybase:_ZN4node6crypto6Verify3NewERKN2v820FunctionCallbackInfoINS2_5ValueEEE
Keybase:_ZN4node6crypto6VerifyC1EPNS_11EnvironmentEN2v85LocalINS4_6ObjectEEE
Keybase:_ZN4node6crypto6VerifyC2EPNS_11EnvironmentEN2v85LocalINS4_6ObjectEEE
Keybase:_ZN4node6crypto7GetCertEPNS_11EnvironmentERKN7ncrypto10SSLPointerE
Keybase:_ZN4node6crypto7LoadBIOEPNS_11EnvironmentEN2v85LocalINS3_5ValueEEE
Keybase:_ZN4node6crypto7NodeBIO12PeekMultipleEPPcPmS4_
Keybase:_ZN4node6crypto7NodeBIO12PeekWritableEPm
Keybase:_ZN4node6crypto7NodeBIO15TryMoveReadHeadEv
Keybase:_ZN4node6crypto7NodeBIO19TryAllocateForWriteEm
Keybase:_ZN4node6crypto7NodeBIO3NewEP6bio_st
Keybase:_ZN4node6crypto7NodeBIO3NewEPNS_11EnvironmentE
Keybase:_ZN4node6crypto7NodeBIO4CtrlEP6bio_stilPv
Keybase:_ZN4node6crypto7NodeBIO4FreeEP6bio_st
Keybase:_ZN4node6crypto7NodeBIO4GetsEP6bio_stPci
Keybase:_ZN4node6crypto7NodeBIO4PeekEPm
Keybase:_ZN4node6crypto7NodeBIO4PutsEP6bio_stPKc
Keybase:_ZN4node6crypto7NodeBIO4ReadEP6bio_stPci
Keybase:_ZN4node6crypto7NodeBIO4ReadEPcm
Keybase:_ZN4node6crypto7NodeBIO5ResetEv
Keybase:_ZN4node6crypto7NodeBIO5WriteEP6bio_stPKci
Keybase:_ZN4node6crypto7NodeBIO5WriteEPKcm
Keybase:_ZN4node6crypto7NodeBIO6CommitEm
Keybase:_ZN4node6crypto7NodeBIO7FromBIOEP6bio_st
Keybase:_ZN4node6crypto7NodeBIO7IndexOfEcm
Keybase:_ZN4node6crypto7NodeBIO8NewFixedEPKcmPNS_11EnvironmentE
Keybase:_ZN4node6crypto7NodeBIO9FreeEmptyEv
Keybase:_ZN4node6crypto7NodeBIO9GetMethodEv
Keybase:_ZN4node6crypto7NodeBIOD0Ev
Keybase:_ZN4node6crypto7NodeBIOD1Ev
Keybase:_ZN4node6crypto7NodeBIOD2Ev
Keybase:_ZN4node6crypto7TLSWrap10CertCbDoneERKN2v820FunctionCallbackInfoINS2_5ValueEEE
Keybase:_ZN4node6crypto7TLSWrap10ClearErrorEv
Keybase:_ZN4node6crypto7TLSWrap10DestroySSLERKN2v820FunctionCallbackInfoINS2_5ValueEEE
Keybase:_ZN4node6crypto7TLSWrap10DoShutdownEPNS_12ShutdownWrapE
Keybase:_ZN4node6crypto7TLSWrap10GetSessionERKN2v820FunctionCallbackInfoINS2_5ValueEEE
Keybase:_ZN4node6crypto7TLSWrap10InitializeEN2v85LocalINS2_6ObjectEEENS3_INS2_5ValueEEENS3_INS2_7ContextEEEPv
Keybase:_ZN4node6crypto7TLSWrap10SetCACertsEPNS0_13SecureContextE
Keybase:_ZN4node6crypto7TLSWrap10SetKeyCertERKN2v820FunctionCallbackInfoINS2_5ValueEEE
Keybase:_ZN4node6crypto7TLSWrap10SetSessionERKN2v820FunctionCallbackInfoINS2_5ValueEEE
Keybase:_ZN4node6crypto7TLSWrap11EnableTraceERKN2v820FunctionCallbackInfoINS2_5ValueEEE
Keybase:_ZN4node6crypto7TLSWrap11GetFinishedERKN2v820FunctionCallbackInfoINS2_5ValueEEE
Keybase:_ZN4node6crypto7TLSWrap11GetProtocolERKN2v820FunctionCallbackInfoINS2_5ValueEEE
Keybase:_ZN4node6crypto7TLSWrap11LoadSessionERKN2v820FunctionCallbackInfoINS2_5ValueEEE
Keybase:_ZN4node6crypto7TLSWrap11RenegotiateERKN2v820FunctionCallbackInfoINS2_5ValueEEE
Keybase:_ZN4node6crypto7TLSWrap11RequestOCSPERKN2v820FunctionCallbackInfoINS2_5ValueEEE
Keybase:_ZN4node6crypto7TLSWrap11VerifyErrorERKN2v820FunctionCallbackInfoINS2_5ValueEEE
Keybase:_ZN4node6crypto7TLSWrap12EnableALPNCbERKN2v820FunctionCallbackInfoINS2_5ValueEEE
Keybase:_ZN4node6crypto7TLSWrap12EnableCertCbERKN2v820FunctionCallbackInfoINS2_5ValueEEE
Keybase:_ZN4node6crypto7TLSWrap12GetAsyncWrapEv
Keybase:_ZN4node6crypto7TLSWrap12GetTLSTicketERKN2v820FunctionCallbackInfoINS2_5ValueEEE
Keybase:_ZN4node6crypto7TLSWrap12InvokeQueuedEiPKc
Keybase:_ZN4node6crypto7TLSWrap12OnStreamReadElRK8uv_buf_t
Keybase:_ZN4node6crypto7TLSWrap13GetServernameERKN2v820FunctionCallbackInfoINS2_5ValueEEE
Keybase:_ZN4node6crypto7TLSWrap13OnStreamAllocEm
Keybase:_ZN4node6crypto7TLSWrap13SetServernameERKN2v820FunctionCallbackInfoINS2_5ValueEEE
Keybase:_ZN4node6crypto7TLSWrap13SetVerifyModeERKN2v820FunctionCallbackInfoINS2_5ValueEEE
Keybase:_ZN4node6crypto7TLSWrap13WaitForCertCbEPFvPvES2_
Keybase:_ZN4node6crypto7TLSWrap14GetCertificateERKN2v820FunctionCallbackInfoINS2_5ValueEEE
Keybase:_ZN4node6crypto7TLSWrap14NewSessionDoneERKN2v820FunctionCallbackInfoINS2_5ValueEEE
Keybase:_ZN4node6crypto7TLSWrap14ReleaseSessionEv
Keybase:_ZN4node6crypto7TLSWrap15GetPeerFinishedERKN2v820FunctionCallbackInfoINS2_5ValueEEE
Keybase:_ZN4node6crypto7TLSWrap15IsSessionReusedERKN2v820FunctionCallbackInfoINS2_5ValueEEE
Keybase:_ZN4node6crypto7TLSWrap15SSLInfoCallbackEPK6ssl_stii
Keybase:_ZN4node6crypto7TLSWrap15SetOCSPResponseERKN2v820FunctionCallbackInfoINS2_5ValueEEE
Keybase:_ZN4node6crypto7TLSWrap16GetSharedSigalgsERKN2v820FunctionCallbackInfoINS2_5ValueEEE
Keybase:_ZN4node6crypto7TLSWrap16NewSessionDoneCbEv
Keybase:_ZN4node6crypto7TLSWrap16SetALPNProtocolsERKN2v820FunctionCallbackInfoINS2_5ValueEEE
Keybase:_ZN4node6crypto7TLSWrap17ClearOcspResponseEv
Keybase:_ZN4node6crypto7TLSWrap17EnablePskCallbackERKN2v820FunctionCallbackInfoINS2_5ValueEEE
Keybase:_ZN4node6crypto7TLSWrap17GetWriteQueueSizeERKN2v820FunctionCallbackInfoINS2_5ValueEEE
Keybase:_ZN4node6crypto7TLSWrap17PskClientCallbackEP6ssl_stPKcPcjPhj
Keybase:_ZN4node6crypto7TLSWrap17PskServerCallbackEP6ssl_stPKcPhj
Keybase:_ZN4node6crypto7TLSWrap18CreateShutdownWrapEN2v85LocalINS2_6ObjectEEE
Keybase:_ZN4node6crypto7TLSWrap18GetPeerCertificateERKN2v820FunctionCallbackInfoINS2_5ValueEEE
Keybase:_ZN4node6crypto7TLSWrap18GetX509CertificateERKN2v820FunctionCallbackInfoINS2_5ValueEEE
Keybase:_ZN4node6crypto7TLSWrap18OnStreamAfterWriteEPNS_9WriteWrapEi
Keybase:_ZN4node6crypto7TLSWrap18SetMaxSendFragmentERKN2v820FunctionCallbackInfoINS2_5ValueEEE
Keybase:_ZN4node6crypto7TLSWrap18SetPskIdentityHintERKN2v820FunctionCallbackInfoINS2_5ValueEEE
Keybase:_ZN4node6crypto7TLSWrap19GetEphemeralKeyInfoERKN2v820FunctionCallbackInfoINS2_5ValueEEE
Keybase:_ZN4node6crypto7TLSWrap20EnableKeylogCallbackERKN2v820FunctionCallbackInfoINS2_5ValueEEE
Keybase:_ZN4node6crypto7TLSWrap20ExportKeyingMaterialERKN2v820FunctionCallbackInfoINS2_5ValueEEE
Keybase:_ZN4node6crypto7TLSWrap21OnClientHelloParseEndEPv
Keybase:_ZN4node6crypto7TLSWrap22EnableSessionCallbacksERKN2v820FunctionCallbackInfoINS2_5ValueEEE
Keybase:_ZN4node6crypto7TLSWrap22GetALPNNegotiatedProtoERKN2v820FunctionCallbackInfoINS2_5ValueEEE
Keybase:_ZN4node6crypto7TLSWrap22GetPeerX509CertificateERKN2v820FunctionCallbackInfoINS2_5ValueEEE
Keybase:_ZN4node6crypto7TLSWrap24SelectSNIContextCallbackEP6ssl_stPiPv
Keybase:_ZN4node6crypto7TLSWrap26RegisterExternalReferencesEPNS_25ExternalReferenceRegistryE
Keybase:_ZN4node6crypto7TLSWrap30WritesIssuedByPrevListenerDoneERKN2v820FunctionCallbackInfoINS2_5ValueEEE
Keybase:_ZN4node6crypto7TLSWrap4WrapERKN2v820FunctionCallbackInfoINS2_5ValueEEE
Keybase:_ZN4node6crypto7TLSWrap5CycleEv
Keybase:_ZN4node6crypto7TLSWrap5GetFDEv
Keybase:_ZN4node6crypto7TLSWrap5StartERKN2v820FunctionCallbackInfoINS2_5ValueEEE
Keybase:_ZN4node6crypto7TLSWrap6EncOutEv
Keybase:_ZN4node6crypto7TLSWrap7ClearInEv
Keybase:_ZN4node6crypto7TLSWrap7DestroyEv
Keybase:_ZN4node6crypto7TLSWrap7DoWriteEPNS_9WriteWrapEP8uv_buf_tmP11uv_stream_s
Keybase:_ZN4node6crypto7TLSWrap7InitSSLEv
Keybase:_ZN4node6crypto7TLSWrap7IsAliveEv
Keybase:_ZN4node6crypto7TLSWrap7ReceiveERKN2v820FunctionCallbackInfoINS2_5ValueEEE
Keybase:_ZN4node6crypto7TLSWrap8ClearOutEv
Keybase:_ZN4node6crypto7TLSWrap8ReadStopEv
Keybase:_ZN4node6crypto7TLSWrap9EndParserERKN2v820FunctionCallbackInfoINS2_5ValueEEE
Keybase:_ZN4node6crypto7TLSWrap9GetCipherERKN2v820FunctionCallbackInfoINS2_5ValueEEE
Keybase:_ZN4node6crypto7TLSWrap9IsClosingEv
Keybase:_ZN4node6crypto7TLSWrap9IsIPCPipeEv
Keybase:_ZN4node6crypto7TLSWrap9ReadStartEv
Keybase:_ZN4node6crypto7TLSWrapC1EPNS_11EnvironmentEN2v85LocalINS4_6ObjectEEENS1_4KindEPNS_10StreamBaseEPNS0_13SecureContextENS1_27UnderlyingStreamWriteStatusE
Keybase:_ZN4node6crypto7TLSWrapC2EPNS_11EnvironmentEN2v85LocalINS4_6ObjectEEENS1_4KindEPNS_10StreamBaseEPNS0_13SecureContextENS1_27UnderlyingStreamWriteStatusE
Keybase:_ZN4node6crypto7TLSWrapD0Ev
Keybase:_ZN4node6crypto7TLSWrapD1Ev
Keybase:_ZN4node6crypto7TLSWrapD2Ev
Keybase:_ZN4node6crypto8SignBase4InitEPKc
Keybase:_ZN4node6crypto8SignBase6UpdateEPKcm
Keybase:_ZN4node6crypto8SignBaseC1EPNS_11EnvironmentEN2v85LocalINS4_6ObjectEEE
Keybase:_ZN4node6crypto8SignBaseC2EPNS_11EnvironmentEN2v85LocalINS4_6ObjectEEE
Keybase:_ZN4node6crypto9SetGroupsEPNS0_13SecureContextEPKc
Keybase:_ZN4node6errors10InitializeEN2v85LocalINS1_6ObjectEEENS2_INS1_5ValueEEENS2_INS1_7ContextEEEPv
Keybase:_ZN4node6errors12errno_stringEi
Keybase:_ZN4node6errors13TryCatchScopeD1Ev
Keybase:_ZN4node6errors13TryCatchScopeD2Ev
Keybase:_ZN4node6errors15PrinterTryCatchD1Ev
Keybase:_ZN4node6errors15PrinterTryCatchD2Ev
Keybase:_ZN4node6errors18DecorateErrorStackEPNS_11EnvironmentEN2v85LocalINS3_5ValueEEENS4_INS3_7MessageEEE
Keybase:_ZN4node6errors18DecorateErrorStackEPNS_11EnvironmentERKNS0_13TryCatchScopeE
Keybase:_ZN4node6errors23GetErrorSourcePositionsERKN2v820FunctionCallbackInfoINS1_5ValueEEE
Keybase:_ZN4node6errors24TriggerUncaughtExceptionEPN2v87IsolateENS1_5LocalINS1_5ValueEEENS4_INS1_7MessageEEEb
Keybase:_ZN4node6errors24TriggerUncaughtExceptionEPN2v87IsolateERKNS1_8TryCatchE
Keybase:_ZN4node6errors25PerIsolateMessageListenerEN2v85LocalINS1_7MessageEEENS2_INS1_5ValueEEE
Keybase:_ZN4node6errors26RegisterExternalReferencesEPNS_25ExternalReferenceRegistryE
Keybase:_ZN4node6errors28SetPrepareStackTraceCallbackERKN2v820FunctionCallbackInfoINS1_5ValueEEE
Keybase:_ZN4node6fs_dir10AfterCloseEP7uv_fs_s
Keybase:_ZN4node6fs_dir12AfterOpenDirEP7uv_fs_s
Keybase:_ZN4node6fs_dir26CreatePerContextPropertiesEN2v85LocalINS1_6ObjectEEENS2_INS1_5ValueEEENS2_INS1_7ContextEEEPv
Keybase:_ZN4node6fs_dir26CreatePerIsolatePropertiesEPNS_11IsolateDataEN2v85LocalINS3_14ObjectTemplateEEE
Keybase:_ZN4node6fs_dir26RegisterExternalReferencesEPNS_25ExternalReferenceRegistryE
Keybase:_ZN4node6fs_dir9DirHandle3NewEPNS_11EnvironmentEP8uv_dir_s
Keybase:_ZN4node6fs_dir9DirHandle3NewERKN2v820FunctionCallbackInfoINS2_5ValueEEE
Keybase:_ZN4node6fs_dir9DirHandle4ReadERKN2v820FunctionCallbackInfoINS2_5ValueEEE
Keybase:_ZN4node6fs_dir9DirHandle5CloseERKN2v820FunctionCallbackInfoINS2_5ValueEEE
Keybase:_ZN4node6fs_dir9DirHandleC1EPNS_11EnvironmentEN2v85LocalINS4_6ObjectEEEP8uv_dir_s
Keybase:_ZN4node6fs_dir9DirHandleC2EPNS_11EnvironmentEN2v85LocalINS4_6ObjectEEEP8uv_dir_s
Keybase:_ZN4node6fs_dir9DirHandleD0Ev
Keybase:_ZN4node6fs_dir9DirHandleD1Ev
Keybase:_ZN4node6fs_dir9DirHandleD2Ev
Keybase:_ZN4node6loader10ModuleWrap11InstantiateERKN2v820FunctionCallbackInfoINS2_5ValueEEE
Keybase:_ZN4node6loader10ModuleWrap12EvaluateSyncERKN2v820FunctionCallbackInfoINS2_5ValueEEE
Keybase:_ZN4node6loader10ModuleWrap12GetNamespaceERKN2v820FunctionCallbackInfoINS2_5ValueEEE
Keybase:_ZN4node6loader10ModuleWrap12IsGraphAsyncERKN2v820FunctionCallbackInfoINS2_5ValueEEE
Keybase:_ZN4node6loader10ModuleWrap13GetFromModuleEPNS_11EnvironmentEN2v85LocalINS4_6ModuleEEE
Keybase:_ZN4node6loader10ModuleWrap13ResolveModuleEN2v85LocalINS2_7ContextEEENS3_INS2_6StringEEENS3_INS2_10FixedArrayEEENS3_INS2_6ModuleEEE
Keybase:_ZN4node6loader10ModuleWrap15InstantiateSyncERKN2v820FunctionCallbackInfoINS2_5ValueEEE
Keybase:_ZN4node6loader10ModuleWrap16CreateCachedDataERKN2v820FunctionCallbackInfoINS2_5ValueEEE
Keybase:_ZN4node6loader10ModuleWrap16GetLinkedRequestEj
Keybase:_ZN4node6loader10ModuleWrap16GetNamespaceSyncERKN2v820FunctionCallbackInfoINS2_5ValueEEE
Keybase:_ZN4node6loader10ModuleWrap16HasTopLevelAwaitERKN2v820FunctionCallbackInfoINS2_5ValueEEE
Keybase:_ZN4node6loader10ModuleWrap17GetModuleRequestsERKN2v820FunctionCallbackInfoINS2_5ValueEEE
Keybase:_ZN4node6loader10ModuleWrap18SetSyntheticExportERKN2v820FunctionCallbackInfoINS2_5ValueEEE
Keybase:_ZN4node6loader10ModuleWrap21GetHostDefinedOptionsEPN2v87IsolateENS2_5LocalINS2_6SymbolEEE
Keybase:_ZN4node6loader10ModuleWrap21ResolveModuleCallbackEN2v85LocalINS2_7ContextEEENS3_INS2_6StringEEENS3_INS2_10FixedArrayEEENS3_INS2_6ModuleEEE
Keybase:_ZN4node6loader10ModuleWrap23CompileSourceTextModuleEPNS_5RealmEN2v85LocalINS4_6StringEEES7_iiNS5_INS4_14PrimitiveArrayEEENSt4__Cr8optionalIPNS4_14ScriptCompiler10CachedDataEEEPb
Keybase:_ZN4node6loader10ModuleWrap26CreatePerContextPropertiesEN2v85LocalINS2_6ObjectEEENS3_INS2_5ValueEEENS3_INS2_7ContextEEEPv
Keybase:_ZN4node6loader10ModuleWrap26CreatePerIsolatePropertiesEPNS_11IsolateDataEN2v85LocalINS4_14ObjectTemplateEEE
Keybase:_ZN4node6loader10ModuleWrap26CreateRequiredModuleFacadeERKN2v820FunctionCallbackInfoINS2_5ValueEEE
Keybase:_ZN4node6loader10ModuleWrap26RegisterExternalReferencesEPNS_25ExternalReferenceRegistryE
Keybase:_ZN4node6loader10ModuleWrap27CheckUnsettledTopLevelAwaitEv
Keybase:_ZN4node6loader10ModuleWrap34SetImportModuleDynamicallyCallbackERKN2v820FunctionCallbackInfoINS2_5ValueEEE
Keybase:_ZN4node6loader10ModuleWrap37SetInitializeImportMetaObjectCallbackERKN2v820FunctionCallbackInfoINS2_5ValueEEE
Keybase:_ZN4node6loader10ModuleWrap38HostInitializeImportMetaObjectCallbackEN2v85LocalINS2_7ContextEEENS3_INS2_6ModuleEEENS3_INS2_6ObjectEEE
Keybase:_ZN4node6loader10ModuleWrap38SyntheticModuleEvaluationStepsCallbackEN2v85LocalINS2_7ContextEEENS3_INS2_6ModuleEEE
Keybase:_ZN4node6loader10ModuleWrap3NewERKN2v820FunctionCallbackInfoINS2_5ValueEEE
Keybase:_ZN4node6loader10ModuleWrap4LinkERKN2v820FunctionCallbackInfoINS2_5ValueEEE
Keybase:_ZN4node6loader10ModuleWrap8EvaluateERKN2v820FunctionCallbackInfoINS2_5ValueEEE
Keybase:_ZN4node6loader10ModuleWrap8GetErrorERKN2v820FunctionCallbackInfoINS2_5ValueEEE
Keybase:_ZN4node6loader10ModuleWrap9GetStatusERKN2v820FunctionCallbackInfoINS2_5ValueEEE
Keybase:_ZN4node6loader10ModuleWrapC1EPNS_5RealmEN2v85LocalINS4_6ObjectEEENS5_INS4_6ModuleEEENS5_INS4_6StringEEES7_NS5_INS4_5ValueEEE
Keybase:_ZN4node6loader10ModuleWrapC2EPNS_5RealmEN2v85LocalINS4_6ObjectEEENS5_INS4_6ModuleEEENS5_INS4_6StringEEES7_NS5_INS4_5ValueEEE
Keybase:_ZN4node6loader10ModuleWrapD0Ev
Keybase:_ZN4node6loader10ModuleWrapD1Ev
Keybase:_ZN4node6loader10ModuleWrapD2Ev
Keybase:_ZN4node6loader14ModuleCacheKey4FromEN2v85LocalINS2_7ContextEEENS3_INS2_13ModuleRequestEEE
Keybase:_ZN4node6loader22ThrowIfPromiseRejectedEPNS_5RealmEN2v85LocalINS3_7PromiseEEE
Keybase:_ZN4node6loader22ThrowIfPromiseRejectedERKN2v820FunctionCallbackInfoINS1_5ValueEEE
Keybase:_ZN4node6loader23ImportModuleDynamicallyEN2v85LocalINS1_7ContextEEENS2_INS1_4DataEEENS2_INS1_5ValueEEENS2_INS1_6StringEEENS2_INS1_10FixedArrayEEE
Keybase:_ZN4node6loader29LinkRequireFacadeWithOriginalEN2v85LocalINS1_7ContextEEENS2_INS1_6StringEEENS2_INS1_10FixedArrayEEENS2_INS1_6ModuleEEE
Keybase:_ZN4node6report10WalkHandleEP11uv_handle_sPvb
Keybase:_ZN4node6report11WriteReportERKN2v820FunctionCallbackInfoINS1_5ValueEEE
Keybase:_ZN4node6report17WalkHandleNetworkEP11uv_handle_sPv
Keybase:_ZN4node6report19WalkHandleNoNetworkEP11uv_handle_sPv
Keybase:_ZN4node6report26RegisterExternalReferencesEPNS_25ExternalReferenceRegistryE
Keybase:_ZN4node6report9GetReportERKN2v820FunctionCallbackInfoINS1_5ValueEEE
Keybase:_ZN4node6serdes10InitializeEN2v85LocalINS1_6ObjectEEENS2_INS1_5ValueEEENS2_INS1_7ContextEEEPv
Keybase:_ZN4node6serdes10ReallocateEPvmm
Keybase:_ZN4node6serdes12GetAllocatorEv
Keybase:_ZN4node6serdes17SerializerContext10WriteValueERKN2v820FunctionCallbackInfoINS2_5ValueEEE
Keybase:_ZN4node6serdes17SerializerContext11WriteDoubleERKN2v820FunctionCallbackInfoINS2_5ValueEEE
Keybase:_ZN4node6serdes17SerializerContext11WriteHeaderERKN2v820FunctionCallbackInfoINS2_5ValueEEE
Keybase:_ZN4node6serdes17SerializerContext11WriteUint32ERKN2v820FunctionCallbackInfoINS2_5ValueEEE
Keybase:_ZN4node6serdes17SerializerContext11WriteUint64ERKN2v820FunctionCallbackInfoINS2_5ValueEEE
Keybase:_ZN4node6serdes17SerializerContext13ReleaseBufferERKN2v820FunctionCallbackInfoINS2_5ValueEEE
Keybase:_ZN4node6serdes17SerializerContext13WriteRawBytesERKN2v820FunctionCallbackInfoINS2_5ValueEEE
Keybase:_ZN4node6serdes17SerializerContext15WriteHostObjectEPN2v87IsolateENS2_5LocalINS2_6ObjectEEE
Keybase:_ZN4node6serdes17SerializerContext16FreeBufferMemoryEPv
Keybase:_ZN4node6serdes17SerializerContext19ThrowDataCloneErrorEN2v85LocalINS2_6StringEEE
Keybase:_ZN4node6serdes17SerializerContext19TransferArrayBufferERKN2v820FunctionCallbackInfoINS2_5ValueEEE
Keybase:_ZN4node6serdes17SerializerContext22GetSharedArrayBufferIdEPN2v87IsolateENS2_5LocalINS2_17SharedArrayBufferEEE
Keybase:_ZN4node6serdes17SerializerContext22ReallocateBufferMemoryEPvmPm
Keybase:_ZN4node6serdes17SerializerContext37SetTreatArrayBufferViewsAsHostObjectsERKN2v820FunctionCallbackInfoINS2_5ValueEEE
Keybase:_ZN4node6serdes17SerializerContext3NewERKN2v820FunctionCallbackInfoINS2_5ValueEEE
Keybase:_ZN4node6serdes17SerializerContextC1EPNS_11EnvironmentEN2v85LocalINS4_6ObjectEEE
Keybase:_ZN4node6serdes17SerializerContextC2EPNS_11EnvironmentEN2v85LocalINS4_6ObjectEEE
Keybase:_ZN4node6serdes19DeserializerContext10ReadDoubleERKN2v820FunctionCallbackInfoINS2_5ValueEEE
Keybase:_ZN4node6serdes19DeserializerContext10ReadHeaderERKN2v820FunctionCallbackInfoINS2_5ValueEEE
Keybase:_ZN4node6serdes19DeserializerContext10ReadUint32ERKN2v820FunctionCallbackInfoINS2_5ValueEEE
Keybase:_ZN4node6serdes19DeserializerContext10ReadUint64ERKN2v820FunctionCallbackInfoINS2_5ValueEEE
Keybase:_ZN4node6serdes19DeserializerContext12ReadRawBytesERKN2v820FunctionCallbackInfoINS2_5ValueEEE
Keybase:_ZN4node6serdes19DeserializerContext14ReadHostObjectEPN2v87IsolateE
Keybase:_ZN4node6serdes19DeserializerContext19TransferArrayBufferERKN2v820FunctionCallbackInfoINS2_5ValueEEE
Keybase:_ZN4node6serdes19DeserializerContext20GetWireFormatVersionERKN2v820FunctionCallbackInfoINS2_5ValueEEE
Keybase:_ZN4node6serdes19DeserializerContext3NewERKN2v820FunctionCallbackInfoINS2_5ValueEEE
Keybase:_ZN4node6serdes19DeserializerContext9ReadValueERKN2v820FunctionCallbackInfoINS2_5ValueEEE
Keybase:_ZN4node6serdes19DeserializerContextC1EPNS_11EnvironmentEN2v85LocalINS4_6ObjectEEENS5_INS4_5ValueEEE
Keybase:_ZN4node6serdes19DeserializerContextC2EPNS_11EnvironmentEN2v85LocalINS4_6ObjectEEENS5_INS4_5ValueEEE
Keybase:_ZN4node6serdes26RegisterExternalReferencesEPNS_25ExternalReferenceRegistryE
Keybase:_ZN4node6sqlite12DatabaseSync12IsOpenGetterERKN2v820FunctionCallbackInfoINS2_5ValueEEE
Keybase:_ZN4node6sqlite12DatabaseSync12RemoveBackupEPNS0_9BackupJobE
Keybase:_ZN4node6sqlite12DatabaseSync13CreateSessionERKN2v820FunctionCallbackInfoINS2_5ValueEEE
Keybase:_ZN4node6sqlite12DatabaseSync13LoadExtensionERKN2v820FunctionCallbackInfoINS2_5ValueEEE
Keybase:_ZN4node6sqlite12DatabaseSync14ApplyChangesetERKN2v820FunctionCallbackInfoINS2_5ValueEEE
Keybase:_ZN4node6sqlite12DatabaseSync14CustomFunctionERKN2v820FunctionCallbackInfoINS2_5ValueEEE
Keybase:_ZN4node6sqlite12DatabaseSync14DeleteSessionsEv
Keybase:_ZN4node6sqlite12DatabaseSync15FinalizeBackupsEv
Keybase:_ZN4node6sqlite12DatabaseSync16UntrackStatementEPNS0_13StatementSyncE
Keybase:_ZN4node6sqlite12DatabaseSync17AggregateFunctionERKN2v820FunctionCallbackInfoINS2_5ValueEEE
Keybase:_ZN4node6sqlite12DatabaseSync18FinalizeStatementsEv
Keybase:_ZN4node6sqlite12DatabaseSync19EnableLoadExtensionERKN2v820FunctionCallbackInfoINS2_5ValueEEE
Keybase:_ZN4node6sqlite12DatabaseSync19IsTransactionGetterERKN2v820FunctionCallbackInfoINS2_5ValueEEE
Keybase:_ZN4node6sqlite12DatabaseSync23ShouldIgnoreSQLiteErrorEv
Keybase:_ZN4node6sqlite12DatabaseSync24SetIgnoreNextSQLiteErrorEb
Keybase:_ZN4node6sqlite12DatabaseSync3NewERKN2v820FunctionCallbackInfoINS2_5ValueEEE
Keybase:_ZN4node6sqlite12DatabaseSync4ExecERKN2v820FunctionCallbackInfoINS2_5ValueEEE
Keybase:_ZN4node6sqlite12DatabaseSync4OpenERKN2v820FunctionCallbackInfoINS2_5ValueEEE
Keybase:_ZN4node6sqlite12DatabaseSync4OpenEv
Keybase:_ZN4node6sqlite12DatabaseSync5CloseERKN2v820FunctionCallbackInfoINS2_5ValueEEE
Keybase:_ZN4node6sqlite12DatabaseSync7PrepareERKN2v820FunctionCallbackInfoINS2_5ValueEEE
Keybase:_ZN4node6sqlite12DatabaseSync8LocationERKN2v820FunctionCallbackInfoINS2_5ValueEEE
Keybase:_ZN4node6sqlite12DatabaseSync9AddBackupEPNS0_9BackupJobE
Keybase:_ZN4node6sqlite12DatabaseSyncC1EPNS_11EnvironmentEN2v85LocalINS4_6ObjectEEEONS0_25DatabaseOpenConfigurationEbb
Keybase:_ZN4node6sqlite12DatabaseSyncC2EPNS_11EnvironmentEN2v85LocalINS4_6ObjectEEEONS0_25DatabaseOpenConfigurationEbb
Keybase:_ZN4node6sqlite12DatabaseSyncD0Ev
Keybase:_ZN4node6sqlite12DatabaseSyncD1Ev
Keybase:_ZN4node6sqlite12DatabaseSyncD2Ev
Keybase:_ZN4node6sqlite13StatementSync10BindParamsERKN2v820FunctionCallbackInfoINS2_5ValueEEE
Keybase:_ZN4node6sqlite13StatementSync13ColumnToValueEi
Keybase:_ZN4node6sqlite13StatementSync14SetReadBigIntsERKN2v820FunctionCallbackInfoINS2_5ValueEEE
Keybase:_ZN4node6sqlite13StatementSync15SetReturnArraysERKN2v820FunctionCallbackInfoINS2_5ValueEEE
Keybase:_ZN4node6sqlite13StatementSync15SourceSQLGetterERKN2v820FunctionCallbackInfoINS2_5ValueEEE
Keybase:_ZN4node6sqlite13StatementSync16ColumnNameToNameEi
Keybase:_ZN4node6sqlite13StatementSync17ExpandedSQLGetterERKN2v820FunctionCallbackInfoINS2_5ValueEEE
Keybase:_ZN4node6sqlite13StatementSync22GetConstructorTemplateEPNS_11EnvironmentE
Keybase:_ZN4node6sqlite13StatementSync27SetAllowBareNamedParametersERKN2v820FunctionCallbackInfoINS2_5ValueEEE
Keybase:_ZN4node6sqlite13StatementSync30SetAllowUnknownNamedParametersERKN2v820FunctionCallbackInfoINS2_5ValueEEE
Keybase:_ZN4node6sqlite13StatementSync3AllERKN2v820FunctionCallbackInfoINS2_5ValueEEE
Keybase:_ZN4node6sqlite13StatementSync3GetERKN2v820FunctionCallbackInfoINS2_5ValueEEE
Keybase:_ZN4node6sqlite13StatementSync3RunERKN2v820FunctionCallbackInfoINS2_5ValueEEE
Keybase:_ZN4node6sqlite13StatementSync6CreateEPNS_11EnvironmentENS_17BaseObjectPtrImplINS0_12DatabaseSyncELb0EEEP12sqlite3_stmt
Keybase:_ZN4node6sqlite13StatementSync7ColumnsERKN2v820FunctionCallbackInfoINS2_5ValueEEE
Keybase:_ZN4node6sqlite13StatementSync7IterateERKN2v820FunctionCallbackInfoINS2_5ValueEEE
Keybase:_ZN4node6sqlite13StatementSync8FinalizeEv
Keybase:_ZN4node6sqlite13StatementSync9BindValueERKN2v85LocalINS2_5ValueEEEi
Keybase:_ZN4node6sqlite13StatementSyncC1EPNS_11EnvironmentEN2v85LocalINS4_6ObjectEEENS_17BaseObjectPtrImplINS0_12DatabaseSyncELb0EEEP12sqlite3_stmt
Keybase:_ZN4node6sqlite13StatementSyncC2EPNS_11EnvironmentEN2v85LocalINS4_6ObjectEEENS_17BaseObjectPtrImplINS0_12DatabaseSyncELb0EEEP12sqlite3_stmt
Keybase:_ZN4node6sqlite13StatementSyncD0Ev
Keybase:_ZN4node6sqlite13StatementSyncD1Ev
Keybase:_ZN4node6sqlite13StatementSyncD2Ev
Keybase:_ZN4node6sqlite15DefineConstantsEN2v85LocalINS1_6ObjectEEE
Keybase:_ZN4node6sqlite16ExtractRowValuesEPN2v87IsolateEiPNS0_13StatementSyncEPNS1_11LocalVectorINS1_5ValueEEE
Keybase:_ZN4node6sqlite18IllegalConstructorERKN2v820FunctionCallbackInfoINS1_5ValueEEE
Keybase:_ZN4node6sqlite19UserDefinedFunction5xFuncEP15sqlite3_contextiPP13sqlite3_value
Keybase:_ZN4node6sqlite19UserDefinedFunction8xDestroyEPv
Keybase:_ZN4node6sqlite19UserDefinedFunctionC1EPNS_11EnvironmentEN2v85LocalINS4_8FunctionEEEPNS0_12DatabaseSyncEb
Keybase:_ZN4node6sqlite19UserDefinedFunctionC2EPNS_11EnvironmentEN2v85LocalINS4_8FunctionEEEPNS0_12DatabaseSyncEb
Keybase:_ZN4node6sqlite19UserDefinedFunctionD1Ev
Keybase:_ZN4node6sqlite19UserDefinedFunctionD2Ev
Keybase:_ZN4node6sqlite20ValidateDatabasePathEPNS_11EnvironmentEN2v85LocalINS3_5ValueEEERKNSt4__Cr12basic_stringIcNS7_11char_traitsIcEENS7_9allocatorIcEEEE
Keybase:_ZN4node6sqlite21JSValueToSQLiteResultEPN2v87IsolateEP15sqlite3_contextNS1_5LocalINS1_5ValueEEE
Keybase:_ZN4node6sqlite21StatementSyncIterator22GetConstructorTemplateEPNS_11EnvironmentE
Keybase:_ZN4node6sqlite21StatementSyncIterator4NextERKN2v820FunctionCallbackInfoINS2_5ValueEEE
Keybase:_ZN4node6sqlite21StatementSyncIterator6CreateEPNS_11EnvironmentENS_17BaseObjectPtrImplINS0_13StatementSyncELb0EEE
Keybase:_ZN4node6sqlite21StatementSyncIterator6ReturnERKN2v820FunctionCallbackInfoINS2_5ValueEEE
Keybase:_ZN4node6sqlite21StatementSyncIteratorC1EPNS_11EnvironmentEN2v85LocalINS4_6ObjectEEENS_17BaseObjectPtrImplINS0_13StatementSyncELb0EEE
Keybase:_ZN4node6sqlite21StatementSyncIteratorC2EPNS_11EnvironmentEN2v85LocalINS4_6ObjectEEENS_17BaseObjectPtrImplINS0_13StatementSyncELb0EEE
Keybase:_ZN4node6sqlite21StatementSyncIteratorD0Ev
Keybase:_ZN4node6sqlite21StatementSyncIteratorD1Ev
Keybase:_ZN4node6sqlite21StatementSyncIteratorD2Ev
Keybase:_ZN4node6sqlite6BackupERKN2v820FunctionCallbackInfoINS1_5ValueEEE
Keybase:_ZN4node6sqlite7Session22GetConstructorTemplateEPNS_11EnvironmentE
Keybase:_ZN4node6sqlite7Session5CloseERKN2v820FunctionCallbackInfoINS2_5ValueEEE
Keybase:_ZN4node6sqlite7Session6CreateEPNS_11EnvironmentENS_17BaseObjectPtrImplINS0_12DatabaseSyncELb1EEEP15sqlite3_session
Keybase:_ZN4node6sqlite7Session6DeleteEv
Keybase:_ZN4node6sqlite7SessionC1EPNS_11EnvironmentEN2v85LocalINS4_6ObjectEEENS_17BaseObjectPtrImplINS0_12DatabaseSyncELb1EEEP15sqlite3_session
Keybase:_ZN4node6sqlite7SessionC2EPNS_11EnvironmentEN2v85LocalINS4_6ObjectEEENS_17BaseObjectPtrImplINS0_12DatabaseSyncELb1EEEP15sqlite3_session
Keybase:_ZN4node6sqlite7SessionD0Ev
Keybase:_ZN4node6sqlite7SessionD1Ev
Keybase:_ZN4node6sqlite7SessionD2Ev
Keybase:_ZN4node6timers11BindingData11DeserializeEN2v85LocalINS2_7ContextEEENS3_INS2_6ObjectEEEiPNS_21InternalFieldInfoBaseE
Keybase:_ZN4node6timers11BindingData11SetupTimersERKN2v820FunctionCallbackInfoINS2_5ValueEEE
Keybase:_ZN4node6timers11BindingData15FastGetLibuvNowEN2v85LocalINS2_5ValueEEE
Keybase:_ZN4node6timers11BindingData15GetLibuvNowImplEPS1_
Keybase:_ZN4node6timers11BindingData15SlowGetLibuvNowERKN2v820FunctionCallbackInfoINS2_5ValueEEE
Keybase:_ZN4node6timers11BindingData17FastScheduleTimerEN2v85LocalINS2_6ObjectEEEl
Keybase:_ZN4node6timers11BindingData17ScheduleTimerImplEPS1_l
Keybase:_ZN4node6timers11BindingData17SlowScheduleTimerERKN2v820FunctionCallbackInfoINS2_5ValueEEE
Keybase:_ZN4node6timers11BindingData18FastToggleTimerRefEN2v85LocalINS2_6ObjectEEEb
Keybase:_ZN4node6timers11BindingData18SlowToggleTimerRefERKN2v820FunctionCallbackInfoINS2_5ValueEEE
Keybase:_ZN4node6timers11BindingData18ToggleTimerRefImplEPS1_b
Keybase:_ZN4node6timers11BindingData19fast_get_libuv_now_E
Keybase:_ZN4node6timers11BindingData20fast_schedule_timer_E
Keybase:_ZN4node6timers11BindingData22FastToggleImmediateRefEN2v85LocalINS2_6ObjectEEEb
Keybase:_ZN4node6timers11BindingData22SlowToggleImmediateRefERKN2v820FunctionCallbackInfoINS2_5ValueEEE
Keybase:_ZN4node6timers11BindingData22ToggleImmediateRefImplEPS1_b
Keybase:_ZN4node6timers11BindingData22fast_toggle_timer_ref_E
Keybase:_ZN4node6timers11BindingData23PrepareForSerializationEN2v85LocalINS2_7ContextEEEPNS2_15SnapshotCreatorE
Keybase:_ZN4node6timers11BindingData26CreatePerContextPropertiesEN2v85LocalINS2_6ObjectEEENS3_INS2_5ValueEEENS3_INS2_7ContextEEEPv
Keybase:_ZN4node6timers11BindingData26CreatePerIsolatePropertiesEPNS_11IsolateDataEN2v85LocalINS4_14ObjectTemplateEEE
Keybase:_ZN4node6timers11BindingData26fast_toggle_immediate_ref_E
Keybase:_ZN4node6timers11BindingData31RegisterTimerExternalReferencesEPNS_25ExternalReferenceRegistryE
Keybase:_ZN4node6timers11BindingData9SerializeEi
Keybase:_ZN4node6timers11BindingDataC1EPNS_5RealmEN2v85LocalINS4_6ObjectEEE
Keybase:_ZN4node6timers11BindingDataC2EPNS_5RealmEN2v85LocalINS4_6ObjectEEE
Keybase:_ZN4node6worker11MessagePort11PostMessageEPNS_11EnvironmentEN2v85LocalINS4_7ContextEEENS5_INS4_5ValueEEERKNS_16MaybeStackBufferIS9_Lm8EEE
Keybase:_ZN4node6worker11MessagePort11PostMessageERKN2v820FunctionCallbackInfoINS2_5ValueEEE
Keybase:_ZN4node6worker11MessagePort12TriggerAsyncEv
Keybase:_ZN4node6worker11MessagePort13MoveToContextERKN2v820FunctionCallbackInfoINS2_5ValueEEE
Keybase:_ZN4node6worker11MessagePort14ReceiveMessageEN2v85LocalINS2_7ContextEEENS1_21MessageProcessingModeEPNS3_INS2_5ValueEEE
Keybase:_ZN4node6worker11MessagePort14ReceiveMessageERKN2v820FunctionCallbackInfoINS2_5ValueEEE
Keybase:_ZN4node6worker11MessagePort20TransferForMessagingEv
Keybase:_ZN4node6worker11MessagePort3NewEPNS_11EnvironmentEN2v85LocalINS4_7ContextEEENSt4__Cr10unique_ptrINS0_15MessagePortDataENS8_14default_deleteISA_EEEENS8_10shared_ptrINS0_12SiblingGroupEEE
Keybase:_ZN4node6worker11MessagePort3NewERKN2v820FunctionCallbackInfoINS2_5ValueEEE
Keybase:_ZN4node6worker11MessagePort4StopERKN2v820FunctionCallbackInfoINS2_5ValueEEE
Keybase:_ZN4node6worker11MessagePort4StopEv
Keybase:_ZN4node6worker11MessagePort5CloseEN2v85LocalINS2_5ValueEEE
Keybase:_ZN4node6worker11MessagePort5DrainERKN2v820FunctionCallbackInfoINS2_5ValueEEE
Keybase:_ZN4node6worker11MessagePort5StartERKN2v820FunctionCallbackInfoINS2_5ValueEEE
Keybase:_ZN4node6worker11MessagePort5StartEv
Keybase:_ZN4node6worker11MessagePort6DetachEv
Keybase:_ZN4node6worker11MessagePort7OnCloseEv
Keybase:_ZN4node6worker11MessagePort8EntangleEPS1_PNS0_15MessagePortDataE
Keybase:_ZN4node6worker11MessagePort8EntangleEPS1_S2_
Keybase:_ZN4node6worker11MessagePort9OnMessageENS1_21MessageProcessingModeE
Keybase:_ZN4node6worker11MessagePortC1EPNS_11EnvironmentEN2v85LocalINS4_7ContextEEENS5_INS4_6ObjectEEE
Keybase:_ZN4node6worker11MessagePortC2EPNS_11EnvironmentEN2v85LocalINS4_7ContextEEENS5_INS4_6ObjectEEE
Keybase:_ZN4node6worker11MessagePortD0Ev
Keybase:_ZN4node6worker11MessagePortD1Ev
Keybase:_ZN4node6worker11MessagePortD2Ev
Keybase:_ZN4node6worker12SiblingGroup11DisentangleEPNS0_15MessagePortDataE
Keybase:_ZN4node6worker12SiblingGroup13groups_mutex_E
Keybase:_ZN4node6worker12SiblingGroup17CheckSiblingGroupERKNSt4__Cr12basic_stringIcNS2_11char_traitsIcEENS2_9allocatorIcEEEE
Keybase:_ZN4node6worker12SiblingGroup3GetERKNSt4__Cr12basic_stringIcNS2_11char_traitsIcEENS2_9allocatorIcEEEE
Keybase:_ZN4node6worker12SiblingGroup7groups_E
Keybase:_ZN4node6worker12SiblingGroup8DispatchEPNS0_15MessagePortDataENSt4__Cr10shared_ptrINS0_7MessageEEEPNS4_12basic_stringIcNS4_11char_traitsIcEENS4_9allocatorIcEEEE
Keybase:_ZN4node6worker12SiblingGroup8EntangleEPNS0_15MessagePortDataE
Keybase:_ZN4node6worker12SiblingGroup8EntangleESt16initializer_listIPNS0_15MessagePortDataEE
Keybase:_ZN4node6worker12SiblingGroupC1ERKNSt4__Cr12basic_stringIcNS2_11char_traitsIcEENS2_9allocatorIcEEEE
Keybase:_ZN4node6worker12SiblingGroupC2ERKNSt4__Cr12basic_stringIcNS2_11char_traitsIcEENS2_9allocatorIcEEEE
Keybase:_ZN4node6worker12SiblingGroupD1Ev
Keybase:_ZN4node6worker12SiblingGroupD2Ev
Keybase:_ZN4node6worker12TransferData21FinalizeTransferWriteEN2v85LocalINS2_7ContextEEEPNS2_15ValueSerializerE
Keybase:_ZN4node6worker14JSTransferable16IsJSTransferableEPNS_11EnvironmentEN2v85LocalINS4_7ContextEEENS5_INS4_6ObjectEEE
Keybase:_ZN4node6worker14JSTransferable20FinalizeTransferReadEN2v85LocalINS2_7ContextEEEPNS2_17ValueDeserializerE
Keybase:_ZN4node6worker14JSTransferable20TransferForMessagingEv
Keybase:_ZN4node6worker14JSTransferable4Data11DeserializeEPNS_11EnvironmentEN2v85LocalINS5_7ContextEEENSt4__Cr10unique_ptrINS0_12TransferDataENS9_14default_deleteISB_EEEE
Keybase:_ZN4node6worker14JSTransferable4Data21FinalizeTransferWriteEN2v85LocalINS3_7ContextEEEPNS3_15ValueSerializerE
Keybase:_ZN4node6worker14JSTransferable4DataC1EONSt4__Cr12basic_stringIcNS3_11char_traitsIcEENS3_9allocatorIcEEEEON2v86GlobalINSB_5ValueEEE
Keybase:_ZN4node6worker14JSTransferable4DataC2EONSt4__Cr12basic_stringIcNS3_11char_traitsIcEENS3_9allocatorIcEEEEON2v86GlobalINSB_5ValueEEE
Keybase:_ZN4node6worker14JSTransferable4WrapEPNS_11EnvironmentEN2v85LocalINS4_6ObjectEEE
Keybase:_ZN4node6worker14JSTransferableC1EPNS_11EnvironmentEN2v85LocalINS4_6ObjectEEES7_
Keybase:_ZN4node6worker14JSTransferableC2EPNS_11EnvironmentEN2v85LocalINS4_6ObjectEEES7_
Keybase:_ZN4node6worker14JSTransferableD0Ev
Keybase:_ZN4node6worker14JSTransferableD1Ev
Keybase:_ZN4node6worker14JSTransferableD2Ev
Keybase:_ZN4node6worker15GetTransferListEPNS_11EnvironmentEN2v85LocalINS3_7ContextEEENS4_INS3_5ValueEEEPNS_16MaybeStackBufferIS8_Lm8EEE
Keybase:_ZN4node6worker15MessagePortData11DeserializeEPNS_11EnvironmentEN2v85LocalINS4_7ContextEEENSt4__Cr10unique_ptrINS0_12TransferDataENS8_14default_deleteISA_EEEE
Keybase:_ZN4node6worker15MessagePortData11DisentangleEv
Keybase:_ZN4node6worker15MessagePortData18AddToIncomingQueueENSt4__Cr10shared_ptrINS0_7MessageEEE
Keybase:_ZN4node6worker15MessagePortData8DispatchENSt4__Cr10shared_ptrINS0_7MessageEEEPNS2_12basic_stringIcNS2_11char_traitsIcEENS2_9allocatorIcEEEE
Keybase:_ZN4node6worker15MessagePortData8EntangleEPS1_S2_
Keybase:_ZN4node6worker15MessagePortDataC1EPNS0_11MessagePortE
Keybase:_ZN4node6worker15MessagePortDataC2EPNS0_11MessagePortE
Keybase:_ZN4node6worker15MessagePortDataD0Ev
Keybase:_ZN4node6worker15MessagePortDataD1Ev
Keybase:_ZN4node6worker15MessagePortDataD2Ev
Keybase:_ZN4node6worker33GetMessagePortConstructorTemplateEPNS_11IsolateDataE
Keybase:_ZN4node6worker6Worker10JoinThreadEv
Keybase:_ZN4node6worker6Worker10StopThreadERKN2v820FunctionCallbackInfoINS2_5ValueEEE
Keybase:_ZN4node6worker6Worker11StartThreadERKN2v820FunctionCallbackInfoINS2_5ValueEEE
Keybase:_ZN4node6worker6Worker12LoopIdleTimeERKN2v820FunctionCallbackInfoINS2_5ValueEEE
Keybase:_ZN4node6worker6Worker13LoopStartTimeERKN2v820FunctionCallbackInfoINS2_5ValueEEE
Keybase:_ZN4node6worker6Worker13NearHeapLimitEPvmm
Keybase:_ZN4node6worker6Worker14StopCpuProfileERKN2v820FunctionCallbackInfoINS2_5ValueEEE
Keybase:_ZN4node6worker6Worker15StartCpuProfileERKN2v820FunctionCallbackInfoINS2_5ValueEEE
Keybase:_ZN4node6worker6Worker16TakeHeapSnapshotERKN2v820FunctionCallbackInfoINS2_5ValueEEE
Keybase:_ZN4node6worker6Worker17GetHeapStatisticsERKN2v820FunctionCallbackInfoINS2_5ValueEEE
Keybase:_ZN4node6worker6Worker17GetResourceLimitsERKN2v820FunctionCallbackInfoINS2_5ValueEEE
Keybase:_ZN4node6worker6Worker20CreateEnvMessagePortEPNS_11EnvironmentE
Keybase:_ZN4node6worker6Worker25UpdateResourceConstraintsEPN2v819ResourceConstraintsE
Keybase:_ZN4node6worker6Worker3NewERKN2v820FunctionCallbackInfoINS2_5ValueEEE
Keybase:_ZN4node6worker6Worker3RefERKN2v820FunctionCallbackInfoINS2_5ValueEEE
Keybase:_ZN4node6worker6Worker3RunEv
Keybase:_ZN4node6worker6Worker4ExitENS_8ExitCodeEPKcS4_
Keybase:_ZN4node6worker6Worker5UnrefERKN2v820FunctionCallbackInfoINS2_5ValueEEE
Keybase:_ZN4node6worker6Worker6HasRefERKN2v820FunctionCallbackInfoINS2_5ValueEEE
Keybase:_ZN4node6worker6Worker8CpuUsageERKN2v820FunctionCallbackInfoINS2_5ValueEEE
Keybase:_ZN4node6worker6WorkerC1EPNS_11EnvironmentEN2v85LocalINS4_6ObjectEEERKNSt4__Cr12basic_stringIcNS8_11char_traitsIcEENS8_9allocatorIcEEEESG_NS8_10shared_ptrINS_17PerIsolateOptionsEEEONS8_6vectorISE_NSC_ISE_EEEENSH_INS_7KVStoreEEEPKNS_12SnapshotDataEb
Keybase:_ZN4node6worker6WorkerC2EPNS_11EnvironmentEN2v85LocalINS4_6ObjectEEERKNSt4__Cr12basic_stringIcNS8_11char_traitsIcEENS8_9allocatorIcEEEESG_NS8_10shared_ptrINS_17PerIsolateOptionsEEEONS8_6vectorISE_NSC_ISE_EEEENSH_INS_7KVStoreEEEPKNS_12SnapshotDataEb
Keybase:_ZN4node6worker6WorkerD0Ev
Keybase:_ZN4node6worker6WorkerD1Ev
Keybase:_ZN4node6worker6WorkerD2Ev
Keybase:_ZN4node6worker7Message11DeserializeEPNS_11EnvironmentEN2v85LocalINS4_7ContextEEEPNS5_INS4_5ValueEEE
Keybase:_ZN4node6worker7Message13AddWASMModuleEON2v818CompiledWasmModuleE
Keybase:_ZN4node6worker7Message15AddTransferableEONSt4__Cr10unique_ptrINS0_12TransferDataENS2_14default_deleteIS4_EEEE
Keybase:_ZN4node6worker7Message20AddSharedArrayBufferENSt4__Cr10shared_ptrIN2v812BackingStoreEEE
Keybase:_ZN4node6worker7Message24AdoptSharedValueConveyorEON2v819SharedValueConveyorE
Keybase:_ZN4node6worker7Message9SerializeEPNS_11EnvironmentEN2v85LocalINS4_7ContextEEENS5_INS4_5ValueEEERKNS_16MaybeStackBufferIS9_Lm8EEENS5_INS4_6ObjectEEE
Keybase:_ZN4node6worker7MessageC1EONS_14MallocedBufferIcEE
Keybase:_ZN4node6worker7MessageC2EONS_14MallocedBufferIcEE
Keybase:_ZN4node7GetHashEPKcm
Keybase:_ZN4node7KVStore14AssignToObjectEPN2v87IsolateENS1_5LocalINS1_7ContextEEENS4_INS1_6ObjectEEE
Keybase:_ZN4node7KVStore16AssignFromObjectEN2v85LocalINS1_7ContextEEENS2_INS1_6ObjectEEE
Keybase:_ZN4node7KVStore16CreateMapKVStoreEv
Keybase:_ZN4node7TCPWrap10InitializeEN2v85LocalINS1_6ObjectEEENS2_INS1_5ValueEEENS2_INS1_7ContextEEEPv
Keybase:_ZN4node7TCPWrap10SetNoDelayERKN2v820FunctionCallbackInfoINS1_5ValueEEE
Keybase:_ZN4node7TCPWrap11InstantiateEPNS_11EnvironmentEPNS_9AsyncWrapENS0_10SocketTypeE
Keybase:_ZN4node7TCPWrap12SetKeepAliveERKN2v820FunctionCallbackInfoINS1_5ValueEEE
Keybase:_ZN4node7TCPWrap26RegisterExternalReferencesEPNS_25ExternalReferenceRegistryE
Keybase:_ZN4node7TCPWrap3NewERKN2v820FunctionCallbackInfoINS1_5ValueEEE
Keybase:_ZN4node7TCPWrap4BindERKN2v820FunctionCallbackInfoINS1_5ValueEEE
Keybase:_ZN4node7TCPWrap4OpenERKN2v820FunctionCallbackInfoINS1_5ValueEEE
Keybase:_ZN4node7TCPWrap5Bind6ERKN2v820FunctionCallbackInfoINS1_5ValueEEE
Keybase:_ZN4node7TCPWrap5ResetEN2v85LocalINS1_5ValueEEE
Keybase:_ZN4node7TCPWrap5ResetERKN2v820FunctionCallbackInfoINS1_5ValueEEE
Keybase:_ZN4node7TCPWrap6ListenERKN2v820FunctionCallbackInfoINS1_5ValueEEE
Keybase:_ZN4node7TCPWrap7ConnectERKN2v820FunctionCallbackInfoINS1_5ValueEEE
Keybase:_ZN4node7TCPWrap8Connect6ERKN2v820FunctionCallbackInfoINS1_5ValueEEE
Keybase:_ZN4node7TCPWrapC1EPNS_11EnvironmentEN2v85LocalINS3_6ObjectEEENS_9AsyncWrap12ProviderTypeE
Keybase:_ZN4node7TCPWrapC2EPNS_11EnvironmentEN2v85LocalINS3_6ObjectEEENS_9AsyncWrap12ProviderTypeE
Keybase:_ZN4node7TTYWrap10InitializeEN2v85LocalINS1_6ObjectEEENS2_INS1_5ValueEEENS2_INS1_7ContextEEEPv
Keybase:_ZN4node7TTYWrap10SetRawModeERKN2v820FunctionCallbackInfoINS1_5ValueEEE
Keybase:_ZN4node7TTYWrap13GetWindowSizeERKN2v820FunctionCallbackInfoINS1_5ValueEEE
Keybase:_ZN4node7TTYWrap26RegisterExternalReferencesEPNS_25ExternalReferenceRegistryE
Keybase:_ZN4node7TTYWrap3NewERKN2v820FunctionCallbackInfoINS1_5ValueEEE
Keybase:_ZN4node7TTYWrap5IsTTYERKN2v820FunctionCallbackInfoINS1_5ValueEEE
Keybase:_ZN4node7TTYWrapC1EPNS_11EnvironmentEN2v85LocalINS3_6ObjectEEEiPi
Keybase:_ZN4node7TTYWrapC2EPNS_11EnvironmentEN2v85LocalINS3_6ObjectEEEiPi
Keybase:_ZN4node7UDPWrap10BufferSizeERKN2v820FunctionCallbackInfoINS1_5ValueEEE
Keybase:_ZN4node7UDPWrap10DisconnectERKN2v820FunctionCallbackInfoINS1_5ValueEEE
Keybase:_ZN4node7UDPWrap10InitializeEN2v85LocalINS1_6ObjectEEENS2_INS1_5ValueEEENS2_INS1_7ContextEEEPv
Keybase:_ZN4node7UDPWrap10OnSendDoneEPNS_7ReqWrapI13uv_udp_send_sEEi
Keybase:_ZN4node7UDPWrap11GetPeerNameEv
Keybase:_ZN4node7UDPWrap11GetSockNameEv
Keybase:_ZN4node7UDPWrap11InstantiateEPNS_11EnvironmentEPNS_9AsyncWrapENS0_10SocketTypeE
Keybase:_ZN4node7UDPWrap12GetAsyncWrapEv
Keybase:_ZN4node7UDPWrap13AddMembershipERKN2v820FunctionCallbackInfoINS1_5ValueEEE
Keybase:_ZN4node7UDPWrap13SetMembershipERKN2v820FunctionCallbackInfoINS1_5ValueEEE13uv_membership
Keybase:_ZN4node7UDPWrap14CreateSendWrapEm
Keybase:_ZN4node7UDPWrap14DropMembershipERKN2v820FunctionCallbackInfoINS1_5ValueEEE
Keybase:_ZN4node7UDPWrap16GetSendQueueSizeERKN2v820FunctionCallbackInfoINS1_5ValueEEE
Keybase:_ZN4node7UDPWrap17GetSendQueueCountERKN2v820FunctionCallbackInfoINS1_5ValueEEE
Keybase:_ZN4node7UDPWrap19SetSourceMembershipERKN2v820FunctionCallbackInfoINS1_5ValueEEE13uv_membership
Keybase:_ZN4node7UDPWrap21SetMulticastInterfaceERKN2v820FunctionCallbackInfoINS1_5ValueEEE
Keybase:_ZN4node7UDPWrap26RegisterExternalReferencesEPNS_25ExternalReferenceRegistryE
Keybase:_ZN4node7UDPWrap27AddSourceSpecificMembershipERKN2v820FunctionCallbackInfoINS1_5ValueEEE
Keybase:_ZN4node7UDPWrap28DropSourceSpecificMembershipERKN2v820FunctionCallbackInfoINS1_5ValueEEE
Keybase:_ZN4node7UDPWrap3NewERKN2v820FunctionCallbackInfoINS1_5ValueEEE
Keybase:_ZN4node7UDPWrap4BindERKN2v820FunctionCallbackInfoINS1_5ValueEEE
Keybase:_ZN4node7UDPWrap4OpenERKN2v820FunctionCallbackInfoINS1_5ValueEEE
Keybase:_ZN4node7UDPWrap4SendEP8uv_buf_tmPK8sockaddr
Keybase:_ZN4node7UDPWrap4SendERKN2v820FunctionCallbackInfoINS1_5ValueEEE
Keybase:_ZN4node7UDPWrap5Bind6ERKN2v820FunctionCallbackInfoINS1_5ValueEEE
Keybase:_ZN4node7UDPWrap5GetFDERKN2v820FunctionCallbackInfoINS1_5ValueEEE
Keybase:_ZN4node7UDPWrap5Send6ERKN2v820FunctionCallbackInfoINS1_5ValueEEE
Keybase:_ZN4node7UDPWrap6DoBindERKN2v820FunctionCallbackInfoINS1_5ValueEEEi
Keybase:_ZN4node7UDPWrap6DoSendERKN2v820FunctionCallbackInfoINS1_5ValueEEEi
Keybase:_ZN4node7UDPWrap6OnRecvEP8uv_udp_slPK8uv_buf_tPK8sockaddrj
Keybase:_ZN4node7UDPWrap6OnRecvElRK8uv_buf_tPK8sockaddrj
Keybase:_ZN4node7UDPWrap7ConnectERKN2v820FunctionCallbackInfoINS1_5ValueEEE
Keybase:_ZN4node7UDPWrap7OnAllocEP11uv_handle_smP8uv_buf_t
Keybase:_ZN4node7UDPWrap7OnAllocEm
Keybase:_ZN4node7UDPWrap8Connect6ERKN2v820FunctionCallbackInfoINS1_5ValueEEE
Keybase:_ZN4node7UDPWrap8RecvStopEv
Keybase:_ZN4node7UDPWrap9DoConnectERKN2v820FunctionCallbackInfoINS1_5ValueEEEi
Keybase:_ZN4node7UDPWrap9RecvStartEv
Keybase:_ZN4node7UDPWrapC1EPNS_11EnvironmentEN2v85LocalINS3_6ObjectEEE
Keybase:_ZN4node7UDPWrapC2EPNS_11EnvironmentEN2v85LocalINS3_6ObjectEEE
Keybase:_ZN4node7binding16GetLinkedBindingERKN2v820FunctionCallbackInfoINS1_5ValueEEE
Keybase:_ZN4node7binding17get_linked_moduleEPKc
Keybase:_ZN4node7binding18GetInternalBindingERKN2v820FunctionCallbackInfoINS1_5ValueEEE
Keybase:_ZN4node7binding23RegisterBuiltinBindingsEv
Keybase:_ZN4node7binding26RegisterExternalReferencesEPNS_25ExternalReferenceRegistryE
Keybase:_ZN4node7binding30CreateInternalBindingTemplatesEPNS_11IsolateDataE
Keybase:_ZN4node7binding4DLib16GetSymbolAddressEPKc
Keybase:_ZN4node7binding4DLib21SaveInGlobalHandleMapEPNS_11node_moduleE
Keybase:_ZN4node7binding4DLib33GetSavedModuleFromGlobalHandleMapEv
Keybase:_ZN4node7binding4DLib4OpenEv
Keybase:_ZN4node7binding4DLib5CloseEv
Keybase:_ZN4node7binding4DLibC1EPKci
Keybase:_ZN4node7binding4DLibC2EPKci
Keybase:_ZN4node7binding6DLOpenERKN2v820FunctionCallbackInfoINS1_5ValueEEE
Keybase:_ZN4node7modules11BindingData11DeserializeEN2v85LocalINS2_7ContextEEENS3_INS2_6ObjectEEEiPNS_21InternalFieldInfoBaseE
Keybase:_ZN4node7modules11BindingData14GetPackageJSONEPNS_5RealmENSt4__Cr17basic_string_viewIcNS4_11char_traitsIcEEEEPNS1_12ErrorContextE
Keybase:_ZN4node7modules11BindingData14TraverseParentEPNS_5RealmERKNSt4__Cr4__fs10filesystem4pathE
Keybase:_ZN4node7modules11BindingData15ReadPackageJSONERKN2v820FunctionCallbackInfoINS2_5ValueEEE
Keybase:_ZN4node7modules11BindingData20OverrideReadFileSyncERKN2v820FunctionCallbackInfoINS2_5ValueEEE
Keybase:_ZN4node7modules11BindingData23PrepareForSerializationEN2v85LocalINS2_7ContextEEEPNS2_15SnapshotCreatorE
Keybase:_ZN4node7modules11BindingData26CreatePerContextPropertiesEN2v85LocalINS2_6ObjectEEENS3_INS2_5ValueEEENS3_INS2_7ContextEEEPv
Keybase:_ZN4node7modules11BindingData26CreatePerIsolatePropertiesEPNS_11IsolateDataEN2v85LocalINS4_14ObjectTemplateEEE
Keybase:_ZN4node7modules11BindingData26RegisterExternalReferencesEPNS_25ExternalReferenceRegistryE
Keybase:_ZN4node7modules11BindingData31GetNearestParentPackageJSONTypeERKN2v820FunctionCallbackInfoINS2_5ValueEEE
Keybase:_ZN4node7modules11BindingData9SerializeEi
Keybase:_ZN4node7modules11BindingDataC1EPNS_5RealmEN2v85LocalINS4_6ObjectEEEPNS_21InternalFieldInfoBaseE
Keybase:_ZN4node7modules11BindingDataC2EPNS_5RealmEN2v85LocalINS4_6ObjectEEEPNS_21InternalFieldInfoBaseE
Keybase:_ZN4node7modules17FlushCompileCacheERKN2v820FunctionCallbackInfoINS1_5ValueEEE
Keybase:_ZN4node7modules18EnableCompileCacheERKN2v820FunctionCallbackInfoINS1_5ValueEEE
Keybase:_ZN4node7modules18GetCompileCacheDirERKN2v820FunctionCallbackInfoINS1_5ValueEEE
Keybase:_ZN4node7modules25InitImportMetaPathHelpersERKN2v820FunctionCallbackInfoINS1_5ValueEEE
Keybase:_ZN4node7process11BindingData10AddMethodsEPN2v87IsolateENS2_5LocalINS2_14ObjectTemplateEEE
Keybase:_ZN4node7process11BindingData10HrtimeImplEPS1_
Keybase:_ZN4node7process11BindingData10SlowHrtimeERKN2v820FunctionCallbackInfoINS2_5ValueEEE
Keybase:_ZN4node7process11BindingData11DeserializeEN2v85LocalINS2_7ContextEEENS3_INS2_6ObjectEEEiPNS_21InternalFieldInfoBaseE
Keybase:_ZN4node7process11BindingData11FromV8ValueEN2v85LocalINS2_5ValueEEE
Keybase:_ZN4node7process11BindingData12fast_hrtime_E
Keybase:_ZN4node7process11BindingData16HrtimeBigIntImplEPS1_
Keybase:_ZN4node7process11BindingData16SlowHrtimeBigIntERKN2v820FunctionCallbackInfoINS2_5ValueEEE
Keybase:_ZN4node7process11BindingData19fast_hrtime_bigint_E
Keybase:_ZN4node7process11BindingData23PrepareForSerializationEN2v85LocalINS2_7ContextEEEPNS2_15SnapshotCreatorE
Keybase:_ZN4node7process11BindingData26RegisterExternalReferencesEPNS_25ExternalReferenceRegistryE
Keybase:_ZN4node7process11BindingData9SerializeEi
Keybase:_ZN4node7process11BindingDataC1EPNS_5RealmEN2v85LocalINS4_6ObjectEEEPNS1_17InternalFieldInfoE
Keybase:_ZN4node7process11BindingDataC2EPNS_5RealmEN2v85LocalINS4_6ObjectEEEPNS1_17InternalFieldInfoE
Keybase:_ZN4node7process26RegisterExternalReferencesEPNS_25ExternalReferenceRegistryE
Keybase:_ZN4node7tracing11TracedValue10AppendNullEv
Keybase:_ZN4node7tracing11TracedValue10BeginArrayEPKc
Keybase:_ZN4node7tracing11TracedValue10BeginArrayEv
Keybase:_ZN4node7tracing11TracedValue10SetBooleanEPKcb
Keybase:_ZN4node7tracing11TracedValue10SetIntegerEPKci
Keybase:_ZN4node7tracing11TracedValue10WriteCommaEv
Keybase:_ZN4node7tracing11TracedValue11CreateArrayEv
Keybase:_ZN4node7tracing11TracedValue12AppendDoubleEd
Keybase:_ZN4node7tracing11TracedValue12AppendStringEPKc
Keybase:_ZN4node7tracing11TracedValue13AppendBooleanEb
Keybase:_ZN4node7tracing11TracedValue13AppendIntegerEi
Keybase:_ZN4node7tracing11TracedValue13EndDictionaryEv
Keybase:_ZN4node7tracing11TracedValue15BeginDictionaryEPKc
Keybase:_ZN4node7tracing11TracedValue15BeginDictionaryEv
Keybase:_ZN4node7tracing11TracedValue6CreateEv
Keybase:_ZN4node7tracing11TracedValue7SetNullEPKc
Keybase:_ZN4node7tracing11TracedValue8EndArrayEv
Keybase:_ZN4node7tracing11TracedValue9SetDoubleEPKcd
Keybase:_ZN4node7tracing11TracedValue9SetStringEPKcS3_
Keybase:_ZN4node7tracing11TracedValue9WriteNameEPKc
Keybase:_ZN4node7tracing11TracedValueC1Eb
Keybase:_ZN4node7tracing11TracedValueC2Eb
Keybase:_ZN4node7tracing12g_controllerE
Keybase:_ZN4node7tracing15NodeTraceWriter10AfterWriteEv
Keybase:_ZN4node7tracing15NodeTraceWriter10StartWriteE8uv_buf_t
Keybase:_ZN4node7tracing15NodeTraceWriter11WriteSuffixEv
Keybase:_ZN4node7tracing15NodeTraceWriter11WriteToFileEONSt4__Cr12basic_stringIcNS2_11char_traitsIcEENS2_9allocatorIcEEEEi
Keybase:_ZN4node7tracing15NodeTraceWriter12ExitSignalCbEP10uv_async_s
Keybase:_ZN4node7tracing15NodeTraceWriter12FlushPrivateEv
Keybase:_ZN4node7tracing15NodeTraceWriter18InitializeOnThreadEP9uv_loop_s
Keybase:_ZN4node7tracing15NodeTraceWriter23OpenNewFileForStreamingEv
Keybase:_ZN4node7tracing15NodeTraceWriter5FlushEb
Keybase:_ZN4node7tracing15NodeTraceWriterC1ERKNSt4__Cr12basic_stringIcNS2_11char_traitsIcEENS2_9allocatorIcEEEE
Keybase:_ZN4node7tracing15NodeTraceWriterC2ERKNSt4__Cr12basic_stringIcNS2_11char_traitsIcEENS2_9allocatorIcEEEE
Keybase:_ZN4node7tracing15NodeTraceWriterD0Ev
Keybase:_ZN4node7tracing15NodeTraceWriterD1Ev
Keybase:_ZN4node7tracing15NodeTraceWriterD2Ev
Keybase:_ZN4node7tracing16TraceEventHelper20GetTracingControllerEv
Keybase:_ZN4node7tracing16TraceEventHelper20SetTracingControllerEPN2v817TracingControllerE
Keybase:_ZN4node7tracing16TraceEventHelper8GetAgentEv
Keybase:_ZN4node7tracing16TraceEventHelper8SetAgentEPNS0_5AgentE
Keybase:_ZN4node7tracing17replace_substringEPNSt4__Cr12basic_stringIcNS1_11char_traitsIcEENS1_9allocatorIcEEEERKS7_SA_
Keybase:_ZN4node7tracing5Agent10DisconnectEi
Keybase:_ZN4node7tracing5Agent11StopTracingEv
Keybase:_ZN4node7tracing5Agent13DefaultHandleEv
Keybase:_ZN4node7tracing5Agent25InitializeWritersOnThreadEv
Keybase:_ZN4node7tracing5Agent5FlushEb
Keybase:_ZN4node7tracing5Agent5StartEv
Keybase:_ZN4node7tracing5Agent6EnableEiRKNSt4__Cr3setINS2_12basic_stringIcNS2_11char_traitsIcEENS2_9allocatorIcEEEENS2_4lessIS9_EENS7_IS9_EEEE
Keybase:_ZN4node7tracing5Agent7DisableEiRKNSt4__Cr3setINS2_12basic_stringIcNS2_11char_traitsIcEENS2_9allocatorIcEEEENS2_4lessIS9_EENS7_IS9_EEEE
Keybase:_ZN4node7tracing5Agent9AddClientERKNSt4__Cr3setINS2_12basic_stringIcNS2_11char_traitsIcEENS2_9allocatorIcEEEENS2_4lessIS9_EENS7_IS9_EEEENS2_10unique_ptrINS0_16AsyncTraceWriterENS2_14default_deleteISH_EEEENS1_22UseDefaultCategoryModeE
Keybase:_ZN4node7tracing5AgentC1Ev
Keybase:_ZN4node7tracing5AgentC2Ev
Keybase:_ZN4node7tracing5AgentD1Ev
Keybase:_ZN4node7tracing5AgentD2Ev
Keybase:_ZN4node7tracing7g_agentE
Keybase:_ZN4node8EmitExitEPNS_11EnvironmentE
Keybase:_ZN4node8JSStream10DoShutdownEPNS_12ShutdownWrapE
Keybase:_ZN4node8JSStream10InitializeEN2v85LocalINS1_6ObjectEEENS2_INS1_5ValueEEENS2_INS1_7ContextEEEPv
Keybase:_ZN4node8JSStream10ReadBufferERKN2v820FunctionCallbackInfoINS1_5ValueEEE
Keybase:_ZN4node8JSStream12GetAsyncWrapEv
Keybase:_ZN4node8JSStream3NewERKN2v820FunctionCallbackInfoINS1_5ValueEEE
Keybase:_ZN4node8JSStream7DoWriteEPNS_9WriteWrapEP8uv_buf_tmP11uv_stream_s
Keybase:_ZN4node8JSStream7EmitEOFERKN2v820FunctionCallbackInfoINS1_5ValueEEE
Keybase:_ZN4node8JSStream7IsAliveEv
Keybase:_ZN4node8JSStream8ReadStopEv
Keybase:_ZN4node8JSStream9IsClosingEv
Keybase:_ZN4node8JSStream9ReadStartEv
Keybase:_ZN4node8JSStreamC1EPNS_11EnvironmentEN2v85LocalINS3_6ObjectEEE
Keybase:_ZN4node8JSStreamC2EPNS_11EnvironmentEN2v85LocalINS3_6ObjectEEE
Keybase:_ZN4node8Metadata7ReleaseC1Ev
Keybase:_ZN4node8Metadata7ReleaseC2Ev
Keybase:_ZN4node8Metadata8Versions22InitializeIntlVersionsEv
Keybase:_ZN4node8Metadata8VersionsC1Ev
Keybase:_ZN4node8Metadata8VersionsC2Ev
Keybase:_ZN4node8MetadataC1Ev
Keybase:_ZN4node8MetadataC2Ev
Keybase:_ZN4node8PipeWrap10InitializeEN2v85LocalINS1_6ObjectEEENS2_INS1_5ValueEEENS2_INS1_7ContextEEEPv
Keybase:_ZN4node8PipeWrap11InstantiateEPNS_11EnvironmentEPNS_9AsyncWrapENS0_10SocketTypeE
Keybase:_ZN4node8PipeWrap26RegisterExternalReferencesEPNS_25ExternalReferenceRegistryE
Keybase:_ZN4node8PipeWrap3NewERKN2v820FunctionCallbackInfoINS1_5ValueEEE
Keybase:_ZN4node8PipeWrap4BindERKN2v820FunctionCallbackInfoINS1_5ValueEEE
Keybase:_ZN4node8PipeWrap4OpenERKN2v820FunctionCallbackInfoINS1_5ValueEEE
Keybase:_ZN4node8PipeWrap6FchmodERKN2v820FunctionCallbackInfoINS1_5ValueEEE
Keybase:_ZN4node8PipeWrap6ListenERKN2v820FunctionCallbackInfoINS1_5ValueEEE
Keybase:_ZN4node8PipeWrap7ConnectERKN2v820FunctionCallbackInfoINS1_5ValueEEE
Keybase:_ZN4node8PipeWrapC1EPNS_11EnvironmentEN2v85LocalINS3_6ObjectEEENS_9AsyncWrap12ProviderTypeEb
Keybase:_ZN4node8PipeWrapC2EPNS_11EnvironmentEN2v85LocalINS3_6ObjectEEENS_9AsyncWrap12ProviderTypeEb
Keybase:_ZN4node8RawDebugERKN2v820FunctionCallbackInfoINS0_5ValueEEE
Keybase:_ZN4node8ReindentERKNSt4__Cr12basic_stringIcNS0_11char_traitsIcEENS0_9allocatorIcEEEEi
Keybase:_ZN4node8SendWrapC1EPNS_11EnvironmentEN2v85LocalINS3_6ObjectEEEb
Keybase:_ZN4node8SendWrapC2EPNS_11EnvironmentEN2v85LocalINS3_6ObjectEEEb
Keybase:_ZN4node8TickInfo11DeserializeEN2v85LocalINS1_7ContextEEE
Keybase:_ZN4node8TickInfo9SerializeEN2v85LocalINS1_7ContextEEEPNS1_15SnapshotCreatorE
Keybase:_ZN4node8TickInfoC1EPN2v87IsolateEPKNS0_13SerializeInfoE
Keybase:_ZN4node8TickInfoC2EPN2v87IsolateEPKNS0_13SerializeInfoE
Keybase:_ZN4node8Watchdog3RunEPv
Keybase:_ZN4node8Watchdog5TimerEP10uv_timer_s
Keybase:_ZN4node8WatchdogC1EPN2v87IsolateEmPb
Keybase:_ZN4node8WatchdogC2EPN2v87IsolateEmPb
Keybase:_ZN4node8WatchdogD1Ev
Keybase:_ZN4node8WatchdogD2Ev
Keybase:_ZN4node8builtins13BuiltinLoader10GetNativesEN2v85LocalINS2_4NameEEERKNS2_20PropertyCallbackInfoINS2_5ValueEEE
Keybase:_ZN4node8builtins13BuiltinLoader12RecordResultEPKcNS1_6ResultEPNS_5RealmE
Keybase:_ZN4node8builtins13BuiltinLoader13GetCacheUsageERKN2v820FunctionCallbackInfoINS2_5ValueEEE
Keybase:_ZN4node8builtins13BuiltinLoader13SaveCodeCacheEPKcN2v85LocalINS4_8FunctionEEE
Keybase:_ZN4node8builtins13BuiltinLoader14CompileAndCallEN2v85LocalINS2_7ContextEEEPKcPNS_5RealmE
Keybase:_ZN4node8builtins13BuiltinLoader14CompileAndCallEN2v85LocalINS2_7ContextEEEPKciPNS3_INS2_5ValueEEEPNS_5RealmE
Keybase:_ZN4node8builtins13BuiltinLoader15CompileFunctionERKN2v820FunctionCallbackInfoINS2_5ValueEEE
Keybase:_ZN4node8builtins13BuiltinLoader15GetConfigStringEPN2v87IsolateE
Keybase:_ZN4node8builtins13BuiltinLoader16BuiltinIdsGetterEN2v85LocalINS2_4NameEEERKNS2_20PropertyCallbackInfoINS2_5ValueEEE
Keybase:_ZN4node8builtins13BuiltinLoader16LookupAndCompileEN2v85LocalINS2_7ContextEEEPKcPNS2_11LocalVectorINS2_6StringEEEPNS_5RealmE
Keybase:_ZN4node8builtins13BuiltinLoader16LookupAndCompileEN2v85LocalINS2_7ContextEEEPKcPNS_5RealmE
Keybase:_ZN4node8builtins13BuiltinLoader16RefreshCodeCacheERKNSt4__Cr6vectorINS0_13CodeCacheInfoENS2_9allocatorIS4_EEEE
Keybase:_ZN4node8builtins13BuiltinLoader17HasCachedBuiltinsERKN2v820FunctionCallbackInfoINS2_5ValueEEE
Keybase:_ZN4node8builtins13BuiltinLoader18ConfigStringGetterEN2v85LocalINS2_4NameEEERKNS2_20PropertyCallbackInfoINS2_5ValueEEE
Keybase:_ZN4node8builtins13BuiltinLoader20GetBuiltinCategoriesEN2v85LocalINS2_4NameEEERKNS2_20PropertyCallbackInfoINS2_5ValueEEE
Keybase:_ZN4node8builtins13BuiltinLoader20LoadJavaScriptSourceEv
Keybase:_ZN4node8builtins13BuiltinLoader22AddExternalizedBuiltinEPKcS3_
Keybase:_ZN4node8builtins13BuiltinLoader24LookupAndCompileInternalEN2v85LocalINS2_7ContextEEEPKcPNS2_11LocalVectorINS2_6StringEEEPNS_5RealmE
Keybase:_ZN4node8builtins13BuiltinLoader26CreatePerContextPropertiesEN2v85LocalINS2_6ObjectEEENS3_INS2_5ValueEEENS3_INS2_7ContextEEEPv
Keybase:_ZN4node8builtins13BuiltinLoader26CreatePerIsolatePropertiesEPNS_11IsolateDataEN2v85LocalINS4_14ObjectTemplateEEE
Keybase:_ZN4node8builtins13BuiltinLoader26RegisterExternalReferencesEPNS_25ExternalReferenceRegistryE
Keybase:_ZN4node8builtins13BuiltinLoader28LoadEmbedderJavaScriptSourceEv
Keybase:_ZN4node8builtins13BuiltinLoader34CompileAllBuiltinsAndCopyCodeCacheEN2v85LocalINS2_7ContextEEERKNSt4__Cr6vectorINS6_12basic_stringIcNS6_11char_traitsIcEENS6_9allocatorIcEEEENSB_ISD_EEEEPNS7_INS0_13CodeCacheInfoENSB_ISI_EEEE
Keybase:_ZN4node8builtins13BuiltinLoader35CopySourceAndCodeCacheReferenceFromEPKS1_
Keybase:_ZN4node8builtins13BuiltinLoader3AddEPKcRKNS_10UnionBytesE
Keybase:_ZN4node8builtins13BuiltinLoader6ExistsEPKc
Keybase:_ZN4node8builtins13BuiltinLoader9GetConfigEv
Keybase:_ZN4node8builtins13BuiltinLoaderC1Ev
Keybase:_ZN4node8builtins13BuiltinLoaderC2Ev
Keybase:_ZN4node8builtins18SetInternalLoadersERKN2v820FunctionCallbackInfoINS1_5ValueEEE
Keybase:_ZN4node8builtins52RegisterExternalReferencesForInternalizedBuiltinCodeEPNS_25ExternalReferenceRegistryE
Keybase:_ZN4node8builtins60EmbedderRegisterExternalReferencesForInternalizedBuiltinCodeEPNS_25ExternalReferenceRegistryE
Keybase:_ZN4node8profiler14StartProfilersEPNS_11EnvironmentE
Keybase:_ZN4node8profiler16StringViewToUTF8ERKN12v8_inspector10StringViewEPNSt4__Cr6vectorIcNS5_9allocatorIcEEEEPmm
Keybase:_ZN4node8profiler20V8CoverageConnection10GetProfileEPN8simdjson8fallback8ondemand6objectE
Keybase:_ZN4node8profiler20V8CoverageConnection12StopCoverageEv
Keybase:_ZN4node8profiler20V8CoverageConnection12TakeCoverageEv
Keybase:_ZN4node8profiler20V8CoverageConnection12WriteProfileEPN8simdjson8fallback8ondemand6objectE
Keybase:_ZN4node8profiler20V8CoverageConnection3EndEv
Keybase:_ZN4node8profiler20V8CoverageConnection5StartEv
Keybase:_ZN4node8profiler20V8ProfilerConnection10GetProfileEPN8simdjson8fallback8ondemand6objectE
Keybase:_ZN4node8profiler20V8ProfilerConnection12WriteProfileEPN8simdjson8fallback8ondemand6objectE
Keybase:_ZN4node8profiler20V8ProfilerConnection15DispatchMessageEPKcS3_b
Keybase:_ZN4node8profiler20V8ProfilerConnection25V8ProfilerSessionDelegate21SendMessageToFrontendERKN12v8_inspector10StringViewE
Keybase:_ZN4node8profiler20V8ProfilerConnectionC2EPNS_11EnvironmentE
Keybase:_ZN4node8profiler23V8CpuProfilerConnection3EndEv
Keybase:_ZN4node8profiler23V8CpuProfilerConnection5StartEv
Keybase:_ZN4node8profiler24V8HeapProfilerConnection3EndEv
Keybase:_ZN4node8profiler24V8HeapProfilerConnection5StartEv
Keybase:_ZN4node8profiler26RegisterExternalReferencesEPNS_25ExternalReferenceRegistryE
Keybase:_ZN4node8v8_utils10GCProfiler10out_streamEv
Keybase:_ZN4node8v8_utils10GCProfiler3NewERKN2v820FunctionCallbackInfoINS2_5ValueEEE
Keybase:_ZN4node8v8_utils10GCProfiler4StopERKN2v820FunctionCallbackInfoINS2_5ValueEEE
Keybase:_ZN4node8v8_utils10GCProfiler5StartERKN2v820FunctionCallbackInfoINS2_5ValueEEE
Keybase:_ZN4node8v8_utils10GCProfiler6writerEv
Keybase:_ZN4node8v8_utils10GCProfilerC1EPNS_11EnvironmentEN2v85LocalINS4_6ObjectEEE
Keybase:_ZN4node8v8_utils10GCProfilerC2EPNS_11EnvironmentEN2v85LocalINS4_6ObjectEEE
Keybase:_ZN4node8v8_utils10InitializeEN2v85LocalINS1_6ObjectEEENS2_INS1_5ValueEEENS2_INS1_7ContextEEEPv
Keybase:_ZN4node8v8_utils11BindingData11DeserializeEN2v85LocalINS2_7ContextEEENS3_INS2_6ObjectEEEiPNS_21InternalFieldInfoBaseE
Keybase:_ZN4node8v8_utils11BindingData23PrepareForSerializationEN2v85LocalINS2_7ContextEEEPNS2_15SnapshotCreatorE
Keybase:_ZN4node8v8_utils11BindingData9SerializeEi
Keybase:_ZN4node8v8_utils11BindingDataC1EPNS_5RealmEN2v85LocalINS4_6ObjectEEEPNS1_17InternalFieldInfoE
Keybase:_ZN4node8v8_utils11BindingDataC2EPNS_5RealmEN2v85LocalINS4_6ObjectEEEPNS1_17InternalFieldInfoE
Keybase:_ZN4node8v8_utils18SetFlagsFromStringERKN2v820FunctionCallbackInfoINS1_5ValueEEE
Keybase:_ZN4node8v8_utils20CachedDataVersionTagERKN2v820FunctionCallbackInfoINS1_5ValueEEE
Keybase:_ZN4node8v8_utils26RegisterExternalReferencesEPNS_25ExternalReferenceRegistryE
Keybase:_ZN4node8v8_utils26UpdateHeapStatisticsBufferERKN2v820FunctionCallbackInfoINS1_5ValueEEE
Keybase:_ZN4node8v8_utils28SetHeapSnapshotNearHeapLimitERKN2v820FunctionCallbackInfoINS1_5ValueEEE
Keybase:_ZN4node8v8_utils30UpdateHeapCodeStatisticsBufferERKN2v820FunctionCallbackInfoINS1_5ValueEEE
Keybase:_ZN4node8v8_utils31UpdateHeapSpaceStatisticsBufferERKN2v820FunctionCallbackInfoINS1_5ValueEEE
Keybase:_ZN4node8v8_utils39fast_is_string_one_byte_representation_E
Keybase:_ZN4node9AsyncWrap10AsyncResetEN2v85LocalINS1_6ObjectEEEd
Keybase:_ZN4node9AsyncWrap10AsyncResetERKN2v820FunctionCallbackInfoINS1_5ValueEEE
Keybase:_ZN4node9AsyncWrap10EmitBeforeEPNS_11EnvironmentEd
Keybase:_ZN4node9AsyncWrap10GetAsyncIdERKN2v820FunctionCallbackInfoINS1_5ValueEEE
Keybase:_ZN4node9AsyncWrap11EmitDestroyEPNS_11EnvironmentEd
Keybase:_ZN4node9AsyncWrap11EmitDestroyEb
Keybase:_ZN4node9AsyncWrap12MakeCallbackEN2v85LocalINS1_8FunctionEEEiPNS2_INS1_5ValueEEE
Keybase:_ZN4node9AsyncWrap12WeakCallbackERKN2v816WeakCallbackInfoINS_12DestroyParamEEE
Keybase:_ZN4node9AsyncWrap13EmitAsyncInitEPNS_11EnvironmentEN2v85LocalINS3_6ObjectEEENS4_INS3_6StringEEEdd
Keybase:_ZN4node9AsyncWrap15GetProviderTypeERKN2v820FunctionCallbackInfoINS1_5ValueEEE
Keybase:_ZN4node9AsyncWrap15PopAsyncContextERKN2v820FunctionCallbackInfoINS1_5ValueEEE
Keybase:_ZN4node9AsyncWrap16PushAsyncContextERKN2v820FunctionCallbackInfoINS1_5ValueEEE
Keybase:_ZN4node9AsyncWrap17ClearAsyncIdStackERKN2v820FunctionCallbackInfoINS1_5ValueEEE
Keybase:_ZN4node9AsyncWrap18EmitPromiseResolveEPNS_11EnvironmentEd
Keybase:_ZN4node9AsyncWrap19EmitTraceEventAfterENS0_12ProviderTypeEd
Keybase:_ZN4node9AsyncWrap19QueueDestroyAsyncIdERKN2v820FunctionCallbackInfoINS1_5ValueEEE
Keybase:_ZN4node9AsyncWrap20EmitTraceEventBeforeEv
Keybase:_ZN4node9AsyncWrap21EmitTraceEventDestroyEv
Keybase:_ZN4node9AsyncWrap21SetCallbackTrampolineERKN2v820FunctionCallbackInfoINS1_5ValueEEE
Keybase:_ZN4node9AsyncWrap22ExecutionAsyncResourceERKN2v820FunctionCallbackInfoINS1_5ValueEEE
Keybase:_ZN4node9AsyncWrap22GetConstructorTemplateEPNS_11IsolateDataE
Keybase:_ZN4node9AsyncWrap23DestroyAsyncIdsCallbackEPNS_11EnvironmentE
Keybase:_ZN4node9AsyncWrap26CreatePerContextPropertiesEN2v85LocalINS1_6ObjectEEENS2_INS1_5ValueEEENS2_INS1_7ContextEEEPv
Keybase:_ZN4node9AsyncWrap26CreatePerIsolatePropertiesEPNS_11IsolateDataEN2v85LocalINS3_14ObjectTemplateEEE
Keybase:_ZN4node9AsyncWrap26RegisterExternalReferencesEPNS_25ExternalReferenceRegistryE
Keybase:_ZN4node9AsyncWrap8GetOwnerEPNS_11EnvironmentEN2v85LocalINS3_6ObjectEEE
Keybase:_ZN4node9AsyncWrap8GetOwnerEv
Keybase:_ZN4node9AsyncWrap9EmitAfterEPNS_11EnvironmentEd
Keybase:_ZN4node9AsyncWrapC2EPNS_11EnvironmentEN2v85LocalINS3_6ObjectEEE
Keybase:_ZN4node9AsyncWrapC2EPNS_11EnvironmentEN2v85LocalINS3_6ObjectEEENS0_12ProviderTypeEd
Keybase:_ZN4node9AsyncWrapD0Ev
Keybase:_ZN4node9AsyncWrapD1Ev
Keybase:_ZN4node9AsyncWrapD2Ev
Keybase:_ZN4node9DataQueue10InitializeEPNS_11EnvironmentEN2v85LocalINS3_6ObjectEEE
Keybase:_ZN4node9DataQueue13CreateFdEntryEPNS_11EnvironmentEN2v85LocalINS3_5ValueEEE
Keybase:_ZN4node9DataQueue16CreateIdempotentENSt4__Cr6vectorINS1_10unique_ptrINS0_5EntryENS1_14default_deleteIS4_EEEENS1_9allocatorIS7_EEEE
Keybase:_ZN4node9DataQueue20CreateDataQueueEntryENSt4__Cr10shared_ptrIS0_EE
Keybase:_ZN4node9DataQueue26RegisterExternalReferencesEPNS_25ExternalReferenceRegistryE
Keybase:_ZN4node9DataQueue27CreateInMemoryEntryFromViewEN2v85LocalINS1_15ArrayBufferViewEEE
Keybase:_ZN4node9DataQueue35CreateInMemoryEntryFromBackingStoreENSt4__Cr10shared_ptrIN2v812BackingStoreEEEmm
Keybase:_ZN4node9DataQueue6CreateENSt4__Cr8optionalImEE
Keybase:_ZN4node9HistogramC1ERKNS0_7OptionsE
Keybase:_ZN4node9HistogramC2ERKNS0_7OptionsE
Keybase:_ZN4node9JSUDPWrap10InitializeEN2v85LocalINS1_6ObjectEEENS2_INS1_5ValueEEENS2_INS1_7ContextEEEPv
Keybase:_ZN4node9JSUDPWrap10OnSendDoneERKN2v820FunctionCallbackInfoINS1_5ValueEEE
Keybase:_ZN4node9JSUDPWrap11GetPeerNameEv
Keybase:_ZN4node9JSUDPWrap11GetSockNameEv
Keybase:_ZN4node9JSUDPWrap11OnAfterBindERKN2v820FunctionCallbackInfoINS1_5ValueEEE
Keybase:_ZN4node9JSUDPWrap12EmitReceivedERKN2v820FunctionCallbackInfoINS1_5ValueEEE
Keybase:_ZN4node9JSUDPWrap3NewERKN2v820FunctionCallbackInfoINS1_5ValueEEE
Keybase:_ZN4node9JSUDPWrap4SendEP8uv_buf_tmPK8sockaddr
Keybase:_ZN4node9JSUDPWrap8RecvStopEv
Keybase:_ZN4node9JSUDPWrap9RecvStartEv
Keybase:_ZN4node9JSUDPWrapC1EPNS_11EnvironmentEN2v85LocalINS3_6ObjectEEE
Keybase:_ZN4node9JSUDPWrapC2EPNS_11EnvironmentEN2v85LocalINS3_6ObjectEEE
Keybase:_ZN4node9RunAtExitEPNS_11EnvironmentE
Keybase:_ZN4node9SetMethodEN2v85LocalINS0_7ContextEEENS1_INS0_6ObjectEEENSt4__Cr17basic_string_viewIcNS6_11char_traitsIcEEEEPFvRKNS0_20FunctionCallbackInfoINS0_5ValueEEEE
Keybase:_ZN4node9SetMethodEPN2v87IsolateENS0_5LocalINS0_8TemplateEEENSt4__Cr17basic_string_viewIcNS6_11char_traitsIcEEEEPFvRKNS0_20FunctionCallbackInfoINS0_5ValueEEEE
Keybase:_ZN4node9StreamReq4DoneEiPKc
Keybase:_ZN4node9TimerWrap13TimerClosedCbEP11uv_handle_s
Keybase:_ZN4node9TimerWrap3RefEv
Keybase:_ZN4node9TimerWrap4StopEv
Keybase:_ZN4node9TimerWrap5CloseEv
Keybase:_ZN4node9TimerWrap5UnrefEv
Keybase:_ZN4node9TimerWrap6UpdateEmm
Keybase:_ZN4node9TimerWrap9OnTimeoutEP10uv_timer_s
Keybase:_ZN4node9Utf8ValueC1EPN2v87IsolateENS1_5LocalINS1_5ValueEEE
Keybase:_ZN4node9Utf8ValueC2EPN2v87IsolateENS1_5LocalINS1_5ValueEEE
Keybase:_ZN4node9WriteWrap6OnDoneEi
Keybase:_ZN4node9constants17DefineFsConstantsEN2v85LocalINS1_6ObjectEEE
Keybase:_ZN4node9constants20DefineErrnoConstantsEN2v85LocalINS1_6ObjectEEE
Keybase:_ZN4node9constants20DefineTraceConstantsEN2v85LocalINS1_6ObjectEEE
Keybase:_ZN4node9constants21DefineCryptoConstantsEN2v85LocalINS1_6ObjectEEE
Keybase:_ZN4node9constants21DefineDLOpenConstantsEN2v85LocalINS1_6ObjectEEE
Keybase:_ZN4node9constants21DefineSignalConstantsEN2v85LocalINS1_6ObjectEEE
Keybase:_ZN4node9constants23DefineInternalConstantsEN2v85LocalINS1_6ObjectEEE
Keybase:_ZN4node9constants23DefinePriorityConstantsEN2v85LocalINS1_6ObjectEEE
Keybase:_ZN4node9constants26CreatePerContextPropertiesEN2v85LocalINS1_6ObjectEEENS2_INS1_5ValueEEENS2_INS1_7ContextEEEPv
Keybase:_ZN4node9constants27DefineWindowsErrorConstantsEN2v85LocalINS1_6ObjectEEE
Keybase:_ZN4node9inspector11InspectorIo10ThreadMainEPv
Keybase:_ZN4node9inspector11InspectorIo10ThreadMainEv
Keybase:_ZN4node9inspector11InspectorIo27StopAcceptingNewConnectionsEv
Keybase:_ZN4node9inspector11InspectorIo5StartENSt4__Cr10shared_ptrINS0_16MainThreadHandleEEERKNS2_12basic_stringIcNS2_11char_traitsIcEENS2_9allocatorIcEEEENS3_INS_15ExclusiveAccessINS_8HostPortENS_9MutexBaseINS_16LibuvMutexTraitsEEEEEEERKNS_17InspectPublishUidE
Keybase:_ZN4node9inspector11InspectorIoC1ENSt4__Cr10shared_ptrINS0_16MainThreadHandleEEERKNS2_12basic_stringIcNS2_11char_traitsIcEENS2_9allocatorIcEEEENS3_INS_15ExclusiveAccessINS_8HostPortENS_9MutexBaseINS_16LibuvMutexTraitsEEEEEEERKNS_17InspectPublishUidE
Keybase:_ZN4node9inspector11InspectorIoC2ENSt4__Cr10shared_ptrINS0_16MainThreadHandleEEERKNS2_12basic_stringIcNS2_11char_traitsIcEENS2_9allocatorIcEEEENS3_INS_15ExclusiveAccessINS_8HostPortENS_9MutexBaseINS_16LibuvMutexTraitsEEEEEEERKNS_17InspectPublishUidE
Keybase:_ZN4node9inspector11InspectorIoD1Ev
Keybase:_ZN4node9inspector11InspectorIoD2Ev
Keybase:_ZN4node9inspector12NetworkAgent12dataReceivedEN2v85LocalINS2_7ContextEEENS3_INS2_6ObjectEEE
Keybase:_ZN4node9inspector12NetworkAgent13loadingFailedEN2v85LocalINS2_7ContextEEENS3_INS2_6ObjectEEE
Keybase:_ZN4node9inspector12NetworkAgent15getResponseBodyERKNSt4__Cr12basic_stringIcNS2_11char_traitsIcEENS2_9allocatorIcEEEEPS8_Pb
Keybase:_ZN4node9inspector12NetworkAgent15loadingFinishedEN2v85LocalINS2_7ContextEEENS3_INS2_6ObjectEEE
Keybase:_ZN4node9inspector12NetworkAgent16emitNotificationEN2v85LocalINS2_7ContextEEERKNSt4__Cr12basic_stringIcNS6_11char_traitsIcEENS6_9allocatorIcEEEENS3_INS2_6ObjectEEE
Keybase:_ZN4node9inspector12NetworkAgent16responseReceivedEN2v85LocalINS2_7ContextEEENS3_INS2_6ObjectEEE
Keybase:_ZN4node9inspector12NetworkAgent17requestWillBeSentEN2v85LocalINS2_7ContextEEENS3_INS2_6ObjectEEE
Keybase:_ZN4node9inspector12NetworkAgent18getRequestPostDataERKNSt4__Cr12basic_stringIcNS2_11char_traitsIcEENS2_9allocatorIcEEEEPS8_
Keybase:_ZN4node9inspector12NetworkAgent19loadNetworkResourceERKNSt4__Cr12basic_stringIcNS2_11char_traitsIcEENS2_9allocatorIcEEEEPNS2_10unique_ptrINS0_8protocol7Network29LoadNetworkResourcePageResultENS2_14default_deleteISE_EEEE
Keybase:_ZN4node9inspector12NetworkAgent21streamResourceContentERKNSt4__Cr12basic_stringIcNS2_11char_traitsIcEENS2_9allocatorIcEEEEPNS0_8protocol6BinaryE
Keybase:_ZN4node9inspector12NetworkAgent4WireEPN5crdtp14UberDispatcherE
Keybase:_ZN4node9inspector12NetworkAgent6enableEv
Keybase:_ZN4node9inspector12NetworkAgent7disableEv
Keybase:_ZN4node9inspector12NetworkAgent8dataSentEN2v85LocalINS2_7ContextEEENS3_INS2_6ObjectEEE
Keybase:_ZN4node9inspector12NetworkAgentC1EPNS0_16NetworkInspectorEPN12v8_inspector11V8InspectorEPNS_11EnvironmentENSt4__Cr10shared_ptrINS0_22NetworkResourceManagerEEE
Keybase:_ZN4node9inspector12NetworkAgentC2EPNS0_16NetworkInspectorEPN12v8_inspector11V8InspectorEPNS_11EnvironmentENSt4__Cr10shared_ptrINS0_22NetworkResourceManagerEEE
Keybase:_ZN4node9inspector12ObjectGetIntEN2v85LocalINS1_7ContextEEENS2_INS1_6ObjectEEEPKc
Keybase:_ZN4node9inspector12ServerSocket10DetectPortEv
Keybase:_ZN4node9inspector12ServerSocket23SocketConnectedCallbackEP11uv_stream_si
Keybase:_ZN4node9inspector12ServerSocket6ListenEP8sockaddrP9uv_loop_s
Keybase:_ZN4node9inspector13ObjectGetBoolEN2v85LocalINS1_7ContextEEENS2_INS1_6ObjectEEEPKc
Keybase:_ZN4node9inspector13SocketSession4SendERKNSt4__Cr12basic_stringIcNS2_11char_traitsIcEENS2_9allocatorIcEEEE
Keybase:_ZN4node9inspector13SocketSession8Delegate15OnSocketUpgradeERKNSt4__Cr12basic_stringIcNS3_11char_traitsIcEENS3_9allocatorIcEEEESB_SB_
Keybase:_ZN4node9inspector13SocketSession8Delegate9OnHttpGetERKNSt4__Cr12basic_stringIcNS3_11char_traitsIcEENS3_9allocatorIcEEEESB_
Keybase:_ZN4node9inspector13SocketSession8Delegate9OnWsFrameERKNSt4__Cr6vectorIcNS3_9allocatorIcEEEE
Keybase:_ZN4node9inspector13SocketSessionC1EPNS0_21InspectorSocketServerEii
Keybase:_ZN4node9inspector13SocketSessionC2EPNS0_21InspectorSocketServerEii
Keybase:_ZN4node9inspector13WorkerManager13SetAutoAttachENSt4__Cr10unique_ptrINS0_14WorkerDelegateENS2_14default_deleteIS4_EEEE
Keybase:_ZN4node9inspector13WorkerManager13WorkerStartedEmRKNS0_10WorkerInfoEb
Keybase:_ZN4node9inspector13WorkerManager14WorkerFinishedEm
Keybase:_ZN4node9inspector13WorkerManager15NewParentHandleEmNSt4__Cr17basic_string_viewIcNS2_11char_traitsIcEEEES6_NS2_10shared_ptrINS0_22NetworkResourceManagerEEE
Keybase:_ZN4node9inspector13WorkerManager20RemoveAttachDelegateEi
Keybase:_ZN4node9inspector13WorkerManager25SetWaitOnStartForDelegateEib
Keybase:_ZN4node9inspector15FormatWsAddressERKNSt4__Cr12basic_stringIcNS1_11char_traitsIcEENS1_9allocatorIcEEEEiS9_b
Keybase:_ZN4node9inspector15InspectorSocket13AcceptUpgradeERKNSt4__Cr12basic_stringIcNS2_11char_traitsIcEENS2_9allocatorIcEEEE
Keybase:_ZN4node9inspector15InspectorSocket14SwitchProtocolEPNS0_15ProtocolHandlerE
Keybase:_ZN4node9inspector15InspectorSocket15CancelHandshakeEv
Keybase:_ZN4node9inspector15InspectorSocket5WriteEPKcm
Keybase:_ZN4node9inspector15InspectorSocket6AcceptEP11uv_stream_sNSt4__Cr10unique_ptrINS1_8DelegateENS4_14default_deleteIS6_EEEE
Keybase:_ZN4node9inspector15InspectorSocket7GetHostEv
Keybase:_ZN4node9inspector15InspectorSocket8ShutdownEPNS0_15ProtocolHandlerE
Keybase:_ZN4node9inspector15InspectorSocketD1Ev
Keybase:_ZN4node9inspector15InspectorSocketD2Ev
Keybase:_ZN4node9inspector15ObjectGetDoubleEN2v85LocalINS1_7ContextEEENS2_INS1_6ObjectEEEPKc
Keybase:_ZN4node9inspector15ObjectGetObjectEN2v85LocalINS1_7ContextEEENS2_INS1_6ObjectEEEPKc
Keybase:_ZN4node9inspector15ProtocolHandler8WriteRawERKNSt4__Cr6vectorIcNS2_9allocatorIcEEEEPFvP10uv_write_siE
Keybase:_ZN4node9inspector15ProtocolHandler8delegateEv
Keybase:_ZN4node9inspector15ProtocolHandlerC2EPNS0_15InspectorSocketENSt4__Cr10unique_ptrINS0_9TcpHolderENS_15FunctionDeleterIS6_XadL_ZNS6_20DisconnectAndDisposeEPS6_EEEEEE
Keybase:_ZN4node9inspector16MainThreadHandle22MakeDelegateThreadSafeENSt4__Cr10unique_ptrINS0_24InspectorSessionDelegateENS2_14default_deleteIS4_EEEE
Keybase:_ZN4node9inspector16MainThreadHandle4PostENSt4__Cr10unique_ptrINS0_7RequestENS2_14default_deleteIS4_EEEE
Keybase:_ZN4node9inspector16MainThreadHandle5ResetEv
Keybase:_ZN4node9inspector16MainThreadHandle7ConnectENSt4__Cr10unique_ptrINS0_24InspectorSessionDelegateENS2_14default_deleteIS4_EEEEb
Keybase:_ZN4node9inspector16MainThreadHandle7ExpiredEv
Keybase:_ZN4node9inspector16NetworkInspector16emitNotificationEN2v85LocalINS2_7ContextEEERKNSt4__Cr12basic_stringIcNS6_11char_traitsIcEENS6_9allocatorIcEEEESE_NS3_INS2_6ObjectEEE
Keybase:_ZN4node9inspector16NetworkInspector4WireEPN5crdtp14UberDispatcherE
Keybase:_ZN4node9inspector16NetworkInspector6EnableEv
Keybase:_ZN4node9inspector16NetworkInspector7DisableEv
Keybase:_ZN4node9inspector16NetworkInspector7canEmitERKNSt4__Cr12basic_stringIcNS2_11char_traitsIcEENS2_9allocatorIcEEEE
Keybase:_ZN4node9inspector16NetworkInspectorC1EPNS_11EnvironmentEPN12v8_inspector11V8InspectorENSt4__Cr10shared_ptrINS0_22NetworkResourceManagerEEE
Keybase:_ZN4node9inspector16NetworkInspectorC2EPNS_11EnvironmentEPN12v8_inspector11V8InspectorENSt4__Cr10shared_ptrINS0_22NetworkResourceManagerEEE
Keybase:_ZN4node9inspector16NetworkInspectorD1Ev
Keybase:_ZN4node9inspector16NetworkInspectorD2Ev
Keybase:_ZN4node9inspector16Utf8ToStringViewENSt4__Cr17basic_string_viewIcNS1_11char_traitsIcEEEE
Keybase:_ZN4node9inspector19InspectorIoDelegate10EndSessionEi
Keybase:_ZN4node9inspector19InspectorIoDelegate12GetTargetIdsEv
Keybase:_ZN4node9inspector19InspectorIoDelegate12GetTargetUrlERKNSt4__Cr12basic_stringIcNS2_11char_traitsIcEENS2_9allocatorIcEEEE
Keybase:_ZN4node9inspector19InspectorIoDelegate12StartSessionEiRKNSt4__Cr12basic_stringIcNS2_11char_traitsIcEENS2_9allocatorIcEEEE
Keybase:_ZN4node9inspector19InspectorIoDelegate14GetTargetTitleERKNSt4__Cr12basic_stringIcNS2_11char_traitsIcEENS2_9allocatorIcEEEE
Keybase:_ZN4node9inspector19InspectorIoDelegate15MessageReceivedEiRKNSt4__Cr12basic_stringIcNS2_11char_traitsIcEENS2_9allocatorIcEEEE
Keybase:_ZN4node9inspector19InspectorIoDelegate18GetTargetSessionIdERKNSt4__Cr12basic_stringIcNS2_11char_traitsIcEENS2_9allocatorIcEEEE
Keybase:_ZN4node9inspector19MainThreadInterface12RemoveObjectEi
Keybase:_ZN4node9inspector19MainThreadInterface16DispatchMessagesEv
Keybase:_ZN4node9inspector19MainThreadInterface17GetObjectIfExistsEi
Keybase:_ZN4node9inspector19MainThreadInterface20WaitForFrontendEventEv
Keybase:_ZN4node9inspector19MainThreadInterface27StopWaitingForFrontendEventEv
Keybase:_ZN4node9inspector19MainThreadInterface4PostENSt4__Cr10unique_ptrINS0_7RequestENS2_14default_deleteIS4_EEEE
Keybase:_ZN4node9inspector19MainThreadInterface9AddObjectEiNSt4__Cr10unique_ptrINS0_9DeletableENS2_14default_deleteIS4_EEEE
Keybase:_ZN4node9inspector19MainThreadInterface9GetHandleEv
Keybase:_ZN4node9inspector19MainThreadInterface9GetObjectEi
Keybase:_ZN4node9inspector19MainThreadInterfaceC1EPNS0_5AgentE
Keybase:_ZN4node9inspector19MainThreadInterfaceC2EPNS0_5AgentE
Keybase:_ZN4node9inspector19MainThreadInterfaceD1Ev
Keybase:_ZN4node9inspector19MainThreadInterfaceD2Ev
Keybase:_ZN4node9inspector21InspectorSocketServer12TargetExistsERKNSt4__Cr12basic_stringIcNS2_11char_traitsIcEENS2_9allocatorIcEEEE
Keybase:_ZN4node9inspector21InspectorSocketServer14GetFrontendURLEbRKNSt4__Cr12basic_stringIcNS2_11char_traitsIcEENS2_9allocatorIcEEEE
Keybase:_ZN4node9inspector21InspectorSocketServer14SessionStartedEiRKNSt4__Cr12basic_stringIcNS2_11char_traitsIcEENS2_9allocatorIcEEEESA_
Keybase:_ZN4node9inspector21InspectorSocketServer16HandleGetRequestEiRKNSt4__Cr12basic_stringIcNS2_11char_traitsIcEENS2_9allocatorIcEEEESA_
Keybase:_ZN4node9inspector21InspectorSocketServer16SendListResponseEPNS0_15InspectorSocketERKNSt4__Cr12basic_stringIcNS4_11char_traitsIcEENS4_9allocatorIcEEEEPNS0_13SocketSessionE
Keybase:_ZN4node9inspector21InspectorSocketServer17CloseServerSocketEPNS0_12ServerSocketE
Keybase:_ZN4node9inspector21InspectorSocketServer17SessionTerminatedEi
Keybase:_ZN4node9inspector21InspectorSocketServer20TerminateConnectionsEv
Keybase:_ZN4node9inspector21InspectorSocketServer4SendEiRKNSt4__Cr12basic_stringIcNS2_11char_traitsIcEENS2_9allocatorIcEEEE
Keybase:_ZN4node9inspector21InspectorSocketServer4StopEv
Keybase:_ZN4node9inspector21InspectorSocketServer5StartEv
Keybase:_ZN4node9inspector21InspectorSocketServer6AcceptEiP11uv_stream_s
Keybase:_ZN4node9inspector21InspectorSocketServer7SessionEi
Keybase:_ZN4node9inspector21InspectorSocketServerC1ENSt4__Cr10unique_ptrINS0_20SocketServerDelegateENS2_14default_deleteIS4_EEEEP9uv_loop_sRKNS2_12basic_stringIcNS2_11char_traitsIcEENS2_9allocatorIcEEEEiRKNS_17InspectPublishUidEP8_IO_FILE
Keybase:_ZN4node9inspector21InspectorSocketServerC2ENSt4__Cr10unique_ptrINS0_20SocketServerDelegateENS2_14default_deleteIS4_EEEEP9uv_loop_sRKNS2_12basic_stringIcNS2_11char_traitsIcEENS2_9allocatorIcEEEEiRKNS_17InspectPublishUidEP8_IO_FILE
Keybase:_ZN4node9inspector21InspectorSocketServerD1Ev
Keybase:_ZN4node9inspector21InspectorSocketServerD2Ev
Keybase:_ZN4node9inspector21ParentInspectorHandle13WorkerStartedENSt4__Cr10shared_ptrINS0_16MainThreadHandleEEEb
Keybase:_ZN4node9inspector21ParentInspectorHandle7ConnectENSt4__Cr10unique_ptrINS0_24InspectorSessionDelegateENS2_14default_deleteIS4_EEEEb
Keybase:_ZN4node9inspector21ParentInspectorHandleC1EmNSt4__Cr17basic_string_viewIcNS2_11char_traitsIcEEEENS2_10shared_ptrINS0_16MainThreadHandleEEEbS6_NS7_INS0_22NetworkResourceManagerEEE
Keybase:_ZN4node9inspector21ParentInspectorHandleC2EmNSt4__Cr17basic_string_viewIcNS2_11char_traitsIcEEEENS2_10shared_ptrINS0_16MainThreadHandleEEEbS6_NS7_INS0_22NetworkResourceManagerEEE
Keybase:_ZN4node9inspector21ParentInspectorHandleD1Ev
Keybase:_ZN4node9inspector21ParentInspectorHandleD2Ev
Keybase:_ZN4node9inspector22NetworkResourceManager3GetERKNSt4__Cr12basic_stringIcNS2_11char_traitsIcEENS2_9allocatorIcEEEE
Keybase:_ZN4node9inspector22NetworkResourceManager3PutERKNSt4__Cr12basic_stringIcNS2_11char_traitsIcEENS2_9allocatorIcEEEESA_
Keybase:_ZN4node9inspector22NetworkResourceManager5EraseERKNSt4__Cr12basic_stringIcNS2_11char_traitsIcEENS2_9allocatorIcEEEE
Keybase:_ZN4node9inspector23ObjectGetProtocolStringEN2v85LocalINS1_7ContextEEENS2_INS1_6ObjectEEENS2_INS1_6StringEEE
Keybase:_ZN4node9inspector23ObjectGetProtocolStringEN2v85LocalINS1_7ContextEEENS2_INS1_6ObjectEEEPKc
Keybase:_ZN4node9inspector23createHeadersFromObjectEN2v85LocalINS1_7ContextEEENS2_INS1_6ObjectEEE
Keybase:_ZN4node9inspector23createRequestFromObjectEN2v85LocalINS1_7ContextEEENS2_INS1_6ObjectEEE
Keybase:_ZN4node9inspector24WorkerManagerEventHandle14SetWaitOnStartEb
Keybase:_ZN4node9inspector24WorkerManagerEventHandleD1Ev
Keybase:_ZN4node9inspector24WorkerManagerEventHandleD2Ev
Keybase:_ZN4node9inspector24createResponseFromObjectEN2v85LocalINS1_7ContextEEENS2_INS1_6ObjectEEE
Keybase:_ZN4node9inspector25PrintDebuggerReadyMessageERKNSt4__Cr12basic_stringIcNS1_11char_traitsIcEENS1_9allocatorIcEEEERKNS1_6vectorINS1_10unique_ptrINS0_12ServerSocketENS_15FunctionDeleterISC_XadL_ZNS0_21InspectorSocketServer17CloseServerSocketEPSC_EEEEEENS5_ISH_EEEERKNSA_IS7_NS5_IS7_EEEEPKcbP8_IO_FILE
Keybase:_ZN4node9inspector26RegisterExternalReferencesEPNS_25ExternalReferenceRegistryE
Keybase:_ZN4node9inspector5Agent13StartIoThreadEv
Keybase:_ZN4node9inspector5Agent14ContextCreatedEN2v85LocalINS2_7ContextEEERKNS_11ContextInfoE
Keybase:_ZN4node9inspector5Agent14WaitForConnectEv
Keybase:_ZN4node9inspector5Agent15EnableAsyncHookEv
Keybase:_ZN4node9inspector5Agent15GetParentHandleEmNSt4__Cr17basic_string_viewIcNS2_11char_traitsIcEEEES6_
Keybase:_ZN4node9inspector5Agent15SetParentHandleENSt4__Cr10unique_ptrINS0_21ParentInspectorHandleENS2_14default_deleteIS4_EEEE
Keybase:_ZN4node9inspector5Agent15ToggleAsyncHookEPN2v87IsolateENS2_5LocalINS2_8FunctionEEE
Keybase:_ZN4node9inspector5Agent16AsyncTaskStartedEPv
Keybase:_ZN4node9inspector5Agent16DisableAsyncHookEv
Keybase:_ZN4node9inspector5Agent16GetWorkerManagerEv
Keybase:_ZN4node9inspector5Agent17AsyncTaskCanceledEPv
Keybase:_ZN4node9inspector5Agent17AsyncTaskFinishedEPv
Keybase:_ZN4node9inspector5Agent17EmitProtocolEventEN2v85LocalINS2_7ContextEEERKN12v8_inspector10StringViewENS3_INS2_6ObjectEEE
Keybase:_ZN4node9inspector5Agent17RegisterAsyncHookEPN2v87IsolateENS2_5LocalINS2_8FunctionEEES7_
Keybase:_ZN4node9inspector5Agent17WaitForDisconnectEv
Keybase:_ZN4node9inspector5Agent18AsyncTaskScheduledERKN12v8_inspector10StringViewEPvb
Keybase:_ZN4node9inspector5Agent19ConnectToMainThreadENSt4__Cr10unique_ptrINS0_24InspectorSessionDelegateENS2_14default_deleteIS4_EEEEb
Keybase:_ZN4node9inspector5Agent20RequestIoThreadStartEv
Keybase:_ZN4node9inspector5Agent20SetupNetworkTrackingEN2v85LocalINS2_8FunctionEEES5_
Keybase:_ZN4node9inspector5Agent21AllAsyncTasksCanceledEv
Keybase:_ZN4node9inspector5Agent21EnableNetworkTrackingEv
Keybase:_ZN4node9inspector5Agent21ToggleNetworkTrackingEPN2v87IsolateENS2_5LocalINS2_8FunctionEEE
Keybase:_ZN4node9inspector5Agent22DisableNetworkTrackingEv
Keybase:_ZN4node9inspector5Agent23ReportUncaughtExceptionEN2v85LocalINS2_5ValueEEENS3_INS2_7MessageEEE
Keybase:_ZN4node9inspector5Agent23StopIfWaitingForConnectEv
Keybase:_ZN4node9inspector5Agent23WaitForConnectByOptionsEv
Keybase:_ZN4node9inspector5Agent25GetNetworkResourceManagerEv
Keybase:_ZN4node9inspector5Agent30PauseOnNextJavascriptStatementERKNSt4__Cr12basic_stringIcNS2_11char_traitsIcEENS2_9allocatorIcEEEE
Keybase:_ZN4node9inspector5Agent4StopEv
Keybase:_ZN4node9inspector5Agent5StartERKNSt4__Cr12basic_stringIcNS2_11char_traitsIcEENS2_9allocatorIcEEEERKNS_12DebugOptionsENS2_10shared_ptrINS_15ExclusiveAccessINS_8HostPortENS_9MutexBaseINS_16LibuvMutexTraitsEEEEEEEb
Keybase:_ZN4node9inspector5Agent7ConnectENSt4__Cr10unique_ptrINS0_24InspectorSessionDelegateENS2_14default_deleteIS4_EEEEb
Keybase:_ZN4node9inspector5Agent8IsActiveEv
Keybase:_ZN4node9inspector5AgentC1EPNS_11EnvironmentE
Keybase:_ZN4node9inspector5AgentC2EPNS_11EnvironmentE
Keybase:_ZN4node9inspector5AgentD1Ev
Keybase:_ZN4node9inspector5AgentD2Ev
Keybase:_ZN4node9inspector8JsonUtil9ParseJSONEPKhm
Keybase:_ZN4node9inspector8JsonUtil9ParseJSONEPKtm
Keybase:_ZN4node9inspector8JsonUtil9parseJSONEN12v8_inspector10StringViewE
Keybase:_ZN4node9inspector8JsonUtil9parseJSONENSt4__Cr17basic_string_viewIcNS2_11char_traitsIcEEEE
Keybase:_ZN4node9inspector8protocol10NodeWorker10Dispatcher4wireEPN5crdtp14UberDispatcherEPNS2_7BackendE
Keybase:_ZN4node9inspector8protocol10NodeWorker10WorkerInfo23deserializer_descriptorEv
Keybase:_ZN4node9inspector8protocol10NodeWorker20DomainDispatcherImpl19sendMessageToWorkerERKN5crdtp12DispatchableE
Keybase:_ZN4node9inspector8protocol10NodeWorker20DomainDispatcherImpl6detachERKN5crdtp12DispatchableE
Keybase:_ZN4node9inspector8protocol10NodeWorker20DomainDispatcherImpl6enableERKN5crdtp12DispatchableE
Keybase:_ZN4node9inspector8protocol10NodeWorker20DomainDispatcherImpl7disableERKN5crdtp12DispatchableE
Keybase:_ZN4node9inspector8protocol10NodeWorker20DomainDispatcherImpl8DispatchENSt4__Cr4spanIKhLm18446744073709551615EEE
Keybase:_ZN4node9inspector8protocol10NodeWorker8Frontend16attachedToWorkerERKNSt4__Cr12basic_stringIcNS4_11char_traitsIcEENS4_9allocatorIcEEEENS4_10unique_ptrINS2_10WorkerInfoENS4_14default_deleteISE_EEEEb
Keybase:_ZN4node9inspector8protocol10NodeWorker8Frontend18detachedFromWorkerERKNSt4__Cr12basic_stringIcNS4_11char_traitsIcEENS4_9allocatorIcEEEE
Keybase:_ZN4node9inspector8protocol10NodeWorker8Frontend19sendRawNotificationENSt4__Cr10unique_ptrIN5crdtp12SerializableENS4_14default_deleteIS7_EEEE
Keybase:_ZN4node9inspector8protocol10NodeWorker8Frontend25receivedMessageFromWorkerERKNSt4__Cr12basic_stringIcNS4_11char_traitsIcEENS4_9allocatorIcEEEESC_
Keybase:_ZN4node9inspector8protocol10NodeWorker8Frontend5flushEv
Keybase:_ZN4node9inspector8protocol10NodeWorker8Metainfo10domainNameE
Keybase:_ZN4node9inspector8protocol10NodeWorker8Metainfo13commandPrefixE
Keybase:_ZN4node9inspector8protocol10NodeWorker8Metainfo7versionE
Keybase:_ZN4node9inspector8protocol10StringUtil11fromUTF16LEEPKtm
Keybase:_ZN4node9inspector8protocol10StringUtil14CharacterCountENSt4__Cr17basic_string_viewIcNS3_11char_traitsIcEEEE
Keybase:_ZN4node9inspector8protocol10StringUtil14CharactersUTF8ENSt4__Cr17basic_string_viewIcNS3_11char_traitsIcEEEE
Keybase:_ZN4node9inspector8protocol10StringUtil16StringViewToUtf8EN12v8_inspector10StringViewE
Keybase:_ZN4node9inspector8protocol10StringUtil8fromUTF8EPKhm
Keybase:_ZN4node9inspector8protocol10StringUtil9fromUTF16EPKtm
Keybase:_ZN4node9inspector8protocol11NodeRuntime10Dispatcher4wireEPN5crdtp14UberDispatcherEPNS2_7BackendE
Keybase:_ZN4node9inspector8protocol11NodeRuntime20DomainDispatcherImpl30notifyWhenWaitingForDisconnectERKN5crdtp12DispatchableE
Keybase:_ZN4node9inspector8protocol11NodeRuntime20DomainDispatcherImpl6enableERKN5crdtp12DispatchableE
Keybase:_ZN4node9inspector8protocol11NodeRuntime20DomainDispatcherImpl7disableERKN5crdtp12DispatchableE
Keybase:_ZN4node9inspector8protocol11NodeRuntime20DomainDispatcherImpl8DispatchENSt4__Cr4spanIKhLm18446744073709551615EEE
Keybase:_ZN4node9inspector8protocol11NodeRuntime8Frontend18waitingForDebuggerEv
Keybase:_ZN4node9inspector8protocol11NodeRuntime8Frontend19sendRawNotificationENSt4__Cr10unique_ptrIN5crdtp12SerializableENS4_14default_deleteIS7_EEEE
Keybase:_ZN4node9inspector8protocol11NodeRuntime8Frontend20waitingForDisconnectEv
Keybase:_ZN4node9inspector8protocol11NodeRuntime8Frontend5flushEv
Keybase:_ZN4node9inspector8protocol11NodeRuntime8Metainfo10domainNameE
Keybase:_ZN4node9inspector8protocol11NodeRuntime8Metainfo13commandPrefixE
Keybase:_ZN4node9inspector8protocol11NodeRuntime8Metainfo7versionE
Keybase:_ZN4node9inspector8protocol11NodeTracing10Dispatcher4wireEPN5crdtp14UberDispatcherEPNS2_7BackendE
Keybase:_ZN4node9inspector8protocol11NodeTracing11TraceConfig14RecordModeEnum15RecordUntilFullE
Keybase:_ZN4node9inspector8protocol11NodeTracing11TraceConfig14RecordModeEnum18RecordContinuouslyE
Keybase:_ZN4node9inspector8protocol11NodeTracing11TraceConfig14RecordModeEnum22RecordAsMuchAsPossibleE
Keybase:_ZN4node9inspector8protocol11NodeTracing11TraceConfig23deserializer_descriptorEv
Keybase:_ZN4node9inspector8protocol11NodeTracing20DomainDispatcherImpl13getCategoriesERKN5crdtp12DispatchableE
Keybase:_ZN4node9inspector8protocol11NodeTracing20DomainDispatcherImpl4stopERKN5crdtp12DispatchableE
Keybase:_ZN4node9inspector8protocol11NodeTracing20DomainDispatcherImpl5startERKN5crdtp12DispatchableE
Keybase:_ZN4node9inspector8protocol11NodeTracing20DomainDispatcherImpl8DispatchENSt4__Cr4spanIKhLm18446744073709551615EEE
Keybase:_ZN4node9inspector8protocol11NodeTracing8Frontend13dataCollectedENSt4__Cr10unique_ptrINS4_6vectorINS5_INS1_15DictionaryValueENS4_14default_deleteIS7_EEEENS4_9allocatorISA_EEEENS8_ISD_EEEE
Keybase:_ZN4node9inspector8protocol11NodeTracing8Frontend15tracingCompleteEv
Keybase:_ZN4node9inspector8protocol11NodeTracing8Frontend19sendRawNotificationENSt4__Cr10unique_ptrIN5crdtp12SerializableENS4_14default_deleteIS7_EEEE
Keybase:_ZN4node9inspector8protocol11NodeTracing8Frontend5flushEv
Keybase:_ZN4node9inspector8protocol11NodeTracing8Metainfo10domainNameE
Keybase:_ZN4node9inspector8protocol11NodeTracing8Metainfo13commandPrefixE
Keybase:_ZN4node9inspector8protocol11NodeTracing8Metainfo7versionE
Keybase:_ZN4node9inspector8protocol11NodeWorkers13WorkerCreatedERKNSt4__Cr12basic_stringIcNS3_11char_traitsIcEENS3_9allocatorIcEEEESB_bNS3_10shared_ptrINS0_16MainThreadHandleEEE
Keybase:_ZN4node9inspector8protocol11NodeWorkers4SendERKNSt4__Cr12basic_stringIcNS3_11char_traitsIcEENS3_9allocatorIcEEEESB_
Keybase:_ZN4node9inspector8protocol11NodeWorkers7ReceiveERKNSt4__Cr12basic_stringIcNS3_11char_traitsIcEENS3_9allocatorIcEEEESB_
Keybase:_ZN4node9inspector8protocol11NodeWorkers8DetachedERKNSt4__Cr12basic_stringIcNS3_11char_traitsIcEENS3_9allocatorIcEEEE
Keybase:_ZN4node9inspector8protocol11TargetAgent12listenWorkerENSt4__Cr8weak_ptrINS0_13WorkerManagerEEE
Keybase:_ZN4node9inspector8protocol11TargetAgent13setAutoAttachEbb
Keybase:_ZN4node9inspector8protocol11TargetAgent13targetCreatedENSt4__Cr17basic_string_viewIcNS3_11char_traitsIcEEEES7_S7_S7_
Keybase:_ZN4node9inspector8protocol11TargetAgent15getNextTargetIdEv
Keybase:_ZN4node9inspector8protocol11TargetAgent16attachedToTargetENSt4__Cr10shared_ptrINS0_16MainThreadHandleEEERKNS3_12basic_stringIcNS3_11char_traitsIcEENS3_9allocatorIcEEEESE_SE_SE_
Keybase:_ZN4node9inspector8protocol11TargetAgent16getNextSessionIdEv
Keybase:_ZN4node9inspector8protocol11TargetAgent16next_session_id_E
Keybase:_ZN4node9inspector8protocol11TargetAgent26createAndAttachIfNecessaryENSt4__Cr10shared_ptrINS0_16MainThreadHandleEEERKNS3_12basic_stringIcNS3_11char_traitsIcEENS3_9allocatorIcEEEESE_
Keybase:_ZN4node9inspector8protocol11TargetAgent29target_session_id_worker_map_E
Keybase:_ZN4node9inspector8protocol11TargetAgent4WireEPN5crdtp14UberDispatcherE
Keybase:_ZN4node9inspector8protocol11TargetAgent5resetEv
Keybase:_ZN4node9inspector8protocol11WorkerAgent19sendMessageToWorkerERKNSt4__Cr12basic_stringIcNS3_11char_traitsIcEENS3_9allocatorIcEEEESB_
Keybase:_ZN4node9inspector8protocol11WorkerAgent4WireEPN5crdtp14UberDispatcherE
Keybase:_ZN4node9inspector8protocol11WorkerAgent6detachERKNSt4__Cr12basic_stringIcNS3_11char_traitsIcEENS3_9allocatorIcEEEE
Keybase:_ZN4node9inspector8protocol11WorkerAgent6enableEb
Keybase:_ZN4node9inspector8protocol11WorkerAgent7disableEv
Keybase:_ZN4node9inspector8protocol11WorkerAgentC1ENSt4__Cr8weak_ptrINS0_13WorkerManagerEEE
Keybase:_ZN4node9inspector8protocol11WorkerAgentC2ENSt4__Cr8weak_ptrINS0_13WorkerManagerEEE
Keybase:_ZN4node9inspector8protocol12RuntimeAgent21setWaitingForDebuggerEv
Keybase:_ZN4node9inspector8protocol12RuntimeAgent23unsetWaitingForDebuggerEv
Keybase:_ZN4node9inspector8protocol12RuntimeAgent26notifyWaitingForDisconnectEv
Keybase:_ZN4node9inspector8protocol12RuntimeAgent30notifyWhenWaitingForDisconnectEb
Keybase:_ZN4node9inspector8protocol12RuntimeAgent4WireEPN5crdtp14UberDispatcherE
Keybase:_ZN4node9inspector8protocol12RuntimeAgent6enableEv
Keybase:_ZN4node9inspector8protocol12RuntimeAgent7disableEv
Keybase:_ZN4node9inspector8protocol12RuntimeAgentC1Ev
Keybase:_ZN4node9inspector8protocol12RuntimeAgentC2Ev
Keybase:_ZN4node9inspector8protocol12TracingAgent13getCategoriesEPNSt4__Cr10unique_ptrINS3_6vectorINS3_12basic_stringIcNS3_11char_traitsIcEENS3_9allocatorIcEEEENS9_ISB_EEEENS3_14default_deleteISD_EEEE
Keybase:_ZN4node9inspector8protocol12TracingAgent4WireEPN5crdtp14UberDispatcherE
Keybase:_ZN4node9inspector8protocol12TracingAgent4stopEv
Keybase:_ZN4node9inspector8protocol12TracingAgent5startENSt4__Cr10unique_ptrINS1_11NodeTracing11TraceConfigENS3_14default_deleteIS6_EEEE
Keybase:_ZN4node9inspector8protocol12TracingAgentC1EPNS_11EnvironmentENSt4__Cr10shared_ptrINS0_16MainThreadHandleEEE
Keybase:_ZN4node9inspector8protocol12TracingAgentC2EPNS_11EnvironmentENSt4__Cr10shared_ptrINS0_16MainThreadHandleEEE
Keybase:_ZN4node9inspector8protocol12TracingAgentD0Ev
Keybase:_ZN4node9inspector8protocol12TracingAgentD1Ev
Keybase:_ZN4node9inspector8protocol12TracingAgentD2Ev
Keybase:_ZN4node9inspector8protocol15DictionaryValue10setBooleanERKNSt4__Cr12basic_stringIcNS3_11char_traitsIcEENS3_9allocatorIcEEEEb
Keybase:_ZN4node9inspector8protocol15DictionaryValue10setIntegerERKNSt4__Cr12basic_stringIcNS3_11char_traitsIcEENS3_9allocatorIcEEEEi
Keybase:_ZN4node9inspector8protocol15DictionaryValue6removeERKNSt4__Cr12basic_stringIcNS3_11char_traitsIcEENS3_9allocatorIcEEEE
Keybase:_ZN4node9inspector8protocol15DictionaryValue8setArrayERKNSt4__Cr12basic_stringIcNS3_11char_traitsIcEENS3_9allocatorIcEEEENS3_10unique_ptrINS1_9ListValueENS3_14default_deleteISD_EEEE
Keybase:_ZN4node9inspector8protocol15DictionaryValue8setValueERKNSt4__Cr12basic_stringIcNS3_11char_traitsIcEENS3_9allocatorIcEEEENS3_10unique_ptrINS1_5ValueENS3_14default_deleteISD_EEEE
Keybase:_ZN4node9inspector8protocol15DictionaryValue9setDoubleERKNSt4__Cr12basic_stringIcNS3_11char_traitsIcEENS3_9allocatorIcEEEEd
Keybase:_ZN4node9inspector8protocol15DictionaryValue9setObjectERKNSt4__Cr12basic_stringIcNS3_11char_traitsIcEENS3_9allocatorIcEEEENS3_10unique_ptrIS2_NS3_14default_deleteIS2_EEEE
Keybase:_ZN4node9inspector8protocol15DictionaryValue9setStringERKNSt4__Cr12basic_stringIcNS3_11char_traitsIcEENS3_9allocatorIcEEEESB_
Keybase:_ZN4node9inspector8protocol15DictionaryValueC1Ev
Keybase:_ZN4node9inspector8protocol15DictionaryValueC2Ev
Keybase:_ZN4node9inspector8protocol15DictionaryValueD0Ev
Keybase:_ZN4node9inspector8protocol15DictionaryValueD1Ev
Keybase:_ZN4node9inspector8protocol15DictionaryValueD2Ev
Keybase:_ZN4node9inspector8protocol16createTargetInfoENSt4__Cr17basic_string_viewIcNS2_11char_traitsIcEEEES6_S6_S6_
Keybase:_ZN4node9inspector8protocol2IO10Dispatcher4wireEPN5crdtp14UberDispatcherEPNS2_7BackendE
Keybase:_ZN4node9inspector8protocol2IO20DomainDispatcherImpl4readERKN5crdtp12DispatchableE
Keybase:_ZN4node9inspector8protocol2IO20DomainDispatcherImpl5closeERKN5crdtp12DispatchableE
Keybase:_ZN4node9inspector8protocol2IO20DomainDispatcherImpl8DispatchENSt4__Cr4spanIKhLm18446744073709551615EEE
Keybase:_ZN4node9inspector8protocol2IO8Frontend19sendRawNotificationENSt4__Cr10unique_ptrIN5crdtp12SerializableENS4_14default_deleteIS7_EEEE
Keybase:_ZN4node9inspector8protocol2IO8Frontend5flushEv
Keybase:_ZN4node9inspector8protocol2IO8Metainfo10domainNameE
Keybase:_ZN4node9inspector8protocol2IO8Metainfo13commandPrefixE
Keybase:_ZN4node9inspector8protocol2IO8Metainfo7versionE
Keybase:_ZN4node9inspector8protocol5Value11parseBinaryEPKhm
Keybase:_ZN4node9inspector8protocol6Binary10fromBase64ERKNSt4__Cr12basic_stringIcNS3_11char_traitsIcEENS3_9allocatorIcEEEEPb
Keybase:_ZN4node9inspector8protocol6Binary14fromUint8ArrayEN2v85LocalINS3_10Uint8ArrayEEE
Keybase:_ZN4node9inspector8protocol6Binary6concatERKNSt4__Cr6vectorIS2_NS3_9allocatorIS2_EEEE
Keybase:_ZN4node9inspector8protocol6Object9fromValueEPNS1_5ValueEPN5crdtp12ErrorSupportE
Keybase:_ZN4node9inspector8protocol6ObjectC1ENSt4__Cr10unique_ptrINS1_15DictionaryValueENS3_14default_deleteIS5_EEEE
Keybase:_ZN4node9inspector8protocol6ObjectC2ENSt4__Cr10unique_ptrINS1_15DictionaryValueENS3_14default_deleteIS5_EEEE
Keybase:_ZN4node9inspector8protocol6ObjectD0Ev
Keybase:_ZN4node9inspector8protocol6ObjectD1Ev
Keybase:_ZN4node9inspector8protocol6ObjectD2Ev
Keybase:_ZN4node9inspector8protocol6Target10Dispatcher4wireEPN5crdtp14UberDispatcherEPNS2_7BackendE
Keybase:_ZN4node9inspector8protocol6Target10TargetInfo23deserializer_descriptorEv
Keybase:_ZN4node9inspector8protocol6Target20DomainDispatcherImpl13setAutoAttachERKN5crdtp12DispatchableE
Keybase:_ZN4node9inspector8protocol6Target20DomainDispatcherImpl8DispatchENSt4__Cr4spanIKhLm18446744073709551615EEE
Keybase:_ZN4node9inspector8protocol6Target8Frontend13targetCreatedENSt4__Cr10unique_ptrINS2_10TargetInfoENS4_14default_deleteIS6_EEEE
Keybase:_ZN4node9inspector8protocol6Target8Frontend16attachedToTargetERKNSt4__Cr12basic_stringIcNS4_11char_traitsIcEENS4_9allocatorIcEEEENS4_10unique_ptrINS2_10TargetInfoENS4_14default_deleteISE_EEEEb
Keybase:_ZN4node9inspector8protocol6Target8Frontend19sendRawNotificationENSt4__Cr10unique_ptrIN5crdtp12SerializableENS4_14default_deleteIS7_EEEE
Keybase:_ZN4node9inspector8protocol6Target8Frontend5flushEv
Keybase:_ZN4node9inspector8protocol6Target8Metainfo10domainNameE
Keybase:_ZN4node9inspector8protocol6Target8Metainfo13commandPrefixE
Keybase:_ZN4node9inspector8protocol6Target8Metainfo7versionE
Keybase:_ZN4node9inspector8protocol7IoAgent4WireEPN5crdtp14UberDispatcherE
Keybase:_ZN4node9inspector8protocol7IoAgent4readERKNSt4__Cr12basic_stringIcNS3_11char_traitsIcEENS3_9allocatorIcEEEENS3_8optionalIiEESD_PS9_Pb
Keybase:_ZN4node9inspector8protocol7IoAgent5closeERKNSt4__Cr12basic_stringIcNS3_11char_traitsIcEENS3_9allocatorIcEEEE
Keybase:_ZN4node9inspector8protocol7Network10Dispatcher4wireEPN5crdtp14UberDispatcherEPNS2_7BackendE
Keybase:_ZN4node9inspector8protocol7Network16ResourceTypeEnum10StylesheetE
Keybase:_ZN4node9inspector8protocol7Network16ResourceTypeEnum11EventSourceE
Keybase:_ZN4node9inspector8protocol7Network16ResourceTypeEnum14SignedExchangeE
Keybase:_ZN4node9inspector8protocol7Network16ResourceTypeEnum18CSPViolationReportE
Keybase:_ZN4node9inspector8protocol7Network16ResourceTypeEnum3XHRE
Keybase:_ZN4node9inspector8protocol7Network16ResourceTypeEnum4FontE
Keybase:_ZN4node9inspector8protocol7Network16ResourceTypeEnum4PingE
Keybase:_ZN4node9inspector8protocol7Network16ResourceTypeEnum5FetchE
Keybase:_ZN4node9inspector8protocol7Network16ResourceTypeEnum5ImageE
Keybase:_ZN4node9inspector8protocol7Network16ResourceTypeEnum5MediaE
Keybase:_ZN4node9inspector8protocol7Network16ResourceTypeEnum5OtherE
Keybase:_ZN4node9inspector8protocol7Network16ResourceTypeEnum6ScriptE
Keybase:_ZN4node9inspector8protocol7Network16ResourceTypeEnum8DocumentE
Keybase:_ZN4node9inspector8protocol7Network16ResourceTypeEnum8ManifestE
Keybase:_ZN4node9inspector8protocol7Network16ResourceTypeEnum8PrefetchE
Keybase:_ZN4node9inspector8protocol7Network16ResourceTypeEnum9PreflightE
Keybase:_ZN4node9inspector8protocol7Network16ResourceTypeEnum9TextTrackE
Keybase:_ZN4node9inspector8protocol7Network16ResourceTypeEnum9WebSocketE
Keybase:_ZN4node9inspector8protocol7Network20DomainDispatcherImpl15getResponseBodyERKN5crdtp12DispatchableE
Keybase:_ZN4node9inspector8protocol7Network20DomainDispatcherImpl18getRequestPostDataERKN5crdtp12DispatchableE
Keybase:_ZN4node9inspector8protocol7Network20DomainDispatcherImpl19loadNetworkResourceERKN5crdtp12DispatchableE
Keybase:_ZN4node9inspector8protocol7Network20DomainDispatcherImpl21streamResourceContentERKN5crdtp12DispatchableE
Keybase:_ZN4node9inspector8protocol7Network20DomainDispatcherImpl6enableERKN5crdtp12DispatchableE
Keybase:_ZN4node9inspector8protocol7Network20DomainDispatcherImpl7disableERKN5crdtp12DispatchableE
Keybase:_ZN4node9inspector8protocol7Network20DomainDispatcherImpl8DispatchENSt4__Cr4spanIKhLm18446744073709551615EEE
Keybase:_ZN4node9inspector8protocol7Network29LoadNetworkResourcePageResult23deserializer_descriptorEv
Keybase:_ZN4node9inspector8protocol7Network7Request23deserializer_descriptorEv
Keybase:_ZN4node9inspector8protocol7Network8Frontend12dataReceivedERKNSt4__Cr12basic_stringIcNS4_11char_traitsIcEENS4_9allocatorIcEEEEdiiNS4_8optionalINS1_6BinaryEEE
Keybase:_ZN4node9inspector8protocol7Network8Frontend13loadingFailedERKNSt4__Cr12basic_stringIcNS4_11char_traitsIcEENS4_9allocatorIcEEEEdSC_SC_
Keybase:_ZN4node9inspector8protocol7Network8Frontend15loadingFinishedERKNSt4__Cr12basic_stringIcNS4_11char_traitsIcEENS4_9allocatorIcEEEEd
Keybase:_ZN4node9inspector8protocol7Network8Frontend16responseReceivedERKNSt4__Cr12basic_stringIcNS4_11char_traitsIcEENS4_9allocatorIcEEEEdSC_NS4_10unique_ptrINS2_8ResponseENS4_14default_deleteISE_EEEE
Keybase:_ZN4node9inspector8protocol7Network8Frontend17requestWillBeSentERKNSt4__Cr12basic_stringIcNS4_11char_traitsIcEENS4_9allocatorIcEEEENS4_10unique_ptrINS2_7RequestENS4_14default_deleteISE_EEEENSD_INS2_9InitiatorENSF_ISI_EEEEdd
Keybase:_ZN4node9inspector8protocol7Network8Frontend19sendRawNotificationENSt4__Cr10unique_ptrIN5crdtp12SerializableENS4_14default_deleteIS7_EEEE
Keybase:_ZN4node9inspector8protocol7Network8Frontend5flushEv
Keybase:_ZN4node9inspector8protocol7Network8Metainfo10domainNameE
Keybase:_ZN4node9inspector8protocol7Network8Metainfo13commandPrefixE
Keybase:_ZN4node9inspector8protocol7Network8Metainfo7versionE
Keybase:_ZN4node9inspector8protocol7Network8Response23deserializer_descriptorEv
Keybase:_ZN4node9inspector8protocol7Network9Initiator23deserializer_descriptorEv
Keybase:_ZN4node9inspector8protocol7Network9Initiator8TypeEnum14SignedExchangeE
Keybase:_ZN4node9inspector8protocol7Network9Initiator8TypeEnum5OtherE
Keybase:_ZN4node9inspector8protocol7Network9Initiator8TypeEnum6ParserE
Keybase:_ZN4node9inspector8protocol7Network9Initiator8TypeEnum6ScriptE
Keybase:_ZN4node9inspector8protocol7Network9Initiator8TypeEnum7PreloadE
Keybase:_ZN4node9inspector8protocol7Network9Initiator8TypeEnum9PreflightE
Keybase:_ZN4node9inspector8protocol9ListValue2atEm
Keybase:_ZN4node9inspector8protocol9ListValue9pushValueENSt4__Cr10unique_ptrINS1_5ValueENS3_14default_deleteIS5_EEEE
Keybase:_ZN4node9inspector8protocol9ListValueC1Ev
Keybase:_ZN4node9inspector8protocol9ListValueC2Ev
Keybase:_ZN4node9inspector8protocol9ListValueD0Ev
Keybase:_ZN4node9inspector8protocol9ListValueD1Ev
Keybase:_ZN4node9inspector8protocol9ListValueD2Ev
Keybase:_ZN4node9inspector9TcpHolder10SetHandlerEPNS0_15ProtocolHandlerE
Keybase:_ZN4node9inspector9TcpHolder12ReclaimUvBufEPK8uv_buf_tl
Keybase:_ZN4node9inspector9TcpHolder16OnDataReceivedCbEP11uv_stream_slPK8uv_buf_t
Keybase:_ZN4node9inspector9TcpHolder20DisconnectAndDisposeEPS1_
Keybase:_ZN4node9inspector9TcpHolder6AcceptEP11uv_stream_sNSt4__Cr10unique_ptrINS0_15InspectorSocket8DelegateENS4_14default_deleteIS7_EEEE
Keybase:_ZN4node9inspector9TcpHolder8OnClosedEP11uv_handle_s
Keybase:_ZN4node9inspector9TcpHolder8WriteRawERKNSt4__Cr6vectorIcNS2_9allocatorIcEEEEPFvP10uv_write_siE
Keybase:_ZN4node9inspector9TcpHolder8delegateEv
Keybase:_ZN4node9inspector9TcpHolderC1ENSt4__Cr10unique_ptrINS0_15InspectorSocket8DelegateENS2_14default_deleteIS5_EEEE
Keybase:_ZN4node9inspector9TcpHolderC2ENSt4__Cr10unique_ptrINS0_15InspectorSocket8DelegateENS2_14default_deleteIS5_EEEE
Keybase:_ZN4nodeanENS_13SnapshotFlagsES0_
Keybase:_ZN4nodelsERNSt4__Cr13basic_ostreamIcNS0_11char_traitsIcEEEERKNS0_6vectorINS0_12basic_stringIcS3_NS0_9allocatorIcEEEENS8_ISA_EEEE
Keybase:_ZN4nodelsERNSt4__Cr13basic_ostreamIcNS0_11char_traitsIcEEEERKNS0_6vectorINS_8PropInfoENS0_9allocatorIS7_EEEE
Keybase:_ZN4nodelsERNSt4__Cr13basic_ostreamIcNS0_11char_traitsIcEEEERKNS0_6vectorINS_8builtins13CodeCacheInfoENS0_9allocatorIS8_EEEE
Keybase:_ZN4nodelsERNSt4__Cr13basic_ostreamIcNS0_11char_traitsIcEEEERKNS0_6vectorIhNS0_9allocatorIhEEEE
Keybase:_ZN4nodelsERNSt4__Cr13basic_ostreamIcNS0_11char_traitsIcEEEERKNS0_6vectorImNS0_9allocatorImEEEE
Keybase:_ZN4nodelsERNSt4__Cr13basic_ostreamIcNS0_11char_traitsIcEEEERKNS_10AsyncHooks13SerializeInfoE
Keybase:_ZN4nodelsERNSt4__Cr13basic_ostreamIcNS0_11char_traitsIcEEEERKNS_13ImmediateInfo13SerializeInfoE
Keybase:_ZN4nodelsERNSt4__Cr13basic_ostreamIcNS0_11char_traitsIcEEEERKNS_13SnapshotFlagsE
Keybase:_ZN4nodelsERNSt4__Cr13basic_ostreamIcNS0_11char_traitsIcEEEERKNS_16EnvSerializeInfoE
Keybase:_ZN4nodelsERNSt4__Cr13basic_ostreamIcNS0_11char_traitsIcEEEERKNS_16SnapshotMetadataE
Keybase:_ZN4nodelsERNSt4__Cr13basic_ostreamIcNS0_11char_traitsIcEEEERKNS_18RealmSerializeInfoE
Keybase:_ZN4nodelsERNSt4__Cr13basic_ostreamIcNS0_11char_traitsIcEEEERKNS_24IsolateDataSerializeInfoE
Keybase:_ZN4nodelsERNSt4__Cr13basic_ostreamIcNS0_11char_traitsIcEEEERKNS_8PropInfoE
Keybase:_ZN4nodelsERNSt4__Cr13basic_ostreamIcNS0_11char_traitsIcEEEERKNS_8TickInfo13SerializeInfoE
Keybase:_ZN4nodelsERNSt4__Cr13basic_ostreamIcNS0_11char_traitsIcEEEERKNS_8builtins13CodeCacheInfoE
Keybase:_ZN4nodeoRERNS_13SnapshotFlagsES0_
Keybase:_ZN4nodeorENS_13SnapshotFlagsES0_
Keybase:_ZN5cppgc13IsInitializedEv
Keybase:_ZN5cppgc15ShutdownProcessEv
Keybase:_ZN5cppgc17InitializeProcessEPN2v813PageAllocatorEm
Keybase:_ZN5cppgc21ProcessHeapStatistics22total_allocated_space_E
Keybase:_ZN5cppgc21ProcessHeapStatistics28total_allocated_object_size_E
Keybase:_ZN5cppgc4Heap13GetHeapHandleEv
Keybase:_ZN5cppgc4Heap19GetAllocationHandleEv
Keybase:_ZN5cppgc4Heap26ForceGarbageCollectionSlowEPKcS2_NS_18EmbedderStackStateE
Keybase:_ZN5cppgc4Heap6CreateENSt4__Cr10shared_ptrINS_8PlatformEEENS0_11HeapOptionsE
Keybase:_ZN5cppgc6subtle24NoGarbageCollectionScope5EnterERNS_10HeapHandleE
Keybase:_ZN5cppgc6subtle24NoGarbageCollectionScope5LeaveERNS_10HeapHandleE
Keybase:_ZN5cppgc6subtle24NoGarbageCollectionScopeC1ERNS_10HeapHandleE
Keybase:_ZN5cppgc6subtle24NoGarbageCollectionScopeC2ERNS_10HeapHandleE
Keybase:_ZN5cppgc6subtle24NoGarbageCollectionScopeD1Ev
Keybase:_ZN5cppgc6subtle24NoGarbageCollectionScopeD2Ev
Keybase:_ZN5cppgc6subtle30DisallowGarbageCollectionScope26IsGarbageCollectionAllowedERNS_10HeapHandleE
Keybase:_ZN5cppgc6subtle30DisallowGarbageCollectionScope5EnterERNS_10HeapHandleE
Keybase:_ZN5cppgc6subtle30DisallowGarbageCollectionScope5LeaveERNS_10HeapHandleE
Keybase:_ZN5cppgc6subtle30DisallowGarbageCollectionScopeC1ERNS_10HeapHandleE
Keybase:_ZN5cppgc6subtle30DisallowGarbageCollectionScopeC2ERNS_10HeapHandleE
Keybase:_ZN5cppgc6subtle30DisallowGarbageCollectionScopeD1Ev
Keybase:_ZN5cppgc6subtle30DisallowGarbageCollectionScopeD2Ev
Keybase:_ZN5cppgc6subtle9HeapState10IsSweepingERKNS_10HeapHandleE
Keybase:_ZN5cppgc6subtle9HeapState15IsInAtomicPauseERKNS_10HeapHandleE
Keybase:_ZN5cppgc6subtle9HeapState24IsSweepingOnOwningThreadERKNS_10HeapHandleE
Keybase:_ZN5cppgc6subtle9HeapState25PreviousGCWasConservativeERKNS_10HeapHandleE
Keybase:_ZN5cppgc6subtle9HeapState9IsMarkingERKNS_10HeapHandleE
Keybase:_ZN5cppgc7testing15IsHeapObjectOldEPv
Keybase:_ZN5cppgc7testing21StandaloneTestingHeap18PerformMarkingStepENS_18EmbedderStackStateE
Keybase:_ZN5cppgc7testing21StandaloneTestingHeap22StartGarbageCollectionEv
Keybase:_ZN5cppgc7testing21StandaloneTestingHeap23ToggleMainThreadMarkingEb
Keybase:_ZN5cppgc7testing21StandaloneTestingHeap25FinalizeGarbageCollectionENS_18EmbedderStackStateE
Keybase:_ZN5cppgc7testing21StandaloneTestingHeap39ForceCompactionForNextGarbageCollectionEv
Keybase:_ZN5cppgc7testing21StandaloneTestingHeapC1ERNS_10HeapHandleE
Keybase:_ZN5cppgc7testing21StandaloneTestingHeapC2ERNS_10HeapHandleE
Keybase:_ZN5cppgc7testing31OverrideEmbedderStackStateScopeC1ERNS_10HeapHandleENS_18EmbedderStackStateE
Keybase:_ZN5cppgc7testing31OverrideEmbedderStackStateScopeC2ERNS_10HeapHandleENS_18EmbedderStackStateE
Keybase:_ZN5cppgc7testing31OverrideEmbedderStackStateScopeD1Ev
Keybase:_ZN5cppgc7testing31OverrideEmbedderStackStateScopeD2Ev
Keybase:_ZN5cppgc8Platform20GetTracingControllerEv
Keybase:_ZN5cppgc8internal10DCheckImplEPKcN2v814SourceLocationE
Keybase:_ZN5cppgc8internal11GCInfoTable17RegisterNewGCInfoERNSt4__Cr6atomicItEERKNS0_6GCInfoE
Keybase:_ZN5cppgc8internal11GCInfoTable19CheckMemoryIsZeroedEPmm
Keybase:_ZN5cppgc8internal11GCInfoTable6ResizeEv
Keybase:_ZN5cppgc8internal11GCInfoTableC1ERN2v813PageAllocatorERNS0_23FatalOutOfMemoryHandlerE
Keybase:_ZN5cppgc8internal11GCInfoTableC2ERN2v813PageAllocatorERNS0_23FatalOutOfMemoryHandlerE
Keybase:_ZN5cppgc8internal11GCInfoTableD1Ev
Keybase:_ZN5cppgc8internal11GCInfoTableD2Ev
Keybase:_ZN5cppgc8internal12WriteBarrier22write_barrier_enabled_E
Keybase:_ZN5cppgc8internal12WriteBarrier23GenerationalBarrierSlowERKNS0_18CagedHeapLocalDataERKNS0_8AgeTableEPKvmPNS_10HeapHandleE
Keybase:_ZN5cppgc8internal12WriteBarrier24SteeleMarkingBarrierSlowEPKv
Keybase:_ZN5cppgc8internal12WriteBarrier26DijkstraMarkingBarrierSlowEPKv
Keybase:_ZN5cppgc8internal12WriteBarrier31DijkstraMarkingBarrierRangeSlowERNS_10HeapHandleEPKvmmPFvPNS_7VisitorES5_E
Keybase:_ZN5cppgc8internal12WriteBarrier38GenerationalBarrierForSourceObjectSlowERKNS0_18CagedHeapLocalDataEPKvPNS_10HeapHandleE
Keybase:_ZN5cppgc8internal12WriteBarrier41SteeleMarkingBarrierSlowWithSentinelCheckEPKv
Keybase:_ZN5cppgc8internal12WriteBarrier42GenerationalBarrierForUncompressedSlotSlowERKNS0_18CagedHeapLocalDataERKNS0_8AgeTableEPKvmPNS_10HeapHandleE
Keybase:_ZN5cppgc8internal12WriteBarrier43DijkstraMarkingBarrierSlowWithSentinelCheckEPKv
Keybase:_ZN5cppgc8internal13CagedHeapBase12g_heap_base_E
Keybase:_ZN5cppgc8internal13CagedHeapBase17g_age_table_size_E
Keybase:_ZN5cppgc8internal13NameTraitBase24GetNameFromTypeSignatureEPKc
Keybase:_ZN5cppgc8internal14CageBaseGlobal7g_base_E
Keybase:_ZN5cppgc8internal16PersistentRegion16IsCreationThreadEv
Keybase:_ZN5cppgc8internal17GlobalGCInfoTable10InitializeERN2v813PageAllocatorE
Keybase:_ZN5cppgc8internal17GlobalGCInfoTable13global_table_E
Keybase:_ZN5cppgc8internal19BaseObjectSizeTrait32GetObjectSizeForGarbageCollectedEPKv
Keybase:_ZN5cppgc8internal19BaseObjectSizeTrait37GetObjectSizeForGarbageCollectedMixinEPKv
Keybase:_ZN5cppgc8internal20PersistentRegionBase14RefillFreeListEv
Keybase:_ZN5cppgc8internal20PersistentRegionBase17ClearAllUsedNodesEv
Keybase:_ZN5cppgc8internal20PersistentRegionBase29RefillFreeListAndAllocateNodeEPvPFvRNS0_11RootVisitorEPKvE
Keybase:_ZN5cppgc8internal20PersistentRegionBase7IterateERNS0_11RootVisitorE
Keybase:_ZN5cppgc8internal20PersistentRegionBaseC1ERKNS0_23FatalOutOfMemoryHandlerE
Keybase:_ZN5cppgc8internal20PersistentRegionBaseC2ERKNS0_23FatalOutOfMemoryHandlerE
Keybase:_ZN5cppgc8internal20PersistentRegionBaseD1Ev
Keybase:_ZN5cppgc8internal20PersistentRegionBaseD2Ev
Keybase:_ZN5cppgc8internal20PersistentRegionLock12AssertLockedEv
Keybase:_ZN5cppgc8internal20PersistentRegionLockC1Ev
Keybase:_ZN5cppgc8internal20PersistentRegionLockC2Ev
Keybase:_ZN5cppgc8internal20PersistentRegionLockD1Ev
Keybase:_ZN5cppgc8internal20PersistentRegionLockD2Ev
Keybase:_ZN5cppgc8internal20WeakPersistentPolicy19GetPersistentRegionEPKv
Keybase:_ZN5cppgc8internal22EnsureGCInfoIndexTrait17EnsureGCInfoIndexERNSt4__Cr6atomicItEEPFvPNS_7VisitorEPKvE
Keybase:_ZN5cppgc8internal22EnsureGCInfoIndexTrait17EnsureGCInfoIndexERNSt4__Cr6atomicItEEPFvPNS_7VisitorEPKvEPFNS0_14HeapObjectNameES9_NS0_30HeapObjectNameForUnnamedObjectEE
Keybase:_ZN5cppgc8internal22EnsureGCInfoIndexTrait17EnsureGCInfoIndexERNSt4__Cr6atomicItEEPFvPNS_7VisitorEPKvEPFvPvE
Keybase:_ZN5cppgc8internal22EnsureGCInfoIndexTrait17EnsureGCInfoIndexERNSt4__Cr6atomicItEEPFvPNS_7VisitorEPKvEPFvPvEPFNS0_14HeapObjectNameES9_NS0_30HeapObjectNameForUnnamedObjectEE
Keybase:_ZN5cppgc8internal22ExplicitManagementImpl22FreeUnreferencedObjectERNS_10HeapHandleEPv
Keybase:_ZN5cppgc8internal22ExplicitManagementImpl6ResizeEPvm
Keybase:_ZN5cppgc8internal22StrongPersistentPolicy19GetPersistentRegionEPKv
Keybase:_ZN5cppgc8internal24PrefinalizerRegistrationC1EPvPFbRKNS_14LivenessBrokerES2_E
Keybase:_ZN5cppgc8internal24PrefinalizerRegistrationC2EPvPFbRKNS_14LivenessBrokerES2_E
Keybase:_ZN5cppgc8internal27CrossThreadPersistentRegion17ClearAllUsedNodesEv
Keybase:_ZN5cppgc8internal27CrossThreadPersistentRegion7IterateERNS0_11RootVisitorE
Keybase:_ZN5cppgc8internal27CrossThreadPersistentRegionC1ERKNS0_23FatalOutOfMemoryHandlerE
Keybase:_ZN5cppgc8internal27CrossThreadPersistentRegionC2ERKNS0_23FatalOutOfMemoryHandlerE
Keybase:_ZN5cppgc8internal27CrossThreadPersistentRegionD1Ev
Keybase:_ZN5cppgc8internal27CrossThreadPersistentRegionD2Ev
Keybase:_ZN5cppgc8internal30TraceTraitFromInnerAddressImpl18GetTraceDescriptorEPKv
Keybase:_ZN5cppgc8internal31WeakCrossThreadPersistentPolicy19GetPersistentRegionEPKv
Keybase:_ZN5cppgc8internal33MakeGarbageCollectedTraitInternal8AllocateERNS_16AllocationHandleEmSt11align_val_tt
Keybase:_ZN5cppgc8internal33MakeGarbageCollectedTraitInternal8AllocateERNS_16AllocationHandleEmSt11align_val_ttNS_16CustomSpaceIndexE
Keybase:_ZN5cppgc8internal33MakeGarbageCollectedTraitInternal8AllocateERNS_16AllocationHandleEmt
Keybase:_ZN5cppgc8internal33MakeGarbageCollectedTraitInternal8AllocateERNS_16AllocationHandleEmtNS_16CustomSpaceIndexE
Keybase:_ZN5cppgc8internal33StrongCrossThreadPersistentPolicy19GetPersistentRegionEPKv
Keybase:_ZN5cppgc8internal35SameThreadEnabledCheckingPolicyBase16CheckPointerImplEPKvbb
Keybase:_ZN5cppgc8internal5FatalERKNSt4__Cr12basic_stringIcNS1_11char_traitsIcEENS1_9allocatorIcEEEEN2v814SourceLocationE
Keybase:_ZN5cppgc8internal8AgeTable14SetAgeForRangeEmmNS1_3AgeENS1_19AdjacentCardsPolicyE
Keybase:_ZN5cppgc8internal8AgeTable15ResetForTestingEv
Keybase:_ZN5cppgc8internal9FatalImplEPKcN2v814SourceLocationE
Keybase:_ZN5crdtp18ProtocolTypeTraitsIN4node9inspector8protocol6BinaryEvE11DeserializeEPNS_17DeserializerStateEPS4_
Keybase:_ZN5crdtp18ProtocolTypeTraitsIN4node9inspector8protocol6BinaryEvE9SerializeERKS4_PNSt4__Cr6vectorIhNS8_9allocatorIhEEEE
Keybase:_ZN5crdtp18ProtocolTypeTraitsINSt4__Cr10unique_ptrIN4node9inspector8protocol15DictionaryValueENS1_14default_deleteIS6_EEEEvE11DeserializeEPNS_17DeserializerStateEPS9_
Keybase:_ZN5crdtp18ProtocolTypeTraitsINSt4__Cr10unique_ptrIN4node9inspector8protocol15DictionaryValueENS1_14default_deleteIS6_EEEEvE9SerializeERKS9_PNS1_6vectorIhNS1_9allocatorIhEEEE
Keybase:_ZN5crdtp18ProtocolTypeTraitsINSt4__Cr10unique_ptrIN4node9inspector8protocol5ValueENS1_14default_deleteIS6_EEEEvE11DeserializeEPNS_17DeserializerStateEPS9_
Keybase:_ZN5crdtp18ProtocolTypeTraitsINSt4__Cr10unique_ptrIN4node9inspector8protocol5ValueENS1_14default_deleteIS6_EEEEvE9SerializeERKS9_PNS1_6vectorIhNS1_9allocatorIhEEEE
Keybase:_ZN5crdtp18ProtocolTypeTraitsINSt4__Cr10unique_ptrIN4node9inspector8protocol6ObjectENS1_14default_deleteIS6_EEEEvE11DeserializeEPNS_17DeserializerStateEPS9_
Keybase:_ZN5crdtp18ProtocolTypeTraitsINSt4__Cr10unique_ptrIN4node9inspector8protocol6ObjectENS1_14default_deleteIS6_EEEEvE9SerializeERKS9_PNS1_6vectorIhNS1_9allocatorIhEEEE
Keybase:_ZN5crdtp18ProtocolTypeTraitsINSt4__Cr12basic_stringIcNS1_11char_traitsIcEENS1_9allocatorIcEEEEvE11DeserializeEPNS_17DeserializerStateEPS7_Pv
Keybase:_ZN5crdtp18ProtocolTypeTraitsINSt4__Cr12basic_stringIcNS1_11char_traitsIcEENS1_9allocatorIcEEEEvE9SerializeERKS7_PNS1_6vectorIhNS5_IhEEEEPv
Keybase:_ZN6v8impl16TrackedFinalizer3NewEP10napi_env__PFvS2_PvS3_ES3_S3_
Keybase:_ZN6v8impl16TrackedFinalizer8FinalizeEv
Keybase:_ZN6v8impl16TrackedFinalizerC1EP10napi_env__PFvS2_PvS3_ES3_S3_
Keybase:_ZN6v8impl16TrackedFinalizerC2EP10napi_env__PFvS2_PvS3_ES3_S3_
Keybase:_ZN6v8impl16TrackedFinalizerD0Ev
Keybase:_ZN6v8impl16TrackedFinalizerD1Ev
Keybase:_ZN6v8impl16TrackedFinalizerD2Ev
Keybase:_ZN6v8impl17ReferenceWithData3NewEP10napi_env__N2v85LocalINS3_5ValueEEEjNS_18ReferenceOwnershipEPv
Keybase:_ZN6v8impl17ReferenceWithDataC1EP10napi_env__N2v85LocalINS3_5ValueEEEjNS_18ReferenceOwnershipEPv
Keybase:_ZN6v8impl17ReferenceWithDataC2EP10napi_env__N2v85LocalINS3_5ValueEEEjNS_18ReferenceOwnershipEPv
Keybase:_ZN6v8impl22ReferenceWithFinalizer17CallUserFinalizerEv
Keybase:_ZN6v8impl22ReferenceWithFinalizer21InvokeFinalizerFromGCEv
Keybase:_ZN6v8impl22ReferenceWithFinalizer3NewEP10napi_env__N2v85LocalINS3_5ValueEEEjNS_18ReferenceOwnershipEPFvS2_PvS8_ES8_S8_
Keybase:_ZN6v8impl22ReferenceWithFinalizerC1EP10napi_env__N2v85LocalINS3_5ValueEEEjNS_18ReferenceOwnershipEPFvS2_PvS8_ES8_S8_
Keybase:_ZN6v8impl22ReferenceWithFinalizerC2EP10napi_env__N2v85LocalINS3_5ValueEEEjNS_18ReferenceOwnershipEPFvS2_PvS8_ES8_S8_
Keybase:_ZN6v8impl22ReferenceWithFinalizerD0Ev
Keybase:_ZN6v8impl22ReferenceWithFinalizerD1Ev
Keybase:_ZN6v8impl22ReferenceWithFinalizerD2Ev
Keybase:_ZN6v8impl9Finalizer13CallFinalizerEv
Keybase:_ZN6v8impl9Finalizer14ResetFinalizerEv
Keybase:_ZN6v8impl9Finalizer8ResetEnvEv
Keybase:_ZN6v8impl9Reference12WeakCallbackERKN2v816WeakCallbackInfoIS0_EE
Keybase:_ZN6v8impl9Reference21InvokeFinalizerFromGCEv
Keybase:_ZN6v8impl9Reference3GetEP10napi_env__
Keybase:_ZN6v8impl9Reference3NewEP10napi_env__N2v85LocalINS3_5ValueEEEjNS_18ReferenceOwnershipE
Keybase:_ZN6v8impl9Reference3RefEv
Keybase:_ZN6v8impl9Reference5UnrefEv
Keybase:_ZN6v8impl9Reference7SetWeakEv
Keybase:_ZN6v8impl9Reference8FinalizeEv
Keybase:_ZN6v8impl9ReferenceC1EP10napi_env__N2v85LocalINS3_5ValueEEEjNS_18ReferenceOwnershipE
Keybase:_ZN6v8impl9ReferenceC2EP10napi_env__N2v85LocalINS3_5ValueEEEjNS_18ReferenceOwnershipE
Keybase:_ZN6v8impl9ReferenceD0Ev
Keybase:_ZN6v8impl9ReferenceD1Ev
Keybase:_ZN6v8impl9ReferenceD2Ev
Keybase:_ZN8crashpad14CaptureContextEP10ucontext_t
Keybase:_ZN8crashpad14CaptureContextEP8ucontext
Keybase:_ZN8electron5fuses18IsRunAsNodeEnabledEv
Keybase:_ZN8electron5fuses20IsNodeOptionsEnabledEv
Keybase:_ZN8electron5fuses23IsNodeCliInspectEnabledEv
Keybase:_ZN8electron5fuses25IsCookieEncryptionEnabledEv
Keybase:_ZN8electron5fuses28IsOnlyLoadAppFromAsarEnabledEv
Keybase:_ZN8electron5fuses40IsEmbeddedAsarIntegrityValidationEnabledEv
Keybase:_ZN8electron5fuses41IsGrantFileProtocolExtraPrivilegesEnabledEv
Keybase:_ZN8electron5fuses45IsLoadBrowserProcessSpecificV8SnapshotEnabledEv
Keybase:_ZNK12v8_inspector12V8DebuggerId4pairEv
Keybase:_ZNK12v8_inspector12V8DebuggerId7isValidEv
Keybase:_ZNK12v8_inspector12V8DebuggerId8toStringEv
Keybase:_ZNK12v8_inspector14V8StackTraceId9IsInvalidEv
Keybase:_ZNK12v8_inspector8String164utf8Ev
Keybase:_ZNK12v8_inspector8protocol6Binary8toBase64Ev
Keybase:_ZNK15node_napi_env__16can_call_into_jsEv
Keybase:_ZNK2v810CpuProfile10GetEndTimeEv
Keybase:_ZNK2v810CpuProfile12GetStartTimeEv
Keybase:_ZNK2v810CpuProfile14GetSampleStateEi
Keybase:_ZNK2v810CpuProfile14GetTopDownRootEv
Keybase:_ZNK2v810CpuProfile15GetSamplesCountEv
Keybase:_ZNK2v810CpuProfile18GetSampleTimestampEi
Keybase:_ZNK2v810CpuProfile22GetSampleEmbedderStateEi
Keybase:_ZNK2v810CpuProfile8GetTitleEv
Keybase:_ZNK2v810CpuProfile9GetSampleEi
Keybase:_ZNK2v810CpuProfile9SerializeEPNS_12OutputStreamENS0_19SerializationFormatE
Keybase:_ZNK2v810FixedArray3GetENS_5LocalINS_7ContextEEEi
Keybase:_ZNK2v810FixedArray6LengthEv
Keybase:_ZNK2v810StackFrame11GetLocationEv
Keybase:_ZNK2v810StackFrame11GetScriptIdEv
Keybase:_ZNK2v810StackFrame13GetScriptNameEv
Keybase:_ZNK2v810StackFrame13IsConstructorEv
Keybase:_ZNK2v810StackFrame15GetFunctionNameEv
Keybase:_ZNK2v810StackFrame15GetScriptSourceEv
Keybase:_ZNK2v810StackFrame16IsUserJavaScriptEv
Keybase:_ZNK2v810StackFrame17GetSourcePositionEv
Keybase:_ZNK2v810StackFrame24GetScriptNameOrSourceURLEv
Keybase:_ZNK2v810StackFrame25GetScriptSourceMappingURLEv
Keybase:_ZNK2v810StackFrame6IsEvalEv
Keybase:_ZNK2v810StackFrame6IsWasmEv
Keybase:_ZNK2v810StackTrace13GetFrameCountEv
Keybase:_ZNK2v810StackTrace5GetIDEv
Keybase:_ZNK2v810StackTrace8GetFrameEPNS_7IsolateEj
Keybase:_ZNK2v811ArrayBuffer10ByteLengthEv
Keybase:_ZNK2v811ArrayBuffer11WasDetachedEv
Keybase:_ZNK2v811ArrayBuffer12IsDetachableEv
Keybase:_ZNK2v811ArrayBuffer13MaxByteLengthEv
Keybase:_ZNK2v811ArrayBuffer27IsResizableByUserJavaScriptEv
Keybase:_ZNK2v811ArrayBuffer4DataEv
Keybase:_ZNK2v811StartupData13CanBeRehashedEv
Keybase:_ZNK2v811StartupData7IsValidEv
Keybase:_ZNK2v812BackingStore10ByteLengthEv
Keybase:_ZNK2v812BackingStore13MaxByteLengthEv
Keybase:_ZNK2v812BackingStore27IsResizableByUserJavaScriptEv
Keybase:_ZNK2v812BackingStore4DataEv
Keybase:_ZNK2v812BackingStore8IsSharedEv
Keybase:_ZNK2v812BigIntObject7ValueOfEv
Keybase:_ZNK2v812HeapSnapshot11GetNodeByIdEj
Keybase:_ZNK2v812HeapSnapshot13GetNodesCountEv
Keybase:_ZNK2v812HeapSnapshot24GetMaxSnapshotJSObjectIdEv
Keybase:_ZNK2v812HeapSnapshot7GetNodeEi
Keybase:_ZNK2v812HeapSnapshot7GetRootEv
Keybase:_ZNK2v812HeapSnapshot9SerializeEPNS_12OutputStreamENS0_19SerializationFormatE
Keybase:_ZNK2v812IsolateGroup15SandboxContainsEPv
Keybase:_ZNK2v812NumberObject7ValueOfEv
Keybase:_ZNK2v812ScriptOrigin24VerifyHostDefinedOptionsEv
Keybase:_ZNK2v812StringObject7ValueOfEv
Keybase:_ZNK2v812SymbolObject7ValueOfEv
Keybase:_ZNK2v813BooleanObject7ValueOfEv
Keybase:_ZNK2v813CFunctionInfo12ArgumentInfoEj
Keybase:_ZNK2v813HeapGraphEdge11GetFromNodeEv
Keybase:_ZNK2v813HeapGraphEdge7GetNameEv
Keybase:_ZNK2v813HeapGraphEdge7GetTypeEv
Keybase:_ZNK2v813HeapGraphEdge9GetToNodeEv
Keybase:_ZNK2v813HeapGraphNode14GetShallowSizeEv
Keybase:_ZNK2v813HeapGraphNode16GetChildrenCountEv
Keybase:_ZNK2v813HeapGraphNode5GetIdEv
Keybase:_ZNK2v813HeapGraphNode7GetNameEv
Keybase:_ZNK2v813HeapGraphNode7GetTypeEv
Keybase:_ZNK2v813HeapGraphNode8GetChildEi
Keybase:_ZNK2v813ModuleRequest12GetSpecifierEv
Keybase:_ZNK2v813ModuleRequest15GetSourceOffsetEv
Keybase:_ZNK2v813ModuleRequest19GetImportAttributesEv
Keybase:_ZNK2v813ModuleRequest8GetPhaseEv
Keybase:_ZNK2v813UnboundScript5GetIdEv
Keybase:_ZNK2v814CpuProfileNode11GetHitCountEv
Keybase:_ZNK2v814CpuProfileNode11GetScriptIdEv
Keybase:_ZNK2v814CpuProfileNode12GetLineTicksEPNS0_8LineTickEj
Keybase:_ZNK2v814CpuProfileNode13GetDeoptInfosEv
Keybase:_ZNK2v814CpuProfileNode13GetLineNumberEv
Keybase:_ZNK2v814CpuProfileNode13GetSourceTypeEv
Keybase:_ZNK2v814CpuProfileNode15GetColumnNumberEv
Keybase:_ZNK2v814CpuProfileNode15GetFunctionNameEv
Keybase:_ZNK2v814CpuProfileNode15GetHitLineCountEv
Keybase:_ZNK2v814CpuProfileNode16GetBailoutReasonEv
Keybase:_ZNK2v814CpuProfileNode16GetChildrenCountEv
Keybase:_ZNK2v814CpuProfileNode18GetFunctionNameStrEv
Keybase:_ZNK2v814CpuProfileNode21GetScriptResourceNameEv
Keybase:_ZNK2v814CpuProfileNode24GetScriptResourceNameStrEv
Keybase:_ZNK2v814CpuProfileNode25IsScriptSharedCrossOriginEv
Keybase:_ZNK2v814CpuProfileNode8GetChildEi
Keybase:_ZNK2v814CpuProfileNode9GetNodeIdEv
Keybase:_ZNK2v814CpuProfileNode9GetParentEv
Keybase:_ZNK2v814ObjectTemplate10IsCodeLikeEv
Keybase:_ZNK2v814ObjectTemplate16IsImmutableProtoEv
Keybase:_ZNK2v814ObjectTemplate18InternalFieldCountEv
Keybase:_ZNK2v814PrimitiveArray6LengthEv
Keybase:_ZNK2v814ScriptCompiler20ConsumeCodeCacheTask29ShouldMergeWithExistingScriptEv
Keybase:_ZNK2v815ArrayBufferView9HasBufferEv
Keybase:_ZNK2v815CppHeapExternal9ValueImplEPNS_7IsolateENS_22CppHeapPointerTagRangeE
Keybase:_ZNK2v816FunctionTemplate26IsLeafTemplateForApiObjectENS_5LocalINS_5ValueEEE
Keybase:_ZNK2v817SharedArrayBuffer10ByteLengthEv
Keybase:_ZNK2v817SharedArrayBuffer13MaxByteLengthEv
Keybase:_ZNK2v817SharedArrayBuffer4DataEv
Keybase:_ZNK2v817ValueDeserializer20GetWireFormatVersionEv
Keybase:_ZNK2v818PropertyDescriptor10enumerableEv
Keybase:_ZNK2v818PropertyDescriptor12configurableEv
Keybase:_ZNK2v818PropertyDescriptor12has_writableEv
Keybase:_ZNK2v818PropertyDescriptor14has_enumerableEv
Keybase:_ZNK2v818PropertyDescriptor16has_configurableEv
Keybase:_ZNK2v818PropertyDescriptor3getEv
Keybase:_ZNK2v818PropertyDescriptor3setEv
Keybase:_ZNK2v818PropertyDescriptor5valueEv
Keybase:_ZNK2v818PropertyDescriptor7has_getEv
Keybase:_ZNK2v818PropertyDescriptor7has_setEv
Keybase:_ZNK2v818PropertyDescriptor8writableEv
Keybase:_ZNK2v818PropertyDescriptor9has_valueEv
Keybase:_ZNK2v819CpuProfilingOptions18raw_filter_contextEv
Keybase:_ZNK2v819TracedReferenceBase10CheckValueEv
Keybase:_ZNK2v821CompileHintsCollector15GetCompileHintsEPNS_7IsolateE
Keybase:_ZNK2v83Map4SizeEv
Keybase:_ZNK2v83Map7AsArrayEv
Keybase:_ZNK2v83Set4SizeEv
Keybase:_ZNK2v83Set7AsArrayEv
Keybase:_ZNK2v84Data12IsFixedArrayEv
Keybase:_ZNK2v84Data15IsModuleRequestEv
Keybase:_ZNK2v84Data16IsObjectTemplateEv
Keybase:_ZNK2v84Data17IsCppHeapExternalEv
Keybase:_ZNK2v84Data18IsFunctionTemplateEv
Keybase:_ZNK2v84Data20IsDictionaryTemplateEv
Keybase:_ZNK2v84Data7IsValueEv
Keybase:_ZNK2v84Data8IsModuleEv
Keybase:_ZNK2v84Data9IsContextEv
Keybase:_ZNK2v84Data9IsPrivateEv
Keybase:_ZNK2v84Date11ToISOStringEv
Keybase:_ZNK2v84Date11ToUTCStringEv
Keybase:_ZNK2v84Date7ValueOfEv
Keybase:_ZNK2v85Array6LengthEv
Keybase:_ZNK2v85Int325ValueEv
Keybase:_ZNK2v85Proxy9IsRevokedEv
Keybase:_ZNK2v85Value10FullIsNullEv
Keybase:_ZNK2v85Value10FullIsTrueEv
Keybase:_ZNK2v85Value10Int32ValueENS_5LocalINS_7ContextEEE
Keybase:_ZNK2v85Value10IsDataViewEv
Keybase:_ZNK2v85Value10IsExternalEv
Keybase:_ZNK2v85Value10IsFunctionEv
Keybase:_ZNK2v85Value10IsWasmNullEv
Keybase:_ZNK2v85Value11FullIsFalseEv
Keybase:_ZNK2v85Value11IsInt8ArrayEv
Keybase:_ZNK2v85Value11IsPrimitiveEv
Keybase:_ZNK2v85Value11NumberValueENS_5LocalINS_7ContextEEE
Keybase:_ZNK2v85Value11ToPrimitiveENS_5LocalINS_7ContextEEE
Keybase:_ZNK2v85Value11Uint32ValueENS_5LocalINS_7ContextEEE
Keybase:_ZNK2v85Value12BooleanValueEPNS_7IsolateE
Keybase:_ZNK2v85Value12FullIsStringEv
Keybase:_ZNK2v85Value12IntegerValueENS_5LocalINS_7ContextEEE
Keybase:_ZNK2v85Value12IsInt16ArrayEv
Keybase:_ZNK2v85Value12IsInt32ArrayEv
Keybase:_ZNK2v85Value12IsTypedArrayEv
Keybase:_ZNK2v85Value12IsUint8ArrayEv
Keybase:_ZNK2v85Value12StrictEqualsENS_5LocalIS0_EE
Keybase:_ZNK2v85Value12ToArrayIndexENS_5LocalINS_7ContextEEE
Keybase:_ZNK2v85Value13IsArrayBufferEv
Keybase:_ZNK2v85Value13IsMapIteratorEv
Keybase:_ZNK2v85Value13IsNativeErrorEv
Keybase:_ZNK2v85Value13IsSetIteratorEv
Keybase:_ZNK2v85Value13IsUint16ArrayEv
Keybase:_ZNK2v85Value13IsUint32ArrayEv
Keybase:_ZNK2v85Value14IsBigIntObjectEv
Keybase:_ZNK2v85Value14IsFloat16ArrayEv
Keybase:_ZNK2v85Value14IsFloat32ArrayEv
Keybase:_ZNK2v85Value14IsFloat64ArrayEv
Keybase:_ZNK2v85Value14IsNumberObjectEv
Keybase:_ZNK2v85Value14IsStringObjectEv
Keybase:_ZNK2v85Value14IsSymbolObjectEv
Keybase:_ZNK2v85Value14ToDetailStringENS_5LocalINS_7ContextEEE
Keybase:_ZNK2v85Value15FullIsUndefinedEv
Keybase:_ZNK2v85Value15IsAsyncFunctionEv
Keybase:_ZNK2v85Value15IsBigInt64ArrayEv
Keybase:_ZNK2v85Value15IsBooleanObjectEv
Keybase:_ZNK2v85Value16IsBigUint64ArrayEv
Keybase:_ZNK2v85Value17IsArgumentsObjectEv
Keybase:_ZNK2v85Value17IsArrayBufferViewEv
Keybase:_ZNK2v85Value17IsGeneratorObjectEv
Keybase:_ZNK2v85Value18IsWasmMemoryObjectEv
Keybase:_ZNK2v85Value18IsWasmModuleObjectEv
Keybase:_ZNK2v85Value19IsGeneratorFunctionEv
Keybase:_ZNK2v85Value19IsSharedArrayBufferEv
Keybase:_ZNK2v85Value19IsUint8ClampedArrayEv
Keybase:_ZNK2v85Value23IsModuleNamespaceObjectEv
Keybase:_ZNK2v85Value25IsWasmMemoryMapDescriptorEv
Keybase:_ZNK2v85Value5IsMapEv
Keybase:_ZNK2v85Value5IsSetEv
Keybase:_ZNK2v85Value6EqualsENS_5LocalINS_7ContextEEENS1_IS0_EE
Keybase:_ZNK2v85Value6IsDateEv
Keybase:_ZNK2v85Value6IsNameEv
Keybase:_ZNK2v85Value7IsArrayEv
Keybase:_ZNK2v85Value7IsInt32Ev
Keybase:_ZNK2v85Value7IsProxyEv
Keybase:_ZNK2v85Value7ToInt32ENS_5LocalINS_7ContextEEE
Keybase:_ZNK2v85Value8IsBigIntEv
Keybase:_ZNK2v85Value8IsNumberEv
Keybase:_ZNK2v85Value8IsObjectEv
Keybase:_ZNK2v85Value8IsRegExpEv
Keybase:_ZNK2v85Value8IsSymbolEv
Keybase:_ZNK2v85Value8IsUint32Ev
Keybase:_ZNK2v85Value8ToBigIntENS_5LocalINS_7ContextEEE
Keybase:_ZNK2v85Value8ToNumberENS_5LocalINS_7ContextEEE
Keybase:_ZNK2v85Value8ToObjectENS_5LocalINS_7ContextEEE
Keybase:_ZNK2v85Value8ToStringENS_5LocalINS_7ContextEEE
Keybase:_ZNK2v85Value8ToUint32ENS_5LocalINS_7ContextEEE
Keybase:_ZNK2v85Value9IsBooleanEv
Keybase:_ZNK2v85Value9IsPromiseEv
Keybase:_ZNK2v85Value9IsWeakMapEv
Keybase:_ZNK2v85Value9IsWeakRefEv
Keybase:_ZNK2v85Value9IsWeakSetEv
Keybase:_ZNK2v85Value9SameValueENS_5LocalIS0_EE
Keybase:_ZNK2v85Value9ToBooleanEPNS_7IsolateE
Keybase:_ZNK2v85Value9ToIntegerENS_5LocalINS_7ContextEEE
Keybase:_ZNK2v85Value9ToNumericENS_5LocalINS_7ContextEEE
Keybase:_ZNK2v86BigInt10Int64ValueEPb
Keybase:_ZNK2v86BigInt11Uint64ValueEPb
Keybase:_ZNK2v86BigInt12ToWordsArrayEPiS1_Pm
Keybase:_ZNK2v86BigInt9WordCountEv
Keybase:_ZNK2v86Module12GetExceptionEv
Keybase:_ZNK2v86Module12IsGraphAsyncEv
Keybase:_ZNK2v86Module15GetIdentityHashEv
Keybase:_ZNK2v86Module16HasTopLevelAwaitEv
Keybase:_ZNK2v86Module17GetModuleRequestsEv
Keybase:_ZNK2v86Module17IsSyntheticModuleEv
Keybase:_ZNK2v86Module18IsSourceTextModuleEv
Keybase:_ZNK2v86Module22SourceOffsetToLocationEi
Keybase:_ZNK2v86Module8ScriptIdEv
Keybase:_ZNK2v86Module9GetStatusEv
Keybase:_ZNK2v86Number5ValueEv
Keybase:_ZNK2v86Object10IsCallableEv
Keybase:_ZNK2v86Object10IsCodeLikeEPNS_7IsolateE
Keybase:_ZNK2v86Object12IsApiWrapperEv
Keybase:_ZNK2v86Object13IsConstructorEv
Keybase:_ZNK2v86Object14IsUndetectableEv
Keybase:_ZNK2v86Object18InternalFieldCountEv
Keybase:_ZNK2v86Object25HasNamedLookupInterceptorEv
Keybase:_ZNK2v86Object27HasIndexedLookupInterceptorEv
Keybase:_ZNK2v86RegExp8GetFlagsEv
Keybase:_ZNK2v86RegExp9GetSourceEv
Keybase:_ZNK2v86Script23GetProducedCompileHintsEv
Keybase:_ZNK2v86Script24GetCompileHintsCollectorEv
Keybase:_ZNK2v86String10IsExternalEv
Keybase:_ZNK2v86String10Utf8LengthEPNS_7IsolateE
Keybase:_ZNK2v86String11WriteUtf8V2EPNS_7IsolateEPcmiPm
Keybase:_ZNK2v86String12StringEqualsENS_5LocalIS0_EE
Keybase:_ZNK2v86String12Utf8LengthV2EPNS_7IsolateE
Keybase:_ZNK2v86String12WriteOneByteEPNS_7IsolateEPhiii
Keybase:_ZNK2v86String14WriteOneByteV2EPNS_7IsolateEjjPhi
Keybase:_ZNK2v86String15CanMakeExternalENS0_8EncodingE
Keybase:_ZNK2v86String17IsExternalOneByteEv
Keybase:_ZNK2v86String17IsExternalTwoByteEv
Keybase:_ZNK2v86String19ContainsOnlyOneByteEv
Keybase:_ZNK2v86String22ExternalStringResource25CheckCachedDataInvariantsEv
Keybase:_ZNK2v86String28VerifyExternalStringResourceEPNS0_22ExternalStringResourceE
Keybase:_ZNK2v86String29ExternalOneByteStringResource25CheckCachedDataInvariantsEv
Keybase:_ZNK2v86String29GetExternalStringResourceSlowEv
Keybase:_ZNK2v86String32GetExternalOneByteStringResourceEv
Keybase:_ZNK2v86String32VerifyExternalStringResourceBaseEPNS0_26ExternalStringResourceBaseENS0_8EncodingE
Keybase:_ZNK2v86String33GetExternalStringResourceBaseSlowEPNS0_8EncodingE
Keybase:_ZNK2v86String5WriteEPNS_7IsolateEPtiii
Keybase:_ZNK2v86String6LengthEv
Keybase:_ZNK2v86String7WriteV2EPNS_7IsolateEjjPti
Keybase:_ZNK2v86String9IsOneByteEv
Keybase:_ZNK2v86String9ValueView12CheckOneByteEb
Keybase:_ZNK2v86String9WriteUtf8EPNS_7IsolateEPciPii
Keybase:_ZNK2v86Symbol11DescriptionEPNS_7IsolateE
Keybase:_ZNK2v86Uint325ValueEv
Keybase:_ZNK2v87Boolean5ValueEv
Keybase:_ZNK2v87Context34IsCodeGenerationFromStringsAllowedEv
Keybase:_ZNK2v87Integer5ValueEv
Keybase:_ZNK2v87Isolate10GetCppHeapEv
Keybase:_ZNK2v87Isolate19GetMicrotasksPolicyEv
Keybase:_ZNK2v87Isolate8GetGroupEv
Keybase:_ZNK2v87Isolate9IsCurrentEv
Keybase:_ZNK2v87Message10ErrorLevelEv
Keybase:_ZNK2v87Message12GetEndColumnENS_5LocalINS_7ContextEEE
Keybase:_ZNK2v87Message12GetEndColumnEv
Keybase:_ZNK2v87Message13GetLineNumberENS_5LocalINS_7ContextEEE
Keybase:_ZNK2v87Message13GetSourceLineENS_5LocalINS_7ContextEEE
Keybase:_ZNK2v87Message13GetStackTraceEv
Keybase:_ZNK2v87Message14GetEndPositionEv
Keybase:_ZNK2v87Message14GetStartColumnENS_5LocalINS_7ContextEEE
Keybase:_ZNK2v87Message14GetStartColumnEv
Keybase:_ZNK2v87Message15GetScriptOriginEv
Keybase:_ZNK2v87Message16GetStartPositionEv
Keybase:_ZNK2v87Message19IsSharedCrossOriginEv
Keybase:_ZNK2v87Message20GetWasmFunctionIndexEv
Keybase:_ZNK2v87Message21GetScriptResourceNameEv
Keybase:_ZNK2v87Message3GetEv
Keybase:_ZNK2v87Message8IsOpaqueEv
Keybase:_ZNK2v87Message9GetSourceENS_5LocalINS_7ContextEEE
Keybase:_ZNK2v87Private4NameEv
Keybase:_ZNK2v87Promise10HasHandlerEv
Keybase:_ZNK2v88External5ValueEv
Keybase:_ZNK2v88Function11NewInstanceENS_5LocalINS_7ContextEEEiPNS1_INS_5ValueEEE
Keybase:_ZNK2v88Function12GetDebugNameEv
Keybase:_ZNK2v88Function15GetInferredNameEv
Keybase:_ZNK2v88Function15GetScriptOriginEv
Keybase:_ZNK2v88Function16GetBoundFunctionEv
Keybase:_ZNK2v88Function17GetScriptLocationEv
Keybase:_ZNK2v88Function19GetScriptLineNumberEv
Keybase:_ZNK2v88Function21GetScriptColumnNumberEv
Keybase:_ZNK2v88Function22GetScriptStartPositionEv
Keybase:_ZNK2v88Function26Experimental_IsNopFunctionEv
Keybase:_ZNK2v88Function29NewInstanceWithSideEffectTypeENS_5LocalINS_7ContextEEEiPNS1_INS_5ValueEEENS_14SideEffectTypeE
Keybase:_ZNK2v88Function7GetNameEv
Keybase:_ZNK2v88Function8ScriptIdEv
Keybase:_ZNK2v88TryCatch10StackTraceENS_5LocalINS_7ContextEEE
Keybase:_ZNK2v88TryCatch11CanContinueEv
Keybase:_ZNK2v88TryCatch13HasTerminatedEv
Keybase:_ZNK2v88TryCatch7MessageEv
Keybase:_ZNK2v88TryCatch9ExceptionEv
Keybase:_ZNK2v88TryCatch9HasCaughtEv
Keybase:_ZNK2v88TryCatch9IsVerboseEv
Keybase:_ZNK2v88internal10TickSample5printEv
Keybase:_ZNK2v88internal15ThreadIsolation16JitPageReference4SizeEv
Keybase:_ZNK2v88internal15ThreadIsolation16JitPageReference8ContainsEmmNS1_17JitAllocationTypeE
Keybase:_ZNK2v88internal8compiler23CompilationDependencies25CompilationDependencyHashclEPKNS1_21CompilationDependencyE
Keybase:_ZNK2v88internal8compiler23CompilationDependencies26CompilationDependencyEqualclEPKNS1_21CompilationDependencyES6_
Keybase:_ZNK2v88internal8compiler23CompilationDependencies31FieldTypeDependencyOffTheRecordENS1_6MapRefES3_NS0_13InternalIndexENS1_9ObjectRefE
Keybase:_ZNK2v88internal8compiler23CompilationDependencies32TransitionDependencyOffTheRecordENS1_6MapRefE
Keybase:_ZNK2v88internal8compiler23CompilationDependencies41FieldRepresentationDependencyOffTheRecordENS1_6MapRefES3_NS0_13InternalIndexENS0_14RepresentationE
Keybase:_ZNK4node10AsyncHooks10MemoryInfoEPNS_13MemoryTrackerE
Keybase:_ZNK4node10AsyncHooks15GetPromiseHooksEPN2v87IsolateE
Keybase:_ZNK4node10BaseObject10IsRootNodeEv
Keybase:_ZNK4node10BaseObject13WrappedObjectEv
Keybase:_ZNK4node10BaseObject15GetTransferModeEv
Keybase:_ZNK4node10BaseObject17CloneForMessagingEv
Keybase:_ZNK4node10BaseObject18IsDoneInitializingEv
Keybase:_ZNK4node10BaseObject19NestedTransferablesEv
Keybase:_ZNK4node10BaseObject33IsNotIndicativeOfMemoryLeakAtExitEv
Keybase:_ZNK4node10HandleWrap33IsNotIndicativeOfMemoryLeakAtExitEv
Keybase:_ZNK4node10MapKVStore3GetEPKc
Keybase:_ZNK4node10MapKVStore3GetEPN2v87IsolateENS1_5LocalINS1_6StringEEE
Keybase:_ZNK4node10MapKVStore5CloneEPN2v87IsolateE
Keybase:_ZNK4node10MapKVStore5QueryEPKc
Keybase:_ZNK4node10MapKVStore5QueryEPN2v87IsolateENS1_5LocalINS1_6StringEEE
Keybase:_ZNK4node10MapKVStore9EnumerateEPN2v87IsolateE
Keybase:_ZNK4node10UnionBytes15ToStringCheckedEPN2v87IsolateE
Keybase:_ZNK4node10cares_wrap11ChannelWrap10MemoryInfoEPNS_13MemoryTrackerE
Keybase:_ZNK4node10contextify17ContextifyContext10MemoryInfoEPNS_13MemoryTrackerE
Keybase:_ZNK4node10mksnapshot11BindingData10MemoryInfoEPNS_13MemoryTrackerE
Keybase:_ZNK4node10permission12FSPermission10is_grantedEPNS_11EnvironmentENS0_15PermissionScopeERKNSt4__Cr17basic_string_viewIcNS5_11char_traitsIcEEEE
Keybase:_ZNK4node10permission12FSPermission9RadixTree6LookupERKNSt4__Cr17basic_string_viewIcNS3_11char_traitsIcEEEEb
Keybase:_ZNK4node10permission14WASIPermission10is_grantedEPNS_11EnvironmentENS0_15PermissionScopeERKNSt4__Cr17basic_string_viewIcNS5_11char_traitsIcEEEE
Keybase:_ZNK4node10permission15AddonPermission10is_grantedEPNS_11EnvironmentENS0_15PermissionScopeERKNSt4__Cr17basic_string_viewIcNS5_11char_traitsIcEEEE
Keybase:_ZNK4node10permission16WorkerPermission10is_grantedEPNS_11EnvironmentENS0_15PermissionScopeERKNSt4__Cr17basic_string_viewIcNS5_11char_traitsIcEEEE
Keybase:_ZNK4node10permission19InspectorPermission10is_grantedEPNS_11EnvironmentENS0_15PermissionScopeERKNSt4__Cr17basic_string_viewIcNS5_11char_traitsIcEEEE
Keybase:_ZNK4node10permission22ChildProcessPermission10is_grantedEPNS_11EnvironmentENS0_15PermissionScopeERKNSt4__Cr17basic_string_viewIcNS5_11char_traitsIcEEEE
Keybase:_ZNK4node10webstorage7Storage10MemoryInfoEPNS_13MemoryTrackerE
Keybase:_ZNK4node11Environment10MemoryInfoEPNS_13MemoryTrackerE
Keybase:_ZNK4node11Environment14PrintSyncTraceEv
Keybase:_ZNK4node11Environment17worker_parent_envEv
Keybase:_ZNK4node11Environment26RunSnapshotDeserializeMainEv
Keybase:_ZNK4node11Environment27CheckUnsettledTopLevelAwaitEv
Keybase:_ZNK4node11Environment28RunSnapshotSerializeCallbackEv
Keybase:_ZNK4node11IsolateData10MemoryInfoEPNS_13MemoryTrackerE
Keybase:_ZNK4node11UDPWrapBase8listenerEv
Keybase:_ZNK4node11http_parser16ParserComparatorclEPKNS0_6ParserES4_
Keybase:_ZNK4node12CleanupQueue10GetOrderedEv
Keybase:_ZNK4node12CleanupQueue19CleanupHookCallback4HashclERKS1_
Keybase:_ZNK4node12CleanupQueue19CleanupHookCallback5EqualclERKS1_S4_
Keybase:_ZNK4node12RealEnvStore3GetEPKc
Keybase:_ZNK4node12RealEnvStore3GetEPN2v87IsolateENS1_5LocalINS1_6StringEEE
Keybase:_ZNK4node12RealEnvStore5QueryEPKc
Keybase:_ZNK4node12RealEnvStore5QueryEPN2v87IsolateENS1_5LocalINS1_6StringEEE
Keybase:_ZNK4node12RealEnvStore9EnumerateEPN2v87IsolateE
Keybase:_ZNK4node12SnapshotData17AsEmbedderWrapperEv
Keybase:_ZNK4node12SnapshotData5CheckEv
Keybase:_ZNK4node12SnapshotData6ToBlobEv
Keybase:_ZNK4node12SnapshotData6ToFileEP8_IO_FILE
Keybase:_ZNK4node12shadow_realm11ShadowRealm11primordialsEv
Keybase:_ZNK4node12shadow_realm11ShadowRealm12message_portEv
Keybase:_ZNK4node12shadow_realm11ShadowRealm14process_objectEv
Keybase:_ZNK4node12shadow_realm11ShadowRealm19async_hooks_bindingEv
Keybase:_ZNK4node12shadow_realm11ShadowRealm20promise_hook_handlerEv
Keybase:_ZNK4node12shadow_realm11ShadowRealm21domexception_functionEv
Keybase:_ZNK4node12shadow_realm11ShadowRealm22builtin_module_requireEv
Keybase:_ZNK4node12shadow_realm11ShadowRealm22modules_read_file_syncEv
Keybase:_ZNK4node12shadow_realm11ShadowRealm22tick_callback_functionEv
Keybase:_ZNK4node12shadow_realm11ShadowRealm23buffer_prototype_objectEv
Keybase:_ZNK4node12shadow_realm11ShadowRealm23internal_binding_loaderEv
Keybase:_ZNK4node12shadow_realm11ShadowRealm23promise_reject_callbackEv
Keybase:_ZNK4node12shadow_realm11ShadowRealm23source_map_cache_getterEv
Keybase:_ZNK4node12shadow_realm11ShadowRealm24timers_callback_functionEv
Keybase:_ZNK4node12shadow_realm11ShadowRealm24udp_constructor_functionEv
Keybase:_ZNK4node12shadow_realm11ShadowRealm24url_constructor_functionEv
Keybase:_ZNK4node12shadow_realm11ShadowRealm25async_hooks_init_functionEv
Keybase:_ZNK4node12shadow_realm11ShadowRealm25process_emit_warning_syncEv
Keybase:_ZNK4node12shadow_realm11ShadowRealm25snapshot_deserialize_mainEv
Keybase:_ZNK4node12shadow_realm11ShadowRealm26async_hooks_after_functionEv
Keybase:_ZNK4node12shadow_realm11ShadowRealm26performance_entry_callbackEv
Keybase:_ZNK4node12shadow_realm11ShadowRealm27async_hooks_before_functionEv
Keybase:_ZNK4node12shadow_realm11ShadowRealm27get_source_map_error_sourceEv
Keybase:_ZNK4node12shadow_realm11ShadowRealm27immediate_callback_functionEv
Keybase:_ZNK4node12shadow_realm11ShadowRealm27snapshot_serialize_callbackEv
Keybase:_ZNK4node12shadow_realm11ShadowRealm28async_hooks_destroy_functionEv
Keybase:_ZNK4node12shadow_realm11ShadowRealm28inspector_enable_async_hooksEv
Keybase:_ZNK4node12shadow_realm11ShadowRealm28prepare_stack_trace_callbackEv
Keybase:_ZNK4node12shadow_realm11ShadowRealm29crypto_key_object_constructorEv
Keybase:_ZNK4node12shadow_realm11ShadowRealm29http2session_on_ping_functionEv
Keybase:_ZNK4node12shadow_realm11ShadowRealm29inspector_disable_async_hooksEv
Keybase:_ZNK4node12shadow_realm11ShadowRealm29snapshot_deserialize_callbackEv
Keybase:_ZNK4node12shadow_realm11ShadowRealm29tls_wrap_constructor_functionEv
Keybase:_ZNK4node12shadow_realm11ShadowRealm29trace_category_state_functionEv
Keybase:_ZNK4node12shadow_realm11ShadowRealm30http2session_on_error_functionEv
Keybase:_ZNK4node12shadow_realm11ShadowRealm31async_hooks_callback_trampolineEv
Keybase:_ZNK4node12shadow_realm11ShadowRealm31http2session_on_altsvc_functionEv
Keybase:_ZNK4node12shadow_realm11ShadowRealm31http2session_on_origin_functionEv
Keybase:_ZNK4node12shadow_realm11ShadowRealm31wasm_streaming_compilation_implEv
Keybase:_ZNK4node12shadow_realm11ShadowRealm32http2session_on_headers_functionEv
Keybase:_ZNK4node12shadow_realm11ShadowRealm32maybe_cache_generated_source_mapEv
Keybase:_ZNK4node12shadow_realm11ShadowRealm33http2session_on_priority_functionEv
Keybase:_ZNK4node12shadow_realm11ShadowRealm33http2session_on_settings_functionEv
Keybase:_ZNK4node12shadow_realm11ShadowRealm33inspector_enable_network_trackingEv
Keybase:_ZNK4node12shadow_realm11ShadowRealm33wasm_streaming_object_constructorEv
Keybase:_ZNK4node12shadow_realm11ShadowRealm34inspector_disable_network_trackingEv
Keybase:_ZNK4node12shadow_realm11ShadowRealm35enhance_fatal_stack_after_inspectorEv
Keybase:_ZNK4node12shadow_realm11ShadowRealm35messaging_deserialize_create_objectEv
Keybase:_ZNK4node12shadow_realm11ShadowRealm36async_hooks_promise_resolve_functionEv
Keybase:_ZNK4node12shadow_realm11ShadowRealm36crypto_key_object_public_constructorEv
Keybase:_ZNK4node12shadow_realm11ShadowRealm36crypto_key_object_secret_constructorEv
Keybase:_ZNK4node12shadow_realm11ShadowRealm36enhance_fatal_stack_before_inspectorEv
Keybase:_ZNK4node12shadow_realm11ShadowRealm36http2session_on_frame_error_functionEv
Keybase:_ZNK4node12shadow_realm11ShadowRealm36http2session_on_goaway_data_functionEv
Keybase:_ZNK4node12shadow_realm11ShadowRealm37crypto_key_object_private_constructorEv
Keybase:_ZNK4node12shadow_realm11ShadowRealm37http2session_on_stream_close_functionEv
Keybase:_ZNK4node12shadow_realm11ShadowRealm37inspector_console_extension_installerEv
Keybase:_ZNK4node12shadow_realm11ShadowRealm37primordials_safe_map_prototype_objectEv
Keybase:_ZNK4node12shadow_realm11ShadowRealm37primordials_safe_set_prototype_objectEv
Keybase:_ZNK4node12shadow_realm11ShadowRealm39host_import_module_dynamically_callbackEv
Keybase:_ZNK4node12shadow_realm11ShadowRealm40http2session_on_stream_trailers_functionEv
Keybase:_ZNK4node12shadow_realm11ShadowRealm42primordials_safe_weak_map_prototype_objectEv
Keybase:_ZNK4node12shadow_realm11ShadowRealm42primordials_safe_weak_set_prototype_objectEv
Keybase:_ZNK4node12shadow_realm11ShadowRealm43host_initialize_import_meta_object_callbackEv
Keybase:_ZNK4node12shadow_realm11ShadowRealm7contextEv
Keybase:_ZNK4node12wasm_web_api19WasmStreamingObject10MemoryInfoEPNS_13MemoryTrackerE
Keybase:_ZNK4node13AsyncResource12get_async_idEv
Keybase:_ZNK4node13AsyncResource20get_trigger_async_idEv
Keybase:_ZNK4node13HistogramBase10MemoryInfoEPNS_13MemoryTrackerE
Keybase:_ZNK4node13HistogramBase17CloneForMessagingEv
Keybase:_ZNK4node13HistogramBase21HistogramTransferData10MemoryInfoEPNS_13MemoryTrackerE
Keybase:_ZNK4node13ImmediateInfo10MemoryInfoEPNS_13MemoryTrackerE
Keybase:_ZNK4node13SocketAddress13is_in_networkERKS0_i
Keybase:_ZNK4node13SocketAddress4HashclERKS0_
Keybase:_ZNK4node13SocketAddress7compareERKS0_
Keybase:_ZNK4node13SocketAddress8is_matchERKS0_
Keybase:_ZNK4node14BaseObjectList10MemoryInfoEPNS_13MemoryTrackerE
Keybase:_ZNK4node14PrincipalRealm11primordialsEv
Keybase:_ZNK4node14PrincipalRealm12message_portEv
Keybase:_ZNK4node14PrincipalRealm14process_objectEv
Keybase:_ZNK4node14PrincipalRealm19async_hooks_bindingEv
Keybase:_ZNK4node14PrincipalRealm20promise_hook_handlerEv
Keybase:_ZNK4node14PrincipalRealm21domexception_functionEv
Keybase:_ZNK4node14PrincipalRealm22builtin_module_requireEv
Keybase:_ZNK4node14PrincipalRealm22modules_read_file_syncEv
Keybase:_ZNK4node14PrincipalRealm22tick_callback_functionEv
Keybase:_ZNK4node14PrincipalRealm23buffer_prototype_objectEv
Keybase:_ZNK4node14PrincipalRealm23internal_binding_loaderEv
Keybase:_ZNK4node14PrincipalRealm23promise_reject_callbackEv
Keybase:_ZNK4node14PrincipalRealm23source_map_cache_getterEv
Keybase:_ZNK4node14PrincipalRealm24timers_callback_functionEv
Keybase:_ZNK4node14PrincipalRealm24udp_constructor_functionEv
Keybase:_ZNK4node14PrincipalRealm24url_constructor_functionEv
Keybase:_ZNK4node14PrincipalRealm25async_hooks_init_functionEv
Keybase:_ZNK4node14PrincipalRealm25process_emit_warning_syncEv
Keybase:_ZNK4node14PrincipalRealm25snapshot_deserialize_mainEv
Keybase:_ZNK4node14PrincipalRealm26async_hooks_after_functionEv
Keybase:_ZNK4node14PrincipalRealm26performance_entry_callbackEv
Keybase:_ZNK4node14PrincipalRealm27async_hooks_before_functionEv
Keybase:_ZNK4node14PrincipalRealm27get_source_map_error_sourceEv
Keybase:_ZNK4node14PrincipalRealm27immediate_callback_functionEv
Keybase:_ZNK4node14PrincipalRealm27snapshot_serialize_callbackEv
Keybase:_ZNK4node14PrincipalRealm28async_hooks_destroy_functionEv
Keybase:_ZNK4node14PrincipalRealm28inspector_enable_async_hooksEv
Keybase:_ZNK4node14PrincipalRealm28prepare_stack_trace_callbackEv
Keybase:_ZNK4node14PrincipalRealm29crypto_key_object_constructorEv
Keybase:_ZNK4node14PrincipalRealm29http2session_on_ping_functionEv
Keybase:_ZNK4node14PrincipalRealm29inspector_disable_async_hooksEv
Keybase:_ZNK4node14PrincipalRealm29snapshot_deserialize_callbackEv
Keybase:_ZNK4node14PrincipalRealm29tls_wrap_constructor_functionEv
Keybase:_ZNK4node14PrincipalRealm29trace_category_state_functionEv
Keybase:_ZNK4node14PrincipalRealm30http2session_on_error_functionEv
Keybase:_ZNK4node14PrincipalRealm31async_hooks_callback_trampolineEv
Keybase:_ZNK4node14PrincipalRealm31http2session_on_altsvc_functionEv
Keybase:_ZNK4node14PrincipalRealm31http2session_on_origin_functionEv
Keybase:_ZNK4node14PrincipalRealm31wasm_streaming_compilation_implEv
Keybase:_ZNK4node14PrincipalRealm32http2session_on_headers_functionEv
Keybase:_ZNK4node14PrincipalRealm32maybe_cache_generated_source_mapEv
Keybase:_ZNK4node14PrincipalRealm33http2session_on_priority_functionEv
Keybase:_ZNK4node14PrincipalRealm33http2session_on_settings_functionEv
Keybase:_ZNK4node14PrincipalRealm33inspector_enable_network_trackingEv
Keybase:_ZNK4node14PrincipalRealm33wasm_streaming_object_constructorEv
Keybase:_ZNK4node14PrincipalRealm34inspector_disable_network_trackingEv
Keybase:_ZNK4node14PrincipalRealm35enhance_fatal_stack_after_inspectorEv
Keybase:_ZNK4node14PrincipalRealm35messaging_deserialize_create_objectEv
Keybase:_ZNK4node14PrincipalRealm36async_hooks_promise_resolve_functionEv
Keybase:_ZNK4node14PrincipalRealm36crypto_key_object_public_constructorEv
Keybase:_ZNK4node14PrincipalRealm36crypto_key_object_secret_constructorEv
Keybase:_ZNK4node14PrincipalRealm36enhance_fatal_stack_before_inspectorEv
Keybase:_ZNK4node14PrincipalRealm36http2session_on_frame_error_functionEv
Keybase:_ZNK4node14PrincipalRealm36http2session_on_goaway_data_functionEv
Keybase:_ZNK4node14PrincipalRealm37crypto_key_object_private_constructorEv
Keybase:_ZNK4node14PrincipalRealm37http2session_on_stream_close_functionEv
Keybase:_ZNK4node14PrincipalRealm37inspector_console_extension_installerEv
Keybase:_ZNK4node14PrincipalRealm37primordials_safe_map_prototype_objectEv
Keybase:_ZNK4node14PrincipalRealm37primordials_safe_set_prototype_objectEv
Keybase:_ZNK4node14PrincipalRealm39host_import_module_dynamically_callbackEv
Keybase:_ZNK4node14PrincipalRealm40http2session_on_stream_trailers_functionEv
Keybase:_ZNK4node14PrincipalRealm42primordials_safe_weak_map_prototype_objectEv
Keybase:_ZNK4node14PrincipalRealm42primordials_safe_weak_set_prototype_objectEv
Keybase:_ZNK4node14PrincipalRealm43host_initialize_import_meta_object_callbackEv
Keybase:_ZNK4node14StreamResource5ErrorEv
Keybase:_ZNK4node15BlobBindingData10MemoryInfoEPNS_13MemoryTrackerE
Keybase:_ZNK4node15BlobBindingData16StoredDataObject10MemoryInfoEPNS_13MemoryTrackerE
Keybase:_ZNK4node15DeleteACHHandleclEPNS_9ACHHandleE
Keybase:_ZNK4node15TimerWrapHandle10MemoryInfoEPNS_13MemoryTrackerE
Keybase:_ZNK4node16encoding_binding11BindingData10MemoryInfoEPNS_13MemoryTrackerE
Keybase:_ZNK4node17CompileCacheEntry9CopyCacheEv
Keybase:_ZNK4node17IntervalHistogram10MemoryInfoEPNS_13MemoryTrackerE
Keybase:_ZNK4node17IntervalHistogram17CloneForMessagingEv
Keybase:_ZNK4node17SocketAddressBase10MemoryInfoEPNS_13MemoryTrackerE
Keybase:_ZNK4node17SocketAddressBase12TransferData10MemoryInfoEPNS_13MemoryTrackerE
Keybase:_ZNK4node17SocketAddressBase17CloneForMessagingEv
Keybase:_ZNK4node18SnapshotableObject11GetTypeNameEv
Keybase:_ZNK4node20EmbedderSnapshotData18DeleteSnapshotDataclEPKS0_
Keybase:_ZNK4node20EmbedderSnapshotData6ToBlobEv
Keybase:_ZNK4node20EmbedderSnapshotData6ToFileEP8_IO_FILE
Keybase:_ZNK4node20SyncProcessStdioPipe17GetOutputAsBufferEPNS_11EnvironmentE
Keybase:_ZNK4node22CommonEnvironmentSetup10event_loopEv
Keybase:_ZNK4node22CommonEnvironmentSetup12isolate_dataEv
Keybase:_ZNK4node22CommonEnvironmentSetup22array_buffer_allocatorEv
Keybase:_ZNK4node22CommonEnvironmentSetup3envEv
Keybase:_ZNK4node22CommonEnvironmentSetup7contextEv
Keybase:_ZNK4node22CommonEnvironmentSetup7isolateEv
Keybase:_ZNK4node22SocketAddressBlockList10MemoryInfoEPNS_13MemoryTrackerE
Keybase:_ZNK4node22SocketAddressBlockList17SocketAddressRule10MemoryInfoEPNS_13MemoryTrackerE
Keybase:_ZNK4node22SocketAddressBlockList21SocketAddressMaskRule10MemoryInfoEPNS_13MemoryTrackerE
Keybase:_ZNK4node22SocketAddressBlockList22SocketAddressRangeRule10MemoryInfoEPNS_13MemoryTrackerE
Keybase:_ZNK4node23WorkerThreadsTaskRunner21NumberOfWorkerThreadsEv
Keybase:_ZNK4node26SocketAddressBlockListWrap10MemoryInfoEPNS_13MemoryTrackerE
Keybase:_ZNK4node26SocketAddressBlockListWrap12TransferData10MemoryInfoEPNS_13MemoryTrackerE
Keybase:_ZNK4node26SocketAddressBlockListWrap17CloneForMessagingEv
Keybase:_ZNK4node28NativeSymbolDebuggingContext10SymbolInfo7DisplayEv
Keybase:_ZNK4node2fs10FileHandle10MemoryInfoEPNS_13MemoryTrackerE
Keybase:_ZNK4node2fs10FileHandle15GetTransferModeEv
Keybase:_ZNK4node2fs10FileHandle8CloseReq10MemoryInfoEPNS_13MemoryTrackerE
Keybase:_ZNK4node2fs11BindingData10MemoryInfoEPNS_13MemoryTrackerE
Keybase:_ZNK4node2fs18FSContinuationData10MemoryInfoEPNS_13MemoryTrackerE
Keybase:_ZNK4node2fs18FileHandleReadWrap10MemoryInfoEPNS_13MemoryTrackerE
Keybase:_ZNK4node2fs9FSReqBase10MemoryInfoEPNS_13MemoryTrackerE
Keybase:_ZNK4node3sea11SeaResource12use_snapshotEv
Keybase:_ZNK4node3sea11SeaResource14use_code_cacheEv
Keybase:_ZNK4node3url11BindingData10MemoryInfoEPNS_13MemoryTrackerE
Keybase:_ZNK4node4Blob10MemoryInfoEPNS_13MemoryTrackerE
Keybase:_ZNK4node4Blob15GetTransferModeEv
Keybase:_ZNK4node4Blob17CloneForMessagingEv
Keybase:_ZNK4node4i18n9Converter13max_char_sizeEv
Keybase:_ZNK4node4i18n9Converter13min_char_sizeEv
Keybase:_ZNK4node4wasi4WASI10MemoryInfoEPNS_13MemoryTrackerE
Keybase:_ZNK4node4wasi4WASI18CheckAllocatedSizeEm
Keybase:_ZNK4node5Realm10MemoryInfoEPNS_13MemoryTrackerE
Keybase:_ZNK4node5Realm7contextEv
Keybase:_ZNK4node5http210Http2State10MemoryInfoEPNS_13MemoryTrackerE
Keybase:_ZNK4node5http211Http2Stream10MemoryInfoEPNS_13MemoryTrackerE
Keybase:_ZNK4node5http211Http2Stream15diagnostic_nameEv
Keybase:_ZNK4node5http211Http2Stream6streamEv
Keybase:_ZNK4node5http211Http2StreamdeEv
Keybase:_ZNK4node5http212Http2Session10MemoryInfoEPNS_13MemoryTrackerE
Keybase:_ZNK4node5http212Http2Session14HasPendingDataEv
Keybase:_ZNK4node5http212Http2Session15diagnostic_nameEv
Keybase:_ZNK4node5http212Http2Session18CheckAllocatedSizeEm
Keybase:_ZNK4node5http212Http2Session8TypeNameEv
Keybase:_ZNK4node5http213Http2Settings10MemoryInfoEPNS_13MemoryTrackerE
Keybase:_ZNK4node5http213Http2Settings8callbackEv
Keybase:_ZNK4node5http218NgHttp2StreamWrite10MemoryInfoEPNS_13MemoryTrackerE
Keybase:_ZNK4node5http29Http2Ping10MemoryInfoEPNS_13MemoryTrackerE
Keybase:_ZNK4node5http29Http2Ping8callbackEv
Keybase:_ZNK4node6Dotenv28AssignNodeOptionsIfAvailableEPNSt4__Cr12basic_stringIcNS1_11char_traitsIcEENS1_9allocatorIcEEEE
Keybase:_ZNK4node6Dotenv8ToObjectEPNS_11EnvironmentE
Keybase:_ZNK4node6crypto10CipherBase10MemoryInfoEPNS_13MemoryTrackerE
Keybase:_ZNK4node6crypto10CipherBase19IsAuthenticatedModeEv
Keybase:_ZNK4node6crypto10HKDFConfig10MemoryInfoEPNS_13MemoryTrackerE
Keybase:_ZNK4node6crypto10HashConfig10MemoryInfoEPNS_13MemoryTrackerE
Keybase:_ZNK4node6crypto10HmacConfig10MemoryInfoEPNS_13MemoryTrackerE
Keybase:_ZNK4node6crypto11ManagedX50910MemoryInfoEPNS_13MemoryTrackerE
Keybase:_ZNK4node6crypto12PBKDF2Config10MemoryInfoEPNS_13MemoryTrackerE
Keybase:_ZNK4node6crypto12ScryptConfig10MemoryInfoEPNS_13MemoryTrackerE
Keybase:_ZNK4node6crypto13DiffieHellman10MemoryInfoEPNS_13MemoryTrackerE
Keybase:_ZNK4node6crypto13KeyObjectData10GetKeyTypeEv
Keybase:_ZNK4node6crypto13KeyObjectData10MemoryInfoEPNS_13MemoryTrackerE
Keybase:_ZNK4node6crypto13KeyObjectData15GetSymmetricKeyEv
Keybase:_ZNK4node6crypto13KeyObjectData16GetAsymmetricKeyEv
Keybase:_ZNK4node6crypto13KeyObjectData19GetSymmetricKeySizeEv
Keybase:_ZNK4node6crypto13KeyObjectData5mutexEv
Keybase:_ZNK4node6crypto14ECDHBitsConfig10MemoryInfoEPNS_13MemoryTrackerE
Keybase:_ZNK4node6crypto15AESCipherConfig10MemoryInfoEPNS_13MemoryTrackerE
Keybase:_ZNK4node6crypto15KeyObjectHandle14CheckEcKeyDataEv
Keybase:_ZNK4node6crypto15KeyObjectHandle15ExportPublicKeyERKN7ncrypto13EVPKeyPointer27AsymmetricKeyEncodingConfigE
Keybase:_ZNK4node6crypto15KeyObjectHandle15ExportSecretKeyEv
Keybase:_ZNK4node6crypto15KeyObjectHandle16ExportPrivateKeyERKN7ncrypto13EVPKeyPointer24PrivateKeyEncodingConfigE
Keybase:_ZNK4node6crypto15KeyObjectHandle20GetAsymmetricKeyTypeEv
Keybase:_ZNK4node6crypto15NativeKeyObject15GetTransferModeEv
Keybase:_ZNK4node6crypto15NativeKeyObject17CloneForMessagingEv
Keybase:_ZNK4node6crypto15RSACipherConfig10MemoryInfoEPNS_13MemoryTrackerE
Keybase:_ZNK4node6crypto15X509Certificate10MemoryInfoEPNS_13MemoryTrackerE
Keybase:_ZNK4node6crypto15X509Certificate15GetTransferModeEv
Keybase:_ZNK4node6crypto15X509Certificate17CloneForMessagingEv
Keybase:_ZNK4node6crypto16CheckPrimeConfig10MemoryInfoEPNS_13MemoryTrackerE
Keybase:_ZNK4node6crypto16CryptoErrorStore11ToExceptionEPNS_11EnvironmentEN2v85LocalINS4_6StringEEE
Keybase:_ZNK4node6crypto16CryptoErrorStore5EmptyEv
Keybase:_ZNK4node6crypto17RandomPrimeConfig10MemoryInfoEPNS_13MemoryTrackerE
Keybase:_ZNK4node6crypto17SignConfiguration10MemoryInfoEPNS_13MemoryTrackerE
Keybase:_ZNK4node6crypto18SecretKeyGenConfig10MemoryInfoEPNS_13MemoryTrackerE
Keybase:_ZNK4node6crypto4ECDH10MemoryInfoEPNS_13MemoryTrackerE
Keybase:_ZNK4node6crypto4Hash10MemoryInfoEPNS_13MemoryTrackerE
Keybase:_ZNK4node6crypto4Hmac10MemoryInfoEPNS_13MemoryTrackerE
Keybase:_ZNK4node6crypto7TLSWrap10MemoryInfoEPNS_13MemoryTrackerE
Keybase:_ZNK4node6crypto7TLSWrap13ocsp_responseEv
Keybase:_ZNK4node6crypto7TLSWrap15diagnostic_nameEv
Keybase:_ZNK4node6crypto7TLSWrap5ErrorEv
Keybase:_ZNK4node6crypto8SignBase10MemoryInfoEPNS_13MemoryTrackerE
Keybase:_ZNK4node6fs_dir9DirHandle10MemoryInfoEPNS_13MemoryTrackerE
Keybase:_ZNK4node6loader10ModuleWrap7contextEv
Keybase:_ZNK4node6loader14ModuleCacheKey10MemoryInfoEPNS_13MemoryTrackerE
Keybase:_ZNK4node6loader14ModuleCacheKey8ToStringEv
Keybase:_ZNK4node6sqlite12DatabaseSync10MemoryInfoEPNS_13MemoryTrackerE
Keybase:_ZNK4node6sqlite13StatementSync10MemoryInfoEPNS_13MemoryTrackerE
Keybase:_ZNK4node6sqlite21StatementSyncIterator10MemoryInfoEPNS_13MemoryTrackerE
Keybase:_ZNK4node6sqlite7Session10MemoryInfoEPNS_13MemoryTrackerE
Keybase:_ZNK4node6worker11MessagePort10MemoryInfoEPNS_13MemoryTrackerE
Keybase:_ZNK4node6worker11MessagePort15GetTransferModeEv
Keybase:_ZNK4node6worker14JSTransferable15GetTransferModeEv
Keybase:_ZNK4node6worker14JSTransferable17CloneForMessagingEv
Keybase:_ZNK4node6worker14JSTransferable19NestedTransferablesEv
Keybase:_ZNK4node6worker14JSTransferable6targetEv
Keybase:_ZNK4node6worker15MessagePortData10MemoryInfoEPNS_13MemoryTrackerE
Keybase:_ZNK4node6worker6Worker10is_stoppedEv
Keybase:_ZNK4node6worker6Worker17GetResourceLimitsEPN2v87IsolateE
Keybase:_ZNK4node6worker6Worker33IsNotIndicativeOfMemoryLeakAtExitEv
Keybase:_ZNK4node6worker7Message10MemoryInfoEPNS_13MemoryTrackerE
Keybase:_ZNK4node6worker7Message14IsCloseMessageEv
Keybase:_ZNK4node7KVStore5CloneEPN2v87IsolateE
Keybase:_ZNK4node7modules11BindingData10MemoryInfoEPNS_13MemoryTrackerE
Keybase:_ZNK4node7modules11BindingData13PackageConfig9SerializeEPNS_5RealmE
Keybase:_ZNK4node7process11BindingData10MemoryInfoEPNS_13MemoryTrackerE
Keybase:_ZNK4node7tracing11ProcessMeta4CastEv
Keybase:_ZNK4node7tracing11TracedValue19AppendAsTraceFormatEPNSt4__Cr12basic_stringIcNS2_11char_traitsIcEENS2_9allocatorIcEEEE
Keybase:_ZNK4node7tracing13AsyncWrapArgs4CastEv
Keybase:_ZNK4node7tracing15EnvironmentArgs4CastEv
Keybase:_ZNK4node7tracing5Agent17CreateTraceConfigEv
Keybase:_ZNK4node7tracing5Agent20GetEnabledCategoriesEv
Keybase:_ZNK4node8Metadata8Versions5pairsEv
Keybase:_ZNK4node8TickInfo10MemoryInfoEPNS_13MemoryTrackerE
Keybase:_ZNK4node8builtins13BuiltinLoader13GetBuiltinIdsEv
Keybase:_ZNK4node8builtins13BuiltinLoader17LoadBuiltinSourceEPN2v87IsolateEPKc
Keybase:_ZNK4node8builtins13BuiltinLoader20GetBuiltinCategoriesEv
Keybase:_ZNK4node8profiler20V8CoverageConnection11GetFilenameEv
Keybase:_ZNK4node8profiler20V8CoverageConnection12GetDirectoryEv
Keybase:_ZNK4node8profiler23V8CpuProfilerConnection11GetFilenameEv
Keybase:_ZNK4node8profiler23V8CpuProfilerConnection12GetDirectoryEv
Keybase:_ZNK4node8profiler24V8HeapProfilerConnection11GetFilenameEv
Keybase:_ZNK4node8profiler24V8HeapProfilerConnection12GetDirectoryEv
Keybase:_ZNK4node8v8_utils11BindingData10MemoryInfoEPNS_13MemoryTrackerE
Keybase:_ZNK4node9AsyncWrap14MemoryInfoNameEv
Keybase:_ZNK4node9AsyncWrap15diagnostic_nameEv
Keybase:_ZNK4node9AsyncWrap18IsDoneInitializingEv
Keybase:_ZNK4node9AsyncWrap19EmitTraceAsyncStartEv
Keybase:_ZNK4node9Histogram10MemoryInfoEPNS_13MemoryTrackerE
Keybase:_ZNK4node9inspector11InspectorIo8GetWsUrlEv
Keybase:_ZNK4node9inspector15ProtocolHandler7GetHostEv
Keybase:_ZNK4node9inspector21InspectorSocketServer4PortEv
Keybase:_ZNK4node9inspector5Agent8GetWsUrlEv
Keybase:_ZNK4node9inspector8protocol10NodeWorker10WorkerInfo16AppendSerializedEPNSt4__Cr6vectorIhNS4_9allocatorIhEEEE
Keybase:_ZNK4node9inspector8protocol11BinaryValue16AppendSerializedEPNSt4__Cr6vectorIhNS3_9allocatorIhEEEE
Keybase:_ZNK4node9inspector8protocol11BinaryValue5cloneEv
Keybase:_ZNK4node9inspector8protocol11BinaryValue8asBinaryEPNS1_6BinaryE
Keybase:_ZNK4node9inspector8protocol11NodeTracing11TraceConfig16AppendSerializedEPNSt4__Cr6vectorIhNS4_9allocatorIhEEEE
Keybase:_ZNK4node9inspector8protocol11StringValue16AppendSerializedEPNSt4__Cr6vectorIhNS3_9allocatorIhEEEE
Keybase:_ZNK4node9inspector8protocol11StringValue5cloneEv
Keybase:_ZNK4node9inspector8protocol11StringValue8asStringEPNSt4__Cr12basic_stringIcNS3_11char_traitsIcEENS3_9allocatorIcEEEE
Keybase:_ZNK4node9inspector8protocol15DictionaryValue10getBooleanERKNSt4__Cr12basic_stringIcNS3_11char_traitsIcEENS3_9allocatorIcEEEEPb
Keybase:_ZNK4node9inspector8protocol15DictionaryValue10getIntegerERKNSt4__Cr12basic_stringIcNS3_11char_traitsIcEENS3_9allocatorIcEEEEPi
Keybase:_ZNK4node9inspector8protocol15DictionaryValue14doublePropertyERKNSt4__Cr12basic_stringIcNS3_11char_traitsIcEENS3_9allocatorIcEEEEd
Keybase:_ZNK4node9inspector8protocol15DictionaryValue15booleanPropertyERKNSt4__Cr12basic_stringIcNS3_11char_traitsIcEENS3_9allocatorIcEEEEb
Keybase:_ZNK4node9inspector8protocol15DictionaryValue15integerPropertyERKNSt4__Cr12basic_stringIcNS3_11char_traitsIcEENS3_9allocatorIcEEEEi
Keybase:_ZNK4node9inspector8protocol15DictionaryValue16AppendSerializedEPNSt4__Cr6vectorIhNS3_9allocatorIhEEEE
Keybase:_ZNK4node9inspector8protocol15DictionaryValue2atEm
Keybase:_ZNK4node9inspector8protocol15DictionaryValue3getERKNSt4__Cr12basic_stringIcNS3_11char_traitsIcEENS3_9allocatorIcEEEE
Keybase:_ZNK4node9inspector8protocol15DictionaryValue5cloneEv
Keybase:_ZNK4node9inspector8protocol15DictionaryValue8getArrayERKNSt4__Cr12basic_stringIcNS3_11char_traitsIcEENS3_9allocatorIcEEEE
Keybase:_ZNK4node9inspector8protocol15DictionaryValue9getDoubleERKNSt4__Cr12basic_stringIcNS3_11char_traitsIcEENS3_9allocatorIcEEEEPd
Keybase:_ZNK4node9inspector8protocol15DictionaryValue9getObjectERKNSt4__Cr12basic_stringIcNS3_11char_traitsIcEENS3_9allocatorIcEEEE
Keybase:_ZNK4node9inspector8protocol15DictionaryValue9getStringERKNSt4__Cr12basic_stringIcNS3_11char_traitsIcEENS3_9allocatorIcEEEEPS9_
Keybase:_ZNK4node9inspector8protocol16FundamentalValue16AppendSerializedEPNSt4__Cr6vectorIhNS3_9allocatorIhEEEE
Keybase:_ZNK4node9inspector8protocol16FundamentalValue5cloneEv
Keybase:_ZNK4node9inspector8protocol16FundamentalValue8asDoubleEPd
Keybase:_ZNK4node9inspector8protocol16FundamentalValue9asBooleanEPb
Keybase:_ZNK4node9inspector8protocol16FundamentalValue9asIntegerEPi
Keybase:_ZNK4node9inspector8protocol5Value16AppendSerializedEPNSt4__Cr6vectorIhNS3_9allocatorIhEEEE
Keybase:_ZNK4node9inspector8protocol5Value5cloneEv
Keybase:_ZNK4node9inspector8protocol5Value8asBinaryEPNS1_6BinaryE
Keybase:_ZNK4node9inspector8protocol5Value8asDoubleEPd
Keybase:_ZNK4node9inspector8protocol5Value8asStringEPNSt4__Cr12basic_stringIcNS3_11char_traitsIcEENS3_9allocatorIcEEEE
Keybase:_ZNK4node9inspector8protocol5Value9asBooleanEPb
Keybase:_ZNK4node9inspector8protocol5Value9asIntegerEPi
Keybase:_ZNK4node9inspector8protocol6Binary8toBase64Ev
Keybase:_ZNK4node9inspector8protocol6Object16AppendSerializedEPNSt4__Cr6vectorIhNS3_9allocatorIhEEEE
Keybase:_ZNK4node9inspector8protocol6Object5cloneEv
Keybase:_ZNK4node9inspector8protocol6Object7toValueEv
Keybase:_ZNK4node9inspector8protocol6Target10TargetInfo16AppendSerializedEPNSt4__Cr6vectorIhNS4_9allocatorIhEEEE
Keybase:_ZNK4node9inspector8protocol7Network29LoadNetworkResourcePageResult16AppendSerializedEPNSt4__Cr6vectorIhNS4_9allocatorIhEEEE
Keybase:_ZNK4node9inspector8protocol7Network7Request16AppendSerializedEPNSt4__Cr6vectorIhNS4_9allocatorIhEEEE
Keybase:_ZNK4node9inspector8protocol7Network8Response16AppendSerializedEPNSt4__Cr6vectorIhNS4_9allocatorIhEEEE
Keybase:_ZNK4node9inspector8protocol7Network9Initiator16AppendSerializedEPNSt4__Cr6vectorIhNS4_9allocatorIhEEEE
Keybase:_ZNK4node9inspector8protocol9ListValue16AppendSerializedEPNSt4__Cr6vectorIhNS3_9allocatorIhEEEE
Keybase:_ZNK4node9inspector8protocol9ListValue5cloneEv
Keybase:_ZNK5cppgc14LivenessBroker21IsHeapObjectAliveImplEPKv
Keybase:_ZNK5cppgc8internal11GCInfoTable12MaxTableSizeEv
Keybase:_ZNK5cppgc8internal11GCInfoTable17InitialTableLimitEv
Keybase:_ZNK5cppgc8internal20PersistentRegionBase10NodesInUseEv
Keybase:_ZNK5cppgc8internal27CrossThreadPersistentRegion10NodesInUseEv
Keybase:_ZNK5cppgc8internal8AgeTable14GetAgeForRangeEmm
Keybase:_ZTV15node_napi_env__
Keybase:_ZTVN2v813EmbedderGraphE
Keybase:_ZTVN2v815ValueSerializer8DelegateE
Keybase:_ZTVN2v816CodeEventHandlerE
Keybase:_ZTVN2v817ValueDeserializer8DelegateE
Keybase:_ZTVN4node10AsyncHooksE
Keybase:_ZTVN4node10BaseObjectE
Keybase:_ZTVN4node10HandleWrapE
Keybase:_ZTVN4node10MapKVStoreE
Keybase:_ZTVN4node10StreamBaseE
Keybase:_ZTVN4node10StreamPipe16ReadableListenerE
Keybase:_ZTVN4node10StreamPipe16WritableListenerE
Keybase:_ZTVN4node10StreamPipeE
Keybase:_ZTVN4node10cares_wrap11ChannelWrapE
Keybase:_ZTVN4node10contextify16ContextifyScriptE
Keybase:_ZTVN4node10contextify17ContextifyContextE
Keybase:_ZTVN4node10mksnapshot11BindingDataE
Keybase:_ZTVN4node10permission12FSPermissionE
Keybase:_ZTVN4node10permission14WASIPermissionE
Keybase:_ZTVN4node10permission15AddonPermissionE
Keybase:_ZTVN4node10permission16WorkerPermissionE
Keybase:_ZTVN4node10permission19InspectorPermissionE
Keybase:_ZTVN4node10permission22ChildProcessPermissionE
Keybase:_ZTVN4node10webstorage7StorageE
Keybase:_ZTVN4node11EnvironmentE
Keybase:_ZTVN4node11IsolateDataE
Keybase:_ZTVN4node11UDPListenerE
Keybase:_ZTVN4node11UDPWrapBaseE
Keybase:_ZTVN4node12DebugOptionsE
Keybase:_ZTVN4node12NodePlatformE
Keybase:_ZTVN4node12RealEnvStoreE
Keybase:_ZTVN4node12ShutdownWrapE
Keybase:_ZTVN4node12shadow_realm11ShadowRealmE
Keybase:_ZTVN4node12wasm_web_api19WasmStreamingObjectE
Keybase:_ZTVN4node13AsyncResourceE
Keybase:_ZTVN4node13HistogramBase21HistogramTransferDataE
Keybase:_ZTVN4node13HistogramBaseE
Keybase:_ZTVN4node13ImmediateInfoE
Keybase:_ZTVN4node14BaseObjectListE
Keybase:_ZTVN4node14PrincipalRealmE
Keybase:_ZTVN4node14SigintWatchdogE
Keybase:_ZTVN4node14StreamListenerE
Keybase:_ZTVN4node14StreamResourceE
Keybase:_ZTVN4node15BlobBindingData16StoredDataObjectE
Keybase:_ZTVN4node15BlobBindingDataE
Keybase:_ZTVN4node15LibuvStreamWrapE
Keybase:_ZTVN4node15TimerWrapHandleE
Keybase:_ZTVN4node16encoding_binding11BindingDataE
Keybase:_ZTVN4node17IntervalHistogramE
Keybase:_ZTVN4node17PerIsolateOptionsE
Keybase:_ZTVN4node17PerProcessOptionsE
Keybase:_ZTVN4node17SocketAddressBase12TransferDataE
Keybase:_ZTVN4node17SocketAddressBaseE
Keybase:_ZTVN4node18EnvironmentOptionsE
Keybase:_ZTVN4node19TraceSigintWatchdogE
Keybase:_ZTVN4node22CustomBufferJSListenerE
Keybase:_ZTVN4node22EmitToJSStreamListenerE
Keybase:_ZTVN4node22PerIsolatePlatformDataE
Keybase:_ZTVN4node22SocketAddressBlockList17SocketAddressRuleE
Keybase:_ZTVN4node22SocketAddressBlockList21SocketAddressMaskRuleE
Keybase:_ZTVN4node22SocketAddressBlockList22SocketAddressRangeRuleE
Keybase:_ZTVN4node22SocketAddressBlockListE
Keybase:_ZTVN4node24NodeArrayBufferAllocatorE
Keybase:_ZTVN4node26SocketAddressBlockListWrap12TransferDataE
Keybase:_ZTVN4node26SocketAddressBlockListWrapE
Keybase:_ZTVN4node29DebuggingArrayBufferAllocatorE
Keybase:_ZTVN4node2fs10FileHandle12TransferDataE
Keybase:_ZTVN4node2fs10FileHandle8CloseReqE
Keybase:_ZTVN4node2fs10FileHandleE
Keybase:_ZTVN4node2fs11BindingDataE
Keybase:_ZTVN4node2fs13FSReqCallbackE
Keybase:_ZTVN4node2fs18FSContinuationDataE
Keybase:_ZTVN4node2fs18FileHandleReadWrapE
Keybase:_ZTVN4node2fs9FSReqBaseE
Keybase:_ZTVN4node30ReportWritesToJSStreamListenerE
Keybase:_ZTVN4node3url11BindingDataE
Keybase:_ZTVN4node4Blob16BlobTransferDataE
Keybase:_ZTVN4node4BlobE
Keybase:_ZTVN4node4wasi4WASIE
Keybase:_ZTVN4node5RealmE
Keybase:_ZTVN4node5http210Http2StateE
Keybase:_ZTVN4node5http211Http2Stream8ProviderE
Keybase:_ZTVN4node5http211Http2StreamE
Keybase:_ZTVN4node5http212Http2SessionE
Keybase:_ZTVN4node5http213Http2SettingsE
Keybase:_ZTVN4node5http218NgHttp2StreamWriteE
Keybase:_ZTVN4node5http219Http2StreamListenerE
Keybase:_ZTVN4node5http29Http2PingE
Keybase:_ZTVN4node6crypto10CipherBaseE
Keybase:_ZTVN4node6crypto10HKDFConfigE
Keybase:_ZTVN4node6crypto10HashConfigE
Keybase:_ZTVN4node6crypto10HmacConfigE
Keybase:_ZTVN4node6crypto11ManagedX509E
Keybase:_ZTVN4node6crypto12PBKDF2ConfigE
Keybase:_ZTVN4node6crypto12ScryptConfigE
Keybase:_ZTVN4node6crypto13DiffieHellmanE
Keybase:_ZTVN4node6crypto13KeyObjectDataE
Keybase:_ZTVN4node6crypto13SecureContextE
Keybase:_ZTVN4node6crypto14ECDHBitsConfigE
Keybase:_ZTVN4node6crypto15AESCipherConfigE
Keybase:_ZTVN4node6crypto15NativeKeyObject21KeyObjectTransferDataE
Keybase:_ZTVN4node6crypto15NativeKeyObjectE
Keybase:_ZTVN4node6crypto15RSACipherConfigE
Keybase:_ZTVN4node6crypto15X509Certificate27X509CertificateTransferDataE
Keybase:_ZTVN4node6crypto15X509CertificateE
Keybase:_ZTVN4node6crypto16CheckPrimeConfigE
Keybase:_ZTVN4node6crypto17RandomPrimeConfigE
Keybase:_ZTVN4node6crypto17SignConfigurationE
Keybase:_ZTVN4node6crypto18SecretKeyGenConfigE
Keybase:_ZTVN4node6crypto4ECDHE
Keybase:_ZTVN4node6crypto4HashE
Keybase:_ZTVN4node6crypto4HmacE
Keybase:_ZTVN4node6crypto7NodeBIOE
Keybase:_ZTVN4node6crypto7TLSWrapE
Keybase:_ZTVN4node6crypto8SignBaseE
Keybase:_ZTVN4node6fs_dir9DirHandleE
Keybase:_ZTVN4node6loader10ModuleWrapE
Keybase:_ZTVN4node6loader14ModuleCacheKeyE
Keybase:_ZTVN4node6serdes17SerializerContextE
Keybase:_ZTVN4node6serdes19DeserializerContextE
Keybase:_ZTVN4node6sqlite12DatabaseSyncE
Keybase:_ZTVN4node6sqlite13StatementSyncE
Keybase:_ZTVN4node6sqlite21StatementSyncIteratorE
Keybase:_ZTVN4node6sqlite7SessionE
Keybase:_ZTVN4node6timers11BindingDataE
Keybase:_ZTVN4node6worker11MessagePortE
Keybase:_ZTVN4node6worker12TransferDataE
Keybase:_ZTVN4node6worker14JSTransferable4DataE
Keybase:_ZTVN4node6worker14JSTransferableE
Keybase:_ZTVN4node6worker15MessagePortDataE
Keybase:_ZTVN4node6worker6WorkerE
Keybase:_ZTVN4node6worker7MessageE
Keybase:_ZTVN4node7KVStoreE
Keybase:_ZTVN4node7UDPWrapE
Keybase:_ZTVN4node7modules11BindingDataE
Keybase:_ZTVN4node7process11BindingDataE
Keybase:_ZTVN4node7tracing11TracedValueE
Keybase:_ZTVN4node7tracing15NodeTraceWriterE
Keybase:_ZTVN4node8JSStreamE
Keybase:_ZTVN4node8TickInfoE
Keybase:_ZTVN4node8profiler20V8CoverageConnectionE
Keybase:_ZTVN4node8profiler20V8ProfilerConnection25V8ProfilerSessionDelegateE
Keybase:_ZTVN4node8profiler20V8ProfilerConnectionE
Keybase:_ZTVN4node8profiler23V8CpuProfilerConnectionE
Keybase:_ZTVN4node8profiler24V8HeapProfilerConnectionE
Keybase:_ZTVN4node8v8_utils11BindingDataE
Keybase:_ZTVN4node9AsyncWrapE
Keybase:_ZTVN4node9HistogramE
Keybase:_ZTVN4node9JSUDPWrapE
Keybase:_ZTVN4node9WriteWrapE
Keybase:_ZTVN4node9inspector12NetworkAgentE
Keybase:_ZTVN4node9inspector13SocketSession8DelegateE
Keybase:_ZTVN4node9inspector19InspectorIoDelegateE
Keybase:_ZTVN4node9inspector8protocol10NodeWorker10WorkerInfoE
Keybase:_ZTVN4node9inspector8protocol10NodeWorker20DomainDispatcherImplE
Keybase:_ZTVN4node9inspector8protocol11BinaryValueE
Keybase:_ZTVN4node9inspector8protocol11NodeRuntime20DomainDispatcherImplE
Keybase:_ZTVN4node9inspector8protocol11NodeTracing11TraceConfigE
Keybase:_ZTVN4node9inspector8protocol11NodeTracing20DomainDispatcherImplE
Keybase:_ZTVN4node9inspector8protocol11StringValueE
Keybase:_ZTVN4node9inspector8protocol11TargetAgentE
Keybase:_ZTVN4node9inspector8protocol11WorkerAgentE
Keybase:_ZTVN4node9inspector8protocol12RuntimeAgentE
Keybase:_ZTVN4node9inspector8protocol12TracingAgentE
Keybase:_ZTVN4node9inspector8protocol15DictionaryValueE
Keybase:_ZTVN4node9inspector8protocol16FundamentalValueE
Keybase:_ZTVN4node9inspector8protocol2IO20DomainDispatcherImplE
Keybase:_ZTVN4node9inspector8protocol5ValueE
Keybase:_ZTVN4node9inspector8protocol6ObjectE
Keybase:_ZTVN4node9inspector8protocol6Target10TargetInfoE
Keybase:_ZTVN4node9inspector8protocol6Target20DomainDispatcherImplE
Keybase:_ZTVN4node9inspector8protocol7IoAgentE
Keybase:_ZTVN4node9inspector8protocol7Network20DomainDispatcherImplE
Keybase:_ZTVN4node9inspector8protocol7Network29LoadNetworkResourcePageResultE
Keybase:_ZTVN4node9inspector8protocol7Network7RequestE
Keybase:_ZTVN4node9inspector8protocol7Network8ResponseE
Keybase:_ZTVN4node9inspector8protocol7Network9InitiatorE
Keybase:_ZTVN4node9inspector8protocol9ListValueE
Keybase:_ZTVN5cppgc8PlatformE
Keybase:_ZTVN6v8impl16TrackedFinalizerE
Keybase:_ZTVN6v8impl22ReferenceWithFinalizerE
Keybase:_ZTVN6v8impl9ReferenceE
Keybase:_ZThn112_N4node15LibuvStreamWrap10DoShutdownEPNS_12ShutdownWrapE
Keybase:_ZThn112_N4node15LibuvStreamWrap10DoTryWriteEPP8uv_buf_tPm
Keybase:_ZThn112_N4node15LibuvStreamWrap12GetAsyncWrapEv
Keybase:_ZThn112_N4node15LibuvStreamWrap15CreateWriteWrapEN2v85LocalINS1_6ObjectEEE
Keybase:_ZThn112_N4node15LibuvStreamWrap18CreateShutdownWrapEN2v85LocalINS1_6ObjectEEE
Keybase:_ZThn112_N4node15LibuvStreamWrap5GetFDEv
Keybase:_ZThn112_N4node15LibuvStreamWrap7DoWriteEPNS_9WriteWrapEP8uv_buf_tmP11uv_stream_s
Keybase:_ZThn112_N4node15LibuvStreamWrap7IsAliveEv
Keybase:_ZThn112_N4node15LibuvStreamWrap8ReadStopEv
Keybase:_ZThn112_N4node15LibuvStreamWrap9IsClosingEv
Keybase:_ZThn112_N4node15LibuvStreamWrap9IsIPCPipeEv
Keybase:_ZThn112_N4node15LibuvStreamWrap9ReadStartEv
Keybase:_ZThn112_N4node19TraceSigintWatchdog12HandleSigintEv
Keybase:_ZThn112_N4node7UDPWrap11GetPeerNameEv
Keybase:_ZThn112_N4node7UDPWrap11GetSockNameEv
Keybase:_ZThn112_N4node7UDPWrap12GetAsyncWrapEv
Keybase:_ZThn112_N4node7UDPWrap4SendEP8uv_buf_tmPK8sockaddr
Keybase:_ZThn112_N4node7UDPWrap8RecvStopEv
Keybase:_ZThn112_N4node7UDPWrap9RecvStartEv
Keybase:_ZThn128_N4node7UDPWrap10OnSendDoneEPNS_7ReqWrapI13uv_udp_send_sEEi
Keybase:_ZThn128_N4node7UDPWrap14CreateSendWrapEm
Keybase:_ZThn128_N4node7UDPWrap6OnRecvElRK8uv_buf_tPK8sockaddrj
Keybase:_ZThn128_N4node7UDPWrap7OnAllocEm
Keybase:_ZThn144_N4node6crypto7TLSWrap12OnStreamReadElRK8uv_buf_t
Keybase:_ZThn144_N4node6crypto7TLSWrap13OnStreamAllocEm
Keybase:_ZThn144_N4node6crypto7TLSWrap18OnStreamAfterWriteEPNS_9WriteWrapEi
Keybase:_ZThn144_N4node6crypto7TLSWrapD0Ev
Keybase:_ZThn144_N4node6crypto7TLSWrapD1Ev
Keybase:_ZThn48_N4node6serdes17SerializerContext15WriteHostObjectEPN2v87IsolateENS2_5LocalINS2_6ObjectEEE
Keybase:_ZThn48_N4node6serdes17SerializerContext16FreeBufferMemoryEPv
Keybase:_ZThn48_N4node6serdes17SerializerContext19ThrowDataCloneErrorEN2v85LocalINS2_6StringEEE
Keybase:_ZThn48_N4node6serdes17SerializerContext22GetSharedArrayBufferIdEPN2v87IsolateENS2_5LocalINS2_17SharedArrayBufferEEE
Keybase:_ZThn48_N4node6serdes17SerializerContext22ReallocateBufferMemoryEPvmPm
Keybase:_ZThn48_N4node6serdes19DeserializerContext14ReadHostObjectEPN2v87IsolateE
Keybase:_ZThn80_N4node2fs10FileHandle10DoShutdownEPNS_12ShutdownWrapE
Keybase:_ZThn80_N4node2fs10FileHandle18CreateShutdownWrapEN2v85LocalINS2_6ObjectEEE
Keybase:_ZThn80_N4node2fs10FileHandle7DoWriteEPNS_9WriteWrapEP8uv_buf_tmP11uv_stream_s
Keybase:_ZThn80_N4node2fs10FileHandle8CloseReqD0Ev
Keybase:_ZThn80_N4node2fs10FileHandle8CloseReqD1Ev
Keybase:_ZThn80_N4node2fs10FileHandle8ReadStopEv
Keybase:_ZThn80_N4node2fs10FileHandle9ReadStartEv
Keybase:_ZThn80_N4node2fs10FileHandleD0Ev
Keybase:_ZThn80_N4node2fs10FileHandleD1Ev
Keybase:_ZThn80_N4node2fs18FileHandleReadWrapD0Ev
Keybase:_ZThn80_N4node2fs18FileHandleReadWrapD1Ev
Keybase:_ZThn80_N4node2fs9FSReqBaseD0Ev
Keybase:_ZThn80_N4node2fs9FSReqBaseD1Ev
Keybase:_ZThn80_N4node5http211Http2Stream10DoShutdownEPNS_12ShutdownWrapE
Keybase:_ZThn80_N4node5http211Http2Stream18CreateShutdownWrapEN2v85LocalINS2_6ObjectEEE
Keybase:_ZThn80_N4node5http211Http2Stream7DoWriteEPNS_9WriteWrapEP8uv_buf_tmP11uv_stream_s
Keybase:_ZThn80_N4node5http211Http2Stream8ReadStopEv
Keybase:_ZThn80_N4node5http211Http2Stream9ReadStartEv
Keybase:_ZThn80_N4node5http211Http2StreamD0Ev
Keybase:_ZThn80_N4node5http211Http2StreamD1Ev
Keybase:_ZThn80_N4node5http212Http2Session12OnStreamReadElRK8uv_buf_t
Keybase:_ZThn80_N4node5http212Http2Session13OnStreamAllocEm
Keybase:_ZThn80_N4node5http212Http2Session18OnStreamAfterWriteEPNS_9WriteWrapEi
Keybase:_ZThn80_N4node5http212Http2SessionD0Ev
Keybase:_ZThn80_N4node5http212Http2SessionD1Ev
Keybase:_ZThn80_N4node6crypto7TLSWrap10ClearErrorEv
Keybase:_ZThn80_N4node6crypto7TLSWrap10DoShutdownEPNS_12ShutdownWrapE
Keybase:_ZThn80_N4node6crypto7TLSWrap12GetAsyncWrapEv
Keybase:_ZThn80_N4node6crypto7TLSWrap18CreateShutdownWrapEN2v85LocalINS2_6ObjectEEE
Keybase:_ZThn80_N4node6crypto7TLSWrap5GetFDEv
Keybase:_ZThn80_N4node6crypto7TLSWrap7DoWriteEPNS_9WriteWrapEP8uv_buf_tmP11uv_stream_s
Keybase:_ZThn80_N4node6crypto7TLSWrap7IsAliveEv
Keybase:_ZThn80_N4node6crypto7TLSWrap8ReadStopEv
Keybase:_ZThn80_N4node6crypto7TLSWrap9IsClosingEv
Keybase:_ZThn80_N4node6crypto7TLSWrap9IsIPCPipeEv
Keybase:_ZThn80_N4node6crypto7TLSWrap9ReadStartEv
Keybase:_ZThn80_N4node6crypto7TLSWrapD0Ev
Keybase:_ZThn80_N4node6crypto7TLSWrapD1Ev
Keybase:_ZThn80_N4node8JSStream10DoShutdownEPNS_12ShutdownWrapE
Keybase:_ZThn80_N4node8JSStream12GetAsyncWrapEv
Keybase:_ZThn80_N4node8JSStream7DoWriteEPNS_9WriteWrapEP8uv_buf_tmP11uv_stream_s
Keybase:_ZThn80_N4node8JSStream7IsAliveEv
Keybase:_ZThn80_N4node8JSStream8ReadStopEv
Keybase:_ZThn80_N4node8JSStream9IsClosingEv
Keybase:_ZThn80_N4node8JSStream9ReadStartEv
Keybase:_ZThn80_NK4node6crypto7TLSWrap5ErrorEv
Keybase:_ZThn8_N4node22PerIsolatePlatformData12PostTaskImplENSt4__Cr10unique_ptrIN2v84TaskENS1_14default_deleteIS4_EEEERKNS3_14SourceLocationE
Keybase:_ZThn8_N4node22PerIsolatePlatformData16PostIdleTaskImplENSt4__Cr10unique_ptrIN2v88IdleTaskENS1_14default_deleteIS4_EEEERKNS3_14SourceLocationE
Keybase:_ZThn8_N4node22PerIsolatePlatformData19PostDelayedTaskImplENSt4__Cr10unique_ptrIN2v84TaskENS1_14default_deleteIS4_EEEEdRKNS3_14SourceLocationE
Keybase:_ZThn8_N4node22PerIsolatePlatformData23PostNonNestableTaskImplENSt4__Cr10unique_ptrIN2v84TaskENS1_14default_deleteIS4_EEEERKNS3_14SourceLocationE
Keybase:_ZThn8_N4node22PerIsolatePlatformData30PostNonNestableDelayedTaskImplENSt4__Cr10unique_ptrIN2v84TaskENS1_14default_deleteIS4_EEEEdRKNS3_14SourceLocationE
Keybase:_ZThn8_N4node22PerIsolatePlatformDataD0Ev
Keybase:_ZThn8_N4node22PerIsolatePlatformDataD1Ev
Keybase:_ZdaPv
Keybase:_ZdaPvRKSt9nothrow_t
Keybase:_ZdaPvSt11align_val_t
Keybase:_ZdaPvSt11align_val_tRKSt9nothrow_t
Keybase:_ZdaPvm
Keybase:_ZdaPvmSt11align_val_t
Keybase:_ZdlPv
Keybase:_ZdlPvRKSt9nothrow_t
Keybase:_ZdlPvSt11align_val_t
Keybase:_ZdlPvSt11align_val_tRKSt9nothrow_t
Keybase:_ZdlPvm
Keybase:_ZdlPvmSt11align_val_t
Keybase:_Znam
Keybase:_ZnamRKSt9nothrow_t
Keybase:_ZnamSt11align_val_t
Keybase:_ZnamSt11align_val_tRKSt9nothrow_t
Keybase:_Znwm
Keybase:_ZnwmRKSt9nothrow_t
Keybase:_ZnwmSt11align_val_t
Keybase:_ZnwmSt11align_val_tRKSt9nothrow_t
Keybase:__DumpBacktrace
Keybase:__bss_start
Keybase:__data_start
Keybase:__free_hook
Keybase:__libc_calloc
Keybase:__libc_cfree
Keybase:__libc_csu_fini
Keybase:__libc_csu_init
Keybase:__libc_free
Keybase:__libc_malloc
Keybase:__libc_memalign
Keybase:__libc_pvalloc
Keybase:__libc_realloc
Keybase:__libc_valloc
Keybase:__malloc_hook
Keybase:__memalign_hook
Keybase:__posix_memalign
Keybase:__realloc_hook
Keybase:_cppgc_internal_Decompress_Compressed_Pointer
Keybase:_cppgc_internal_Uncompress_Member
Keybase:_edata
Keybase:_end
Keybase:_start
Keybase:_v8_internal_Print_Code
Keybase:_v8_internal_Print_Dispatch_Handle
Keybase:_v8_internal_Print_FunctionCallbackInfo
Keybase:_v8_internal_Print_LoadHandler
Keybase:_v8_internal_Print_Object
Keybase:_v8_internal_Print_Object_MarkBit
Keybase:_v8_internal_Print_OnlyCode
Keybase:_v8_internal_Print_PropertyCallbackInfo
Keybase:_v8_internal_Print_StackTrace
Keybase:_v8_internal_Print_StoreHandler
Keybase:_v8_internal_Print_TransitionTree
Keybase:add_patterns_to_fontset
Keybase:aligned_alloc
Keybase:ares_array_at
Keybase:ares_array_at_const
Keybase:ares_array_claim_at
Keybase:ares_array_create
Keybase:ares_array_destroy
Keybase:ares_array_finish
Keybase:ares_array_first
Keybase:ares_array_first_const
Keybase:ares_array_insert_at
Keybase:ares_array_insert_first
Keybase:ares_array_insert_last
Keybase:ares_array_insertdata_at
Keybase:ares_array_insertdata_first
Keybase:ares_array_insertdata_last
Keybase:ares_array_last
Keybase:ares_array_last_const
Keybase:ares_array_len
Keybase:ares_array_remove_at
Keybase:ares_array_remove_first
Keybase:ares_array_remove_last
Keybase:ares_array_set_size
Keybase:ares_array_sort
Keybase:ares_buf_append
Keybase:ares_buf_append_be16
Keybase:ares_buf_append_be32
Keybase:ares_buf_append_byte
Keybase:ares_buf_append_finish
Keybase:ares_buf_append_num_dec
Keybase:ares_buf_append_num_hex
Keybase:ares_buf_append_start
Keybase:ares_buf_append_str
Keybase:ares_buf_begins_with
Keybase:ares_buf_consume
Keybase:ares_buf_consume_charset
Keybase:ares_buf_consume_line
Keybase:ares_buf_consume_nonwhitespace
Keybase:ares_buf_consume_until_charset
Keybase:ares_buf_consume_until_seq
Keybase:ares_buf_consume_whitespace
Keybase:ares_buf_create
Keybase:ares_buf_create_const
Keybase:ares_buf_destroy
Keybase:ares_buf_fetch_be16
Keybase:ares_buf_fetch_be32
Keybase:ares_buf_fetch_bytes
Keybase:ares_buf_fetch_bytes_dup
Keybase:ares_buf_fetch_bytes_into_buf
Keybase:ares_buf_fetch_str_dup
Keybase:ares_buf_finish_bin
Keybase:ares_buf_finish_str
Keybase:ares_buf_get_position
Keybase:ares_buf_hexdump
Keybase:ares_buf_len
Keybase:ares_buf_load_file
Keybase:ares_buf_parse_dns_binstr
Keybase:ares_buf_parse_dns_str
Keybase:ares_buf_peek
Keybase:ares_buf_peek_byte
Keybase:ares_buf_reclaim
Keybase:ares_buf_replace
Keybase:ares_buf_set_length
Keybase:ares_buf_set_position
Keybase:ares_buf_split
Keybase:ares_buf_split_str
Keybase:ares_buf_split_str_array
Keybase:ares_buf_tag
Keybase:ares_buf_tag_clear
Keybase:ares_buf_tag_fetch
Keybase:ares_buf_tag_fetch_bytes
Keybase:ares_buf_tag_fetch_constbuf
Keybase:ares_buf_tag_fetch_strdup
Keybase:ares_buf_tag_fetch_string
Keybase:ares_buf_tag_length
Keybase:ares_buf_tag_rollback
Keybase:ares_cancel
Keybase:ares_destroy
Keybase:ares_destroy_options
Keybase:ares_dns_addr_to_ptr
Keybase:ares_dns_class_fromstr
Keybase:ares_dns_class_tostr
Keybase:ares_dns_opcode_tostr
Keybase:ares_dns_opt_get_datatype
Keybase:ares_dns_opt_get_name
Keybase:ares_dns_parse
Keybase:ares_dns_pton
Keybase:ares_dns_rcode_tostr
Keybase:ares_dns_rec_type_fromstr
Keybase:ares_dns_rec_type_tostr
Keybase:ares_dns_record_create
Keybase:ares_dns_record_destroy
Keybase:ares_dns_record_duplicate
Keybase:ares_dns_record_get_flags
Keybase:ares_dns_record_get_id
Keybase:ares_dns_record_get_opcode
Keybase:ares_dns_record_get_rcode
Keybase:ares_dns_record_query_add
Keybase:ares_dns_record_query_cnt
Keybase:ares_dns_record_query_get
Keybase:ares_dns_record_query_set_name
Keybase:ares_dns_record_query_set_type
Keybase:ares_dns_record_rr_add
Keybase:ares_dns_record_rr_cnt
Keybase:ares_dns_record_rr_del
Keybase:ares_dns_record_rr_get
Keybase:ares_dns_record_rr_get_const
Keybase:ares_dns_record_set_id
Keybase:ares_dns_rr_add_abin
Keybase:ares_dns_rr_del_abin
Keybase:ares_dns_rr_del_opt_byid
Keybase:ares_dns_rr_get_abin
Keybase:ares_dns_rr_get_abin_cnt
Keybase:ares_dns_rr_get_addr
Keybase:ares_dns_rr_get_addr6
Keybase:ares_dns_rr_get_bin
Keybase:ares_dns_rr_get_class
Keybase:ares_dns_rr_get_keys
Keybase:ares_dns_rr_get_name
Keybase:ares_dns_rr_get_opt
Keybase:ares_dns_rr_get_opt_byid
Keybase:ares_dns_rr_get_opt_cnt
Keybase:ares_dns_rr_get_str
Keybase:ares_dns_rr_get_ttl
Keybase:ares_dns_rr_get_type
Keybase:ares_dns_rr_get_u16
Keybase:ares_dns_rr_get_u32
Keybase:ares_dns_rr_get_u8
Keybase:ares_dns_rr_key_datatype
Keybase:ares_dns_rr_key_to_rec_type
Keybase:ares_dns_rr_key_tostr
Keybase:ares_dns_rr_set_addr
Keybase:ares_dns_rr_set_addr6
Keybase:ares_dns_rr_set_bin
Keybase:ares_dns_rr_set_opt
Keybase:ares_dns_rr_set_str
Keybase:ares_dns_rr_set_u16
Keybase:ares_dns_rr_set_u32
Keybase:ares_dns_rr_set_u8
Keybase:ares_dns_section_tostr
Keybase:ares_dns_write
Keybase:ares_dup
Keybase:ares_expand_name
Keybase:ares_free
Keybase:ares_free_array
Keybase:ares_free_data
Keybase:ares_free_hostent
Keybase:ares_free_string
Keybase:ares_freeaddrinfo
Keybase:ares_get_servers
Keybase:ares_get_servers_csv
Keybase:ares_get_servers_ports
Keybase:ares_getaddrinfo
Keybase:ares_gethostbyaddr
Keybase:ares_getnameinfo
Keybase:ares_htable_asvp_create
Keybase:ares_htable_asvp_destroy
Keybase:ares_htable_asvp_get
Keybase:ares_htable_asvp_get_direct
Keybase:ares_htable_asvp_insert
Keybase:ares_htable_asvp_keys
Keybase:ares_htable_asvp_num_keys
Keybase:ares_htable_asvp_remove
Keybase:ares_htable_dict_create
Keybase:ares_htable_dict_destroy
Keybase:ares_htable_dict_get
Keybase:ares_htable_dict_get_direct
Keybase:ares_htable_dict_insert
Keybase:ares_htable_dict_keys
Keybase:ares_htable_dict_num_keys
Keybase:ares_htable_dict_remove
Keybase:ares_htable_strvp_claim
Keybase:ares_htable_strvp_create
Keybase:ares_htable_strvp_destroy
Keybase:ares_htable_strvp_get
Keybase:ares_htable_strvp_get_direct
Keybase:ares_htable_strvp_insert
Keybase:ares_htable_strvp_num_keys
Keybase:ares_htable_strvp_remove
Keybase:ares_htable_szvp_create
Keybase:ares_htable_szvp_destroy
Keybase:ares_htable_szvp_get
Keybase:ares_htable_szvp_get_direct
Keybase:ares_htable_szvp_insert
Keybase:ares_htable_szvp_num_keys
Keybase:ares_htable_szvp_remove
Keybase:ares_htable_vpvp_create
Keybase:ares_htable_vpvp_destroy
Keybase:ares_htable_vpvp_get
Keybase:ares_htable_vpvp_get_direct
Keybase:ares_htable_vpvp_insert
Keybase:ares_htable_vpvp_num_keys
Keybase:ares_htable_vpvp_remove
Keybase:ares_inet_ntop
Keybase:ares_inet_pton
Keybase:ares_init
Keybase:ares_init_options
Keybase:ares_is_hostname
Keybase:ares_library_cleanup
Keybase:ares_library_init
Keybase:ares_library_init_mem
Keybase:ares_library_initialized
Keybase:ares_llist_clear
Keybase:ares_llist_create
Keybase:ares_llist_destroy
Keybase:ares_llist_first_val
Keybase:ares_llist_insert_after
Keybase:ares_llist_insert_before
Keybase:ares_llist_insert_first
Keybase:ares_llist_insert_last
Keybase:ares_llist_last_val
Keybase:ares_llist_len
Keybase:ares_llist_node_claim
Keybase:ares_llist_node_destroy
Keybase:ares_llist_node_first
Keybase:ares_llist_node_idx
Keybase:ares_llist_node_last
Keybase:ares_llist_node_mvparent_first
Keybase:ares_llist_node_mvparent_last
Keybase:ares_llist_node_next
Keybase:ares_llist_node_parent
Keybase:ares_llist_node_prev
Keybase:ares_llist_node_replace
Keybase:ares_llist_node_val
Keybase:ares_llist_replace_destructor
Keybase:ares_malloc
Keybase:ares_malloc_zero
Keybase:ares_memeq
Keybase:ares_memeq_ci
Keybase:ares_memmem
Keybase:ares_parse_a_reply
Keybase:ares_parse_aaaa_reply
Keybase:ares_parse_caa_reply
Keybase:ares_parse_mx_reply
Keybase:ares_parse_naptr_reply
Keybase:ares_parse_ns_reply
Keybase:ares_parse_ptr_reply
Keybase:ares_parse_soa_reply
Keybase:ares_parse_srv_reply
Keybase:ares_parse_txt_reply
Keybase:ares_parse_txt_reply_ext
Keybase:ares_process
Keybase:ares_process_fd
Keybase:ares_process_fds
Keybase:ares_process_pending_write
Keybase:ares_query
Keybase:ares_query_dnsrec
Keybase:ares_queue_active_queries
Keybase:ares_queue_wait_empty
Keybase:ares_realloc
Keybase:ares_realloc_zero
Keybase:ares_reinit
Keybase:ares_save_options
Keybase:ares_search
Keybase:ares_search_dnsrec
Keybase:ares_send
Keybase:ares_send_dnsrec
Keybase:ares_set_local_dev
Keybase:ares_set_local_ip4
Keybase:ares_set_local_ip6
Keybase:ares_set_pending_write_cb
Keybase:ares_set_server_state_callback
Keybase:ares_set_servers
Keybase:ares_set_servers_csv
Keybase:ares_set_servers_ports
Keybase:ares_set_servers_ports_csv
Keybase:ares_set_socket_callback
Keybase:ares_set_socket_configure_callback
Keybase:ares_set_socket_functions
Keybase:ares_set_socket_functions_ex
Keybase:ares_set_sortlist
Keybase:ares_str_isalnum
Keybase:ares_str_isnum
Keybase:ares_str_isprint
Keybase:ares_str_lower
Keybase:ares_str_ltrim
Keybase:ares_str_rtrim
Keybase:ares_str_trim
Keybase:ares_strcasecmp
Keybase:ares_strcaseeq
Keybase:ares_strcaseeq_max
Keybase:ares_strcmp
Keybase:ares_strcpy
Keybase:ares_strdup
Keybase:ares_streq
Keybase:ares_streq_max
Keybase:ares_strerror
Keybase:ares_strlen
Keybase:ares_strncasecmp
Keybase:ares_strncmp
Keybase:ares_strnlen
Keybase:ares_threadsafety
Keybase:ares_timeout
Keybase:ares_tolower
Keybase:blink$cxxbridge1$crash_in_rust
Keybase:blink$cxxbridge1$crash_in_rust_with_overflow
Keybase:blink$cxxbridge1$reenter_rust
Keybase:calloc
Keybase:cfree
Keybase:cioDestroy
Keybase:cioRead
Keybase:cioWrite
Keybase:close
Keybase:crabby_avifAlloc
Keybase:crabby_avifCleanApertureBoxConvertCropRect
Keybase:crabby_avifCodecChoiceFromName
Keybase:crabby_avifCodecName
Keybase:crabby_avifCodecVersions
Keybase:crabby_avifCropRectConvertCleanApertureBox
Keybase:crabby_avifDecoderCreate
Keybase:crabby_avifDecoderDecodedRowCount
Keybase:crabby_avifDecoderDestroy
Keybase:crabby_avifDecoderIsKeyframe
Keybase:crabby_avifDecoderNearestKeyframe
Keybase:crabby_avifDecoderNextImage
Keybase:crabby_avifDecoderNthImage
Keybase:crabby_avifDecoderNthImageMaxExtent
Keybase:crabby_avifDecoderNthImageTiming
Keybase:crabby_avifDecoderParse
Keybase:crabby_avifDecoderRead
Keybase:crabby_avifDecoderReadFile
Keybase:crabby_avifDecoderReadMemory
Keybase:crabby_avifDecoderReset
Keybase:crabby_avifDecoderSetIO
Keybase:crabby_avifDecoderSetIOFile
Keybase:crabby_avifDecoderSetIOMemory
Keybase:crabby_avifDecoderSetSource
Keybase:crabby_avifDiagnosticsClearError
Keybase:crabby_avifFree
Keybase:crabby_avifGainMapCreate
Keybase:crabby_avifGainMapDestroy
Keybase:crabby_avifGetPixelFormatInfo
Keybase:crabby_avifIOCreateFileReader
Keybase:crabby_avifIOCreateMemoryReader
Keybase:crabby_avifIODestroy
Keybase:crabby_avifImageAllocatePlanes
Keybase:crabby_avifImageCopy
Keybase:crabby_avifImageCreate
Keybase:crabby_avifImageCreateEmpty
Keybase:crabby_avifImageDestroy
Keybase:crabby_avifImageFreePlanes
Keybase:crabby_avifImageIsOpaque
Keybase:crabby_avifImagePlane
Keybase:crabby_avifImagePlaneHeight
Keybase:crabby_avifImagePlaneRowBytes
Keybase:crabby_avifImagePlaneWidth
Keybase:crabby_avifImageRGBToYUV
Keybase:crabby_avifImageScale
Keybase:crabby_avifImageSetMetadataExif
Keybase:crabby_avifImageSetMetadataXMP
Keybase:crabby_avifImageSetProfileICC
Keybase:crabby_avifImageSetViewRect
Keybase:crabby_avifImageUsesU16
Keybase:crabby_avifImageYUVToRGB
Keybase:crabby_avifLibYUVVersion
Keybase:crabby_avifPeekCompatibleFileType
Keybase:crabby_avifPixelFormatToString
Keybase:crabby_avifRGBFormatChannelCount
Keybase:crabby_avifRGBFormatHasAlpha
Keybase:crabby_avifRGBImageAllocatePixels
Keybase:crabby_avifRGBImageFreePixels
Keybase:crabby_avifRGBImagePixelSize
Keybase:crabby_avifRGBImageSetDefaults
Keybase:crabby_avifRWDataFree
Keybase:crabby_avifRWDataRealloc
Keybase:crabby_avifRWDataSet
Keybase:crabby_avifResultToString
Keybase:cxxbridge1$box$font_format_check$FontFormatInfo$alloc
Keybase:cxxbridge1$box$font_format_check$FontFormatInfo$dealloc
Keybase:cxxbridge1$box$font_format_check$FontFormatInfo$drop
Keybase:cxxbridge1$box$fontations_ffi$BridgeBitmapGlyph$alloc
Keybase:cxxbridge1$box$fontations_ffi$BridgeBitmapGlyph$dealloc
Keybase:cxxbridge1$box$fontations_ffi$BridgeBitmapGlyph$drop
Keybase:cxxbridge1$box$fontations_ffi$BridgeFontRef$alloc
Keybase:cxxbridge1$box$fontations_ffi$BridgeFontRef$dealloc
Keybase:cxxbridge1$box$fontations_ffi$BridgeFontRef$drop
Keybase:cxxbridge1$box$fontations_ffi$BridgeGlyphStyles$alloc
Keybase:cxxbridge1$box$fontations_ffi$BridgeGlyphStyles$dealloc
Keybase:cxxbridge1$box$fontations_ffi$BridgeGlyphStyles$drop
Keybase:cxxbridge1$box$fontations_ffi$BridgeHintingInstance$alloc
Keybase:cxxbridge1$box$fontations_ffi$BridgeHintingInstance$dealloc
Keybase:cxxbridge1$box$fontations_ffi$BridgeHintingInstance$drop
Keybase:cxxbridge1$box$fontations_ffi$BridgeLocalizedStrings$alloc
Keybase:cxxbridge1$box$fontations_ffi$BridgeLocalizedStrings$dealloc
Keybase:cxxbridge1$box$fontations_ffi$BridgeLocalizedStrings$drop
Keybase:cxxbridge1$box$fontations_ffi$BridgeMappingIndex$alloc
Keybase:cxxbridge1$box$fontations_ffi$BridgeMappingIndex$dealloc
Keybase:cxxbridge1$box$fontations_ffi$BridgeMappingIndex$drop
Keybase:cxxbridge1$box$fontations_ffi$BridgeNormalizedCoords$alloc
Keybase:cxxbridge1$box$fontations_ffi$BridgeNormalizedCoords$dealloc
Keybase:cxxbridge1$box$fontations_ffi$BridgeNormalizedCoords$drop
Keybase:cxxbridge1$box$fontations_ffi$BridgeOutlineCollection$alloc
Keybase:cxxbridge1$box$fontations_ffi$BridgeOutlineCollection$dealloc
Keybase:cxxbridge1$box$fontations_ffi$BridgeOutlineCollection$drop
Keybase:cxxbridge1$box$media$SymphoniaAudioBuffer$alloc
Keybase:cxxbridge1$box$media$SymphoniaAudioBuffer$dealloc
Keybase:cxxbridge1$box$media$SymphoniaAudioBuffer$drop
Keybase:cxxbridge1$box$media$SymphoniaDecoder$alloc
Keybase:cxxbridge1$box$media$SymphoniaDecoder$dealloc
Keybase:cxxbridge1$box$media$SymphoniaDecoder$drop
Keybase:cxxbridge1$box$rust_png$Reader$alloc
Keybase:cxxbridge1$box$rust_png$Reader$dealloc
Keybase:cxxbridge1$box$rust_png$Reader$drop
Keybase:cxxbridge1$box$rust_png$ResultOfReader$alloc
Keybase:cxxbridge1$box$rust_png$ResultOfReader$dealloc
Keybase:cxxbridge1$box$rust_png$ResultOfReader$drop
Keybase:cxxbridge1$box$rust_png$ResultOfStreamWriter$alloc
Keybase:cxxbridge1$box$rust_png$ResultOfStreamWriter$dealloc
Keybase:cxxbridge1$box$rust_png$ResultOfStreamWriter$drop
Keybase:cxxbridge1$box$rust_png$ResultOfWriter$alloc
Keybase:cxxbridge1$box$rust_png$ResultOfWriter$dealloc
Keybase:cxxbridge1$box$rust_png$ResultOfWriter$drop
Keybase:cxxbridge1$box$rust_png$StreamWriter$alloc
Keybase:cxxbridge1$box$rust_png$StreamWriter$dealloc
Keybase:cxxbridge1$box$rust_png$StreamWriter$drop
Keybase:cxxbridge1$box$rust_png$Writer$alloc
Keybase:cxxbridge1$box$rust_png$Writer$dealloc
Keybase:cxxbridge1$box$rust_png$Writer$drop
Keybase:cxxbridge1$exception
Keybase:cxxbridge1$rust_vec$bool$capacity
Keybase:cxxbridge1$rust_vec$bool$data
Keybase:cxxbridge1$rust_vec$bool$drop
Keybase:cxxbridge1$rust_vec$bool$len
Keybase:cxxbridge1$rust_vec$bool$new
Keybase:cxxbridge1$rust_vec$bool$reserve_total
Keybase:cxxbridge1$rust_vec$bool$set_len
Keybase:cxxbridge1$rust_vec$bool$truncate
Keybase:cxxbridge1$rust_vec$char$capacity
Keybase:cxxbridge1$rust_vec$char$data
Keybase:cxxbridge1$rust_vec$char$drop
Keybase:cxxbridge1$rust_vec$char$len
Keybase:cxxbridge1$rust_vec$char$new
Keybase:cxxbridge1$rust_vec$char$reserve_total
Keybase:cxxbridge1$rust_vec$char$set_len
Keybase:cxxbridge1$rust_vec$char$truncate
Keybase:cxxbridge1$rust_vec$f32$capacity
Keybase:cxxbridge1$rust_vec$f32$data
Keybase:cxxbridge1$rust_vec$f32$drop
Keybase:cxxbridge1$rust_vec$f32$len
Keybase:cxxbridge1$rust_vec$f32$new
Keybase:cxxbridge1$rust_vec$f32$reserve_total
Keybase:cxxbridge1$rust_vec$f32$set_len
Keybase:cxxbridge1$rust_vec$f32$truncate
Keybase:cxxbridge1$rust_vec$f64$capacity
Keybase:cxxbridge1$rust_vec$f64$data
Keybase:cxxbridge1$rust_vec$f64$drop
Keybase:cxxbridge1$rust_vec$f64$len
Keybase:cxxbridge1$rust_vec$f64$new
Keybase:cxxbridge1$rust_vec$f64$reserve_total
Keybase:cxxbridge1$rust_vec$f64$set_len
Keybase:cxxbridge1$rust_vec$f64$truncate
Keybase:cxxbridge1$rust_vec$fontations_ffi$FfiPoint$capacity
Keybase:cxxbridge1$rust_vec$fontations_ffi$FfiPoint$data
Keybase:cxxbridge1$rust_vec$fontations_ffi$FfiPoint$drop
Keybase:cxxbridge1$rust_vec$fontations_ffi$FfiPoint$len
Keybase:cxxbridge1$rust_vec$fontations_ffi$FfiPoint$new
Keybase:cxxbridge1$rust_vec$fontations_ffi$FfiPoint$reserve_total
Keybase:cxxbridge1$rust_vec$fontations_ffi$FfiPoint$set_len
Keybase:cxxbridge1$rust_vec$fontations_ffi$FfiPoint$truncate
Keybase:cxxbridge1$rust_vec$i16$capacity
Keybase:cxxbridge1$rust_vec$i16$data
Keybase:cxxbridge1$rust_vec$i16$drop
Keybase:cxxbridge1$rust_vec$i16$len
Keybase:cxxbridge1$rust_vec$i16$new
Keybase:cxxbridge1$rust_vec$i16$reserve_total
Keybase:cxxbridge1$rust_vec$i16$set_len
Keybase:cxxbridge1$rust_vec$i16$truncate
Keybase:cxxbridge1$rust_vec$i32$capacity
Keybase:cxxbridge1$rust_vec$i32$data
Keybase:cxxbridge1$rust_vec$i32$drop
Keybase:cxxbridge1$rust_vec$i32$len
Keybase:cxxbridge1$rust_vec$i32$new
Keybase:cxxbridge1$rust_vec$i32$reserve_total
Keybase:cxxbridge1$rust_vec$i32$set_len
Keybase:cxxbridge1$rust_vec$i32$truncate
Keybase:cxxbridge1$rust_vec$i64$capacity
Keybase:cxxbridge1$rust_vec$i64$data
Keybase:cxxbridge1$rust_vec$i64$drop
Keybase:cxxbridge1$rust_vec$i64$len
Keybase:cxxbridge1$rust_vec$i64$new
Keybase:cxxbridge1$rust_vec$i64$reserve_total
Keybase:cxxbridge1$rust_vec$i64$set_len
Keybase:cxxbridge1$rust_vec$i64$truncate
Keybase:cxxbridge1$rust_vec$i8$capacity
Keybase:cxxbridge1$rust_vec$i8$data
Keybase:cxxbridge1$rust_vec$i8$drop
Keybase:cxxbridge1$rust_vec$i8$len
Keybase:cxxbridge1$rust_vec$i8$new
Keybase:cxxbridge1$rust_vec$i8$reserve_total
Keybase:cxxbridge1$rust_vec$i8$set_len
Keybase:cxxbridge1$rust_vec$i8$truncate
Keybase:cxxbridge1$rust_vec$isize$capacity
Keybase:cxxbridge1$rust_vec$isize$data
Keybase:cxxbridge1$rust_vec$isize$drop
Keybase:cxxbridge1$rust_vec$isize$len
Keybase:cxxbridge1$rust_vec$isize$new
Keybase:cxxbridge1$rust_vec$isize$reserve_total
Keybase:cxxbridge1$rust_vec$isize$set_len
Keybase:cxxbridge1$rust_vec$isize$truncate
Keybase:cxxbridge1$rust_vec$str$capacity
Keybase:cxxbridge1$rust_vec$str$data
Keybase:cxxbridge1$rust_vec$str$drop
Keybase:cxxbridge1$rust_vec$str$len
Keybase:cxxbridge1$rust_vec$str$new
Keybase:cxxbridge1$rust_vec$str$reserve_total
Keybase:cxxbridge1$rust_vec$str$set_len
Keybase:cxxbridge1$rust_vec$str$truncate
Keybase:cxxbridge1$rust_vec$string$capacity
Keybase:cxxbridge1$rust_vec$string$data
Keybase:cxxbridge1$rust_vec$string$drop
Keybase:cxxbridge1$rust_vec$string$len
Keybase:cxxbridge1$rust_vec$string$new
Keybase:cxxbridge1$rust_vec$string$reserve_total
Keybase:cxxbridge1$rust_vec$string$set_len
Keybase:cxxbridge1$rust_vec$string$truncate
Keybase:cxxbridge1$rust_vec$u16$capacity
Keybase:cxxbridge1$rust_vec$u16$data
Keybase:cxxbridge1$rust_vec$u16$drop
Keybase:cxxbridge1$rust_vec$u16$len
Keybase:cxxbridge1$rust_vec$u16$new
Keybase:cxxbridge1$rust_vec$u16$reserve_total
Keybase:cxxbridge1$rust_vec$u16$set_len
Keybase:cxxbridge1$rust_vec$u16$truncate
Keybase:cxxbridge1$rust_vec$u32$capacity
Keybase:cxxbridge1$rust_vec$u32$data
Keybase:cxxbridge1$rust_vec$u32$drop
Keybase:cxxbridge1$rust_vec$u32$len
Keybase:cxxbridge1$rust_vec$u32$new
Keybase:cxxbridge1$rust_vec$u32$reserve_total
Keybase:cxxbridge1$rust_vec$u32$set_len
Keybase:cxxbridge1$rust_vec$u32$truncate
Keybase:cxxbridge1$rust_vec$u64$capacity
Keybase:cxxbridge1$rust_vec$u64$data
Keybase:cxxbridge1$rust_vec$u64$drop
Keybase:cxxbridge1$rust_vec$u64$len
Keybase:cxxbridge1$rust_vec$u64$new
Keybase:cxxbridge1$rust_vec$u64$reserve_total
Keybase:cxxbridge1$rust_vec$u64$set_len
Keybase:cxxbridge1$rust_vec$u64$truncate
Keybase:cxxbridge1$rust_vec$u8$capacity
Keybase:cxxbridge1$rust_vec$u8$data
Keybase:cxxbridge1$rust_vec$u8$drop
Keybase:cxxbridge1$rust_vec$u8$len
Keybase:cxxbridge1$rust_vec$u8$new
Keybase:cxxbridge1$rust_vec$u8$reserve_total
Keybase:cxxbridge1$rust_vec$u8$set_len
Keybase:cxxbridge1$rust_vec$u8$truncate
Keybase:cxxbridge1$rust_vec$usize$capacity
Keybase:cxxbridge1$rust_vec$usize$data
Keybase:cxxbridge1$rust_vec$usize$drop
Keybase:cxxbridge1$rust_vec$usize$len
Keybase:cxxbridge1$rust_vec$usize$new
Keybase:cxxbridge1$rust_vec$usize$reserve_total
Keybase:cxxbridge1$rust_vec$usize$set_len
Keybase:cxxbridge1$rust_vec$usize$truncate
Keybase:cxxbridge1$slice$len
Keybase:cxxbridge1$slice$new
Keybase:cxxbridge1$slice$ptr
Keybase:cxxbridge1$str$from
Keybase:cxxbridge1$str$len
Keybase:cxxbridge1$str$new
Keybase:cxxbridge1$str$ptr
Keybase:cxxbridge1$str$ref
Keybase:cxxbridge1$string$capacity
Keybase:cxxbridge1$string$clone
Keybase:cxxbridge1$string$drop
Keybase:cxxbridge1$string$from_utf16
Keybase:cxxbridge1$string$from_utf16_lossy
Keybase:cxxbridge1$string$from_utf8
Keybase:cxxbridge1$string$from_utf8_lossy
Keybase:cxxbridge1$string$len
Keybase:cxxbridge1$string$new
Keybase:cxxbridge1$string$ptr
Keybase:cxxbridge1$string$reserve_additional
Keybase:cxxbridge1$string$reserve_total
Keybase:diplomat_alloc
Keybase:diplomat_buffer_write_create
Keybase:diplomat_buffer_write_destroy
Keybase:diplomat_buffer_write_get_bytes
Keybase:diplomat_buffer_write_len
Keybase:diplomat_free
Keybase:diplomat_is_str
Keybase:diplomat_simple_write
Keybase:ffi_call
Keybase:ffi_call_go
Keybase:ffi_get_struct_offsets
Keybase:ffi_prep_cif
Keybase:ffi_prep_cif_var
Keybase:ffi_prep_closure
Keybase:ffi_prep_closure_loc
Keybase:ffi_prep_go_closure
Keybase:ffi_type_complex_double
Keybase:ffi_type_complex_float
Keybase:ffi_type_complex_longdouble
Keybase:ffi_type_double
Keybase:ffi_type_float
Keybase:ffi_type_longdouble
Keybase:ffi_type_pointer
Keybase:ffi_type_sint16
Keybase:ffi_type_sint32
Keybase:ffi_type_sint64
Keybase:ffi_type_sint8
Keybase:ffi_type_uint16
Keybase:ffi_type_uint32
Keybase:ffi_type_uint64
Keybase:ffi_type_uint8
Keybase:ffi_type_void
Keybase:font_format_check$cxxbridge1$FontFormatInfo$operator$alignof
Keybase:font_format_check$cxxbridge1$FontFormatInfo$operator$sizeof
Keybase:font_format_check$cxxbridge1$get_font_format_info
Keybase:font_format_check$cxxbridge1$is_avar2
Keybase:font_format_check$cxxbridge1$is_cbdt_cblc
Keybase:font_format_check$cxxbridge1$is_cff2
Keybase:font_format_check$cxxbridge1$is_colrv0
Keybase:font_format_check$cxxbridge1$is_colrv1
Keybase:font_format_check$cxxbridge1$is_sbix
Keybase:font_format_check$cxxbridge1$is_variable
Keybase:fontations_ffi$cxxbridge1$BridgeBitmapGlyph$operator$alignof
Keybase:fontations_ffi$cxxbridge1$BridgeBitmapGlyph$operator$sizeof
Keybase:fontations_ffi$cxxbridge1$BridgeColorStops$operator$alignof
Keybase:fontations_ffi$cxxbridge1$BridgeColorStops$operator$sizeof
Keybase:fontations_ffi$cxxbridge1$BridgeFontRef$operator$alignof
Keybase:fontations_ffi$cxxbridge1$BridgeFontRef$operator$sizeof
Keybase:fontations_ffi$cxxbridge1$BridgeGlyphStyles$operator$alignof
Keybase:fontations_ffi$cxxbridge1$BridgeGlyphStyles$operator$sizeof
Keybase:fontations_ffi$cxxbridge1$BridgeHintingInstance$operator$alignof
Keybase:fontations_ffi$cxxbridge1$BridgeHintingInstance$operator$sizeof
Keybase:fontations_ffi$cxxbridge1$BridgeLocalizedStrings$operator$alignof
Keybase:fontations_ffi$cxxbridge1$BridgeLocalizedStrings$operator$sizeof
Keybase:fontations_ffi$cxxbridge1$BridgeMappingIndex$operator$alignof
Keybase:fontations_ffi$cxxbridge1$BridgeMappingIndex$operator$sizeof
Keybase:fontations_ffi$cxxbridge1$BridgeNormalizedCoords$operator$alignof
Keybase:fontations_ffi$cxxbridge1$BridgeNormalizedCoords$operator$sizeof
Keybase:fontations_ffi$cxxbridge1$BridgeOutlineCollection$operator$alignof
Keybase:fontations_ffi$cxxbridge1$BridgeOutlineCollection$operator$sizeof
Keybase:fontations_ffi$cxxbridge1$FfiPoint$operator$eq
Keybase:fontations_ffi$cxxbridge1$FfiPoint$operator$ne
Keybase:fontations_ffi$cxxbridge1$SkiaDesignCoordinate$operator$eq
Keybase:fontations_ffi$cxxbridge1$SkiaDesignCoordinate$operator$ne
Keybase:fontations_ffi$cxxbridge1$bitmap_glyph
Keybase:fontations_ffi$cxxbridge1$bitmap_metrics
Keybase:fontations_ffi$cxxbridge1$coordinates_for_shifted_named_instance_index
Keybase:fontations_ffi$cxxbridge1$draw_colr_glyph
Keybase:fontations_ffi$cxxbridge1$family_name
Keybase:fontations_ffi$cxxbridge1$fill_glyph_to_unicode_map
Keybase:fontations_ffi$cxxbridge1$font_or_collection
Keybase:fontations_ffi$cxxbridge1$font_ref_is_valid
Keybase:fontations_ffi$cxxbridge1$get_bridge_glyph_styles
Keybase:fontations_ffi$cxxbridge1$get_colrv1_clip_box
Keybase:fontations_ffi$cxxbridge1$get_font_style
Keybase:fontations_ffi$cxxbridge1$get_localized_strings
Keybase:fontations_ffi$cxxbridge1$get_outline_collection
Keybase:fontations_ffi$cxxbridge1$get_path_verbs_points
Keybase:fontations_ffi$cxxbridge1$get_skia_metrics
Keybase:fontations_ffi$cxxbridge1$get_unscaled_metrics
Keybase:fontations_ffi$cxxbridge1$has_any_color_table
Keybase:fontations_ffi$cxxbridge1$has_bitmap_glyph
Keybase:fontations_ffi$cxxbridge1$has_colrv0_glyph
Keybase:fontations_ffi$cxxbridge1$has_colrv1_glyph
Keybase:fontations_ffi$cxxbridge1$hinting_reliant
Keybase:fontations_ffi$cxxbridge1$is_embeddable
Keybase:fontations_ffi$cxxbridge1$is_fixed_pitch
Keybase:fontations_ffi$cxxbridge1$is_script_style
Keybase:fontations_ffi$cxxbridge1$is_serif_style
Keybase:fontations_ffi$cxxbridge1$is_subsettable
Keybase:fontations_ffi$cxxbridge1$italic_angle
Keybase:fontations_ffi$cxxbridge1$localized_name_next
Keybase:fontations_ffi$cxxbridge1$lookup_glyph_or_zero
Keybase:fontations_ffi$cxxbridge1$make_font_ref
Keybase:fontations_ffi$cxxbridge1$make_hinting_instance
Keybase:fontations_ffi$cxxbridge1$make_mapping_index
Keybase:fontations_ffi$cxxbridge1$make_mono_hinting_instance
Keybase:fontations_ffi$cxxbridge1$next_color_stop
Keybase:fontations_ffi$cxxbridge1$no_hinting_instance
Keybase:fontations_ffi$cxxbridge1$normalized_coords_equal
Keybase:fontations_ffi$cxxbridge1$num_axes
Keybase:fontations_ffi$cxxbridge1$num_color_stops
Keybase:fontations_ffi$cxxbridge1$num_glyphs
Keybase:fontations_ffi$cxxbridge1$num_named_instances
Keybase:fontations_ffi$cxxbridge1$outline_format
Keybase:fontations_ffi$cxxbridge1$png_data
Keybase:fontations_ffi$cxxbridge1$populate_axes
Keybase:fontations_ffi$cxxbridge1$postscript_name
Keybase:fontations_ffi$cxxbridge1$resolve_into_normalized_coords
Keybase:fontations_ffi$cxxbridge1$resolve_palette
Keybase:fontations_ffi$cxxbridge1$shrink_verbs_points_if_needed
Keybase:fontations_ffi$cxxbridge1$table_data
Keybase:fontations_ffi$cxxbridge1$table_tags
Keybase:fontations_ffi$cxxbridge1$unhinted_advance_width_or_zero
Keybase:fontations_ffi$cxxbridge1$units_per_em_or_zero
Keybase:fontations_ffi$cxxbridge1$variation_position
Keybase:free
Keybase:getaddrinfo
Keybase:llg_clone_constraint
Keybase:llg_clone_matcher
Keybase:llg_clone_stop_controller
Keybase:llg_clone_tokenizer
Keybase:llg_commit_token
Keybase:llg_compute_mask
Keybase:llg_constraint_init_set_defaults
Keybase:llg_decode_tokens
Keybase:llg_flush_logs
Keybase:llg_free_constraint
Keybase:llg_free_matcher
Keybase:llg_free_stop_controller
Keybase:llg_free_tokenizer
Keybase:llg_get_error
Keybase:llg_get_temperature
Keybase:llg_is_stopped
Keybase:llg_matcher_compute_ff_tokens
Keybase:llg_matcher_compute_mask
Keybase:llg_matcher_compute_mask_into
Keybase:llg_matcher_consume_token
Keybase:llg_matcher_consume_tokens
Keybase:llg_matcher_get_error
Keybase:llg_matcher_get_mask
Keybase:llg_matcher_get_mask_byte_size
Keybase:llg_matcher_is_accepting
Keybase:llg_matcher_is_error
Keybase:llg_matcher_is_stopped
Keybase:llg_matcher_reset
Keybase:llg_matcher_rollback
Keybase:llg_matcher_validate_tokens
Keybase:llg_new_constraint
Keybase:llg_new_constraint_any
Keybase:llg_new_constraint_json
Keybase:llg_new_constraint_lark
Keybase:llg_new_constraint_regex
Keybase:llg_new_matcher
Keybase:llg_new_stop_controller
Keybase:llg_new_tokenizer
Keybase:llg_par_compute_mask
Keybase:llg_stop_commit_token
Keybase:llg_stringify_tokens
Keybase:llg_tokenize_bytes
Keybase:llg_tokenize_bytes_marker
Keybase:llg_validate_grammar
Keybase:localtime
Keybase:localtime64
Keybase:localtime64_r
Keybase:localtime_r
Keybase:logging$internal$cxxbridge1$RustFmtArguments$format
Keybase:logging$internal$cxxbridge1$RustFmtArguments$operator$alignof
Keybase:logging$internal$cxxbridge1$RustFmtArguments$operator$sizeof
Keybase:logging$internal$cxxbridge1$init_rust_log_crate
Keybase:mallinfo
Keybase:malloc
Keybase:malloc_size
Keybase:malloc_stats
Keybase:malloc_usable_size
Keybase:mallopt
Keybase:media$cxxbridge1$SymphoniaDecoder$decode
Keybase:media$cxxbridge1$SymphoniaDecoder$operator$alignof
Keybase:media$cxxbridge1$SymphoniaDecoder$operator$sizeof
Keybase:media$cxxbridge1$init_symphonia_decoder
Keybase:memalign
Keybase:napi_acquire_threadsafe_function
Keybase:napi_add_async_cleanup_hook
Keybase:napi_add_env_cleanup_hook
Keybase:napi_add_finalizer
Keybase:napi_adjust_external_memory
Keybase:napi_async_destroy
Keybase:napi_async_init
Keybase:napi_call_function
Keybase:napi_call_threadsafe_function
Keybase:napi_cancel_async_work
Keybase:napi_check_object_type_tag
Keybase:napi_close_callback_scope
Keybase:napi_close_escapable_handle_scope
Keybase:napi_close_handle_scope
Keybase:napi_coerce_to_bool
Keybase:napi_coerce_to_number
Keybase:napi_coerce_to_object
Keybase:napi_coerce_to_string
Keybase:napi_create_array
Keybase:napi_create_array_with_length
Keybase:napi_create_arraybuffer
Keybase:napi_create_async_work
Keybase:napi_create_bigint_int64
Keybase:napi_create_bigint_uint64
Keybase:napi_create_bigint_words
Keybase:napi_create_buffer
Keybase:napi_create_buffer_copy
Keybase:napi_create_dataview
Keybase:napi_create_date
Keybase:napi_create_double
Keybase:napi_create_error
Keybase:napi_create_external
Keybase:napi_create_external_arraybuffer
Keybase:napi_create_external_buffer
Keybase:napi_create_function
Keybase:napi_create_int32
Keybase:napi_create_int64
Keybase:napi_create_object
Keybase:napi_create_promise
Keybase:napi_create_range_error
Keybase:napi_create_reference
Keybase:napi_create_string_latin1
Keybase:napi_create_string_utf16
Keybase:napi_create_string_utf8
Keybase:napi_create_symbol
Keybase:napi_create_threadsafe_function
Keybase:napi_create_type_error
Keybase:napi_create_typedarray
Keybase:napi_create_uint32
Keybase:napi_define_class
Keybase:napi_define_properties
Keybase:napi_delete_async_work
Keybase:napi_delete_element
Keybase:napi_delete_property
Keybase:napi_delete_reference
Keybase:napi_detach_arraybuffer
Keybase:napi_escape_handle
Keybase:napi_fatal_error
Keybase:napi_fatal_exception
Keybase:napi_get_all_property_names
Keybase:napi_get_and_clear_last_exception
Keybase:napi_get_array_length
Keybase:napi_get_arraybuffer_info
Keybase:napi_get_boolean
Keybase:napi_get_buffer_info
Keybase:napi_get_cb_info
Keybase:napi_get_dataview_info
Keybase:napi_get_date_value
Keybase:napi_get_element
Keybase:napi_get_global
Keybase:napi_get_instance_data
Keybase:napi_get_last_error_info
Keybase:napi_get_named_property
Keybase:napi_get_new_target
Keybase:napi_get_node_version
Keybase:napi_get_null
Keybase:napi_get_property
Keybase:napi_get_property_names
Keybase:napi_get_prototype
Keybase:napi_get_reference_value
Keybase:napi_get_threadsafe_function_context
Keybase:napi_get_typedarray_info
Keybase:napi_get_undefined
Keybase:napi_get_uv_event_loop
Keybase:napi_get_value_bigint_int64
Keybase:napi_get_value_bigint_uint64
Keybase:napi_get_value_bigint_words
Keybase:napi_get_value_bool
Keybase:napi_get_value_double
Keybase:napi_get_value_external
Keybase:napi_get_value_int32
Keybase:napi_get_value_int64
Keybase:napi_get_value_string_latin1
Keybase:napi_get_value_string_utf16
Keybase:napi_get_value_string_utf8
Keybase:napi_get_value_uint32
Keybase:napi_get_version
Keybase:napi_has_element
Keybase:napi_has_named_property
Keybase:napi_has_own_property
Keybase:napi_has_property
Keybase:napi_instanceof
Keybase:napi_is_array
Keybase:napi_is_arraybuffer
Keybase:napi_is_buffer
Keybase:napi_is_dataview
Keybase:napi_is_date
Keybase:napi_is_detached_arraybuffer
Keybase:napi_is_error
Keybase:napi_is_exception_pending
Keybase:napi_is_promise
Keybase:napi_is_typedarray
Keybase:napi_make_callback
Keybase:napi_module_register
Keybase:napi_new_instance
Keybase:napi_object_freeze
Keybase:napi_object_seal
Keybase:napi_open_callback_scope
Keybase:napi_open_escapable_handle_scope
Keybase:napi_open_handle_scope
Keybase:napi_queue_async_work
Keybase:napi_ref_threadsafe_function
Keybase:napi_reference_ref
Keybase:napi_reference_unref
Keybase:napi_reject_deferred
Keybase:napi_release_threadsafe_function
Keybase:napi_remove_async_cleanup_hook
Keybase:napi_remove_env_cleanup_hook
Keybase:napi_remove_wrap
Keybase:napi_resolve_deferred
Keybase:napi_run_script
Keybase:napi_set_element
Keybase:napi_set_instance_data
Keybase:napi_set_named_property
Keybase:napi_set_property
Keybase:napi_strict_equals
Keybase:napi_throw
Keybase:napi_throw_error
Keybase:napi_throw_range_error
Keybase:napi_throw_type_error
Keybase:napi_type_tag_object
Keybase:napi_typeof
Keybase:napi_unref_threadsafe_function
Keybase:napi_unwrap
Keybase:napi_wrap
Keybase:node_api_create_buffer_from_arraybuffer
Keybase:node_api_create_external_string_latin1
Keybase:node_api_create_external_string_utf16
Keybase:node_api_create_property_key_latin1
Keybase:node_api_create_property_key_utf16
Keybase:node_api_create_property_key_utf8
Keybase:node_api_create_sharedarraybuffer
Keybase:node_api_create_syntax_error
Keybase:node_api_get_module_file_name
Keybase:node_api_is_sharedarraybuffer
Keybase:node_api_post_finalizer
Keybase:node_api_symbol_for
