UNKNOWN:_ZTIN9drumstick2rt10MIDIOutputE
UNKNOWN:_ZTIN9drumstick2rt9MIDIInputE
UNKNOWN:_ZTIN9drumstick4ALSA14SequencerErrorE
UNKNOWN:_ZTIN9drumstick4ALSA21SequencerOutputThreadE
UNKNOWN:_ZTVN9drumstick2rt10MIDIOutputE
UNKNOWN:_ZTVN9drumstick2rt9MIDIInputE
UNKNOWN:_ZTVN9drumstick4ALSA13VariableEventE
UNKNOWN:_ZTVN9drumstick4ALSA14SequencerEventE
UNKNOWN:_ZTVN9drumstick4ALSA21SequencerOutputThreadE
libQt6Core.so.6:_Z21qRegisterResourceDataiPKhS0_S0_
libQt6Core.so.6:_Z23qUnregisterResourceDataiPKhS0_S0_
libQt6Core.so.6:_Z25qEnvironmentVariableIsSetPKc
libQt6Core.so.6:_Z26qt_QMetaEnum_debugOperatorR6QDebugxPK11QMetaObjectPKc
libQt6Core.so.6:_Z28qEnvironmentVariableIntValuePKcPb
libQt6Core.so.6:_Z53qRegisterNormalizedMetaType_QPairVariantInterfaceImplRK10QByteArray
libQt6Core.so.6:_Z7qgetenvPKc
libQt6Core.so.6:_Z7qputenvPKc14QByteArrayView
libQt6Core.so.6:_Z9qBadAllocv
libQt6Core.so.6:_ZN10QArrayData10deallocateEPS_xx
libQt6Core.so.6:_ZN10QArrayData19reallocateUnalignedEPS_PvxxNS_16AllocationOptionE
libQt6Core.so.6:_ZN10QArrayData8allocateEPPS_xxxNS_16AllocationOptionE
libQt6Core.so.6:_ZN10QByteArray11reallocDataExN10QArrayData16AllocationOptionE
libQt6Core.so.6:_ZN10QByteArray4chopEx
libQt6Core.so.6:_ZN10QByteArray5clearEv
libQt6Core.so.6:_ZN10QByteArray6_emptyE
libQt6Core.so.6:_ZN10QByteArray6appendEc
libQt6Core.so.6:_ZN10QByteArray6insertEx14QByteArrayView
libQt6Core.so.6:_ZN10QByteArray6numberEii
libQt6Core.so.6:_ZN10QByteArray6removeExx
libQt6Core.so.6:_ZN10QByteArray6resizeEx
libQt6Core.so.6:_ZN10QByteArray8truncateEx
libQt6Core.so.6:_ZN10QByteArrayC1EPKcx
libQt6Core.so.6:_ZN10QByteArrayC1Exc
libQt6Core.so.6:_ZN10QByteArrayaSERKS_
libQt6Core.so.6:_ZN11QBasicMutex12lockInternalEv
libQt6Core.so.6:_ZN11QBasicMutex15destroyInternalEPv
libQt6Core.so.6:_ZN11QBasicMutex19unlockInternalFutexEPv
libQt6Core.so.6:_ZN11QDataStream11readRawDataEPcx
libQt6Core.so.6:_ZN11QDataStream11resetStatusEv
libQt6Core.so.6:_ZN11QDataStream11skipRawDataEx
libQt6Core.so.6:_ZN11QDataStream12setByteOrderENS_9ByteOrderE
libQt6Core.so.6:_ZN11QDataStream9setStatusENS_6StatusE
libQt6Core.so.6:_ZN11QDataStreamC1EP10QByteArray6QFlagsIN13QIODeviceBase12OpenModeFlagEE
libQt6Core.so.6:_ZN11QDataStreamC1EP9QIODevice
libQt6Core.so.6:_ZN11QDataStreamC1ERK10QByteArray
libQt6Core.so.6:_ZN11QDataStreamD1Ev
libQt6Core.so.6:_ZN11QDataStreamlsEa
libQt6Core.so.6:_ZN11QDataStreamlsEi
libQt6Core.so.6:_ZN11QDataStreamlsEx
libQt6Core.so.6:_ZN11QDataStreamrsERa
libQt6Core.so.6:_ZN11QDataStreamrsERb
libQt6Core.so.6:_ZN11QDataStreamrsERi
libQt6Core.so.6:_ZN11QDataStreamrsERs
libQt6Core.so.6:_ZN11QDataStreamrsERx
libQt6Core.so.6:_ZN11QFileDevice5closeEv
libQt6Core.so.6:_ZN11QMetaMethod14fromSignalImplEPK11QMetaObjectPPv
libQt6Core.so.6:_ZN11QMetaObject10ConnectionD1Ev
libQt6Core.so.6:_ZN11QMetaObject14normalizedTypeEPKc
libQt6Core.so.6:_ZN11QMetaObject16invokeMethodImplEP7QObjectPKcN2Qt14ConnectionTypeExPKPKvPKS3_PKPKN9QtPrivate18QMetaTypeInterfaceE
libQt6Core.so.6:_ZN11QMetaObject18connectSlotsByNameEP7QObject
libQt6Core.so.6:_ZN11QMetaObject8activateEP7QObjectPKS_iPPv
libQt6Core.so.6:_ZN11QTextStream11setEncodingEN16QStringConverter8EncodingE
libQt6Core.so.6:_ZN11QTextStream13setFieldWidthEi
libQt6Core.so.6:_ZN11QTextStream21setRealNumberNotationENS_18RealNumberNotationE
libQt6Core.so.6:_ZN11QTextStream22setRealNumberPrecisionEi
libQt6Core.so.6:_ZN11QTextStream8readLineEx
libQt6Core.so.6:_ZN11QTextStreamC1EP8_IO_FILE6QFlagsIN13QIODeviceBase12OpenModeFlagEE
libQt6Core.so.6:_ZN11QTextStreamC1EP9QIODevice
libQt6Core.so.6:_ZN11QTextStreamD1Ev
libQt6Core.so.6:_ZN11QTextStreamlsEPKc
libQt6Core.so.6:_ZN11QTextStreamlsERK7QString
libQt6Core.so.6:_ZN11QTextStreamlsEc
libQt6Core.so.6:_ZN11QTextStreamlsEd
libQt6Core.so.6:_ZN11QTextStreamlsEf
libQt6Core.so.6:_ZN11QTextStreamlsEi
libQt6Core.so.6:_ZN11QTextStreamlsEj
libQt6Core.so.6:_ZN11QTextStreamlsEl
libQt6Core.so.6:_ZN11QTranslator4loadERK7QLocaleRK7QStringS5_S5_S5_
libQt6Core.so.6:_ZN11QTranslatorC1EP7QObject
libQt6Core.so.6:_ZN11QTranslatorD1Ev
libQt6Core.so.6:_ZN12QLibraryInfo4pathENS_11LibraryPathE
libQt6Core.so.6:_ZN13QPluginLoader15staticInstancesEv
libQt6Core.so.6:_ZN13QPluginLoader6unloadEv
libQt6Core.so.6:_ZN13QPluginLoader8instanceEv
libQt6Core.so.6:_ZN13QPluginLoaderC1ERK7QStringP7QObject
libQt6Core.so.6:_ZN14QDeadlineTimerC1ExN2Qt9TimerTypeE
libQt6Core.so.6:_ZN14QReadWriteLock14tryLockForReadE14QDeadlineTimer
libQt6Core.so.6:_ZN14QReadWriteLock15tryLockForWriteE14QDeadlineTimer
libQt6Core.so.6:_ZN14QReadWriteLock16destroyRecursiveEP21QReadWriteLockPrivate
libQt6Core.so.6:_ZN14QReadWriteLock6unlockEv
libQt6Core.so.6:_ZN14QStandardPaths17standardLocationsENS_16StandardLocationE
libQt6Core.so.6:_ZN14QStandardPaths6locateENS_16StandardLocationERK7QString6QFlagsINS_12LocateOptionEE
libQt6Core.so.6:_ZN14QVersionNumber10fromStringE14QAnyStringViewPx
libQt6Core.so.6:_ZN14QVersionNumber14SegmentStorage11setListDataEPKiS2_
libQt6Core.so.6:_ZN14QVersionNumber7compareERKS_S1_
libQt6Core.so.6:_ZN14QWaitCondition4waitEP6QMutex14QDeadlineTimer
libQt6Core.so.6:_ZN14QWaitCondition7wakeAllEv
libQt6Core.so.6:_ZN14QWaitConditionC1Ev
libQt6Core.so.6:_ZN14QWaitConditionD1Ev
libQt6Core.so.6:_ZN15QSocketNotifier16staticMetaObjectE
libQt6Core.so.6:_ZN15QSocketNotifier9activatedE17QSocketDescriptorNS_4TypeENS_14QPrivateSignalE
libQt6Core.so.6:_ZN15QSocketNotifierC1ExNS_4TypeEP7QObject
libQt6Core.so.6:_ZN15QtSharedPointer20ExternalRefCountData9getAndRefEPK7QObject
libQt6Core.so.6:_ZN16QCoreApplication12libraryPathsEv
libQt6Core.so.6:_ZN16QCoreApplication12setAttributeEN2Qt20ApplicationAttributeEb
libQt6Core.so.6:_ZN16QCoreApplication13processEventsE6QFlagsIN10QEventLoop17ProcessEventsFlagEE
libQt6Core.so.6:_ZN16QCoreApplication15applicationNameEv
libQt6Core.so.6:_ZN16QCoreApplication16sendPostedEventsEP7QObjecti
libQt6Core.so.6:_ZN16QCoreApplication17installTranslatorEP11QTranslator
libQt6Core.so.6:_ZN16QCoreApplication18applicationDirPathEv
libQt6Core.so.6:_ZN16QCoreApplication18applicationVersionEv
libQt6Core.so.6:_ZN16QCoreApplication18setApplicationNameERK7QString
libQt6Core.so.6:_ZN16QCoreApplication19applicationFilePathEv
libQt6Core.so.6:_ZN16QCoreApplication19setOrganizationNameERK7QString
libQt6Core.so.6:_ZN16QCoreApplication21setApplicationVersionERK7QString
libQt6Core.so.6:_ZN16QCoreApplication21setOrganizationDomainERK7QString
libQt6Core.so.6:_ZN16QCoreApplication4selfE
libQt6Core.so.6:_ZN16QCoreApplication9postEventEP7QObjectP6QEventi
libQt6Core.so.6:_ZN16QCoreApplication9translateEPKcS1_S1_i
libQt6Core.so.6:_ZN16QCoreApplicationC1ERiPPci
libQt6Core.so.6:_ZN16QCoreApplicationD1Ev
libQt6Core.so.6:_ZN16QDebugStateSaverC1ER6QDebug
libQt6Core.so.6:_ZN16QDebugStateSaverD1Ev
libQt6Core.so.6:_ZN18QAbstractItemModel10insertRowsEiiRK11QModelIndex
libQt6Core.so.6:_ZN18QAbstractItemModel10removeRowsEiiRK11QModelIndex
libQt6Core.so.6:_ZN18QAbstractItemModel11dataChangedERK11QModelIndexS2_RK5QListIiE
libQt6Core.so.6:_ZN18QAbstractItemModel11moveColumnsERK11QModelIndexiiS2_i
libQt6Core.so.6:_ZN18QAbstractItemModel11setItemDataERK11QModelIndexRK4QMapIi8QVariantE
libQt6Core.so.6:_ZN18QAbstractItemModel13clearItemDataERK11QModelIndex
libQt6Core.so.6:_ZN18QAbstractItemModel13endInsertRowsEv
libQt6Core.so.6:_ZN18QAbstractItemModel13endRemoveRowsEv
libQt6Core.so.6:_ZN18QAbstractItemModel13insertColumnsEiiRK11QModelIndex
libQt6Core.so.6:_ZN18QAbstractItemModel13removeColumnsEiiRK11QModelIndex
libQt6Core.so.6:_ZN18QAbstractItemModel13setHeaderDataEiN2Qt11OrientationERK8QVarianti
libQt6Core.so.6:_ZN18QAbstractItemModel15beginInsertRowsERK11QModelIndexii
libQt6Core.so.6:_ZN18QAbstractItemModel15beginRemoveRowsERK11QModelIndexii
libQt6Core.so.6:_ZN18QAbstractItemModel16endInsertColumnsEv
libQt6Core.so.6:_ZN18QAbstractItemModel16endRemoveColumnsEv
libQt6Core.so.6:_ZN18QAbstractItemModel17resetInternalDataEv
libQt6Core.so.6:_ZN18QAbstractItemModel18beginInsertColumnsERK11QModelIndexii
libQt6Core.so.6:_ZN18QAbstractItemModel18beginRemoveColumnsERK11QModelIndexii
libQt6Core.so.6:_ZN18QAbstractItemModel4sortEiN2Qt9SortOrderE
libQt6Core.so.6:_ZN18QAbstractItemModel6revertEv
libQt6Core.so.6:_ZN18QAbstractItemModel6submitEv
libQt6Core.so.6:_ZN18QAbstractItemModel7setDataERK11QModelIndexRK8QVarianti
libQt6Core.so.6:_ZN18QAbstractItemModel8moveRowsERK11QModelIndexiiS2_i
libQt6Core.so.6:_ZN18QAbstractItemModel9fetchMoreERK11QModelIndex
libQt6Core.so.6:_ZN18QCommandLineOptionC1ERK5QListI7QStringERKS1_S6_S6_
libQt6Core.so.6:_ZN18QCommandLineOptionC1ERK7QStringS2_S2_S2_
libQt6Core.so.6:_ZN18QCommandLineOptionD1Ev
libQt6Core.so.6:_ZN18QCommandLineParser13addHelpOptionEv
libQt6Core.so.6:_ZN18QCommandLineParser16addVersionOptionEv
libQt6Core.so.6:_ZN18QCommandLineParser21addPositionalArgumentERK7QStringS2_S2_
libQt6Core.so.6:_ZN18QCommandLineParser25setApplicationDescriptionERK7QString
libQt6Core.so.6:_ZN18QCommandLineParser7processERK16QCoreApplication
libQt6Core.so.6:_ZN18QCommandLineParser8showHelpEi
libQt6Core.so.6:_ZN18QCommandLineParser9addOptionERK18QCommandLineOption
libQt6Core.so.6:_ZN18QCommandLineParserC1Ev
libQt6Core.so.6:_ZN18QCommandLineParserD1Ev
libQt6Core.so.6:_ZN18QRegularExpressionC1ERK7QString6QFlagsINS_13PatternOptionEE
libQt6Core.so.6:_ZN18QRegularExpressionD1Ev
libQt6Core.so.6:_ZN19QAbstractTableModel11qt_metacallEN11QMetaObject4CallEiPPv
libQt6Core.so.6:_ZN19QAbstractTableModel11qt_metacastEPKc
libQt6Core.so.6:_ZN19QAbstractTableModel12dropMimeDataEPK9QMimeDataN2Qt10DropActionEiiRK11QModelIndex
libQt6Core.so.6:_ZN19QAbstractTableModel16staticMetaObjectE
libQt6Core.so.6:_ZN19QAbstractTableModelC2EP7QObject
libQt6Core.so.6:_ZN19QAbstractTableModelD2Ev
libQt6Core.so.6:_ZN23QRegularExpressionMatchD1Ev
libQt6Core.so.6:_ZN2Qt3decER11QTextStream
libQt6Core.so.6:_ZN2Qt3hexER11QTextStream
libQt6Core.so.6:_ZN2Qt4endlER11QTextStream
libQt6Core.so.6:_ZN2Qt4leftER11QTextStream
libQt6Core.so.6:_ZN2Qt5rightER11QTextStream
libQt6Core.so.6:_ZN31QRegularExpressionMatchIterator4nextEv
libQt6Core.so.6:_ZN31QRegularExpressionMatchIteratorD1Ev
libQt6Core.so.6:_ZN4QDir10setSortingE6QFlagsINS_8SortFlagEE
libQt6Core.so.6:_ZN4QDir11currentPathEv
libQt6Core.so.6:_ZN4QDir14isRelativePathERK7QString
libQt6Core.so.6:_ZN4QDir14setNameFiltersERK5QListI7QStringE
libQt6Core.so.6:_ZN4QDir8homePathEv
libQt6Core.so.6:_ZN4QDir9setFilterE6QFlagsINS_6FilterEE
libQt6Core.so.6:_ZN4QDirC1ERK7QString
libQt6Core.so.6:_ZN4QDirC1ERKS_
libQt6Core.so.6:_ZN4QDirD1Ev
libQt6Core.so.6:_ZN4QUrlC1ERKS_
libQt6Core.so.6:_ZN4QUrlD1Ev
libQt6Core.so.6:_ZN5QFile4openE6QFlagsIN13QIODeviceBase12OpenModeFlagEE
libQt6Core.so.6:_ZN5QFileC1ERK7QString
libQt6Core.so.6:_ZN5QFileD1Ev
libQt6Core.so.6:_ZN6QDebug9putStringEPK5QCharm
libQt6Core.so.6:_ZN6QDebugD1Ev
libQt6Core.so.6:_ZN6QEvent16staticMetaObjectE
libQt6Core.so.6:_ZN6QEventC2ENS_4TypeE
libQt6Core.so.6:_ZN6QEventD2Ev
libQt6Core.so.6:_ZN7QLocaleC1Ev
libQt6Core.so.6:_ZN7QLocaleD1Ev
libQt6Core.so.6:_ZN7QObject10childEventEP11QChildEvent
libQt6Core.so.6:_ZN7QObject10disconnectEPKS_PKcS1_S3_
libQt6Core.so.6:_ZN7QObject10timerEventEP11QTimerEvent
libQt6Core.so.6:_ZN7QObject11connectImplEPKS_PPvS1_S3_PN9QtPrivate15QSlotObjectBaseEN2Qt14ConnectionTypeEPKiPK11QMetaObject
libQt6Core.so.6:_ZN7QObject11customEventEP6QEvent
libQt6Core.so.6:_ZN7QObject11eventFilterEPS_P6QEvent
libQt6Core.so.6:_ZN7QObject11qt_metacallEN11QMetaObject4CallEiPPv
libQt6Core.so.6:_ZN7QObject11qt_metacastEPKc
libQt6Core.so.6:_ZN7QObject12blockSignalsEb
libQt6Core.so.6:_ZN7QObject12moveToThreadEP7QThreadN2Qt15Disambiguated_tE
libQt6Core.so.6:_ZN7QObject13connectNotifyERK11QMetaMethod
libQt6Core.so.6:_ZN7QObject13setObjectNameE14QAnyStringView
libQt6Core.so.6:_ZN7QObject16disconnectNotifyERK11QMetaMethod
libQt6Core.so.6:_ZN7QObject16staticMetaObjectE
libQt6Core.so.6:_ZN7QObject5eventEP6QEvent
libQt6Core.so.6:_ZN7QObject9setParentEPS_
libQt6Core.so.6:_ZN7QObjectC2EPS_
libQt6Core.so.6:_ZN7QObjectD2Ev
libQt6Core.so.6:_ZN7QString10fromLatin1E14QByteArrayView
libQt6Core.so.6:_ZN7QString13toUtf8_helperERKS_
libQt6Core.so.6:_ZN7QString14compare_helperEPK5QCharxPKcxN2Qt15CaseSensitivityE
libQt6Core.so.6:_ZN7QString14toLower_helperERS_
libQt6Core.so.6:_ZN7QString14trimmed_helperERKS_
libQt6Core.so.6:_ZN7QString14trimmed_helperERS_
libQt6Core.so.6:_ZN7QString15toLatin1_helperERKS_
libQt6Core.so.6:_ZN7QString17toIntegral_helperE11QStringViewPbi
libQt6Core.so.6:_ZN7QString18toLocal8Bit_helperEPK5QCharx
libQt6Core.so.6:_ZN7QString6_emptyE
libQt6Core.so.6:_ZN7QString6appendE20QBasicUtf8StringViewILb0EE
libQt6Core.so.6:_ZN7QString6appendE5QChar
libQt6Core.so.6:_ZN7QString6appendERKS_
libQt6Core.so.6:_ZN7QString6assignE14QAnyStringView
libQt6Core.so.6:_ZN7QString6insertEx20QBasicUtf8StringViewILb0EE
libQt6Core.so.6:_ZN7QString6numberEdci
libQt6Core.so.6:_ZN7QString6numberEii
libQt6Core.so.6:_ZN7QString7replaceERKS_S1_N2Qt15CaseSensitivityE
libQt6Core.so.6:_ZN7QString8fromUtf8E14QByteArrayView
libQt6Core.so.6:_ZN7QStringC1EPK5QCharx
libQt6Core.so.6:_ZN7QStringaSE5QChar
libQt6Core.so.6:_ZN7QStringaSERKS_
libQt6Core.so.6:_ZN7QThread11qt_metacallEN11QMetaObject4CallEiPPv
libQt6Core.so.6:_ZN7QThread11qt_metacastEPKc
libQt6Core.so.6:_ZN7QThread16staticMetaObjectE
libQt6Core.so.6:_ZN7QThread4quitEv
libQt6Core.so.6:_ZN7QThread4waitE14QDeadlineTimer
libQt6Core.so.6:_ZN7QThread5eventEP6QEvent
libQt6Core.so.6:_ZN7QThread5startENS_8PriorityE
libQt6Core.so.6:_ZN7QThread7startedENS_14QPrivateSignalE
libQt6Core.so.6:_ZN7QThread9terminateEv
libQt6Core.so.6:_ZN7QThreadC1EP7QObject
libQt6Core.so.6:_ZN7QThreadC2EP7QObject
libQt6Core.so.6:_ZN7QThreadD1Ev
libQt6Core.so.6:_ZN7QThreadD2Ev
libQt6Core.so.6:_ZN8QLibrary9isLibraryERK7QString
libQt6Core.so.6:_ZN8QVariantC1E9QMetaTypePKv
libQt6Core.so.6:_ZN8QVariantC1ERK10QByteArray
libQt6Core.so.6:_ZN8QVariantC1ERK5QListI7QStringE
libQt6Core.so.6:_ZN8QVariantC1ERK7QString
libQt6Core.so.6:_ZN8QVariantC1ERKS_
libQt6Core.so.6:_ZN8QVariantC1Eb
libQt6Core.so.6:_ZN8QVariantC1Ed
libQt6Core.so.6:_ZN8QVariantC1Ei
libQt6Core.so.6:_ZN8QVariantC1Ej
libQt6Core.so.6:_ZN8QVariantC1Ey
libQt6Core.so.6:_ZN8QVariantD1Ev
libQt6Core.so.6:_ZN8QVariantaSERKS_
libQt6Core.so.6:_ZN9QFileInfoC1ERK4QDirRK7QString
libQt6Core.so.6:_ZN9QFileInfoC1ERK7QString
libQt6Core.so.6:_ZN9QFileInfoD1Ev
libQt6Core.so.6:_ZN9QHashSeed10globalSeedEv
libQt6Core.so.6:_ZN9QIODevice16staticMetaObjectE
libQt6Core.so.6:_ZN9QIODevice4readEPcx
libQt6Core.so.6:_ZN9QIODevice4readEx
libQt6Core.so.6:_ZN9QIODevice5writeERK10QByteArray
libQt6Core.so.6:_ZN9QIODevice7getCharEPc
libQt6Core.so.6:_ZN9QIODevice9readyReadEv
libQt6Core.so.6:_ZN9QMetaType14registerHelperEPKN9QtPrivate18QMetaTypeInterfaceE
libQt6Core.so.6:_ZN9QMetaType25registerConverterFunctionERKSt8functionIFbPKvPvEES_S_
libQt6Core.so.6:_ZN9QMetaType25registerNormalizedTypedefERK10QByteArrayS_
libQt6Core.so.6:_ZN9QMetaType27unregisterConverterFunctionES_S_
libQt6Core.so.6:_ZN9QMetaType7convertES_PKvS_Pv
libQt6Core.so.6:_ZN9QSettings10beginGroupE14QAnyStringView
libQt6Core.so.6:_ZN9QSettings13defaultFormatEv
libQt6Core.so.6:_ZN9QSettings13setArrayIndexEi
libQt6Core.so.6:_ZN9QSettings14beginReadArrayE14QAnyStringView
libQt6Core.so.6:_ZN9QSettings15beginWriteArrayE14QAnyStringViewi
libQt6Core.so.6:_ZN9QSettings16setDefaultFormatENS_6FormatE
libQt6Core.so.6:_ZN9QSettings16staticMetaObjectE
libQt6Core.so.6:_ZN9QSettings21setAtomicSyncRequiredEb
libQt6Core.so.6:_ZN9QSettings4syncEv
libQt6Core.so.6:_ZN9QSettings5clearEv
libQt6Core.so.6:_ZN9QSettings8endArrayEv
libQt6Core.so.6:_ZN9QSettings8endGroupEv
libQt6Core.so.6:_ZN9QSettings8setValueE14QAnyStringViewRK8QVariant
libQt6Core.so.6:_ZN9QSettingsC1EP7QObject
libQt6Core.so.6:_ZN9QSettingsC1ERK7QStringNS_6FormatEP7QObject
libQt6Core.so.6:_ZN9QSettingsD1Ev
libQt6Core.so.6:_ZN9QtPrivate12argToQStringE14QAnyStringViewmPPKNS_7ArgBaseE
libQt6Core.so.6:_ZN9QtPrivate12equalStringsE11QStringViewS0_
libQt6Core.so.6:_ZN9QtPrivate14compareStringsE11QStringViewS0_N2Qt15CaseSensitivityE
libQt6Core.so.6:_ZN9QtPrivate16QStringList_joinEPK5QListI7QStringEPK5QCharx
libQt6Core.so.6:_ZN9QtPrivate16QStringList_sortEP5QListI7QStringEN2Qt15CaseSensitivityE
libQt6Core.so.6:_ZN9QtPrivate19QStringList_indexOfERK5QListI7QStringE11QStringViewxN2Qt15CaseSensitivityE
libQt6Core.so.6:_ZN9QtPrivate20QStringList_containsEPK5QListI7QStringE11QStringViewN2Qt15CaseSensitivityE
libQt6Core.so.6:_ZN9QtPrivate25QMetaTypeInterfaceWrapperI10QByteArrayE8metaTypeE
libQt6Core.so.6:_ZN9QtPrivate25QMetaTypeInterfaceWrapperI11QModelIndexE8metaTypeE
libQt6Core.so.6:_ZN9QtPrivate25QMetaTypeInterfaceWrapperI5QListI10QByteArrayEE8metaTypeE
libQt6Core.so.6:_ZN9QtPrivate25QMetaTypeInterfaceWrapperI5QListI7QStringEE8metaTypeE
libQt6Core.so.6:_ZN9QtPrivate25QMetaTypeInterfaceWrapperI7QStringE8metaTypeE
libQt6Core.so.6:_ZN9QtPrivate25QMetaTypeInterfaceWrapperI8QVariantE8metaTypeE
libQt6Core.so.6:_ZN9QtPrivate25QMetaTypeInterfaceWrapperIbE8metaTypeE
libQt6Core.so.6:_ZN9QtPrivate25QMetaTypeInterfaceWrapperIhE8metaTypeE
libQt6Core.so.6:_ZN9QtPrivate25QMetaTypeInterfaceWrapperIiE8metaTypeE
libQt6Core.so.6:_ZN9QtPrivate25QMetaTypeInterfaceWrapperIlE8metaTypeE
libQt6Core.so.6:_ZN9QtPrivate28QStringList_removeDuplicatesEP5QListI7QStringE
libQt6Core.so.6:_ZN9QtPrivate52hasRegisteredConverterFunctionToPairVariantInterfaceE9QMetaType
libQt6Core.so.6:_ZN9QtPrivate8qustrchrE11QStringViewDs
libQt6Core.so.6:_ZNK11QDataStream26isDeviceTransactionStartedEv
libQt6Core.so.6:_ZNK11QDataStream5atEndEv
libQt6Core.so.6:_ZNK11QFileDevice6handleEv
libQt6Core.so.6:_ZNK11QMetaObject10Connection18isConnected_helperEv
libQt6Core.so.6:_ZNK11QMetaObject13indexOfMethodEPKc
libQt6Core.so.6:_ZNK11QMetaObject15indexOfPropertyEPKc
libQt6Core.so.6:_ZNK11QMetaObject2trEPKcS1_i
libQt6Core.so.6:_ZNK11QMetaObject4castEPK7QObject
libQt6Core.so.6:_ZNK11QMetaObject9classNameEv
libQt6Core.so.6:_ZNK11QObjectData17dynamicMetaObjectEv
libQt6Core.so.6:_ZNK13QPluginLoader8fileNameEv
libQt6Core.so.6:_ZNK14QMessageLogger5debugEv
libQt6Core.so.6:_ZNK14QMessageLogger5fatalEPKcz
libQt6Core.so.6:_ZNK14QMessageLogger7warningEPKcz
libQt6Core.so.6:_ZNK14QMessageLogger7warningEv
libQt6Core.so.6:_ZNK14QVersionNumber8toStringEv
libQt6Core.so.6:_ZNK18QAbstractItemModel12canFetchMoreERK11QModelIndex
libQt6Core.so.6:_ZNK18QAbstractItemModel15canDropMimeDataEPK9QMimeDataN2Qt10DropActionEiiRK11QModelIndex
libQt6Core.so.6:_ZNK18QAbstractItemModel20supportedDragActionsEv
libQt6Core.so.6:_ZNK18QAbstractItemModel20supportedDropActionsEv
libQt6Core.so.6:_ZNK18QAbstractItemModel4spanERK11QModelIndex
libQt6Core.so.6:_ZNK18QAbstractItemModel5buddyERK11QModelIndex
libQt6Core.so.6:_ZNK18QAbstractItemModel5matchERK11QModelIndexiRK8QVarianti6QFlagsIN2Qt9MatchFlagEE
libQt6Core.so.6:_ZNK18QAbstractItemModel8itemDataERK11QModelIndex
libQt6Core.so.6:_ZNK18QAbstractItemModel8mimeDataERK5QListI11QModelIndexE
libQt6Core.so.6:_ZNK18QAbstractItemModel9mimeTypesEv
libQt6Core.so.6:_ZNK18QAbstractItemModel9multiDataERK11QModelIndex18QModelRoleDataSpan
libQt6Core.so.6:_ZNK18QAbstractItemModel9roleNamesEv
libQt6Core.so.6:_ZNK18QCommandLineParser19positionalArgumentsEv
libQt6Core.so.6:_ZNK18QCommandLineParser5isSetERK18QCommandLineOption
libQt6Core.so.6:_ZNK18QCommandLineParser5valueERK18QCommandLineOption
libQt6Core.so.6:_ZNK18QRegularExpression11globalMatchERK7QStringxNS_9MatchTypeE6QFlagsINS_11MatchOptionEE
libQt6Core.so.6:_ZNK18QRegularExpression5matchERK7QStringxNS_9MatchTypeE6QFlagsINS_11MatchOptionEE
libQt6Core.so.6:_ZNK19QAbstractTableModel11hasChildrenERK11QModelIndex
libQt6Core.so.6:_ZNK19QAbstractTableModel5flagsERK11QModelIndex
libQt6Core.so.6:_ZNK19QAbstractTableModel5indexEiiRK11QModelIndex
libQt6Core.so.6:_ZNK19QAbstractTableModel6parentERK11QModelIndex
libQt6Core.so.6:_ZNK19QAbstractTableModel7siblingEiiRK11QModelIndex
libQt6Core.so.6:_ZNK23QRegularExpressionMatch8capturedEi
libQt6Core.so.6:_ZNK23QRegularExpressionMatch8hasMatchEv
libQt6Core.so.6:_ZNK31QRegularExpressionMatchIterator7hasNextEv
libQt6Core.so.6:_ZNK4QDir12absolutePathEv
libQt6Core.so.6:_ZNK4QDir13entryInfoListE6QFlagsINS_6FilterEES0_INS_8SortFlagEE
libQt6Core.so.6:_ZNK4QDir13entryInfoListERK5QListI7QStringE6QFlagsINS_6FilterEES5_INS_8SortFlagEE
libQt6Core.so.6:_ZNK4QDir16absoluteFilePathERK7QString
libQt6Core.so.6:_ZNK4QDir6existsEv
libQt6Core.so.6:_ZNK4QDir9entryListE6QFlagsINS_6FilterEES0_INS_8SortFlagEE
libQt6Core.so.6:_ZNK4QUrl11toLocalFileEv
libQt6Core.so.6:_ZNK7QLocale4nameENS_12TagSeparatorE
libQt6Core.so.6:_ZNK7QLocale8languageEv
libQt6Core.so.6:_ZNK7QObject10objectNameEv
libQt6Core.so.6:_ZNK7QObject17isSignalConnectedERK11QMetaMethod
libQt6Core.so.6:_ZNK7QObject8propertyEPKc
libQt6Core.so.6:_ZNK7QString10startsWithERKS_N2Qt15CaseSensitivityE
libQt6Core.so.6:_ZNK7QString13leftJustifiedEx5QCharb
libQt6Core.so.6:_ZNK7QString5splitE5QChar6QFlagsIN2Qt18SplitBehaviorFlagsEENS2_15CaseSensitivityE
libQt6Core.so.6:_ZNK7QString5splitERKS_6QFlagsIN2Qt18SplitBehaviorFlagsEENS3_15CaseSensitivityE
libQt6Core.so.6:_ZNK7QString7compareERKS_N2Qt15CaseSensitivityE
libQt6Core.so.6:_ZNK7QString8arg_implE14QAnyStringViewi5QChar
libQt6Core.so.6:_ZNK7QString8arg_implEdici5QChar
libQt6Core.so.6:_ZNK7QString8arg_implExii5QChar
libQt6Core.so.6:_ZNK7QString8arg_implEyii5QChar
libQt6Core.so.6:_ZNK7QString8endsWithERKS_N2Qt15CaseSensitivityE
libQt6Core.so.6:_ZNK7QString8toDoubleEPb
libQt6Core.so.6:_ZNK7QThread10isFinishedEv
libQt6Core.so.6:_ZNK7QThread10metaObjectEv
libQt6Core.so.6:_ZNK7QThread8priorityEv
libQt6Core.so.6:_ZNK7QThread9isRunningEv
libQt6Core.so.6:_ZNK8QVariant10toLongLongEPb
libQt6Core.so.6:_ZNK8QVariant11toByteArrayEv
libQt6Core.so.6:_ZNK8QVariant12qdebugHelperE6QDebug
libQt6Core.so.6:_ZNK8QVariant12toStringListEv
libQt6Core.so.6:_ZNK8QVariant5toIntEPb
libQt6Core.so.6:_ZNK8QVariant6equalsERKS_
libQt6Core.so.6:_ZNK8QVariant6toBoolEv
libQt6Core.so.6:_ZNK8QVariant6toUIntEPb
libQt6Core.so.6:_ZNK8QVariant8toDoubleEPb
libQt6Core.so.6:_ZNK8QVariant8toStringEv
libQt6Core.so.6:_ZNK9QFileInfo11absoluteDirEv
libQt6Core.so.6:_ZNK9QFileInfo12absolutePathEv
libQt6Core.so.6:_ZNK9QFileInfo16absoluteFilePathEv
libQt6Core.so.6:_ZNK9QFileInfo17canonicalFilePathEv
libQt6Core.so.6:_ZNK9QFileInfo4sizeEv
libQt6Core.so.6:_ZNK9QFileInfo5isDirEv
libQt6Core.so.6:_ZNK9QFileInfo6existsEv
libQt6Core.so.6:_ZNK9QFileInfo6isFileEv
libQt6Core.so.6:_ZNK9QFileInfo6suffixEv
libQt6Core.so.6:_ZNK9QFileInfo8baseNameEv
libQt6Core.so.6:_ZNK9QFileInfo8fileNameEv
libQt6Core.so.6:_ZNK9QIODevice11errorStringEv
libQt6Core.so.6:_ZNK9QMimeData4urlsEv
libQt6Core.so.6:_ZNK9QMimeData7hasUrlsEv
libQt6Core.so.6:_ZNK9QSettings5valueE14QAnyStringView
libQt6Core.so.6:_ZNK9QSettings5valueE14QAnyStringViewRK8QVariant
libQt6Core.so.6:_ZNK9QSettings7allKeysEv
libQt6Core.so.6:_ZNKR7QString3midExx
libQt6Core.so.6:_ZTI19QAbstractTableModel
libQt6Core.so.6:_ZTI6QEvent
libQt6Core.so.6:_ZTI7QObject
libQt6Core.so.6:_ZTI7QThread
libQt6Core.so.6:_Zls6QDebugRK7QLocale
libQt6Core.so.6:_ZlsR11QDataStreamRK7QString
libQt6Core.so.6:_ZlsR11QDataStreamRK8QVariant
libQt6Core.so.6:_ZrsR11QDataStreamR7QString
libQt6Core.so.6:_ZrsR11QDataStreamR8QVariant
libQt6Core.so.6:qVersion
libQt6Core.so.6:qt_version_tag
libQt6Core5Compat.so.6:_ZN10QTextCodec12codecForNameERK10QByteArray
libQt6Core5Compat.so.6:_ZN10QTextCodec14codecForLocaleEv
libQt6Core5Compat.so.6:_ZNK10QTextCodec11fromUnicodeERK7QString
libQt6Core5Compat.so.6:_ZNK10QTextCodec9toUnicodeERK10QByteArray
libQt6DBus.so.6:_ZN12QDBusMessageD1Ev
libQt6DBus.so.6:_ZN14QDBusInterfaceC1ERK7QStringS2_S2_RK15QDBusConnectionP7QObject
libQt6DBus.so.6:_ZN14QDBusInterfaceD1Ev
libQt6DBus.so.6:_ZN15QDBusConnection9systemBusEv
libQt6DBus.so.6:_ZN15QDBusConnectionD1Ev
libQt6DBus.so.6:_ZN22QDBusAbstractInterface6doCallEN5QDBus8CallModeERK7QStringPK8QVariantm
libQt6DBus.so.6:_ZNK12QDBusMessage12errorMessageEv
libQt6DBus.so.6:_ZNK12QDBusMessage4typeEv
libQt6Gui.so.6:_ZN11QEventPointD1Ev
libQt6Gui.so.6:_ZN12QActionGroup12setExclusiveEb
libQt6Gui.so.6:_ZN12QActionGroup16staticMetaObjectE
libQt6Gui.so.6:_ZN12QActionGroup9addActionEP7QAction
libQt6Gui.so.6:_ZN12QActionGroup9triggeredEP7QAction
libQt6Gui.so.6:_ZN12QActionGroupC1EP7QObject
libQt6Gui.so.6:_ZN12QInputDevice7devicesEv
libQt6Gui.so.6:_ZN12QKeySequenceC1ENS_11StandardKeyE
libQt6Gui.so.6:_ZN12QKeySequenceC1Eiiii
libQt6Gui.so.6:_ZN12QKeySequenceD1Ev
libQt6Gui.so.6:_ZN13QTextDocument18setUndoRedoEnabledEb
libQt6Gui.so.6:_ZN15QGuiApplication18setDesktopFileNameERK7QString
libQt6Gui.so.6:_ZN15QGuiApplication4fontEv
libQt6Gui.so.6:_ZN15QGuiApplication7paletteEv
libQt6Gui.so.6:_ZN4QPenC1ERK6QBrushdN2Qt8PenStyleENS3_11PenCapStyleENS3_12PenJoinStyleE
libQt6Gui.so.6:_ZN4QPenD1Ev
libQt6Gui.so.6:_ZN5QFont10fromStringERK7QString
libQt6Gui.so.6:_ZN5QFont12setPointSizeEi
libQt6Gui.so.6:_ZN5QFont16staticMetaObjectE
libQt6Gui.so.6:_ZN5QFontC1ERKS_
libQt6Gui.so.6:_ZN5QFontC1Ev
libQt6Gui.so.6:_ZN5QFontD1Ev
libQt6Gui.so.6:_ZN5QFontaSERKS_
libQt6Gui.so.6:_ZN5QIcon7addFileERK7QStringRK5QSizeNS_4ModeENS_5StateE
libQt6Gui.so.6:_ZN5QIconC1ERK7QPixmap
libQt6Gui.so.6:_ZN5QIconC1ERK7QString
libQt6Gui.so.6:_ZN5QIconC1Ev
libQt6Gui.so.6:_ZN5QIconD1Ev
libQt6Gui.so.6:_ZN6QBrush8setStyleEN2Qt10BrushStyleE
libQt6Gui.so.6:_ZN6QBrushC1EN2Qt11GlobalColorENS0_10BrushStyleE
libQt6Gui.so.6:_ZN6QBrushC1ERK6QColorN2Qt10BrushStyleE
libQt6Gui.so.6:_ZN6QBrushC1Ev
libQt6Gui.so.6:_ZN6QBrushD1Ev
libQt6Gui.so.6:_ZN6QBrushaSE6QColor
libQt6Gui.so.6:_ZN6QBrushaSERKS_
libQt6Gui.so.6:_ZN6QColor10fromStringE14QAnyStringView
libQt6Gui.so.6:_ZN6QColor7fromRgbEiiii
libQt6Gui.so.6:_ZN6QColor8fromRgbaEj
libQt6Gui.so.6:_ZN6QColorC1EN2Qt11GlobalColorE
libQt6Gui.so.6:_ZN7QAction10setCheckedEb
libQt6Gui.so.6:_ZN7QAction10setEnabledEb
libQt6Gui.so.6:_ZN7QAction10setToolTipERK7QString
libQt6Gui.so.6:_ZN7QAction11setIconTextERK7QString
libQt6Gui.so.6:_ZN7QAction11setShortcutERK12QKeySequence
libQt6Gui.so.6:_ZN7QAction12setCheckableEb
libQt6Gui.so.6:_ZN7QAction12setStatusTipERK7QString
libQt6Gui.so.6:_ZN7QAction13setAutoRepeatEb
libQt6Gui.so.6:_ZN7QAction16staticMetaObjectE
libQt6Gui.so.6:_ZN7QAction7setIconERK5QIcon
libQt6Gui.so.6:_ZN7QAction7setTextERK7QString
libQt6Gui.so.6:_ZN7QAction7toggledEb
libQt6Gui.so.6:_ZN7QAction9triggeredEb
libQt6Gui.so.6:_ZN7QActionC1EP7QObject
libQt6Gui.so.6:_ZN7QCursor3posEv
libQt6Gui.so.6:_ZN7QPixmapC1ERK7QStringPKc6QFlagsIN2Qt19ImageConversionFlagEE
libQt6Gui.so.6:_ZN7QPixmapC1ERKS_
libQt6Gui.so.6:_ZN7QPixmapC1Ev
libQt6Gui.so.6:_ZN7QPixmapD1Ev
libQt6Gui.so.6:_ZN7QPixmapaSERKS_
libQt6Gui.so.6:_ZN8QPainter10drawPixmapERK6QRectFRK7QPixmapS2_
libQt6Gui.so.6:_ZN8QPainter14setRenderHintsE6QFlagsINS_10RenderHintEEb
libQt6Gui.so.6:_ZN8QPainter15drawRoundedRectERK6QRectFddN2Qt8SizeModeE
libQt6Gui.so.6:_ZN8QPainter18setCompositionModeENS_15CompositionModeE
libQt6Gui.so.6:_ZN8QPainter6setPenERK4QPen
libQt6Gui.so.6:_ZN8QPainter8fillRectERK5QRectRK6QColor
libQt6Gui.so.6:_ZN8QPainter8setBrushERK6QBrush
libQt6Gui.so.6:_ZN8QPainterC1EP12QPaintDevice
libQt6Gui.so.6:_ZN8QPainterD1Ev
libQt6Gui.so.6:_ZN8QPalette8setBrushENS_10ColorGroupENS_9ColorRoleERK6QBrush
libQt6Gui.so.6:_ZN8QPaletteC1Ev
libQt6Gui.so.6:_ZN8QPaletteD1Ev
libQt6Gui.so.6:_ZN9QShortcut16staticMetaObjectE
libQt6Gui.so.6:_ZN9QShortcut9activatedEv
libQt6Gui.so.6:_ZN9QShortcutC1ERK12QKeySequenceP7QObjectPKcS6_N2Qt15ShortcutContextE
libQt6Gui.so.6:_ZNK11QEventPoint2idEv
libQt6Gui.so.6:_ZNK11QEventPoint5stateEv
libQt6Gui.so.6:_ZNK11QEventPoint8positionEv
libQt6Gui.so.6:_ZNK11QEventPoint8pressureEv
libQt6Gui.so.6:_ZNK12QInputDevice12capabilitiesEv
libQt6Gui.so.6:_ZNK12QInputDevice4typeEv
libQt6Gui.so.6:_ZNK5QFont6familyEv
libQt6Gui.so.6:_ZNK5QFont9pointSizeEv
libQt6Gui.so.6:_ZNK5QFonteqERKS_
libQt6Gui.so.6:_ZNK5QFontltERKS_
libQt6Gui.so.6:_ZNK6QColor4rgbaEv
libQt6Gui.so.6:_ZNK6QColor7lighterEi
libQt6Gui.so.6:_ZNK6QColorcv8QVariantEv
libQt6Gui.so.6:_ZNK6QColoreqERKS_
libQt6Gui.so.6:_ZNK6QColorneERKS_
libQt6Gui.so.6:_ZNK7QAction9isCheckedEv
libQt6Gui.so.6:_ZNK7QPixmap4rectEv
libQt6Gui.so.6:_ZNK7QPixmap6isNullEv
libQt6Gui.so.6:_ZNK8QPalette5brushENS_10ColorGroupENS_9ColorRoleE
libQt6Gui.so.6:_ZNK8QPolygon12boundingRectEv
libQt6Gui.so.6:_Zls6QDebugRK5QFont
libQt6Gui.so.6:_Zls6QDebugRK6QColor
libQt6Gui.so.6:_ZlsR11QDataStreamRK5QFont
libQt6Gui.so.6:_ZlsR11QDataStreamRK6QColor
libQt6Gui.so.6:_ZlsR11QDataStreamRK7QPixmap
libQt6Gui.so.6:_ZrsR11QDataStreamR5QFont
libQt6Gui.so.6:_ZrsR11QDataStreamR6QColor
libQt6Gui.so.6:_ZrsR11QDataStreamR7QPixmap
libQt6Network.so.6:_ZN10QUdpSocket12readDatagramEPcxP12QHostAddressPt
libQt6Network.so.6:_ZN10QUdpSocket13writeDatagramEPKcxRK12QHostAddresst
libQt6Network.so.6:_ZN10QUdpSocket18joinMulticastGroupERK12QHostAddress
libQt6Network.so.6:_ZN10QUdpSocket18joinMulticastGroupERK12QHostAddressRK17QNetworkInterface
libQt6Network.so.6:_ZN10QUdpSocket21setMulticastInterfaceERK17QNetworkInterface
libQt6Network.so.6:_ZN10QUdpSocketC1EP7QObject
libQt6Network.so.6:_ZN12QHostAddress10setAddressERK7QString
libQt6Network.so.6:_ZN12QHostAddressC1ENS_14SpecialAddressE
libQt6Network.so.6:_ZN12QHostAddressC1ERK7QString
libQt6Network.so.6:_ZN12QHostAddressD1Ev
libQt6Network.so.6:_ZN17QNetworkInterface13allInterfacesEv
libQt6Network.so.6:_ZN17QNetworkInterface17interfaceFromNameERK7QString
libQt6Network.so.6:_ZN17QNetworkInterfaceC1Ev
libQt6Network.so.6:_ZN17QNetworkInterfaceD1Ev
libQt6Network.so.6:_ZNK10QUdpSocket19hasPendingDatagramsEv
libQt6Network.so.6:_ZNK10QUdpSocket19pendingDatagramSizeEv
libQt6Network.so.6:_ZNK12QHostAddress11isMulticastEv
libQt6Network.so.6:_ZNK12QHostAddress8toStringEv
libQt6Network.so.6:_ZNK15QAbstractSocket5errorEv
libQt6Network.so.6:_ZNK15QAbstractSocket5stateEv
libQt6Network.so.6:_ZNK15QAbstractSocket7isValidEv
libQt6Network.so.6:_ZNK15QAbstractSocket9localPortEv
libQt6Network.so.6:_ZNK17QNetworkInterface17humanReadableNameEv
libQt6Network.so.6:_ZNK17QNetworkInterface4nameEv
libQt6Network.so.6:_ZNK17QNetworkInterface5flagsEv
libQt6Network.so.6:_ZNK17QNetworkInterface7isValidEv
libQt6Widgets.so.6:_ZN10QBoxLayout10setSpacingEi
libQt6Widgets.so.6:_ZN10QBoxLayout9addWidgetEP7QWidgeti6QFlagsIN2Qt13AlignmentFlagEE
libQt6Widgets.so.6:_ZN10QStatusBar11showMessageERK7QStringi
libQt6Widgets.so.6:_ZN10QStatusBar12clearMessageEv
libQt6Widgets.so.6:_ZN10QStatusBar18setSizeGripEnabledEb
libQt6Widgets.so.6:_ZN10QStatusBarC1EP7QWidget
libQt6Widgets.so.6:_ZN10QTableView12selectColumnEi
libQt6Widgets.so.6:_ZN10QTableView20resizeRowsToContentsEv
libQt6Widgets.so.6:_ZN10QTableView23resizeColumnsToContentsEv
libQt6Widgets.so.6:_ZN10QTableViewC1EP7QWidget
libQt6Widgets.so.6:_ZN11QFileDialog15getOpenFileNameEP7QWidgetRK7QStringS4_S4_PS2_6QFlagsINS_6OptionEE
libQt6Widgets.so.6:_ZN11QFileDialog16getOpenFileNamesEP7QWidgetRK7QStringS4_S4_PS2_6QFlagsINS_6OptionEE
libQt6Widgets.so.6:_ZN11QFontDialog7getFontEPbRK5QFontP7QWidgetRK7QString6QFlagsINS_16FontDialogOptionEE
libQt6Widgets.so.6:_ZN11QFormLayout10setSpacingEi
libQt6Widgets.so.6:_ZN11QFormLayout20setFieldGrowthPolicyENS_17FieldGrowthPolicyE
libQt6Widgets.so.6:_ZN11QFormLayout9setWidgetEiNS_8ItemRoleEP7QWidget
libQt6Widgets.so.6:_ZN11QFormLayoutC1EP7QWidget
libQt6Widgets.so.6:_ZN11QGridLayout10setSpacingEi
libQt6Widgets.so.6:_ZN11QGridLayout16setColumnStretchEii
libQt6Widgets.so.6:_ZN11QGridLayout7addItemEP11QLayoutItemiiii6QFlagsIN2Qt13AlignmentFlagEE
libQt6Widgets.so.6:_ZN11QGridLayout9addLayoutEP7QLayoutiiii6QFlagsIN2Qt13AlignmentFlagEE
libQt6Widgets.so.6:_ZN11QGridLayout9addWidgetEP7QWidgetiiii6QFlagsIN2Qt13AlignmentFlagEE
libQt6Widgets.so.6:_ZN11QGridLayoutC1EP7QWidget
libQt6Widgets.so.6:_ZN11QHBoxLayoutC1EP7QWidget
libQt6Widgets.so.6:_ZN11QHBoxLayoutC1Ev
libQt6Widgets.so.6:_ZN11QMainWindow10addToolBarEN2Qt11ToolBarAreaEP8QToolBar
libQt6Widgets.so.6:_ZN11QMainWindow10setMenuBarEP8QMenuBar
libQt6Widgets.so.6:_ZN11QMainWindow11qt_metacallEN11QMetaObject4CallEiPPv
libQt6Widgets.so.6:_ZN11QMainWindow11qt_metacastEPKc
libQt6Widgets.so.6:_ZN11QMainWindow12restoreStateERK10QByteArrayi
libQt6Widgets.so.6:_ZN11QMainWindow12setStatusBarEP10QStatusBar
libQt6Widgets.so.6:_ZN11QMainWindow15createPopupMenuEv
libQt6Widgets.so.6:_ZN11QMainWindow16contextMenuEventEP17QContextMenuEvent
libQt6Widgets.so.6:_ZN11QMainWindow16setCentralWidgetEP7QWidget
libQt6Widgets.so.6:_ZN11QMainWindow16staticMetaObjectE
libQt6Widgets.so.6:_ZN11QMainWindow5eventEP6QEvent
libQt6Widgets.so.6:_ZN11QMainWindowC2EP7QWidget6QFlagsIN2Qt10WindowTypeEE
libQt6Widgets.so.6:_ZN11QMainWindowD2Ev
libQt6Widgets.so.6:_ZN11QMessageBox11informationEP7QWidgetRK7QStringS4_6QFlagsINS_14StandardButtonEES6_
libQt6Widgets.so.6:_ZN11QMessageBox7warningEP7QWidgetRK7QStringS4_6QFlagsINS_14StandardButtonEES6_
libQt6Widgets.so.6:_ZN11QMessageBox8criticalEP7QWidgetRK7QStringS4_6QFlagsINS_14StandardButtonEES6_
libQt6Widgets.so.6:_ZN11QPushButtonC1EP7QWidget
libQt6Widgets.so.6:_ZN11QToolButtonC1EP7QWidget
libQt6Widgets.so.6:_ZN11QVBoxLayoutC1EP7QWidget
libQt6Widgets.so.6:_ZN12QApplication4execEv
libQt6Widgets.so.6:_ZN12QApplication7aboutQtEv
libQt6Widgets.so.6:_ZN12QApplicationC1ERiPPci
libQt6Widgets.so.6:_ZN12QApplicationD1Ev
libQt6Widgets.so.6:_ZN12QInputDialog16getMultiLineTextEP7QWidgetRK7QStringS4_S4_Pb6QFlagsIN2Qt10WindowTypeEES6_INS7_15InputMethodHintEE
libQt6Widgets.so.6:_ZN12QInputDialog7getItemEP7QWidgetRK7QStringS4_RK5QListIS2_EibPb6QFlagsIN2Qt10WindowTypeEESA_INSB_15InputMethodHintEE
libQt6Widgets.so.6:_ZN12QProgressBar12setAlignmentE6QFlagsIN2Qt13AlignmentFlagEE
libQt6Widgets.so.6:_ZN12QProgressBar14setTextVisibleEb
libQt6Widgets.so.6:_ZN12QProgressBar16setTextDirectionENS_9DirectionE
libQt6Widgets.so.6:_ZN12QProgressBar8setValueEi
libQt6Widgets.so.6:_ZN12QProgressBarC1EP7QWidget
libQt6Widgets.so.6:_ZN12QTextBrowser20setOpenExternalLinksEb
libQt6Widgets.so.6:_ZN12QTextBrowserC1EP7QWidget
libQt6Widgets.so.6:_ZN13QGraphicsItem10itemChangeENS_18GraphicsItemChangeERK8QVariant
libQt6Widgets.so.6:_ZN13QGraphicsItem10sceneEventEP6QEvent
libQt6Widgets.so.6:_ZN13QGraphicsItem10setVisibleEb
libQt6Widgets.so.6:_ZN13QGraphicsItem10wheelEventEP24QGraphicsSceneWheelEvent
libQt6Widgets.so.6:_ZN13QGraphicsItem11setRotationEd
libQt6Widgets.so.6:_ZN13QGraphicsItem12focusInEventEP11QFocusEvent
libQt6Widgets.so.6:_ZN13QGraphicsItem13dragMoveEventEP27QGraphicsSceneDragDropEvent
libQt6Widgets.so.6:_ZN13QGraphicsItem13ensureVisibleERK6QRectFii
libQt6Widgets.so.6:_ZN13QGraphicsItem13focusOutEventEP11QFocusEvent
libQt6Widgets.so.6:_ZN13QGraphicsItem13keyPressEventEP9QKeyEvent
libQt6Widgets.so.6:_ZN13QGraphicsItem14dragEnterEventEP27QGraphicsSceneDragDropEvent
libQt6Widgets.so.6:_ZN13QGraphicsItem14dragLeaveEventEP27QGraphicsSceneDragDropEvent
libQt6Widgets.so.6:_ZN13QGraphicsItem14hoverMoveEventEP24QGraphicsSceneHoverEvent
libQt6Widgets.so.6:_ZN13QGraphicsItem14mouseMoveEventEP24QGraphicsSceneMouseEvent
libQt6Widgets.so.6:_ZN13QGraphicsItem15hoverEnterEventEP24QGraphicsSceneHoverEvent
libQt6Widgets.so.6:_ZN13QGraphicsItem15hoverLeaveEventEP24QGraphicsSceneHoverEvent
libQt6Widgets.so.6:_ZN13QGraphicsItem15keyReleaseEventEP9QKeyEvent
libQt6Widgets.so.6:_ZN13QGraphicsItem15mousePressEventEP24QGraphicsSceneMouseEvent
libQt6Widgets.so.6:_ZN13QGraphicsItem16contextMenuEventEP30QGraphicsSceneContextMenuEvent
libQt6Widgets.so.6:_ZN13QGraphicsItem16inputMethodEventEP17QInputMethodEvent
libQt6Widgets.so.6:_ZN13QGraphicsItem16sceneEventFilterEPS_P6QEvent
libQt6Widgets.so.6:_ZN13QGraphicsItem17mouseReleaseEventEP24QGraphicsSceneMouseEvent
libQt6Widgets.so.6:_ZN13QGraphicsItem20setAcceptTouchEventsEb
libQt6Widgets.so.6:_ZN13QGraphicsItem21mouseDoubleClickEventEP24QGraphicsSceneMouseEvent
libQt6Widgets.so.6:_ZN13QGraphicsItem23setAcceptedMouseButtonsE6QFlagsIN2Qt11MouseButtonEE
libQt6Widgets.so.6:_ZN13QGraphicsItem6setPosERK7QPointF
libQt6Widgets.so.6:_ZN13QGraphicsItem6updateERK6QRectF
libQt6Widgets.so.6:_ZN13QGraphicsItem7advanceEi
libQt6Widgets.so.6:_ZN13QGraphicsItem7setFlagENS_16GraphicsItemFlagEb
libQt6Widgets.so.6:_ZN13QGraphicsItem9dropEventEP27QGraphicsSceneDragDropEvent
libQt6Widgets.so.6:_ZN13QGraphicsItem9setZValueEd
libQt6Widgets.so.6:_ZN13QGraphicsView10paintEventEP11QPaintEvent
libQt6Widgets.so.6:_ZN13QGraphicsView10wheelEventEP11QWheelEvent
libQt6Widgets.so.6:_ZN13QGraphicsView11qt_metacallEN11QMetaObject4CallEiPPv
libQt6Widgets.so.6:_ZN13QGraphicsView11qt_metacastEPKc
libQt6Widgets.so.6:_ZN13QGraphicsView11resizeEventEP12QResizeEvent
libQt6Widgets.so.6:_ZN13QGraphicsView12focusInEventEP11QFocusEvent
libQt6Widgets.so.6:_ZN13QGraphicsView13dragMoveEventEP14QDragMoveEvent
libQt6Widgets.so.6:_ZN13QGraphicsView13focusOutEventEP11QFocusEvent
libQt6Widgets.so.6:_ZN13QGraphicsView13keyPressEventEP9QKeyEvent
libQt6Widgets.so.6:_ZN13QGraphicsView13setupViewportEP7QWidget
libQt6Widgets.so.6:_ZN13QGraphicsView13viewportEventEP6QEvent
libQt6Widgets.so.6:_ZN13QGraphicsView14dragEnterEventEP15QDragEnterEvent
libQt6Widgets.so.6:_ZN13QGraphicsView14dragLeaveEventEP15QDragLeaveEvent
libQt6Widgets.so.6:_ZN13QGraphicsView14drawBackgroundEP8QPainterRK6QRectF
libQt6Widgets.so.6:_ZN13QGraphicsView14drawForegroundEP8QPainterRK6QRectF
libQt6Widgets.so.6:_ZN13QGraphicsView14mouseMoveEventEP11QMouseEvent
libQt6Widgets.so.6:_ZN13QGraphicsView14resetTransformEv
libQt6Widgets.so.6:_ZN13QGraphicsView14setRenderHintsE6QFlagsIN8QPainter10RenderHintEE
libQt6Widgets.so.6:_ZN13QGraphicsView15keyReleaseEventEP9QKeyEvent
libQt6Widgets.so.6:_ZN13QGraphicsView15mousePressEventEP11QMouseEvent
libQt6Widgets.so.6:_ZN13QGraphicsView16contextMenuEventEP17QContextMenuEvent
libQt6Widgets.so.6:_ZN13QGraphicsView16inputMethodEventEP17QInputMethodEvent
libQt6Widgets.so.6:_ZN13QGraphicsView16scrollContentsByEii
libQt6Widgets.so.6:_ZN13QGraphicsView16staticMetaObjectE
libQt6Widgets.so.6:_ZN13QGraphicsView17mouseReleaseEventEP11QMouseEvent
libQt6Widgets.so.6:_ZN13QGraphicsView18focusNextPrevChildEb
libQt6Widgets.so.6:_ZN13QGraphicsView19setOptimizationFlagENS_16OptimizationFlagEb
libQt6Widgets.so.6:_ZN13QGraphicsView21mouseDoubleClickEventEP11QMouseEvent
libQt6Widgets.so.6:_ZN13QGraphicsView21setViewportUpdateModeENS_18ViewportUpdateModeE
libQt6Widgets.so.6:_ZN13QGraphicsView5eventEP6QEvent
libQt6Widgets.so.6:_ZN13QGraphicsView6rotateEd
libQt6Widgets.so.6:_ZN13QGraphicsView8setSceneEP14QGraphicsScene
libQt6Widgets.so.6:_ZN13QGraphicsView9drawItemsEP8QPainteriPP13QGraphicsItemPK24QStyleOptionGraphicsItem
libQt6Widgets.so.6:_ZN13QGraphicsView9dropEventEP10QDropEvent
libQt6Widgets.so.6:_ZN13QGraphicsView9fitInViewERK6QRectFN2Qt15AspectRatioModeE
libQt6Widgets.so.6:_ZN13QGraphicsView9showEventEP10QShowEvent
libQt6Widgets.so.6:_ZN13QGraphicsViewC2EP7QWidget
libQt6Widgets.so.6:_ZN13QGraphicsViewD2Ev
libQt6Widgets.so.6:_ZN14QDoubleSpinBox10setMaximumEd
libQt6Widgets.so.6:_ZN14QDoubleSpinBox13setSingleStepEd
libQt6Widgets.so.6:_ZN14QDoubleSpinBox8setValueEd
libQt6Widgets.so.6:_ZN14QDoubleSpinBoxC1EP7QWidget
libQt6Widgets.so.6:_ZN14QGraphicsScene10invalidateERK6QRectF6QFlagsINS_10SceneLayerEE
libQt6Widgets.so.6:_ZN14QGraphicsScene10wheelEventEP24QGraphicsSceneWheelEvent
libQt6Widgets.so.6:_ZN14QGraphicsScene11eventFilterEP7QObjectP6QEvent
libQt6Widgets.so.6:_ZN14QGraphicsScene11qt_metacallEN11QMetaObject4CallEiPPv
libQt6Widgets.so.6:_ZN14QGraphicsScene11qt_metacastEPKc
libQt6Widgets.so.6:_ZN14QGraphicsScene12focusInEventEP11QFocusEvent
libQt6Widgets.so.6:_ZN14QGraphicsScene13dragMoveEventEP27QGraphicsSceneDragDropEvent
libQt6Widgets.so.6:_ZN14QGraphicsScene13focusOutEventEP11QFocusEvent
libQt6Widgets.so.6:_ZN14QGraphicsScene14dragEnterEventEP27QGraphicsSceneDragDropEvent
libQt6Widgets.so.6:_ZN14QGraphicsScene14dragLeaveEventEP27QGraphicsSceneDragDropEvent
libQt6Widgets.so.6:_ZN14QGraphicsScene14drawBackgroundEP8QPainterRK6QRectF
libQt6Widgets.so.6:_ZN14QGraphicsScene14drawForegroundEP8QPainterRK6QRectF
libQt6Widgets.so.6:_ZN14QGraphicsScene16contextMenuEventEP30QGraphicsSceneContextMenuEvent
libQt6Widgets.so.6:_ZN14QGraphicsScene16inputMethodEventEP17QInputMethodEvent
libQt6Widgets.so.6:_ZN14QGraphicsScene16staticMetaObjectE
libQt6Widgets.so.6:_ZN14QGraphicsScene18focusNextPrevChildEb
libQt6Widgets.so.6:_ZN14QGraphicsScene21mouseDoubleClickEventEP24QGraphicsSceneMouseEvent
libQt6Widgets.so.6:_ZN14QGraphicsScene5eventEP6QEvent
libQt6Widgets.so.6:_ZN14QGraphicsScene7addItemEP13QGraphicsItem
libQt6Widgets.so.6:_ZN14QGraphicsScene7setFontERK5QFont
libQt6Widgets.so.6:_ZN14QGraphicsScene9drawItemsEP8QPainteriPP13QGraphicsItemPK24QStyleOptionGraphicsItemP7QWidget
libQt6Widgets.so.6:_ZN14QGraphicsScene9dropEventEP27QGraphicsSceneDragDropEvent
libQt6Widgets.so.6:_ZN14QGraphicsScene9helpEventEP23QGraphicsSceneHelpEvent
libQt6Widgets.so.6:_ZN14QGraphicsSceneC2ERK6QRectFP7QObject
libQt6Widgets.so.6:_ZN14QGraphicsSceneD2Ev
libQt6Widgets.so.6:_ZN15QAbstractButton10setCheckedEb
libQt6Widgets.so.6:_ZN15QAbstractButton11setShortcutERK12QKeySequence
libQt6Widgets.so.6:_ZN15QAbstractButton16staticMetaObjectE
libQt6Widgets.so.6:_ZN15QAbstractButton7clickedEb
libQt6Widgets.so.6:_ZN15QAbstractButton7pressedEv
libQt6Widgets.so.6:_ZN15QAbstractButton7setIconERK5QIcon
libQt6Widgets.so.6:_ZN15QAbstractButton7setTextERK7QString
libQt6Widgets.so.6:_ZN15QAbstractButton7toggledEb
libQt6Widgets.so.6:_ZN15QAbstractSlider10setMaximumEi
libQt6Widgets.so.6:_ZN15QAbstractSlider10setMinimumEi
libQt6Widgets.so.6:_ZN15QAbstractSlider11setPageStepEi
libQt6Widgets.so.6:_ZN15QAbstractSlider11setTrackingEb
libQt6Widgets.so.6:_ZN15QAbstractSlider12valueChangedEi
libQt6Widgets.so.6:_ZN15QAbstractSlider13setSingleStepEi
libQt6Widgets.so.6:_ZN15QAbstractSlider14setOrientationEN2Qt11OrientationE
libQt6Widgets.so.6:_ZN15QAbstractSlider16staticMetaObjectE
libQt6Widgets.so.6:_ZN15QAbstractSlider8setValueEi
libQt6Widgets.so.6:_ZN15QGraphicsObject5eventEP6QEvent
libQt6Widgets.so.6:_ZN15QProgressDialog18setMinimumDurationEi
libQt6Widgets.so.6:_ZN15QProgressDialog8setValueEi
libQt6Widgets.so.6:_ZN15QProgressDialogC1ERK7QStringS2_iiP7QWidget6QFlagsIN2Qt10WindowTypeEE
libQt6Widgets.so.6:_ZN16QDialogButtonBox14setOrientationEN2Qt11OrientationE
libQt6Widgets.so.6:_ZN16QDialogButtonBox16staticMetaObjectE
libQt6Widgets.so.6:_ZN16QDialogButtonBox18setStandardButtonsE6QFlagsINS_14StandardButtonEE
libQt6Widgets.so.6:_ZN16QDialogButtonBox7clickedEP15QAbstractButton
libQt6Widgets.so.6:_ZN16QDialogButtonBox8acceptedEv
libQt6Widgets.so.6:_ZN16QDialogButtonBox8rejectedEv
libQt6Widgets.so.6:_ZN16QDialogButtonBoxC1EP7QWidget
libQt6Widgets.so.6:_ZN17QAbstractItemView13doubleClickedERK11QModelIndex
libQt6Widgets.so.6:_ZN17QAbstractItemView16staticMetaObjectE
libQt6Widgets.so.6:_ZN17QGraphicsRectItem12setExtensionEN13QGraphicsItem9ExtensionERK8QVariant
libQt6Widgets.so.6:_ZN17QGraphicsRectItemC2ERK6QRectFP13QGraphicsItem
libQt6Widgets.so.6:_ZN17QGraphicsRectItemD2Ev
libQt6Widgets.so.6:_ZN17QGraphicsTextItem10adjustSizeEv
libQt6Widgets.so.6:_ZN17QGraphicsTextItem10sceneEventEP6QEvent
libQt6Widgets.so.6:_ZN17QGraphicsTextItem11qt_metacallEN11QMetaObject4CallEiPPv
libQt6Widgets.so.6:_ZN17QGraphicsTextItem11qt_metacastEPKc
libQt6Widgets.so.6:_ZN17QGraphicsTextItem12focusInEventEP11QFocusEvent
libQt6Widgets.so.6:_ZN17QGraphicsTextItem12setExtensionEN13QGraphicsItem9ExtensionERK8QVariant
libQt6Widgets.so.6:_ZN17QGraphicsTextItem12setPlainTextERK7QString
libQt6Widgets.so.6:_ZN17QGraphicsTextItem13dragMoveEventEP27QGraphicsSceneDragDropEvent
libQt6Widgets.so.6:_ZN17QGraphicsTextItem13focusOutEventEP11QFocusEvent
libQt6Widgets.so.6:_ZN17QGraphicsTextItem13keyPressEventEP9QKeyEvent
libQt6Widgets.so.6:_ZN17QGraphicsTextItem14dragEnterEventEP27QGraphicsSceneDragDropEvent
libQt6Widgets.so.6:_ZN17QGraphicsTextItem14dragLeaveEventEP27QGraphicsSceneDragDropEvent
libQt6Widgets.so.6:_ZN17QGraphicsTextItem14hoverMoveEventEP24QGraphicsSceneHoverEvent
libQt6Widgets.so.6:_ZN17QGraphicsTextItem14mouseMoveEventEP24QGraphicsSceneMouseEvent
libQt6Widgets.so.6:_ZN17QGraphicsTextItem15hoverEnterEventEP24QGraphicsSceneHoverEvent
libQt6Widgets.so.6:_ZN17QGraphicsTextItem15hoverLeaveEventEP24QGraphicsSceneHoverEvent
libQt6Widgets.so.6:_ZN17QGraphicsTextItem15keyReleaseEventEP9QKeyEvent
libQt6Widgets.so.6:_ZN17QGraphicsTextItem15mousePressEventEP24QGraphicsSceneMouseEvent
libQt6Widgets.so.6:_ZN17QGraphicsTextItem16contextMenuEventEP30QGraphicsSceneContextMenuEvent
libQt6Widgets.so.6:_ZN17QGraphicsTextItem16inputMethodEventEP17QInputMethodEvent
libQt6Widgets.so.6:_ZN17QGraphicsTextItem17mouseReleaseEventEP24QGraphicsSceneMouseEvent
libQt6Widgets.so.6:_ZN17QGraphicsTextItem19setDefaultTextColorERK6QColor
libQt6Widgets.so.6:_ZN17QGraphicsTextItem21mouseDoubleClickEventEP24QGraphicsSceneMouseEvent
libQt6Widgets.so.6:_ZN17QGraphicsTextItem5paintEP8QPainterPK24QStyleOptionGraphicsItemP7QWidget
libQt6Widgets.so.6:_ZN17QGraphicsTextItem7setFontERK5QFont
libQt6Widgets.so.6:_ZN17QGraphicsTextItem7setHtmlERK7QString
libQt6Widgets.so.6:_ZN17QGraphicsTextItem9dropEventEP27QGraphicsSceneDragDropEvent
libQt6Widgets.so.6:_ZN17QGraphicsTextItemC2EP13QGraphicsItem
libQt6Widgets.so.6:_ZN17QGraphicsTextItemD2Ev
libQt6Widgets.so.6:_ZN19QAbstractScrollArea11eventFilterEP7QObjectP6QEvent
libQt6Widgets.so.6:_ZN19QAbstractScrollArea26setVerticalScrollBarPolicyEN2Qt15ScrollBarPolicyE
libQt6Widgets.so.6:_ZN19QAbstractScrollArea28setHorizontalScrollBarPolicyEN2Qt15ScrollBarPolicyE
libQt6Widgets.so.6:_ZN5QDial17setNotchesVisibleEb
libQt6Widgets.so.6:_ZN5QDialC1EP7QWidget
libQt6Widgets.so.6:_ZN5QMenu12addSeparatorEv
libQt6Widgets.so.6:_ZN5QMenu8setTitleERK7QString
libQt6Widgets.so.6:_ZN5QMenuC1EP7QWidget
libQt6Widgets.so.6:_ZN6QFrame11changeEventEP6QEvent
libQt6Widgets.so.6:_ZN6QFrame13setFrameShapeENS_5ShapeE
libQt6Widgets.so.6:_ZN6QFrame14setFrameShadowENS_6ShadowE
libQt6Widgets.so.6:_ZN6QFrameC1EP7QWidget6QFlagsIN2Qt10WindowTypeEE
libQt6Widgets.so.6:_ZN6QLabel12setAlignmentE6QFlagsIN2Qt13AlignmentFlagEE
libQt6Widgets.so.6:_ZN6QLabel20setOpenExternalLinksEb
libQt6Widgets.so.6:_ZN6QLabel23setTextInteractionFlagsE6QFlagsIN2Qt19TextInteractionFlagEE
libQt6Widgets.so.6:_ZN6QLabel5clearEv
libQt6Widgets.so.6:_ZN6QLabel7setTextERK7QString
libQt6Widgets.so.6:_ZN6QLabel8setBuddyEP7QWidget
libQt6Widgets.so.6:_ZN6QLabel9setPixmapERK7QPixmap
libQt6Widgets.so.6:_ZN6QLabelC1EP7QWidget6QFlagsIN2Qt10WindowTypeEE
libQt6Widgets.so.6:_ZN7QDialog10closeEventEP11QCloseEvent
libQt6Widgets.so.6:_ZN7QDialog10setVisibleEb
libQt6Widgets.so.6:_ZN7QDialog11eventFilterEP7QObjectP6QEvent
libQt6Widgets.so.6:_ZN7QDialog11qt_metacallEN11QMetaObject4CallEiPPv
libQt6Widgets.so.6:_ZN7QDialog11qt_metacastEPKc
libQt6Widgets.so.6:_ZN7QDialog11resizeEventEP12QResizeEvent
libQt6Widgets.so.6:_ZN7QDialog13keyPressEventEP9QKeyEvent
libQt6Widgets.so.6:_ZN7QDialog16contextMenuEventEP17QContextMenuEvent
libQt6Widgets.so.6:_ZN7QDialog16staticMetaObjectE
libQt6Widgets.so.6:_ZN7QDialog4doneEi
libQt6Widgets.so.6:_ZN7QDialog4execEv
libQt6Widgets.so.6:_ZN7QDialog4openEv
libQt6Widgets.so.6:_ZN7QDialog6acceptEv
libQt6Widgets.so.6:_ZN7QDialog6rejectEv
libQt6Widgets.so.6:_ZN7QDialog9showEventEP10QShowEvent
libQt6Widgets.so.6:_ZN7QDialogC2EP7QWidget6QFlagsIN2Qt10WindowTypeEE
libQt6Widgets.so.6:_ZN7QDialogD2Ev
libQt6Widgets.so.6:_ZN7QLayout18setContentsMarginsEiiii
libQt6Widgets.so.6:_ZN7QSlider15setTickIntervalEi
libQt6Widgets.so.6:_ZN7QSlider15setTickPositionENS_12TickPositionE
libQt6Widgets.so.6:_ZN7QSliderC1EP7QWidget
libQt6Widgets.so.6:_ZN7QWidget10closeEventEP11QCloseEvent
libQt6Widgets.so.6:_ZN7QWidget10enterEventEP11QEnterEvent
libQt6Widgets.so.6:_ZN7QWidget10leaveEventEP6QEvent
libQt6Widgets.so.6:_ZN7QWidget10paintEventEP11QPaintEvent
libQt6Widgets.so.6:_ZN7QWidget10setEnabledEb
libQt6Widgets.so.6:_ZN7QWidget10setPaletteERK8QPalette
libQt6Widgets.so.6:_ZN7QWidget10setToolTipERK7QString
libQt6Widgets.so.6:_ZN7QWidget10setVisibleEb
libQt6Widgets.so.6:_ZN7QWidget10wheelEventEP11QWheelEvent
libQt6Widgets.so.6:_ZN7QWidget11actionEventEP12QActionEvent
libQt6Widgets.so.6:_ZN7QWidget11changeEventEP6QEvent
libQt6Widgets.so.6:_ZN7QWidget11nativeEventERK10QByteArrayPvPx
libQt6Widgets.so.6:_ZN7QWidget11resizeEventEP12QResizeEvent
libQt6Widgets.so.6:_ZN7QWidget11setBaseSizeEii
libQt6Widgets.so.6:_ZN7QWidget11setDisabledEb
libQt6Widgets.so.6:_ZN7QWidget11setGeometryERK5QRect
libQt6Widgets.so.6:_ZN7QWidget11setTabOrderEPS_S0_
libQt6Widgets.so.6:_ZN7QWidget11tabletEventEP12QTabletEvent
libQt6Widgets.so.6:_ZN7QWidget12focusInEventEP11QFocusEvent
libQt6Widgets.so.6:_ZN7QWidget12setAttributeEN2Qt15WidgetAttributeEb
libQt6Widgets.so.6:_ZN7QWidget12setStatusTipERK7QString
libQt6Widgets.so.6:_ZN7QWidget13dragMoveEventEP14QDragMoveEvent
libQt6Widgets.so.6:_ZN7QWidget13focusOutEventEP11QFocusEvent
libQt6Widgets.so.6:_ZN7QWidget13keyPressEventEP9QKeyEvent
libQt6Widgets.so.6:_ZN7QWidget13setSizePolicyE11QSizePolicy
libQt6Widgets.so.6:_ZN7QWidget13setWindowIconERK5QIcon
libQt6Widgets.so.6:_ZN7QWidget14dragEnterEventEP15QDragEnterEvent
libQt6Widgets.so.6:_ZN7QWidget14dragLeaveEventEP15QDragLeaveEvent
libQt6Widgets.so.6:_ZN7QWidget14mouseMoveEventEP11QMouseEvent
libQt6Widgets.so.6:_ZN7QWidget14setAcceptDropsEb
libQt6Widgets.so.6:_ZN7QWidget14setMaximumSizeEii
libQt6Widgets.so.6:_ZN7QWidget14setMinimumSizeEii
libQt6Widgets.so.6:_ZN7QWidget14setWindowTitleERK7QString
libQt6Widgets.so.6:_ZN7QWidget15keyReleaseEventEP9QKeyEvent
libQt6Widgets.so.6:_ZN7QWidget15mousePressEventEP11QMouseEvent
libQt6Widgets.so.6:_ZN7QWidget15restoreGeometryERK10QByteArray
libQt6Widgets.so.6:_ZN7QWidget16inputMethodEventEP17QInputMethodEvent
libQt6Widgets.so.6:_ZN7QWidget16staticMetaObjectE
libQt6Widgets.so.6:_ZN7QWidget17mouseReleaseEventEP11QMouseEvent
libQt6Widgets.so.6:_ZN7QWidget18focusNextPrevChildEb
libQt6Widgets.so.6:_ZN7QWidget21mouseDoubleClickEventEP11QMouseEvent
libQt6Widgets.so.6:_ZN7QWidget21setAutoFillBackgroundEb
libQt6Widgets.so.6:_ZN7QWidget4hideEv
libQt6Widgets.so.6:_ZN7QWidget4showEv
libQt6Widgets.so.6:_ZN7QWidget5closeEv
libQt6Widgets.so.6:_ZN7QWidget5eventEP6QEvent
libQt6Widgets.so.6:_ZN7QWidget6resizeERK5QSize
libQt6Widgets.so.6:_ZN7QWidget7setFontERK5QFont
libQt6Widgets.so.6:_ZN7QWidget9addActionEP7QAction
libQt6Widgets.so.6:_ZN7QWidget9dropEventEP10QDropEvent
libQt6Widgets.so.6:_ZN7QWidget9hideEventEP10QHideEvent
libQt6Widgets.so.6:_ZN7QWidget9moveEventEP10QMoveEvent
libQt6Widgets.so.6:_ZN7QWidget9showEventEP10QShowEvent
libQt6Widgets.so.6:_ZN7QWidgetC1EPS_6QFlagsIN2Qt10WindowTypeEE
libQt6Widgets.so.6:_ZN8QMenuBarC1EP7QWidget
libQt6Widgets.so.6:_ZN8QSpinBox10setMaximumEi
libQt6Widgets.so.6:_ZN8QSpinBox10setMinimumEi
libQt6Widgets.so.6:_ZN8QSpinBox12valueChangedEi
libQt6Widgets.so.6:_ZN8QSpinBox16staticMetaObjectE
libQt6Widgets.so.6:_ZN8QSpinBox8setValueEi
libQt6Widgets.so.6:_ZN8QSpinBox9setSuffixERK7QString
libQt6Widgets.so.6:_ZN8QSpinBoxC1EP7QWidget
libQt6Widgets.so.6:_ZN8QToolBar12addSeparatorEv
libQt6Widgets.so.6:_ZN8QToolBar18setToolButtonStyleEN2Qt15ToolButtonStyleE
libQt6Widgets.so.6:_ZN8QToolBarC1EP7QWidget
libQt6Widgets.so.6:_ZN8QToolTip8showTextERK6QPointRK7QStringP7QWidgetRK5QRecti
libQt6Widgets.so.6:_ZN9QCheckBoxC1EP7QWidget
libQt6Widgets.so.6:_ZN9QComboBox10insertItemEiRK5QIconRK7QStringRK8QVariant
libQt6Widgets.so.6:_ZN9QComboBox11insertItemsEiRK5QListI7QStringE
libQt6Widgets.so.6:_ZN9QComboBox11setItemTextEiRK7QString
libQt6Widgets.so.6:_ZN9QComboBox14setCurrentTextERK7QString
libQt6Widgets.so.6:_ZN9QComboBox15setCurrentIndexEi
libQt6Widgets.so.6:_ZN9QComboBox16staticMetaObjectE
libQt6Widgets.so.6:_ZN9QComboBox18currentTextChangedERK7QString
libQt6Widgets.so.6:_ZN9QComboBox18setMaxVisibleItemsEi
libQt6Widgets.so.6:_ZN9QComboBox19currentIndexChangedEi
libQt6Widgets.so.6:_ZN9QComboBox5clearEv
libQt6Widgets.so.6:_ZN9QComboBoxC1EP7QWidget
libQt6Widgets.so.6:_ZN9QLineEdit5clearEv
libQt6Widgets.so.6:_ZN9QLineEdit7setTextERK7QString
libQt6Widgets.so.6:_ZN9QLineEditC1EP7QWidget
libQt6Widgets.so.6:_ZN9QTextEdit11setReadOnlyEb
libQt6Widgets.so.6:_ZN9QTextEdit7setHtmlERK7QString
libQt6Widgets.so.6:_ZNK11QMainWindow9saveStateEi
libQt6Widgets.so.6:_ZNK11QMainWindow9statusBarEv
libQt6Widgets.so.6:_ZNK13QGraphicsItem10childItemsEv
libQt6Widgets.so.6:_ZNK13QGraphicsItem10parentItemEv
libQt6Widgets.so.6:_ZNK13QGraphicsItem16collidesWithItemEPKS_N2Qt17ItemSelectionModeE
libQt6Widgets.so.6:_ZNK13QGraphicsItem16collidesWithPathERK12QPainterPathN2Qt17ItemSelectionModeE
libQt6Widgets.so.6:_ZNK13QGraphicsItem16inputMethodQueryEN2Qt16InputMethodQueryE
libQt6Widgets.so.6:_ZNK13QGraphicsItem8rotationEv
libQt6Widgets.so.6:_ZNK13QGraphicsView10mapToSceneERK6QPoint
libQt6Widgets.so.6:_ZNK13QGraphicsView12mapFromSceneERK6QRectF
libQt6Widgets.so.6:_ZNK13QGraphicsView16inputMethodQueryEN2Qt16InputMethodQueryE
libQt6Widgets.so.6:_ZNK13QGraphicsView9sceneRectEv
libQt6Widgets.so.6:_ZNK14QDoubleSpinBox5valueEv
libQt6Widgets.so.6:_ZNK14QGraphicsScene16inputMethodQueryEN2Qt16InputMethodQueryE
libQt6Widgets.so.6:_ZNK14QGraphicsScene4fontEv
libQt6Widgets.so.6:_ZNK14QGraphicsScene5itemsERK7QPointFN2Qt17ItemSelectionModeENS3_9SortOrderERK10QTransform
libQt6Widgets.so.6:_ZNK14QGraphicsScene9sceneRectEv
libQt6Widgets.so.6:_ZNK15QAbstractButton9isCheckedEv
libQt6Widgets.so.6:_ZNK15QAbstractSlider5valueEv
libQt6Widgets.so.6:_ZNK16QAbstractSpinBox18hasAcceptableInputEv
libQt6Widgets.so.6:_ZNK16QDialogButtonBox6buttonENS_14StandardButtonE
libQt6Widgets.so.6:_ZNK17QAbstractItemView12currentIndexEv
libQt6Widgets.so.6:_ZNK17QGraphicsRectItem10opaqueAreaEv
libQt6Widgets.so.6:_ZNK17QGraphicsRectItem12boundingRectEv
libQt6Widgets.so.6:_ZNK17QGraphicsRectItem12isObscuredByEPK13QGraphicsItem
libQt6Widgets.so.6:_ZNK17QGraphicsRectItem17supportsExtensionEN13QGraphicsItem9ExtensionE
libQt6Widgets.so.6:_ZNK17QGraphicsRectItem4rectEv
libQt6Widgets.so.6:_ZNK17QGraphicsRectItem4typeEv
libQt6Widgets.so.6:_ZNK17QGraphicsRectItem5shapeEv
libQt6Widgets.so.6:_ZNK17QGraphicsRectItem8containsERK7QPointF
libQt6Widgets.so.6:_ZNK17QGraphicsRectItem9extensionERK8QVariant
libQt6Widgets.so.6:_ZNK17QGraphicsTextItem10metaObjectEv
libQt6Widgets.so.6:_ZNK17QGraphicsTextItem10opaqueAreaEv
libQt6Widgets.so.6:_ZNK17QGraphicsTextItem12boundingRectEv
libQt6Widgets.so.6:_ZNK17QGraphicsTextItem12isObscuredByEPK13QGraphicsItem
libQt6Widgets.so.6:_ZNK17QGraphicsTextItem16defaultTextColorEv
libQt6Widgets.so.6:_ZNK17QGraphicsTextItem16inputMethodQueryEN2Qt16InputMethodQueryE
libQt6Widgets.so.6:_ZNK17QGraphicsTextItem17supportsExtensionEN13QGraphicsItem9ExtensionE
libQt6Widgets.so.6:_ZNK17QGraphicsTextItem4typeEv
libQt6Widgets.so.6:_ZNK17QGraphicsTextItem5shapeEv
libQt6Widgets.so.6:_ZNK17QGraphicsTextItem8containsERK7QPointF
libQt6Widgets.so.6:_ZNK17QGraphicsTextItem9extensionERK8QVariant
libQt6Widgets.so.6:_ZNK19QAbstractScrollArea15minimumSizeHintEv
libQt6Widgets.so.6:_ZNK19QAbstractScrollArea16viewportSizeHintEv
libQt6Widgets.so.6:_ZNK24QGraphicsSceneMouseEvent12lastScenePosEv
libQt6Widgets.so.6:_ZNK24QGraphicsSceneMouseEvent6sourceEv
libQt6Widgets.so.6:_ZNK24QGraphicsSceneMouseEvent8scenePosEv
libQt6Widgets.so.6:_ZNK5QMenu10menuActionEv
libQt6Widgets.so.6:_ZNK6QFrame15initStyleOptionEP17QStyleOptionFrame
libQt6Widgets.so.6:_ZNK7QDialog15minimumSizeHintEv
libQt6Widgets.so.6:_ZNK7QDialog8sizeHintEv
libQt6Widgets.so.6:_ZNK7QWidget10redirectedEP6QPoint
libQt6Widgets.so.6:_ZNK7QWidget10sizePolicyEv
libQt6Widgets.so.6:_ZNK7QWidget11initPainterEP8QPainter
libQt6Widgets.so.6:_ZNK7QWidget11mapToGlobalERK6QPoint
libQt6Widgets.so.6:_ZNK7QWidget11paintEngineEv
libQt6Widgets.so.6:_ZNK7QWidget12saveGeometryEv
libQt6Widgets.so.6:_ZNK7QWidget13sharedPainterEv
libQt6Widgets.so.6:_ZNK7QWidget14heightForWidthEi
libQt6Widgets.so.6:_ZNK7QWidget15minimumSizeHintEv
libQt6Widgets.so.6:_ZNK7QWidget16inputMethodQueryEN2Qt16InputMethodQueryE
libQt6Widgets.so.6:_ZNK7QWidget17hasHeightForWidthEv
libQt6Widgets.so.6:_ZNK7QWidget3posEv
libQt6Widgets.so.6:_ZNK7QWidget5styleEv
libQt6Widgets.so.6:_ZNK7QWidget6metricEN12QPaintDevice17PaintDeviceMetricE
libQt6Widgets.so.6:_ZNK7QWidget7devTypeEv
libQt6Widgets.so.6:_ZNK7QWidget7paletteEv
libQt6Widgets.so.6:_ZNK7QWidget8sizeHintEv
libQt6Widgets.so.6:_ZNK8QSpinBox5valueEv
libQt6Widgets.so.6:_ZNK8QSpinBox7minimumEv
libQt6Widgets.so.6:_ZNK8QToolBar16toggleViewActionEv
libQt6Widgets.so.6:_ZNK9QComboBox11currentDataEi
libQt6Widgets.so.6:_ZNK9QComboBox11currentTextEv
libQt6Widgets.so.6:_ZNK9QComboBox12currentIndexEv
libQt6Widgets.so.6:_ZNK9QComboBox5countEv
libQt6Widgets.so.6:_ZNK9QComboBox8findDataERK8QVarianti6QFlagsIN2Qt9MatchFlagEE
libQt6Widgets.so.6:_ZNK9QComboBox8itemDataEii
libQt6Widgets.so.6:_ZNK9QComboBox8itemTextEi
libQt6Widgets.so.6:_ZNK9QLineEdit4textEv
libQt6Widgets.so.6:_ZNK9QTextEdit6toHtmlEv
libQt6Widgets.so.6:_ZNK9QTextEdit8documentEv
libQt6Widgets.so.6:_ZTI11QMainWindow
libQt6Widgets.so.6:_ZTI11QPushButton
libQt6Widgets.so.6:_ZTI13QGraphicsItem
libQt6Widgets.so.6:_ZTI13QGraphicsView
libQt6Widgets.so.6:_ZTI14QGraphicsScene
libQt6Widgets.so.6:_ZTI15QAbstractButton
libQt6Widgets.so.6:_ZTI17QGraphicsRectItem
libQt6Widgets.so.6:_ZTI17QGraphicsTextItem
libQt6Widgets.so.6:_ZTI7QDialog
libQt6Widgets.so.6:_ZTV11QSpacerItem
libQt6Widgets.so.6:_ZThn16_N17QGraphicsTextItem10sceneEventEP6QEvent
libQt6Widgets.so.6:_ZThn16_N17QGraphicsTextItem12focusInEventEP11QFocusEvent
libQt6Widgets.so.6:_ZThn16_N17QGraphicsTextItem12setExtensionEN13QGraphicsItem9ExtensionERK8QVariant
libQt6Widgets.so.6:_ZThn16_N17QGraphicsTextItem13dragMoveEventEP27QGraphicsSceneDragDropEvent
libQt6Widgets.so.6:_ZThn16_N17QGraphicsTextItem13focusOutEventEP11QFocusEvent
libQt6Widgets.so.6:_ZThn16_N17QGraphicsTextItem13keyPressEventEP9QKeyEvent
libQt6Widgets.so.6:_ZThn16_N17QGraphicsTextItem14dragEnterEventEP27QGraphicsSceneDragDropEvent
libQt6Widgets.so.6:_ZThn16_N17QGraphicsTextItem14dragLeaveEventEP27QGraphicsSceneDragDropEvent
libQt6Widgets.so.6:_ZThn16_N17QGraphicsTextItem14hoverMoveEventEP24QGraphicsSceneHoverEvent
libQt6Widgets.so.6:_ZThn16_N17QGraphicsTextItem14mouseMoveEventEP24QGraphicsSceneMouseEvent
libQt6Widgets.so.6:_ZThn16_N17QGraphicsTextItem15hoverEnterEventEP24QGraphicsSceneHoverEvent
libQt6Widgets.so.6:_ZThn16_N17QGraphicsTextItem15hoverLeaveEventEP24QGraphicsSceneHoverEvent
libQt6Widgets.so.6:_ZThn16_N17QGraphicsTextItem15keyReleaseEventEP9QKeyEvent
libQt6Widgets.so.6:_ZThn16_N17QGraphicsTextItem15mousePressEventEP24QGraphicsSceneMouseEvent
libQt6Widgets.so.6:_ZThn16_N17QGraphicsTextItem16contextMenuEventEP30QGraphicsSceneContextMenuEvent
libQt6Widgets.so.6:_ZThn16_N17QGraphicsTextItem16inputMethodEventEP17QInputMethodEvent
libQt6Widgets.so.6:_ZThn16_N17QGraphicsTextItem17mouseReleaseEventEP24QGraphicsSceneMouseEvent
libQt6Widgets.so.6:_ZThn16_N17QGraphicsTextItem21mouseDoubleClickEventEP24QGraphicsSceneMouseEvent
libQt6Widgets.so.6:_ZThn16_N17QGraphicsTextItem5paintEP8QPainterPK24QStyleOptionGraphicsItemP7QWidget
libQt6Widgets.so.6:_ZThn16_N17QGraphicsTextItem9dropEventEP27QGraphicsSceneDragDropEvent
libQt6Widgets.so.6:_ZThn16_NK17QGraphicsTextItem10opaqueAreaEv
libQt6Widgets.so.6:_ZThn16_NK17QGraphicsTextItem12boundingRectEv
libQt6Widgets.so.6:_ZThn16_NK17QGraphicsTextItem12isObscuredByEPK13QGraphicsItem
libQt6Widgets.so.6:_ZThn16_NK17QGraphicsTextItem16inputMethodQueryEN2Qt16InputMethodQueryE
libQt6Widgets.so.6:_ZThn16_NK17QGraphicsTextItem17supportsExtensionEN13QGraphicsItem9ExtensionE
libQt6Widgets.so.6:_ZThn16_NK17QGraphicsTextItem4typeEv
libQt6Widgets.so.6:_ZThn16_NK17QGraphicsTextItem5shapeEv
libQt6Widgets.so.6:_ZThn16_NK17QGraphicsTextItem8containsERK7QPointF
libQt6Widgets.so.6:_ZThn16_NK17QGraphicsTextItem9extensionERK8QVariant
libQt6Widgets.so.6:_ZThn16_NK7QWidget10redirectedEP6QPoint
libQt6Widgets.so.6:_ZThn16_NK7QWidget11initPainterEP8QPainter
libQt6Widgets.so.6:_ZThn16_NK7QWidget11paintEngineEv
libQt6Widgets.so.6:_ZThn16_NK7QWidget13sharedPainterEv
libQt6Widgets.so.6:_ZThn16_NK7QWidget6metricEN12QPaintDevice17PaintDeviceMetricE
libQt6Widgets.so.6:_ZThn16_NK7QWidget7devTypeEv
libasound.so.2:snd_asoundlib_version
libasound.so.2:snd_async_add_timer_handler
libasound.so.2:snd_async_handler_get_timer
libasound.so.2:snd_midi_event_decode
libasound.so.2:snd_midi_event_encode
libasound.so.2:snd_midi_event_encode_byte
libasound.so.2:snd_midi_event_free
libasound.so.2:snd_midi_event_init
libasound.so.2:snd_midi_event_new
libasound.so.2:snd_midi_event_no_status
libasound.so.2:snd_midi_event_reset_decode
libasound.so.2:snd_midi_event_reset_encode
libasound.so.2:snd_midi_event_resize_buffer
libasound.so.2:snd_seq_alloc_named_queue
libasound.so.2:snd_seq_alloc_queue
libasound.so.2:snd_seq_client_id
libasound.so.2:snd_seq_client_info_copy
libasound.so.2:snd_seq_client_info_event_filter_add
libasound.so.2:snd_seq_client_info_event_filter_check
libasound.so.2:snd_seq_client_info_event_filter_clear
libasound.so.2:snd_seq_client_info_event_filter_del
libasound.so.2:snd_seq_client_info_free
libasound.so.2:snd_seq_client_info_get_broadcast_filter
libasound.so.2:snd_seq_client_info_get_client
libasound.so.2:snd_seq_client_info_get_error_bounce
libasound.so.2:snd_seq_client_info_get_event_filter
libasound.so.2:snd_seq_client_info_get_event_lost
libasound.so.2:snd_seq_client_info_get_name
libasound.so.2:snd_seq_client_info_get_num_ports
libasound.so.2:snd_seq_client_info_get_type
libasound.so.2:snd_seq_client_info_malloc
libasound.so.2:snd_seq_client_info_set_broadcast_filter
libasound.so.2:snd_seq_client_info_set_client
libasound.so.2:snd_seq_client_info_set_error_bounce
libasound.so.2:snd_seq_client_info_set_event_filter
libasound.so.2:snd_seq_client_info_set_name
libasound.so.2:snd_seq_client_info_sizeof
libasound.so.2:snd_seq_client_pool_copy
libasound.so.2:snd_seq_client_pool_free
libasound.so.2:snd_seq_client_pool_get_client
libasound.so.2:snd_seq_client_pool_get_input_free
libasound.so.2:snd_seq_client_pool_get_input_pool
libasound.so.2:snd_seq_client_pool_get_output_free
libasound.so.2:snd_seq_client_pool_get_output_pool
libasound.so.2:snd_seq_client_pool_get_output_room
libasound.so.2:snd_seq_client_pool_malloc
libasound.so.2:snd_seq_client_pool_set_input_pool
libasound.so.2:snd_seq_client_pool_set_output_pool
libasound.so.2:snd_seq_client_pool_set_output_room
libasound.so.2:snd_seq_client_pool_sizeof
libasound.so.2:snd_seq_close
libasound.so.2:snd_seq_connect_from
libasound.so.2:snd_seq_connect_to
libasound.so.2:snd_seq_control_queue
libasound.so.2:snd_seq_create_port
libasound.so.2:snd_seq_create_queue
libasound.so.2:snd_seq_create_simple_port
libasound.so.2:snd_seq_delete_port
libasound.so.2:snd_seq_delete_simple_port
libasound.so.2:snd_seq_disconnect_from
libasound.so.2:snd_seq_disconnect_to
libasound.so.2:snd_seq_drain_output
libasound.so.2:snd_seq_drop_input
libasound.so.2:snd_seq_drop_input_buffer
libasound.so.2:snd_seq_drop_output
libasound.so.2:snd_seq_drop_output_buffer
libasound.so.2:snd_seq_event_input
libasound.so.2:snd_seq_event_input_pending
libasound.so.2:snd_seq_event_length
libasound.so.2:snd_seq_event_output
libasound.so.2:snd_seq_event_output_buffer
libasound.so.2:snd_seq_event_output_direct
libasound.so.2:snd_seq_event_output_pending
libasound.so.2:snd_seq_extract_output
libasound.so.2:snd_seq_free_event
libasound.so.2:snd_seq_free_queue
libasound.so.2:snd_seq_get_any_client_info
libasound.so.2:snd_seq_get_any_port_info
libasound.so.2:snd_seq_get_client_info
libasound.so.2:snd_seq_get_client_pool
libasound.so.2:snd_seq_get_input_buffer_size
libasound.so.2:snd_seq_get_output_buffer_size
libasound.so.2:snd_seq_get_port_info
libasound.so.2:snd_seq_get_port_subscription
libasound.so.2:snd_seq_get_queue_info
libasound.so.2:snd_seq_get_queue_status
libasound.so.2:snd_seq_get_queue_tempo
libasound.so.2:snd_seq_get_queue_timer
libasound.so.2:snd_seq_get_queue_usage
libasound.so.2:snd_seq_name
libasound.so.2:snd_seq_nonblock
libasound.so.2:snd_seq_open
libasound.so.2:snd_seq_open_lconf
libasound.so.2:snd_seq_poll_descriptors
libasound.so.2:snd_seq_poll_descriptors_count
libasound.so.2:snd_seq_poll_descriptors_revents
libasound.so.2:snd_seq_port_info_copy
libasound.so.2:snd_seq_port_info_free
libasound.so.2:snd_seq_port_info_get_addr
libasound.so.2:snd_seq_port_info_get_capability
libasound.so.2:snd_seq_port_info_get_client
libasound.so.2:snd_seq_port_info_get_midi_channels
libasound.so.2:snd_seq_port_info_get_midi_voices
libasound.so.2:snd_seq_port_info_get_name
libasound.so.2:snd_seq_port_info_get_port
libasound.so.2:snd_seq_port_info_get_port_specified
libasound.so.2:snd_seq_port_info_get_read_use
libasound.so.2:snd_seq_port_info_get_synth_voices
libasound.so.2:snd_seq_port_info_get_timestamp_queue
libasound.so.2:snd_seq_port_info_get_timestamp_real
libasound.so.2:snd_seq_port_info_get_timestamping
libasound.so.2:snd_seq_port_info_get_type
libasound.so.2:snd_seq_port_info_get_write_use
libasound.so.2:snd_seq_port_info_malloc
libasound.so.2:snd_seq_port_info_set_addr
libasound.so.2:snd_seq_port_info_set_capability
libasound.so.2:snd_seq_port_info_set_client
libasound.so.2:snd_seq_port_info_set_midi_channels
libasound.so.2:snd_seq_port_info_set_midi_voices
libasound.so.2:snd_seq_port_info_set_name
libasound.so.2:snd_seq_port_info_set_port
libasound.so.2:snd_seq_port_info_set_port_specified
libasound.so.2:snd_seq_port_info_set_synth_voices
libasound.so.2:snd_seq_port_info_set_timestamp_queue
libasound.so.2:snd_seq_port_info_set_timestamp_real
libasound.so.2:snd_seq_port_info_set_timestamping
libasound.so.2:snd_seq_port_info_set_type
libasound.so.2:snd_seq_port_info_sizeof
libasound.so.2:snd_seq_port_subscribe_copy
libasound.so.2:snd_seq_port_subscribe_free
libasound.so.2:snd_seq_port_subscribe_get_dest
libasound.so.2:snd_seq_port_subscribe_get_exclusive
libasound.so.2:snd_seq_port_subscribe_get_queue
libasound.so.2:snd_seq_port_subscribe_get_sender
libasound.so.2:snd_seq_port_subscribe_get_time_real
libasound.so.2:snd_seq_port_subscribe_get_time_update
libasound.so.2:snd_seq_port_subscribe_malloc
libasound.so.2:snd_seq_port_subscribe_set_dest
libasound.so.2:snd_seq_port_subscribe_set_exclusive
libasound.so.2:snd_seq_port_subscribe_set_queue
libasound.so.2:snd_seq_port_subscribe_set_sender
libasound.so.2:snd_seq_port_subscribe_set_time_real
libasound.so.2:snd_seq_port_subscribe_set_time_update
libasound.so.2:snd_seq_port_subscribe_sizeof
libasound.so.2:snd_seq_query_named_queue
libasound.so.2:snd_seq_query_next_client
libasound.so.2:snd_seq_query_next_port
libasound.so.2:snd_seq_query_port_subscribers
libasound.so.2:snd_seq_query_subscribe_copy
libasound.so.2:snd_seq_query_subscribe_free
libasound.so.2:snd_seq_query_subscribe_get_addr
libasound.so.2:snd_seq_query_subscribe_get_client
libasound.so.2:snd_seq_query_subscribe_get_exclusive
libasound.so.2:snd_seq_query_subscribe_get_index
libasound.so.2:snd_seq_query_subscribe_get_num_subs
libasound.so.2:snd_seq_query_subscribe_get_port
libasound.so.2:snd_seq_query_subscribe_get_queue
libasound.so.2:snd_seq_query_subscribe_get_root
libasound.so.2:snd_seq_query_subscribe_get_time_real
libasound.so.2:snd_seq_query_subscribe_get_time_update
libasound.so.2:snd_seq_query_subscribe_get_type
libasound.so.2:snd_seq_query_subscribe_malloc
libasound.so.2:snd_seq_query_subscribe_set_client
libasound.so.2:snd_seq_query_subscribe_set_index
libasound.so.2:snd_seq_query_subscribe_set_port
libasound.so.2:snd_seq_query_subscribe_set_root
libasound.so.2:snd_seq_query_subscribe_set_type
libasound.so.2:snd_seq_query_subscribe_sizeof
libasound.so.2:snd_seq_queue_info_copy
libasound.so.2:snd_seq_queue_info_free
libasound.so.2:snd_seq_queue_info_get_flags
libasound.so.2:snd_seq_queue_info_get_locked
libasound.so.2:snd_seq_queue_info_get_name
libasound.so.2:snd_seq_queue_info_get_owner
libasound.so.2:snd_seq_queue_info_get_queue
libasound.so.2:snd_seq_queue_info_malloc
libasound.so.2:snd_seq_queue_info_set_flags
libasound.so.2:snd_seq_queue_info_set_locked
libasound.so.2:snd_seq_queue_info_set_name
libasound.so.2:snd_seq_queue_info_set_owner
libasound.so.2:snd_seq_queue_info_sizeof
libasound.so.2:snd_seq_queue_status_copy
libasound.so.2:snd_seq_queue_status_free
libasound.so.2:snd_seq_queue_status_get_events
libasound.so.2:snd_seq_queue_status_get_queue
libasound.so.2:snd_seq_queue_status_get_real_time
libasound.so.2:snd_seq_queue_status_get_status
libasound.so.2:snd_seq_queue_status_get_tick_time
libasound.so.2:snd_seq_queue_status_malloc
libasound.so.2:snd_seq_queue_status_sizeof
libasound.so.2:snd_seq_queue_tempo_copy
libasound.so.2:snd_seq_queue_tempo_free
libasound.so.2:snd_seq_queue_tempo_get_ppq
libasound.so.2:snd_seq_queue_tempo_get_queue
libasound.so.2:snd_seq_queue_tempo_get_skew
libasound.so.2:snd_seq_queue_tempo_get_skew_base
libasound.so.2:snd_seq_queue_tempo_get_tempo
libasound.so.2:snd_seq_queue_tempo_malloc
libasound.so.2:snd_seq_queue_tempo_set_ppq
libasound.so.2:snd_seq_queue_tempo_set_skew
libasound.so.2:snd_seq_queue_tempo_set_skew_base
libasound.so.2:snd_seq_queue_tempo_set_tempo
libasound.so.2:snd_seq_queue_tempo_sizeof
libasound.so.2:snd_seq_queue_timer_copy
libasound.so.2:snd_seq_queue_timer_free
libasound.so.2:snd_seq_queue_timer_get_id
libasound.so.2:snd_seq_queue_timer_get_queue
libasound.so.2:snd_seq_queue_timer_get_resolution
libasound.so.2:snd_seq_queue_timer_get_type
libasound.so.2:snd_seq_queue_timer_malloc
libasound.so.2:snd_seq_queue_timer_set_id
libasound.so.2:snd_seq_queue_timer_set_resolution
libasound.so.2:snd_seq_queue_timer_set_type
libasound.so.2:snd_seq_queue_timer_sizeof
libasound.so.2:snd_seq_remove_events
libasound.so.2:snd_seq_remove_events_copy
libasound.so.2:snd_seq_remove_events_free
libasound.so.2:snd_seq_remove_events_get_channel
libasound.so.2:snd_seq_remove_events_get_condition
libasound.so.2:snd_seq_remove_events_get_dest
libasound.so.2:snd_seq_remove_events_get_event_type
libasound.so.2:snd_seq_remove_events_get_queue
libasound.so.2:snd_seq_remove_events_get_tag
libasound.so.2:snd_seq_remove_events_get_time
libasound.so.2:snd_seq_remove_events_malloc
libasound.so.2:snd_seq_remove_events_set_channel
libasound.so.2:snd_seq_remove_events_set_condition
libasound.so.2:snd_seq_remove_events_set_dest
libasound.so.2:snd_seq_remove_events_set_event_type
libasound.so.2:snd_seq_remove_events_set_queue
libasound.so.2:snd_seq_remove_events_set_tag
libasound.so.2:snd_seq_remove_events_set_time
libasound.so.2:snd_seq_remove_events_sizeof
libasound.so.2:snd_seq_reset_pool_input
libasound.so.2:snd_seq_reset_pool_output
libasound.so.2:snd_seq_set_client_event_filter
libasound.so.2:snd_seq_set_client_info
libasound.so.2:snd_seq_set_client_name
libasound.so.2:snd_seq_set_client_pool
libasound.so.2:snd_seq_set_client_pool_input
libasound.so.2:snd_seq_set_client_pool_output
libasound.so.2:snd_seq_set_client_pool_output_room
libasound.so.2:snd_seq_set_input_buffer_size
libasound.so.2:snd_seq_set_output_buffer_size
libasound.so.2:snd_seq_set_port_info
libasound.so.2:snd_seq_set_queue_info
libasound.so.2:snd_seq_set_queue_tempo
libasound.so.2:snd_seq_set_queue_timer
libasound.so.2:snd_seq_set_queue_usage
libasound.so.2:snd_seq_subscribe_port
libasound.so.2:snd_seq_sync_output_queue
libasound.so.2:snd_seq_system_info
libasound.so.2:snd_seq_system_info_copy
libasound.so.2:snd_seq_system_info_free
libasound.so.2:snd_seq_system_info_get_channels
libasound.so.2:snd_seq_system_info_get_clients
libasound.so.2:snd_seq_system_info_get_cur_clients
libasound.so.2:snd_seq_system_info_get_cur_queues
libasound.so.2:snd_seq_system_info_get_ports
libasound.so.2:snd_seq_system_info_get_queues
libasound.so.2:snd_seq_system_info_malloc
libasound.so.2:snd_seq_system_info_sizeof
libasound.so.2:snd_seq_type
libasound.so.2:snd_seq_unsubscribe_port
libasound.so.2:snd_strerror
libasound.so.2:snd_timer_close
libasound.so.2:snd_timer_continue
libasound.so.2:snd_timer_ginfo_copy
libasound.so.2:snd_timer_ginfo_free
libasound.so.2:snd_timer_ginfo_get_card
libasound.so.2:snd_timer_ginfo_get_clients
libasound.so.2:snd_timer_ginfo_get_flags
libasound.so.2:snd_timer_ginfo_get_id
libasound.so.2:snd_timer_ginfo_get_name
libasound.so.2:snd_timer_ginfo_get_resolution
libasound.so.2:snd_timer_ginfo_get_resolution_max
libasound.so.2:snd_timer_ginfo_get_resolution_min
libasound.so.2:snd_timer_ginfo_get_tid
libasound.so.2:snd_timer_ginfo_malloc
libasound.so.2:snd_timer_ginfo_set_tid
libasound.so.2:snd_timer_ginfo_sizeof
libasound.so.2:snd_timer_id_copy
libasound.so.2:snd_timer_id_free
libasound.so.2:snd_timer_id_get_card
libasound.so.2:snd_timer_id_get_class
libasound.so.2:snd_timer_id_get_device
libasound.so.2:snd_timer_id_get_sclass
libasound.so.2:snd_timer_id_get_subdevice
libasound.so.2:snd_timer_id_malloc
libasound.so.2:snd_timer_id_set_card
libasound.so.2:snd_timer_id_set_class
libasound.so.2:snd_timer_id_set_device
libasound.so.2:snd_timer_id_set_sclass
libasound.so.2:snd_timer_id_set_subdevice
libasound.so.2:snd_timer_id_sizeof
libasound.so.2:snd_timer_info
libasound.so.2:snd_timer_info_copy
libasound.so.2:snd_timer_info_free
libasound.so.2:snd_timer_info_get_card
libasound.so.2:snd_timer_info_get_id
libasound.so.2:snd_timer_info_get_name
libasound.so.2:snd_timer_info_get_resolution
libasound.so.2:snd_timer_info_get_ticks
libasound.so.2:snd_timer_info_is_slave
libasound.so.2:snd_timer_info_malloc
libasound.so.2:snd_timer_info_sizeof
libasound.so.2:snd_timer_open
libasound.so.2:snd_timer_open_lconf
libasound.so.2:snd_timer_params
libasound.so.2:snd_timer_params_copy
libasound.so.2:snd_timer_params_free
libasound.so.2:snd_timer_params_get_auto_start
libasound.so.2:snd_timer_params_get_early_event
libasound.so.2:snd_timer_params_get_exclusive
libasound.so.2:snd_timer_params_get_filter
libasound.so.2:snd_timer_params_get_queue_size
libasound.so.2:snd_timer_params_get_ticks
libasound.so.2:snd_timer_params_malloc
libasound.so.2:snd_timer_params_set_auto_start
libasound.so.2:snd_timer_params_set_early_event
libasound.so.2:snd_timer_params_set_exclusive
libasound.so.2:snd_timer_params_set_filter
libasound.so.2:snd_timer_params_set_queue_size
libasound.so.2:snd_timer_params_set_ticks
libasound.so.2:snd_timer_params_sizeof
libasound.so.2:snd_timer_poll_descriptors
libasound.so.2:snd_timer_poll_descriptors_count
libasound.so.2:snd_timer_poll_descriptors_revents
libasound.so.2:snd_timer_query_close
libasound.so.2:snd_timer_query_info
libasound.so.2:snd_timer_query_next_device
libasound.so.2:snd_timer_query_open
libasound.so.2:snd_timer_query_open_lconf
libasound.so.2:snd_timer_query_params
libasound.so.2:snd_timer_query_status
libasound.so.2:snd_timer_read
libasound.so.2:snd_timer_start
libasound.so.2:snd_timer_status
libasound.so.2:snd_timer_status_copy
libasound.so.2:snd_timer_status_free
libasound.so.2:snd_timer_status_get_lost
libasound.so.2:snd_timer_status_get_overrun
libasound.so.2:snd_timer_status_get_queue
libasound.so.2:snd_timer_status_get_resolution
libasound.so.2:snd_timer_status_get_timestamp
libasound.so.2:snd_timer_status_malloc
libasound.so.2:snd_timer_status_sizeof
libasound.so.2:snd_timer_stop
libc.so.6:__cxa_atexit
libc.so.6:__libc_start_main
libc.so.6:__sprintf_chk
libc.so.6:__stack_chk_fail
libc.so.6:calloc
libc.so.6:fclose
libc.so.6:fopen
libc.so.6:free
libc.so.6:getrlimit
libc.so.6:memcmp
libc.so.6:memcpy
libc.so.6:memmove
libc.so.6:memset
libc.so.6:poll
libc.so.6:pthread_self
libc.so.6:pthread_setschedparam
libc.so.6:setrlimit
libc.so.6:signal
libc.so.6:sleep
libc.so.6:stderr
libc.so.6:stdout
libc.so.6:strcmp
libc.so.6:strerror
libc.so.6:strlen
libc.so.6:syscall
libfluidsynth.so.3:delete_fluid_audio_driver
libfluidsynth.so.3:delete_fluid_settings
libfluidsynth.so.3:delete_fluid_synth
libfluidsynth.so.3:fluid_free
libfluidsynth.so.3:fluid_set_log_function
libfluidsynth.so.3:fluid_settings_dupstr
libfluidsynth.so.3:fluid_settings_foreach_option
libfluidsynth.so.3:fluid_settings_setint
libfluidsynth.so.3:fluid_settings_setnum
libfluidsynth.so.3:fluid_settings_setstr
libfluidsynth.so.3:fluid_synth_cc
libfluidsynth.so.3:fluid_synth_channel_pressure
libfluidsynth.so.3:fluid_synth_key_pressure
libfluidsynth.so.3:fluid_synth_noteoff
libfluidsynth.so.3:fluid_synth_noteon
libfluidsynth.so.3:fluid_synth_pitch_bend
libfluidsynth.so.3:fluid_synth_program_change
libfluidsynth.so.3:fluid_synth_sfload
libfluidsynth.so.3:fluid_synth_sfunload
libfluidsynth.so.3:fluid_synth_sysex
libfluidsynth.so.3:fluid_synth_system_reset
libfluidsynth.so.3:fluid_version_str
libfluidsynth.so.3:new_fluid_audio_driver
libfluidsynth.so.3:new_fluid_settings
libfluidsynth.so.3:new_fluid_synth
libgcc_s.so.1:_Unwind_Resume
libm.so.6:llround
libm.so.6:pow
libm.so.6:round
libpulse-simple.so.0:pa_simple_free
libpulse-simple.so.0:pa_simple_new
libpulse-simple.so.0:pa_simple_write
libpulse.so.0:pa_usec_to_bytes
libsonivox.so.4:EAS_CloseMIDIStream
libsonivox.so.4:EAS_Config
libsonivox.so.4:EAS_Init
libsonivox.so.4:EAS_LoadDLSCollection
libsonivox.so.4:EAS_OpenMIDIStream
libsonivox.so.4:EAS_Render
libsonivox.so.4:EAS_SetParameter
libsonivox.so.4:EAS_Shutdown
libsonivox.so.4:EAS_WriteMIDIStream
libstdc++.so.6:_ZNSt9exceptionD2Ev
libstdc++.so.6:_ZSt18_Rb_tree_decrementPSt18_Rb_tree_node_base
libstdc++.so.6:_ZSt18_Rb_tree_incrementPSt18_Rb_tree_node_base
libstdc++.so.6:_ZSt28_Rb_tree_rebalance_for_erasePSt18_Rb_tree_node_baseRS_
libstdc++.so.6:_ZSt29_Rb_tree_insert_and_rebalancebPSt18_Rb_tree_node_baseS0_RS_
libstdc++.so.6:_ZTISt9exception
libstdc++.so.6:_ZTVN10__cxxabiv117__class_type_infoE
libstdc++.so.6:_ZTVN10__cxxabiv120__si_class_type_infoE
libstdc++.so.6:_ZTVN10__cxxabiv121__vmi_class_type_infoE
libstdc++.so.6:_ZdaPv
libstdc++.so.6:_ZdaPvm
libstdc++.so.6:_ZdlPv
libstdc++.so.6:_ZdlPvm
libstdc++.so.6:_Znam
libstdc++.so.6:_Znwm
libstdc++.so.6:__cxa_allocate_exception
libstdc++.so.6:__cxa_begin_catch
libstdc++.so.6:__cxa_call_terminate
libstdc++.so.6:__cxa_demangle
libstdc++.so.6:__cxa_end_catch
libstdc++.so.6:__cxa_free_exception
libstdc++.so.6:__cxa_guard_abort
libstdc++.so.6:__cxa_guard_acquire
libstdc++.so.6:__cxa_guard_release
libstdc++.so.6:__cxa_rethrow
libstdc++.so.6:__cxa_throw
libstdc++.so.6:__dynamic_cast
libstdc++.so.6:__gxx_personality_v0
