detectalert:_IO_stdin_used
detectalert:_Z26qInitResources_detectalertv
detectalert:_Z29qCleanupResources_detectalertv
detectalert:_ZN11DetectAlert11qt_metacallEN11QMetaObject4CallEiPPv
detectalert:_ZN11DetectAlert11qt_metacastEPKc
detectalert:_ZN11DetectAlert13CheckExistDirEv
detectalert:_ZN11DetectAlert16CustomMessageBoxE7QStringS0_S0_NSt7__cxx1112basic_stringIcSt11char_traitsIcESaIcEEES6_
detectalert:_ZN11DetectAlert16staticMetaObjectE
detectalert:_ZN11DetectAlertC1EP7QWidget
detectalert:_ZN11DetectAlertC2EP7QWidget
detectalert:_ZN11DetectAlertD0Ev
detectalert:_ZN11DetectAlertD1Ev
detectalert:_ZN11DetectAlertD2Ev
detectalert:_ZN17TranslationString9GetStringEv
detectalert:_ZN17TranslationString9SetStringEv
detectalert:_ZN17TranslationStringC1Ev
detectalert:_ZN17TranslationStringC2Ev
detectalert:_ZNK11DetectAlert10metaObjectEv
detectalert:_ZThn16_N11DetectAlertD0Ev
detectalert:_ZThn16_N11DetectAlertD1Ev
detectalert:__bss_start
detectalert:__data_start
detectalert:_edata
detectalert:_end
detectalert:_start
detectalert:main
epsonscan2:_IO_stdin_used
epsonscan2:_Z10DeleteFilePKc
epsonscan2:_Z11CloseHandlePv
epsonscan2:_Z11FreeLibraryPv
epsonscan2:_Z11LoadLibraryPKc
epsonscan2:_Z13LoadLibraryExPKcPvj
epsonscan2:_Z15TranslateStringv
epsonscan2:_Z17GetExitCodeThreadPvPj
epsonscan2:_Z17GetModuleFileNamePcj
epsonscan2:_Z17MyProgessCallBackii
epsonscan2:_Z19qInitResources_iconv
epsonscan2:_Z21DetectAlertGlassDirtyP16SDIScannerDriver21SDIInterruptEventTypePv
epsonscan2:_Z22ES2WaitForSingleObjectPvj
epsonscan2:_Z22qCleanupResources_iconv
epsonscan2:_Z25ES2WaitForMultipleObjectsjPKPvij
epsonscan2:_Z5Sleepj
epsonscan2:_Z5_wtofPKw
epsonscan2:_Z5_wtoiPKw
epsonscan2:_Z7fopen_sPP8_IO_FILEPKcS3_
epsonscan2:_Z8CopyFilePKcS0_i
epsonscan2:_Z8memcpy_sPvmPKvm
epsonscan2:_Z8strcat_sPcmPKc
epsonscan2:_Z9_tcscat_sPcmPKc
epsonscan2:_Z9_wfopen_sPP8_IO_FILEPKwS3_
epsonscan2:_ZN10DeviceList11device_listB5cxx11E
epsonscan2:_ZN10DeviceList13select_deviceE
epsonscan2:_ZN10DeviceList22select_manu_ip_addressE
epsonscan2:_ZN10DeviceList24manu_network_device_listB5cxx11E
epsonscan2:_ZN10DeviceList4listEPKc
epsonscan2:_ZN10DeviceList9show_listEv
epsonscan2:_ZN10DeviceListC1Ev
epsonscan2:_ZN10DeviceListC2Ev
epsonscan2:_ZN10DeviceListD1Ev
epsonscan2:_ZN10DeviceListD2Ev
epsonscan2:_ZN10FolderComb10add_optionEi
epsonscan2:_ZN10FolderComb10initializeE8SCANPARAP16CustomMessageBox
epsonscan2:_ZN10FolderComb10item_eventEiP8SCANPARA
epsonscan2:_ZN10FolderComb11select_itemEv
epsonscan2:_ZN10FolderComb11set_enabledEb
epsonscan2:_ZN10FolderComb13focusOutEventEP11QFocusEvent
epsonscan2:_ZN10FolderComb14add_userdefineEv
epsonscan2:_ZN10FolderComb18item_event_optionsEv
epsonscan2:_ZN10FolderComb19select_current_pathEP8SCANPARA
epsonscan2:_ZN10FolderComb8add_itemEv
epsonscan2:_ZN10FolderComb9update_uiEv
epsonscan2:_ZN10FolderCombC1EP7QWidget
epsonscan2:_ZN10FolderCombC2EP7QWidget
epsonscan2:_ZN10Image_Type10initializeEP17INT_SETTING_VALUE
epsonscan2:_ZN10Image_Type10item_eventEiP17INT_SETTING_VALUEP10Supervisor
epsonscan2:_ZN10Image_Type11select_itemE17INT_SETTING_VALUE
epsonscan2:_ZN10Image_Type11set_enabledEb
epsonscan2:_ZN10Image_Type18disable_color_autoE17INT_SETTING_VALUE
epsonscan2:_ZN10Image_Type18item_event_optionsEP10Supervisor
epsonscan2:_ZN10Image_Type8add_itemEPii
epsonscan2:_ZN10Image_Type9update_uiE17INT_SETTING_VALUE
epsonscan2:_ZN10Image_TypeC1EP7QWidget
epsonscan2:_ZN10Image_TypeC2EP7QWidget
epsonscan2:_ZN10MainWindow10InitializeEv
epsonscan2:_ZN10MainWindow10closeEventEP11QCloseEvent
epsonscan2:_ZN10MainWindow11CloseWindowEv
epsonscan2:_ZN10MainWindow11qt_metacallEN11QMetaObject4CallEiPPv
epsonscan2:_ZN10MainWindow11qt_metacastEPKc
epsonscan2:_ZN10MainWindow12AllItemResetEv
epsonscan2:_ZN10MainWindow12ChangeWidgetEi
epsonscan2:_ZN10MainWindow12SelectDeviceEv
epsonscan2:_ZN10MainWindow14EditFinishTextEv
epsonscan2:_ZN10MainWindow14MarqueeCreatedEb5QRect
epsonscan2:_ZN10MainWindow14onValueChangedEi
epsonscan2:_ZN10MainWindow15ChangeExtensionE11ImageFormat
epsonscan2:_ZN10MainWindow15CheckBeforeScanEb
epsonscan2:_ZN10MainWindow15ConnectToDeviceEv
epsonscan2:_ZN10MainWindow15SetupMainWindowE13Configuration
epsonscan2:_ZN10MainWindow16ControlImageTypeEv
epsonscan2:_ZN10MainWindow16search_item_listEiPii
epsonscan2:_ZN10MainWindow16staticMetaObjectE
epsonscan2:_ZN10MainWindow18CheckLongPaperModeEv
epsonscan2:_ZN10MainWindow18ControlImageOptionEv
epsonscan2:_ZN10MainWindow18SetAllLabelEnabledEb
epsonscan2:_ZN10MainWindow18isManualResolutionEi
epsonscan2:_ZN10MainWindow18onValueChangedBoolEb
epsonscan2:_ZN10MainWindow18onValueChangedQstrE7QString
epsonscan2:_ZN10MainWindow19Check2in1DifferenceEv
epsonscan2:_ZN10MainWindow19CheckMarqueeEnebledEv
epsonscan2:_ZN10MainWindow21CreateComboBoxToolTipEP9QComboBox7QString
epsonscan2:_ZN10MainWindow21InitializeImageOptionEi
epsonscan2:_ZN10MainWindow21SelectionRestrictionsEi
epsonscan2:_ZN10MainWindow21onHelp_Button_pressedEv
epsonscan2:_ZN10MainWindow21onSave_Button_pressedEv
epsonscan2:_ZN10MainWindow22ChangePreviewParameterEb
epsonscan2:_ZN10MainWindow22ControlGammaAvabilableEv
epsonscan2:_ZN10MainWindow22on_Scan_Button_pressedEv
epsonscan2:_ZN10MainWindow23CheckAutoFunctionalUnitEb
epsonscan2:_ZN10MainWindow23ControlDropoutAvailableEi
epsonscan2:_ZN10MainWindow23GetHeightLimitLongPaperEi
epsonscan2:_ZN10MainWindow23onFolder_Button_pressedEv
epsonscan2:_ZN10MainWindow24AvailableControlLFPModelEv
epsonscan2:_ZN10MainWindow24CreateRadioButtonToolTipEP12QRadioButton7QString
epsonscan2:_ZN10MainWindow25on_Preview_Button_pressedEv
epsonscan2:_ZN10MainWindow26UserDefineSizeRestrictionsEv
epsonscan2:_ZN10MainWindow27ControlSetDocumentAvailableEi
epsonscan2:_ZN10MainWindow27ControlTextEnhanceAvailableEi
epsonscan2:_ZN10MainWindow27ValidateOverRollerLifeLimitEv
epsonscan2:_ZN10MainWindow27onAbout_Epson_Scan2_pressedEv
epsonscan2:_ZN10MainWindow28ControlDocumentSizeAvailableEv
epsonscan2:_ZN10MainWindow28ControlDocumentTypeAvailableEv
epsonscan2:_ZN10MainWindow28ControlScanningSideAvailableEv
epsonscan2:_ZN10MainWindow28UpdateMarqueeSize_resolutionEv
epsonscan2:_ZN10MainWindow29ControlDetDoubleFeedAvailableEi
epsonscan2:_ZN10MainWindow29ControlPreviewButtonAvailableEi
epsonscan2:_ZN10MainWindow30ControlSkipBlankPagesAvailableEi
epsonscan2:_ZN10MainWindow30onConfiguration_Button_pressedEv
epsonscan2:_ZN10MainWindow31ControlBackgroundColorAvailableEv
epsonscan2:_ZN10MainWindow31ControlRemovePunchHoleAvailableEi
epsonscan2:_ZN10MainWindow32ControlRemoveBackGroundAvailableEi
epsonscan2:_ZN10MainWindow32onFileNameSetting_Button_pressedEv
epsonscan2:_ZN10MainWindow35onTextEnhanceSetting_Button_pressedEv
epsonscan2:_ZN10MainWindow36ControlAutoLongPaperDropOutAvailableEi
epsonscan2:_ZN10MainWindow36ControlAutomaticFeedingModeAvailableEv
epsonscan2:_ZN10MainWindow8updateUIEv
epsonscan2:_ZN10MainWindow9showEventEP10QShowEvent
epsonscan2:_ZN10MainWindowC1ENSt7__cxx1112basic_stringIcSt11char_traitsIcESaIcEEEP7QWidget
epsonscan2:_ZN10MainWindowC2ENSt7__cxx1112basic_stringIcSt11char_traitsIcESaIcEEEP7QWidget
epsonscan2:_ZN10MainWindowD0Ev
epsonscan2:_ZN10MainWindowD1Ev
epsonscan2:_ZN10MainWindowD2Ev
epsonscan2:_ZN10Resolution10initializeE17INT_SETTING_VALUE
epsonscan2:_ZN10Resolution10item_eventEiP17INT_SETTING_VALUE
epsonscan2:_ZN10Resolution11create_listE17INT_SETTING_VALUEb
epsonscan2:_ZN10Resolution11select_itemEv
epsonscan2:_ZN10Resolution11set_enabledEb
epsonscan2:_ZN10Resolution13focusOutEventEP11QFocusEvent
epsonscan2:_ZN10Resolution14validate_inputEv
epsonscan2:_ZN10Resolution9IdToValueE14ResolutionList
epsonscan2:_ZN10Resolution9ValueToIdEi
epsonscan2:_ZN10Resolution9update_uiE17INT_SETTING_VALUEb
epsonscan2:_ZN10ResolutionC1EP7QWidget
epsonscan2:_ZN10ResolutionC2EP7QWidget
epsonscan2:_ZN10RotateComb10initializeEv
epsonscan2:_ZN10RotateComb10item_eventEiP17INT_SETTING_VALUE
epsonscan2:_ZN10RotateComb11select_itemE17INT_SETTING_VALUE
epsonscan2:_ZN10RotateComb11set_enabledEb
epsonscan2:_ZN10RotateComb13focusOutEventEP11QFocusEvent
epsonscan2:_ZN10RotateComb14getCurrentItemEv
epsonscan2:_ZN10RotateComb8add_itemEPii
epsonscan2:_ZN10RotateComb9update_uiE17INT_SETTING_VALUE
epsonscan2:_ZN10RotateCombC1EP7QWidget
epsonscan2:_ZN10RotateCombC2EP7QWidget
epsonscan2:_ZN10ScanButton10initializeEP16CustomMessageBoxP11QMainWindow
epsonscan2:_ZN10ScanButton14Button_pressedEP10Supervisorb
epsonscan2:_ZN10ScanButtonC1EP7QWidget
epsonscan2:_ZN10ScanButtonC2EP7QWidget
epsonscan2:_ZN10Supervisor10Scan_StartE16SDIOperationType
epsonscan2:_ZN10Supervisor11Dispose_PtrEv
epsonscan2:_ZN10Supervisor11Save_Image2EPFviiE
epsonscan2:_ZN10Supervisor13Get_All_ValueEv
epsonscan2:_ZN10Supervisor13Set_All_ValueEv
epsonscan2:_ZN10Supervisor14Scan_TerminateEv
epsonscan2:_ZN10Supervisor15Cancel_ScanningEv
epsonscan2:_ZN10Supervisor15Dispose_ScannerEv
epsonscan2:_ZN10Supervisor17CheckImageIsBlankEv
epsonscan2:_ZN10Supervisor17Continue_ScanningEv
epsonscan2:_ZN10Supervisor17DeviceInfoResolveEP13SDIDeviceInfo
epsonscan2:_ZN10Supervisor17Get_Counter_ValueEv
epsonscan2:_ZN10Supervisor17SANEManuNetfinderEv
epsonscan2:_ZN10Supervisor18CheckScanningErrorE8SDIError
epsonscan2:_ZN10Supervisor18Connecting_ScannerE13SDIDeviceInfoPFvP16SDIScannerDriver21SDIInterruptEventTypePvE
epsonscan2:_ZN10Supervisor18GetScannerPositionEv
epsonscan2:_ZN10Supervisor19Get_Exclusion_ValueEv
epsonscan2:_ZN10Supervisor19Set_Exclusion_ValueEv
epsonscan2:_ZN10Supervisor20GetPaperLoadedStatusEv
epsonscan2:_ZN10Supervisor21Disconnecting_ScannerEv
epsonscan2:_ZN10Supervisor22CheckDeviceErrorStatusEv
epsonscan2:_ZN10Supervisor22CheckNextTransferEventEb
epsonscan2:_ZN10Supervisor24Set_RollerCouunter_ValueEv
epsonscan2:_ZN10Supervisor26Reset_RollerCouunter_ValueEv
epsonscan2:_ZN10Supervisor33GetUnscannebleScanParameterStatusEv
epsonscan2:_ZN10Supervisor33Get_AdministratorRestrictedStatusEv
epsonscan2:_ZN10Supervisor36Check_SupportAdministratorRestrictedEv
epsonscan2:_ZN10Supervisor36Send_AdministratorRestrictedPasswordENSt7__cxx1112basic_stringIcSt11char_traitsIcESaIcEEE
epsonscan2:_ZN10Supervisor40GetUnscannebleScanParameterForAFMCStatusEv
epsonscan2:_ZN10Supervisor5SetUpEv
epsonscan2:_ZN10Supervisor8ScanningEv
epsonscan2:_ZN10Supervisor9Get_ImageEv
epsonscan2:_ZN10Supervisor9Save_PathEv
epsonscan2:_ZN10Supervisor9TerminateEv
epsonscan2:_ZN10SupervisorC1Ev
epsonscan2:_ZN10SupervisorC2Ev
epsonscan2:_ZN11DrawingArea10leaveEventEP6QEvent
epsonscan2:_ZN11DrawingArea12OptimizeAreaEv
epsonscan2:_ZN11DrawingArea13CalculateDiffE6QPointS0_b
epsonscan2:_ZN11DrawingArea13DeleteMarqueeEv
epsonscan2:_ZN11DrawingArea14GetMarqueeSizeEv
epsonscan2:_ZN11DrawingArea14mouseMoveEventEP11QMouseEvent
epsonscan2:_ZN11DrawingArea15mousePressEventEP11QMouseEvent
epsonscan2:_ZN11DrawingArea15setMarqueeExistEb
epsonscan2:_ZN11DrawingArea16CheckMarqueeAreaE6QPoint
epsonscan2:_ZN11DrawingArea16CheckMouseOnEdgeE6QPoint
epsonscan2:_ZN11DrawingArea16isExistedMarqueeEv
epsonscan2:_ZN11DrawingArea17MarqueeRangeLimitE6QPoint
epsonscan2:_ZN11DrawingArea17mouseReleaseEventEP11QMouseEvent
epsonscan2:_ZN11DrawingArea17setMarqueeEnebledEb
epsonscan2:_ZN11DrawingArea19CheckMouseOnMarqueeE6QPoint
epsonscan2:_ZN11DrawingArea19SetMarqueeSizeLabelEP6QLabelS1_
epsonscan2:_ZN11DrawingArea22UpdateMarqueeSizeLabelEii
epsonscan2:_ZN11DrawingArea23MagnificationConversionEdb
epsonscan2:_ZN11DrawingAreaC1EP7QWidget
epsonscan2:_ZN11DrawingAreaC2EP7QWidget
epsonscan2:_ZN11DrawingAreaD0Ev
epsonscan2:_ZN11DrawingAreaD1Ev
epsonscan2:_ZN11DrawingAreaD2Ev
epsonscan2:_ZN11GammaSlider10initializeEd
epsonscan2:_ZN11GammaSlider10item_eventEdP17INT_SETTING_VALUE
epsonscan2:_ZN11GammaSlider11qt_metacallEN11QMetaObject4CallEiPPv
epsonscan2:_ZN11GammaSlider11qt_metacastEPKc
epsonscan2:_ZN11GammaSlider11set_enabledEb
epsonscan2:_ZN11GammaSlider14setGammaSliderEd
epsonscan2:_ZN11GammaSlider16staticMetaObjectE
epsonscan2:_ZN11GammaSlider9update_uiEv
epsonscan2:_ZN11GammaSliderC1EP7QWidget
epsonscan2:_ZN11GammaSliderC2EP7QWidget
epsonscan2:_ZN11RotateImage6RotateENSt7__cxx1112basic_stringIcSt11char_traitsIcESaIcEEEi11ImageFormatbi
epsonscan2:_ZN11RotateImageC1E9ColorType
epsonscan2:_ZN11RotateImageC2E9ColorType
epsonscan2:_ZN12DeviceFinder13ManuNetfinderEv
epsonscan2:_ZN12DeviceFinder6finderEP7QWidget
epsonscan2:_ZN12DeviceFinderC1Ev
epsonscan2:_ZN12DeviceFinderC2Ev
epsonscan2:_ZN12MyRubberBand10paintEventEP11QPaintEvent
epsonscan2:_ZN12MyRubberBand11qt_metacallEN11QMetaObject4CallEiPPv
epsonscan2:_ZN12MyRubberBand11qt_metacastEPKc
epsonscan2:_ZN12MyRubberBand16staticMetaObjectE
epsonscan2:_ZN12MyRubberBand6UpdateEv
epsonscan2:_ZN12MyRubberBandC1EN11QRubberBand5ShapeEP7QWidget
epsonscan2:_ZN12MyRubberBandC2EN11QRubberBand5ShapeEP7QWidget
epsonscan2:_ZN12MyRubberBandD0Ev
epsonscan2:_ZN12MyRubberBandD1Ev
epsonscan2:_ZN12MyRubberBandD2Ev
epsonscan2:_ZN13AddPageDialog10closeEventEP11QCloseEvent
epsonscan2:_ZN13AddPageDialog11qt_metacallEN11QMetaObject4CallEiPPv
epsonscan2:_ZN13AddPageDialog11qt_metacastEPKc
epsonscan2:_ZN13AddPageDialog12CancelDialogEv
epsonscan2:_ZN13AddPageDialog15onButtonPressedEv
epsonscan2:_ZN13AddPageDialog16staticMetaObjectE
epsonscan2:_ZN13AddPageDialogC1EP14ScanningStatusP7QWidget
epsonscan2:_ZN13AddPageDialogC2EP14ScanningStatusP7QWidget
epsonscan2:_ZN13AddPageDialogD0Ev
epsonscan2:_ZN13AddPageDialogD1Ev
epsonscan2:_ZN13AddPageDialogD2Ev
epsonscan2:_ZN13Configuration16GetConfigurationEv
epsonscan2:_ZN13Configuration16SetConfigurationE13CONFIGURATION
epsonscan2:_ZN13ConfigurationC1Ev
epsonscan2:_ZN13ConfigurationC2Ev
epsonscan2:_ZN13Document_Size10add_optionEv
epsonscan2:_ZN13Document_Size10initializeE15SCAN_AREA_VALUEi11ScannerKindP17INT_SETTING_VALUE
epsonscan2:_ZN13Document_Size10item_eventEiP15SCAN_AREA_VALUEP17INT_SETTING_VALUE
epsonscan2:_ZN13Document_Size11create_listE8SCANPARAb
epsonscan2:_ZN13Document_Size11select_itemEv
epsonscan2:_ZN13Document_Size11set_enabledEb
epsonscan2:_ZN13Document_Size12ExistMarqueeEv
epsonscan2:_ZN13Document_Size14setMarqueeSizeE5QRect
epsonscan2:_ZN13Document_Size15update_scanareaEP15SCAN_AREA_VALUE
epsonscan2:_ZN13Document_Size16getMarqueeOffsetEv
epsonscan2:_ZN13Document_Size16setMarqueeOffsetE5QRect
epsonscan2:_ZN13Document_Size18add_setting_optionE17INT_SETTING_VALUE
epsonscan2:_ZN13Document_Size18append_custom_sizeEP7QString
epsonscan2:_ZN13Document_Size18create_custom_sizeEP7QString
epsonscan2:_ZN13Document_Size18item_event_optionsE15SCAN_AREA_VALUE
epsonscan2:_ZN13Document_Size19StandardSizeToPixelEv
epsonscan2:_ZN13Document_Size19create_maximum_sizeEP7QString15SCAN_AREA_VALUE
epsonscan2:_ZN13Document_Size19item_event_settingsEP17INT_SETTING_VALUE
epsonscan2:_ZN13Document_Size20calculate_pixel_sizeEdi
epsonscan2:_ZN13Document_Size20previewOffsetXAsInchEb13GuidePositionf14FunctionalUnit
epsonscan2:_ZN13Document_Size21CreateComboBoxToolTipE12DocumentSize15SCAN_AREA_VALUE
epsonscan2:_ZN13Document_Size22update_base_resolutionEi
epsonscan2:_ZN13Document_Size26calculate_pixel_size_inchiEd
epsonscan2:_ZN13Document_Size9update_uiE8SCANPARAib
epsonscan2:_ZN13Document_SizeC1EP7QWidget
epsonscan2:_ZN13Document_SizeC2EP7QWidget
epsonscan2:_ZN13Document_Type10initializeE12DocumentType
epsonscan2:_ZN13Document_Type10item_eventEiP17INT_SETTING_VALUE
epsonscan2:_ZN13Document_Type11select_itemE17INT_SETTING_VALUE
epsonscan2:_ZN13Document_Type11set_enabledEb
epsonscan2:_ZN13Document_Type8add_itemEPii
epsonscan2:_ZN13Document_Type9update_uiEP17INT_SETTING_VALUE
epsonscan2:_ZN13Document_TypeC1EP7QWidget
epsonscan2:_ZN13Document_TypeC2EP7QWidget
epsonscan2:_ZN13ImageEditView10InitializeEP15ImageEditDialog
epsonscan2:_ZN13ImageEditView10removeItemEv
epsonscan2:_ZN13ImageEditView10rotateLeftEv
epsonscan2:_ZN13ImageEditView11detectImageE6QPoint
epsonscan2:_ZN13ImageEditView11imageScaledEv
epsonscan2:_ZN13ImageEditView11resizeSceneEv
epsonscan2:_ZN13ImageEditView11rotateImageEi
epsonscan2:_ZN13ImageEditView11rotateRightEv
epsonscan2:_ZN13ImageEditView11setBigImageE6QPoint
epsonscan2:_ZN13ImageEditView12getImageInfoEv
epsonscan2:_ZN13ImageEditView12getItemCountEv
epsonscan2:_ZN13ImageEditView12selectedAreaE6QPoint
epsonscan2:_ZN13ImageEditView13setBackGroundEv
epsonscan2:_ZN13ImageEditView13setImageSceneEv
epsonscan2:_ZN13ImageEditView13setSmallImageE6QPoint
epsonscan2:_ZN13ImageEditView14mouseMoveEventEP11QMouseEvent
epsonscan2:_ZN13ImageEditView14numberingImageEv
epsonscan2:_ZN13ImageEditView14sortImageOrderEiiiii
epsonscan2:_ZN13ImageEditView15imageIsSelectedEv
epsonscan2:_ZN13ImageEditView15makeVerticalBarE6QPoint
epsonscan2:_ZN13ImageEditView15mousePressEventEP11QMouseEvent
epsonscan2:_ZN13ImageEditView15moveVerticalBarE6QPoint
epsonscan2:_ZN13ImageEditView16getImagePositionEi
epsonscan2:_ZN13ImageEditView16getImageRotationEi
epsonscan2:_ZN13ImageEditView16imageTransparentEi
epsonscan2:_ZN13ImageEditView16makeFrontAndBackEv
epsonscan2:_ZN13ImageEditView16setImagePositionEi
epsonscan2:_ZN13ImageEditView16showErrorMessageEv
epsonscan2:_ZN13ImageEditView17mouseReleaseEventEP11QMouseEvent
epsonscan2:_ZN13ImageEditView17removeVerticalBarEv
epsonscan2:_ZN13ImageEditView19storeOriginalImagesE7QString
epsonscan2:_ZN13ImageEditView19storeOriginalImagesEv
epsonscan2:_ZN13ImageEditView20selectedFrontAndBackE6QPoint
epsonscan2:_ZN13ImageEditView21integrateLoadFunctionENSt7__cxx114listI13imageEditInfoSaIS2_EEEPS4_
epsonscan2:_ZN13ImageEditView21mouseDoubleClickEventEP11QMouseEvent
epsonscan2:_ZN13ImageEditView22sortOriginalImageOrderEv
epsonscan2:_ZN13ImageEditView25makeSelectedItemRectangleEv
epsonscan2:_ZN13ImageEditView25moveSelectedItemRectangleEv
epsonscan2:_ZN13ImageEditView27removeSelectedItemRectangleEv
epsonscan2:_ZN13ImageEditView9loadImageE7QString
epsonscan2:_ZN13ImageEditView9makeAreasEv
epsonscan2:_ZN13ImageEditView9pdfDialogEv
epsonscan2:_ZN13ImageEditView9sortImageEv
epsonscan2:_ZN13ImageEditViewC1EP7QWidget
epsonscan2:_ZN13ImageEditViewC2EP7QWidget
epsonscan2:_ZN13PreviewButton10initializeEP16CustomMessageBox
epsonscan2:_ZN13PreviewButton14Button_pressedEP10Supervisor
epsonscan2:_ZN13PreviewButtonC1EP7QWidget
epsonscan2:_ZN13PreviewButtonC2EP7QWidget
epsonscan2:_ZN13PreviewWindow10initializeEP10MainWindow
epsonscan2:_ZN13PreviewWindow11qt_metacallEN11QMetaObject4CallEiPPv
epsonscan2:_ZN13PreviewWindow11qt_metacastEPKc
epsonscan2:_ZN13PreviewWindow13DeleteMarqueeEv
epsonscan2:_ZN13PreviewWindow14MarqueeCreatedEb
epsonscan2:_ZN13PreviewWindow14getDrawingAreaEv
epsonscan2:_ZN13PreviewWindow15ResetMessageBoxEv
epsonscan2:_ZN13PreviewWindow15getPreviewImageEv
epsonscan2:_ZN13PreviewWindow16staticMetaObjectE
epsonscan2:_ZN13PreviewWindow22PreviewImageAdjustmentEv
epsonscan2:_ZN13PreviewWindow22UpdateMarqueeSizeLabelEv
epsonscan2:_ZN13PreviewWindow23on_Close_Button_pressedEb
epsonscan2:_ZN13PreviewWindow24on_Delete_Button_pressedEv
epsonscan2:_ZN13PreviewWindow30PreviewImagePositionAdjustmentEdd
epsonscan2:_ZN13PreviewWindow31on_FocusPosition_Button_pressedEv
epsonscan2:_ZN13PreviewWindow9DrawImageEv
epsonscan2:_ZN13PreviewWindowC1EP10SupervisorP7QWidget
epsonscan2:_ZN13PreviewWindowC2EP10SupervisorP7QWidget
epsonscan2:_ZN13Scanning_Side10initializeE12ScanningSide
epsonscan2:_ZN13Scanning_Side10item_eventEiP17INT_SETTING_VALUE
epsonscan2:_ZN13Scanning_Side11select_itemE17INT_SETTING_VALUE
epsonscan2:_ZN13Scanning_Side11set_enabledEb
epsonscan2:_ZN13Scanning_Side8add_itemEPii
epsonscan2:_ZN13Scanning_Side9update_uiEP17INT_SETTING_VALUE
epsonscan2:_ZN13Scanning_SideC1EP7QWidget
epsonscan2:_ZN13Scanning_SideC2EP7QWidget
epsonscan2:_ZN13UnitsComboBox10initializeE5Units
epsonscan2:_ZN13UnitsComboBox10item_eventEi
epsonscan2:_ZN13UnitsComboBox11select_itemE5Units
epsonscan2:_ZN13UnitsComboBox11set_enabledEb
epsonscan2:_ZN13UnitsComboBox16get_current_itemEv
epsonscan2:_ZN13UnitsComboBox8add_itemEv
epsonscan2:_ZN13UnitsComboBox9update_uiEv
epsonscan2:_ZN13UnitsComboBoxC1EP7QWidget
epsonscan2:_ZN13UnitsComboBoxC2EP7QWidget
epsonscan2:_ZN13WaitingDialog10closeEventEP11QCloseEvent
epsonscan2:_ZN13WaitingDialog11qt_metacallEN11QMetaObject4CallEiPPv
epsonscan2:_ZN13WaitingDialog11qt_metacastEPKc
epsonscan2:_ZN13WaitingDialog16staticMetaObjectE
epsonscan2:_ZN13WaitingDialog6UpdateEv
epsonscan2:_ZN13WaitingDialogC1EPKciP7QWidget
epsonscan2:_ZN13WaitingDialogC2EPKciP7QWidget
epsonscan2:_ZN13WaitingDialogD0Ev
epsonscan2:_ZN13WaitingDialogD1Ev
epsonscan2:_ZN13WaitingDialogD2Ev
epsonscan2:_ZN14ContrastSlider10initializeEi
epsonscan2:_ZN14ContrastSlider10item_eventEiP17INT_SETTING_VALUE
epsonscan2:_ZN14ContrastSlider11set_enabledEb
epsonscan2:_ZN14ContrastSlider9update_uiEv
epsonscan2:_ZN14ContrastSliderC1EP7QWidget
epsonscan2:_ZN14ContrastSliderC2EP7QWidget
epsonscan2:_ZN14DeskewCheckbox10initializeEv
epsonscan2:_ZN14DeskewCheckbox10item_eventEbP17INT_SETTING_VALUE
epsonscan2:_ZN14DeskewCheckbox11select_itemEb
epsonscan2:_ZN14DeskewCheckbox11set_enabledEb
epsonscan2:_ZN14DeskewCheckbox13focusOutEventEP11QFocusEvent
epsonscan2:_ZN14DeskewCheckbox9update_uiE17INT_SETTING_VALUE
epsonscan2:_ZN14DeskewCheckboxC1EP7QWidget
epsonscan2:_ZN14DeskewCheckboxC2EP7QWidget
epsonscan2:_ZN14EdgeCorrection10initializeE8SCANPARA
epsonscan2:_ZN14EdgeCorrection10item_eventEiP17INT_SETTING_VALUE
epsonscan2:_ZN14EdgeCorrection11select_itemEv
epsonscan2:_ZN14EdgeCorrection18item_event_optionsEv
epsonscan2:_ZN14EdgeCorrection8add_itemEv
epsonscan2:_ZN14EdgeCorrection9update_uiE17INT_SETTING_VALUEP6QLabelS2_
epsonscan2:_ZN14EdgeCorrectionC1EP7QWidget
epsonscan2:_ZN14EdgeCorrectionC2EP7QWidget
epsonscan2:_ZN14ImageEditScene11getScenePosEv
epsonscan2:_ZN14ImageEditScene14mouseMoveEventEP24QGraphicsSceneMouseEvent
epsonscan2:_ZN14ImageEditScene15mousePressEventEP24QGraphicsSceneMouseEvent
epsonscan2:_ZN14ImageEditSceneC1EP7QObject
epsonscan2:_ZN14ImageEditSceneC2EP7QObject
epsonscan2:_ZN14PrefixLineedit10get_prefixEPNSt7__cxx1112basic_stringIcSt11char_traitsIcESaIcEEE
epsonscan2:_ZN14PrefixLineedit10initializeENSt7__cxx1112basic_stringIcSt11char_traitsIcESaIcEEE
epsonscan2:_ZN14PrefixLineedit10set_prefixE7QString
epsonscan2:_ZN14PrefixLineedit13BanMessageBoxEv
epsonscan2:_ZN14PrefixLineeditC1EP7QWidget
epsonscan2:_ZN14PrefixLineeditC2EP7QWidget
epsonscan2:_ZN14SaveDestFolder11open_folderEP10Supervisor
epsonscan2:_ZN14SaveDestFolder13ReplaceStringENSt7__cxx1112basic_stringIcSt11char_traitsIcESaIcEEES5_S5_
epsonscan2:_ZN14SaveDestFolderC1Ev
epsonscan2:_ZN14SaveDestFolderC2Ev
epsonscan2:_ZN14ScanningDialog10closeEventEP11QCloseEvent
epsonscan2:_ZN14ScanningDialog11qt_metacallEN11QMetaObject4CallEiPPv
epsonscan2:_ZN14ScanningDialog11qt_metacastEPKc
epsonscan2:_ZN14ScanningDialog14ScanInitializeE7QString
epsonscan2:_ZN14ScanningDialog16staticMetaObjectE
epsonscan2:_ZN14ScanningDialog6CancelEv
epsonscan2:_ZN14ScanningDialog6UpdateEv
epsonscan2:_ZN14ScanningDialogC1EP10SupervisorP7QWidget
epsonscan2:_ZN14ScanningDialogC2EP10SupervisorP7QWidget
epsonscan2:_ZN14ScanningDialogD0Ev
epsonscan2:_ZN14ScanningDialogD1Ev
epsonscan2:_ZN14ScanningDialogD2Ev
epsonscan2:_ZN15ACPowerComboBox10initializeE4Time
epsonscan2:_ZN15ACPowerComboBox10item_eventEi
epsonscan2:_ZN15ACPowerComboBox11select_itemE4Time
epsonscan2:_ZN15ACPowerComboBox11set_enabledEb
epsonscan2:_ZN15ACPowerComboBox16get_current_itemEv
epsonscan2:_ZN15ACPowerComboBox8add_itemEPii
epsonscan2:_ZN15ACPowerComboBox9update_uiE17INT_SETTING_VALUE
epsonscan2:_ZN15ACPowerComboBoxC1EP7QWidget
epsonscan2:_ZN15ACPowerComboBoxC2EP7QWidget
epsonscan2:_ZN15CommandLineMode10SelectModeEiPPKc
epsonscan2:_ZN15CommandLineMode11IsGetStatusEv
epsonscan2:_ZN15CommandLineMode11ListDevicesEv
epsonscan2:_ZN15CommandLineMode12ErrorMessageE8SDIError
epsonscan2:_ZN15CommandLineMode12SetIPAddressEPKc
epsonscan2:_ZN15CommandLineMode14SelectEditModeEiPPKc
epsonscan2:_ZN15CommandLineMode14UpdateScanAreaER15SCAN_AREA_VALUEi
epsonscan2:_ZN15CommandLineMode16search_item_listEiPii
epsonscan2:_ZN15CommandLineMode18ValidateEditOptionEiPPKc
epsonscan2:_ZN15CommandLineMode18ValidateScanOptionEiPPKc
epsonscan2:_ZN15CommandLineMode18cancel_sig_handlerEi
epsonscan2:_ZN15CommandLineMode20calculate_pixel_sizeEdi
epsonscan2:_ZN15CommandLineMode23ValidateGetStatusOptionEiPPKc
epsonscan2:_ZN15CommandLineMode24CreateDefaultSettingFileEPKcS1_
epsonscan2:_ZN15CommandLineMode8ShowHelpEv
epsonscan2:_ZN15CommandLineMode9GetStatusEPKc
epsonscan2:_ZN15CommandLineMode9ScanStartEPKcS1_
epsonscan2:_ZN15CommandLineModeC1Ev
epsonscan2:_ZN15CommandLineModeC2Ev
epsonscan2:_ZN15DefaultSettings13SetDeviceDataENSt7__cxx1112basic_stringIcSt11char_traitsIcESaIcEEEP8SCANPARA
epsonscan2:_ZN15DefaultSettings16ReadSettingsFileEP8SCANPARA
epsonscan2:_ZN15DefaultSettings24CheckDefaultSettingsFileEv
epsonscan2:_ZN15DefaultSettings25DeleteDefaultSettingsFileEv
epsonscan2:_ZN15DefaultSettingsC1Ev
epsonscan2:_ZN15DefaultSettingsC2Ev
epsonscan2:_ZN15Document_Source10initializeE17INT_SETTING_VALUEb
epsonscan2:_ZN15Document_Source10item_eventEiP8SCANPARA
epsonscan2:_ZN15Document_Source11select_itemEv
epsonscan2:_ZN15Document_Source11set_enabledEb
epsonscan2:_ZN15Document_Source16search_item_listEiPii
epsonscan2:_ZN15Document_Source18item_event_optionsEP17INT_SETTING_VALUE
epsonscan2:_ZN15Document_Source8add_itemEPiib
epsonscan2:_ZN15Document_Source9update_uiE17INT_SETTING_VALUE15SDISupportLevel
epsonscan2:_ZN15Document_SourceC1EP7QWidget
epsonscan2:_ZN15Document_SourceC2EP7QWidget
epsonscan2:_ZN15DropoutCombobox10initializeE17INT_SETTING_VALUE
epsonscan2:_ZN15DropoutCombobox10item_eventEiP17INT_SETTING_VALUE
epsonscan2:_ZN15DropoutCombobox11select_itemEv
epsonscan2:_ZN15DropoutCombobox11set_enabledEb
epsonscan2:_ZN15DropoutCombobox8add_itemEPii
epsonscan2:_ZN15DropoutCombobox9update_uiE17INT_SETTING_VALUE
epsonscan2:_ZN15DropoutComboboxC1EP7QWidget
epsonscan2:_ZN15DropoutComboboxC2EP7QWidget
epsonscan2:_ZN15ImageEditDialog10closeEventEP11QCloseEvent
epsonscan2:_ZN15ImageEditDialog11getInfoListEPNSt7__cxx114listI13imageEditInfoSaIS2_EEE
epsonscan2:_ZN15ImageEditDialog11qt_metacallEN11QMetaObject4CallEiPPv
epsonscan2:_ZN15ImageEditDialog11qt_metacastEPKc
epsonscan2:_ZN15ImageEditDialog12CancelDialogEv
epsonscan2:_ZN15ImageEditDialog15onButtonPressedEv
epsonscan2:_ZN15ImageEditDialog16staticMetaObjectE
epsonscan2:_ZN15ImageEditDialog17saveButtonGrayOutEb
epsonscan2:_ZN15ImageEditDialog17showRemoveMessageEv
epsonscan2:_ZN15ImageEditDialog21on_rotateLeft_clickedEv
epsonscan2:_ZN15ImageEditDialog21on_saveButton_clickedEv
epsonscan2:_ZN15ImageEditDialog22on_rotateRight_clickedEv
epsonscan2:_ZN15ImageEditDialog23on_removeButton_clickedEv
epsonscan2:_ZN15ImageEditDialog6rejectEv
epsonscan2:_ZN15ImageEditDialog7grayOutEb
epsonscan2:_ZN15ImageEditDialogC1ENSt7__cxx114listI13imageEditInfoSaIS2_EEEP14ScanningStatusP7QWidget
epsonscan2:_ZN15ImageEditDialogC2ENSt7__cxx114listI13imageEditInfoSaIS2_EEEP14ScanningStatusP7QWidget
epsonscan2:_ZN15ImageEditDialogD0Ev
epsonscan2:_ZN15ImageEditDialogD1Ev
epsonscan2:_ZN15ImageEditDialogD2Ev
epsonscan2:_ZN15ImageFormatComb10add_optionEi
epsonscan2:_ZN15ImageFormatComb10initializeE27IMAGE_FORMAT_SETTINGS_VALUE
epsonscan2:_ZN15ImageFormatComb10item_eventEiP27IMAGE_FORMAT_SETTINGS_VALUE
epsonscan2:_ZN15ImageFormatComb11select_itemEv
epsonscan2:_ZN15ImageFormatComb11set_enabledEb
epsonscan2:_ZN15ImageFormatComb13focusOutEventEP11QFocusEvent
epsonscan2:_ZN15ImageFormatComb18item_event_optionsEP27IMAGE_FORMAT_SETTINGS_VALUE
epsonscan2:_ZN15ImageFormatComb8add_itemEPii15SDISupportLevelbS1_
epsonscan2:_ZN15ImageFormatComb9update_uiE27IMAGE_FORMAT_SETTINGS_VALUEb
epsonscan2:_ZN15ImageFormatCombC1EP7QWidget
epsonscan2:_ZN15ImageFormatCombC2EP7QWidget
epsonscan2:_ZN15NoneRadioButtonC1EP7QWidget
epsonscan2:_ZN15NoneRadioButtonC2EP7QWidget
epsonscan2:_ZN15ThresholdSlider10initializeEi
epsonscan2:_ZN15ThresholdSlider10item_eventEiP17INT_SETTING_VALUE
epsonscan2:_ZN15ThresholdSlider11set_enabledEb
epsonscan2:_ZN15ThresholdSlider9update_uiEv
epsonscan2:_ZN15ThresholdSliderC1EP7QWidget
epsonscan2:_ZN15ThresholdSliderC2EP7QWidget
epsonscan2:_ZN16AddpagesCheckbox10initializeEb
epsonscan2:_ZN16AddpagesCheckbox10item_eventEbPb
epsonscan2:_ZN16AddpagesCheckbox11select_itemEb
epsonscan2:_ZN16AddpagesCheckbox13focusOutEventEP11QFocusEvent
epsonscan2:_ZN16AddpagesCheckbox16get_current_itemEv
epsonscan2:_ZN16AddpagesCheckbox9update_uiEv
epsonscan2:_ZN16AddpagesCheckboxC1EP7QWidget
epsonscan2:_ZN16AddpagesCheckboxC2EP7QWidget
epsonscan2:_ZN16BrightnessSlider10initializeEi
epsonscan2:_ZN16BrightnessSlider10item_eventEiP17INT_SETTING_VALUE
epsonscan2:_ZN16BrightnessSlider11set_enabledEb
epsonscan2:_ZN16BrightnessSlider9update_uiEv
epsonscan2:_ZN16BrightnessSliderC1EP7QWidget
epsonscan2:_ZN16BrightnessSliderC2EP7QWidget
epsonscan2:_ZN16CustomMessageBox14PaperJamDialogEP10Supervisor7QString14DoubleFeedMode
epsonscan2:_ZN16CustomMessageBox15ErrorMessageBoxEP10Supervisorb
epsonscan2:_ZN16CustomMessageBox16CreateMessageBoxE7QStringS0_8IconTypeb
epsonscan2:_ZN16CustomMessageBox26CreateSelectableMessageBoxE7QString8IconType
epsonscan2:_ZN16CustomMessageBoxC1EP7QWidget
epsonscan2:_ZN16CustomMessageBoxC2EP7QWidget
epsonscan2:_ZN16LastUsedCheckBox10initializeEb
epsonscan2:_ZN16LastUsedCheckBox10item_eventEb
epsonscan2:_ZN16LastUsedCheckBox11select_itemEb
epsonscan2:_ZN16LastUsedCheckBox11set_enabledEb
epsonscan2:_ZN16LastUsedCheckBox9update_uiEv
epsonscan2:_ZN16LastUsedCheckBoxC1EP7QWidget
epsonscan2:_ZN16LastUsedCheckBoxC2EP7QWidget
epsonscan2:_ZN16LastUsedSettings13SetDeviceDataENSt7__cxx1112basic_stringIcSt11char_traitsIcESaIcEEEP8SCANPARA
epsonscan2:_ZN16LastUsedSettings15SelectUSBDeviceENSt7__cxx1112basic_stringIcSt11char_traitsIcESaIcEEE
epsonscan2:_ZN16LastUsedSettings16ReadSettingsFileENSt7__cxx1112basic_stringIcSt11char_traitsIcESaIcEEEP8SCANPARA
epsonscan2:_ZN16LastUsedSettings17ReadPreferredInfoEv
epsonscan2:_ZN16LastUsedSettings18CreateSettingsDictENSt7__cxx1112basic_stringIcSt11char_traitsIcESaIcEEE8SCANPARA
epsonscan2:_ZN16LastUsedSettings18CreateSettingsFileENSt7__cxx1112basic_stringIcSt11char_traitsIcESaIcEEE8SCANPARA
epsonscan2:_ZN16LastUsedSettings18ReadMainWindowInfoEv
epsonscan2:_ZN16LastUsedSettings19CheckLastUsedDeviceEv
epsonscan2:_ZN16LastUsedSettings19CreatePreferredInfoE13SDIDeviceInfo
epsonscan2:_ZN16LastUsedSettings19DeletePreferredInfoEv
epsonscan2:_ZN16LastUsedSettings19ReadCmdSettingsFileENSt7__cxx1112basic_stringIcSt11char_traitsIcESaIcEEEP8SCANPARA
epsonscan2:_ZN16LastUsedSettings19SelectNetworkDeviceENSt7__cxx1112basic_stringIcSt11char_traitsIcESaIcEEE
epsonscan2:_ZN16LastUsedSettings22ReadCommonSettingsFileEv
epsonscan2:_ZN16LastUsedSettings23CheckCommonSettingsFileEv
epsonscan2:_ZN16LastUsedSettings24CreateCommonSettingsFileER13Configuration
epsonscan2:_ZN16LastUsedSettings24DeleteCommonSettingsFileEv
epsonscan2:_ZN16LastUsedSettingsC1Ev
epsonscan2:_ZN16LastUsedSettingsC2Ev
epsonscan2:_ZN16RemovePunchHoles10initializeEv
epsonscan2:_ZN16RemovePunchHoles10item_eventEiP17INT_SETTING_VALUE
epsonscan2:_ZN16RemovePunchHoles11select_itemE17INT_SETTING_VALUE
epsonscan2:_ZN16RemovePunchHoles8add_itemEPii
epsonscan2:_ZN16RemovePunchHoles9update_uiE17INT_SETTING_VALUEP6QLabelS2_
epsonscan2:_ZN16RemovePunchHolesC1EP7QWidget
epsonscan2:_ZN16RemovePunchHolesC2EP7QWidget
epsonscan2:_ZN17SaveImagePathList20save_image_path_listB5cxx11E
epsonscan2:_ZN17SaveImagePathListC1Ev
epsonscan2:_ZN17SaveImagePathListC2Ev
epsonscan2:_ZN17SleepTimerSpinBox10initializeE17INT_SETTING_VALUE
epsonscan2:_ZN17SleepTimerSpinBox10item_eventEi
epsonscan2:_ZN17SleepTimerSpinBox11set_enabledEb
epsonscan2:_ZN17SleepTimerSpinBox16get_current_itemEv
epsonscan2:_ZN17SleepTimerSpinBox9update_uiEv
epsonscan2:_ZN17SleepTimerSpinBoxC1EP7QWidget
epsonscan2:_ZN17SleepTimerSpinBoxC2EP7QWidget
epsonscan2:_ZN17TranslationString9GetStringEv
epsonscan2:_ZN17TranslationString9SetStringEv
epsonscan2:_ZN17TranslationStringC1Ev
epsonscan2:_ZN17TranslationStringC2Ev
epsonscan2:_ZN17addeditpageDialog10EditDialogEPNSt7__cxx114listI13imageEditInfoSaIS2_EEE
epsonscan2:_ZN17addeditpageDialog10closeEventEP11QCloseEvent
epsonscan2:_ZN17addeditpageDialog11qt_metacallEN11QMetaObject4CallEiPPv
epsonscan2:_ZN17addeditpageDialog11qt_metacastEPKc
epsonscan2:_ZN17addeditpageDialog12CancelDialogEv
epsonscan2:_ZN17addeditpageDialog15onButtonPressedEv
epsonscan2:_ZN17addeditpageDialog16staticMetaObjectE
epsonscan2:_ZN17addeditpageDialogC1EP14ScanningStatusP7QWidget
epsonscan2:_ZN17addeditpageDialogC2EP14ScanningStatusP7QWidget
epsonscan2:_ZN17addeditpageDialogD0Ev
epsonscan2:_ZN17addeditpageDialogD1Ev
epsonscan2:_ZN17addeditpageDialogD2Ev
epsonscan2:_ZN18AfmTimeoutCombobox10initializeE17INT_SETTING_VALUE
epsonscan2:_ZN18AfmTimeoutCombobox10item_eventEi
epsonscan2:_ZN18AfmTimeoutCombobox11select_itemEv
epsonscan2:_ZN18AfmTimeoutCombobox11set_enabledEb
epsonscan2:_ZN18AfmTimeoutCombobox8add_itemEv
epsonscan2:_ZN18AfmTimeoutCombobox9update_uiEv
epsonscan2:_ZN18AfmTimeoutComboboxC1EP7QWidget
epsonscan2:_ZN18AfmTimeoutComboboxC2EP7QWidget
epsonscan2:_ZN18DeviceSelectDialog10InitializeEP10Supervisor
epsonscan2:_ZN18DeviceSelectDialog10closeEventEP11QCloseEvent
epsonscan2:_ZN18DeviceSelectDialog11qt_metacallEN11QMetaObject4CallEiPPv
epsonscan2:_ZN18DeviceSelectDialog11qt_metacastEPKc
epsonscan2:_ZN18DeviceSelectDialog14onValueChangedEi
epsonscan2:_ZN18DeviceSelectDialog15PushEventButtonEv
epsonscan2:_ZN18DeviceSelectDialog16staticMetaObjectE
epsonscan2:_ZN18DeviceSelectDialog8updateUIEv
epsonscan2:_ZN18DeviceSelectDialogC1EP7QWidget
epsonscan2:_ZN18DeviceSelectDialogC2EP7QWidget
epsonscan2:_ZN18DeviceSelectDialogD0Ev
epsonscan2:_ZN18DeviceSelectDialogD1Ev
epsonscan2:_ZN18DeviceSelectDialogD2Ev
epsonscan2:_ZN18DocumentSizeDialog10InitializeE15SCAN_AREA_VALUE11ScannerKind
epsonscan2:_ZN18DocumentSizeDialog11qt_metacallEN11QMetaObject4CallEiPPv
epsonscan2:_ZN18DocumentSizeDialog11qt_metacastEPKc
epsonscan2:_ZN18DocumentSizeDialog12select_unitsEv
epsonscan2:_ZN18DocumentSizeDialog16staticMetaObjectE
epsonscan2:_ZN18DocumentSizeDialog18onValueChangedBoolEb
epsonscan2:_ZN18DocumentSizeDialog19ChangeDetPaperCheckEb
epsonscan2:_ZN18DocumentSizeDialog7GetSizeEPdS0_Pb
epsonscan2:_ZN18DocumentSizeDialog7SetSizeEv
epsonscan2:_ZN18DocumentSizeDialog8FinalizeEv
epsonscan2:_ZN18DocumentSizeDialogC1EP7QWidget
epsonscan2:_ZN18DocumentSizeDialogC2EP7QWidget
epsonscan2:_ZN18DocumentSizeDialogD0Ev
epsonscan2:_ZN18DocumentSizeDialogD1Ev
epsonscan2:_ZN18DocumentSizeDialogD2Ev
epsonscan2:_ZN18GammaDoubleSpinBox11qt_metacallEN11QMetaObject4CallEiPPv
epsonscan2:_ZN18GammaDoubleSpinBox11qt_metacastEPKc
epsonscan2:_ZN18GammaDoubleSpinBox16staticMetaObjectE
epsonscan2:_ZN18GammaDoubleSpinBox8setGammaEi
epsonscan2:_ZN18GammaDoubleSpinBoxC1EP7QWidget
epsonscan2:_ZN18GammaDoubleSpinBoxC2EP7QWidget
epsonscan2:_ZN18RemoveBackComboBox10initializeE17INT_SETTING_VALUE
epsonscan2:_ZN18RemoveBackComboBox10item_eventEiP17INT_SETTING_VALUE
epsonscan2:_ZN18RemoveBackComboBox11select_itemEv
epsonscan2:_ZN18RemoveBackComboBox11set_enabledEb
epsonscan2:_ZN18RemoveBackComboBox11set_visibleE15SDISupportLevel
epsonscan2:_ZN18RemoveBackComboBox8add_itemEPii
epsonscan2:_ZN18RemoveBackComboBox9update_uiE17INT_SETTING_VALUE
epsonscan2:_ZN18RemoveBackComboBoxC1EP7QWidget
epsonscan2:_ZN18RemoveBackComboBoxC2EP7QWidget
epsonscan2:_ZN18SkipblankpagesComb10initializeE8SCANPARA
epsonscan2:_ZN18SkipblankpagesComb10item_eventEiP8SCANPARA
epsonscan2:_ZN18SkipblankpagesComb11select_itemEv
epsonscan2:_ZN18SkipblankpagesComb11set_enabledEb
epsonscan2:_ZN18SkipblankpagesComb13focusOutEventEP11QFocusEvent
epsonscan2:_ZN18SkipblankpagesComb18item_event_optionsEv
epsonscan2:_ZN18SkipblankpagesComb8add_itemEv
epsonscan2:_ZN18SkipblankpagesComb9update_uiEP17INT_SETTING_VALUE
epsonscan2:_ZN18SkipblankpagesCombC1EP7QWidget
epsonscan2:_ZN18SkipblankpagesCombC2EP7QWidget
epsonscan2:_ZN18WidthDoubleSpinBox10initializeE15SCAN_AREA_VALUE
epsonscan2:_ZN18WidthDoubleSpinBox11set_enabledEb
epsonscan2:_ZN18WidthDoubleSpinBox12isUnit_inchiEv
epsonscan2:_ZN18WidthDoubleSpinBox15SetSpinBoxParamE15SCAN_AREA_VALUE
epsonscan2:_ZN18WidthDoubleSpinBox17CreateBaseToValueEv
epsonscan2:_ZN18WidthDoubleSpinBox17CreateValueToBaseEv
epsonscan2:_ZN18WidthDoubleSpinBox18CreateDisplayValueEd
epsonscan2:_ZN18WidthDoubleSpinBox8FinalizeEv
epsonscan2:_ZN18WidthDoubleSpinBoxC1EP7QWidget
epsonscan2:_ZN18WidthDoubleSpinBoxC2EP7QWidget
epsonscan2:_ZN19ConfigurationDialog10InitializeEv
epsonscan2:_ZN19ConfigurationDialog11DisplayItemEv
epsonscan2:_ZN19ConfigurationDialog11qt_metacallEN11QMetaObject4CallEiPPv
epsonscan2:_ZN19ConfigurationDialog11qt_metacastEPKc
epsonscan2:_ZN19ConfigurationDialog13Get_ResetFlagEv
epsonscan2:_ZN19ConfigurationDialog14onValueChangedEi
epsonscan2:_ZN19ConfigurationDialog15ResetMessageBoxEv
epsonscan2:_ZN19ConfigurationDialog16PushButtonActionEv
epsonscan2:_ZN19ConfigurationDialog16staticMetaObjectE
epsonscan2:_ZN19ConfigurationDialog18onValueChangedBoolEb
epsonscan2:_ZN19ConfigurationDialog19Check_AdminPasswordEv
epsonscan2:_ZN19ConfigurationDialog20Get_CounterResetFlagEv
epsonscan2:_ZN19ConfigurationDialog20UpdateCounterDisplayE23CONFIGURE_COUNTER_VALUE
epsonscan2:_ZN19ConfigurationDialog22CounterResetMessageBoxE7QString
epsonscan2:_ZN19ConfigurationDialog24CheckNearRollerLifeLimitE23CONFIGURE_COUNTER_VALUEPb
epsonscan2:_ZN19ConfigurationDialog24CheckOverRollerLifeLimitE23CONFIGURE_COUNTER_VALUEPb
epsonscan2:_ZN19ConfigurationDialog24UpdateInformationDisplayE8SCANPARA
epsonscan2:_ZN19ConfigurationDialog25CheckUnlockButton_EnabledEv
epsonscan2:_ZN19ConfigurationDialog27CheckNearRollerKitLifeLimitE23CONFIGURE_COUNTER_VALUEPb
epsonscan2:_ZN19ConfigurationDialog27CheckOverRollerKitLifeLimitE23CONFIGURE_COUNTER_VALUEPb
epsonscan2:_ZN19ConfigurationDialog30CheckNearRetardRollerLifeLimitE23CONFIGURE_COUNTER_VALUEPb
epsonscan2:_ZN19ConfigurationDialog30CheckOverRetardRollerLifeLimitE23CONFIGURE_COUNTER_VALUEPb
epsonscan2:_ZN19ConfigurationDialog7hideTabERK7QString
epsonscan2:_ZN19ConfigurationDialog8updateUIE8SCANPARA
epsonscan2:_ZN19ConfigurationDialogC1EP10SupervisorP7QWidget
epsonscan2:_ZN19ConfigurationDialogC2EP10SupervisorP7QWidget
epsonscan2:_ZN19ConfigurationDialogD0Ev
epsonscan2:_ZN19ConfigurationDialogD1Ev
epsonscan2:_ZN19ConfigurationDialogD2Ev
epsonscan2:_ZN19DetectPaperCheckBox10initializeEb
epsonscan2:_ZN19DetectPaperCheckBox10item_eventEb
epsonscan2:_ZN19DetectPaperCheckBox11select_itemEb
epsonscan2:_ZN19DetectPaperCheckBox11set_enabledEb
epsonscan2:_ZN19DetectPaperCheckBox9update_uiEv
epsonscan2:_ZN19DetectPaperCheckBoxC1EP7QWidget
epsonscan2:_ZN19DetectPaperCheckBoxC2EP7QWidget
epsonscan2:_ZN19LengthDoubleSpinBox10initializeE15SCAN_AREA_VALUE
epsonscan2:_ZN19LengthDoubleSpinBox11set_enabledEb
epsonscan2:_ZN19LengthDoubleSpinBox12isUnit_inchiEv
epsonscan2:_ZN19LengthDoubleSpinBox15SetSpinBoxParamE15SCAN_AREA_VALUE
epsonscan2:_ZN19LengthDoubleSpinBox17CreateBaseToValueEv
epsonscan2:_ZN19LengthDoubleSpinBox17CreateValueToBaseEv
epsonscan2:_ZN19LengthDoubleSpinBox18CreateDisplayValueEd
epsonscan2:_ZN19LengthDoubleSpinBox8FinalizeEv
epsonscan2:_ZN19LengthDoubleSpinBoxC1EP7QWidget
epsonscan2:_ZN19LengthDoubleSpinBoxC2EP7QWidget
epsonscan2:_ZN19TextEnhanceCombobox10initializeE17INT_SETTING_VALUE
epsonscan2:_ZN19TextEnhanceCombobox10item_eventEiP17INT_SETTING_VALUE
epsonscan2:_ZN19TextEnhanceCombobox11select_itemEv
epsonscan2:_ZN19TextEnhanceCombobox11set_enabledEb
epsonscan2:_ZN19TextEnhanceCombobox11set_visibleE15SDISupportLevel
epsonscan2:_ZN19TextEnhanceCombobox8add_itemEPii
epsonscan2:_ZN19TextEnhanceCombobox9update_uiE17INT_SETTING_VALUE
epsonscan2:_ZN19TextEnhanceComboboxC1EP7QWidget
epsonscan2:_ZN19TextEnhanceComboboxC2EP7QWidget
epsonscan2:_ZN20BatteryPowerComboBox10initializeE4Time
epsonscan2:_ZN20BatteryPowerComboBox10item_eventEi
epsonscan2:_ZN20BatteryPowerComboBox11select_itemEv
epsonscan2:_ZN20BatteryPowerComboBox11set_enabledEb
epsonscan2:_ZN20BatteryPowerComboBox16get_current_itemEv
epsonscan2:_ZN20BatteryPowerComboBox8add_itemEPii
epsonscan2:_ZN20BatteryPowerComboBox9update_uiE17INT_SETTING_VALUE
epsonscan2:_ZN20BatteryPowerComboBoxC1EP7QWidget
epsonscan2:_ZN20BatteryPowerComboBoxC2EP7QWidget
epsonscan2:_ZN20ContinuousScanDialog10InitializeE7QString14DoubleFeedMode
epsonscan2:_ZN20ContinuousScanDialog10closeEventEP11QCloseEvent
epsonscan2:_ZN20ContinuousScanDialog11qt_metacallEN11QMetaObject4CallEiPPv
epsonscan2:_ZN20ContinuousScanDialog11qt_metacastEPKc
epsonscan2:_ZN20ContinuousScanDialog13ChangeStringsE14DoubleFeedMode7QString
epsonscan2:_ZN20ContinuousScanDialog13LoadScanImageEv
epsonscan2:_ZN20ContinuousScanDialog15onButtonPressedEv
epsonscan2:_ZN20ContinuousScanDialog16staticMetaObjectE
epsonscan2:_ZN20ContinuousScanDialog17GetScanningStatusEv
epsonscan2:_ZN20ContinuousScanDialog43AddADFSpecialErrorMessageForPassportStringsE7QString
epsonscan2:_ZN20ContinuousScanDialogC1EP10SupervisorP7QWidget
epsonscan2:_ZN20ContinuousScanDialogC2EP10SupervisorP7QWidget
epsonscan2:_ZN20ContinuousScanDialogD0Ev
epsonscan2:_ZN20ContinuousScanDialogD1Ev
epsonscan2:_ZN20ContinuousScanDialogD2Ev
epsonscan2:_ZN20DetectDoubleFeedComb10initializeE17INT_SETTING_VALUE
epsonscan2:_ZN20DetectDoubleFeedComb10item_eventEiP27DOUBLE_FEED_DETECTION_VALUE
epsonscan2:_ZN20DetectDoubleFeedComb11select_itemE17INT_SETTING_VALUE
epsonscan2:_ZN20DetectDoubleFeedComb11set_enabledEb
epsonscan2:_ZN20DetectDoubleFeedComb13focusOutEventEP11QFocusEvent
epsonscan2:_ZN20DetectDoubleFeedComb18item_event_optionsEP27DOUBLE_FEED_DETECTION_VALUE
epsonscan2:_ZN20DetectDoubleFeedComb8add_itemE13SDICapability
epsonscan2:_ZN20DetectDoubleFeedComb9update_uiE27DOUBLE_FEED_DETECTION_VALUE
epsonscan2:_ZN20DetectDoubleFeedCombC1EP7QWidget
epsonscan2:_ZN20DetectDoubleFeedCombC2EP7QWidget
epsonscan2:_ZN20HorizonDoctoolButton11qt_metacallEN11QMetaObject4CallEiPPv
epsonscan2:_ZN20HorizonDoctoolButton11qt_metacastEPKc
epsonscan2:_ZN20HorizonDoctoolButton12button_eventEb
epsonscan2:_ZN20HorizonDoctoolButton16staticMetaObjectE
epsonscan2:_ZN20HorizonDoctoolButtonC1EP7QWidget
epsonscan2:_ZN20HorizonDoctoolButtonC2EP7QWidget
epsonscan2:_ZN21AboutEpsonScan2Dialog10InitializeEv
epsonscan2:_ZN21AboutEpsonScan2Dialog10closeEventEP11QCloseEvent
epsonscan2:_ZN21AboutEpsonScan2Dialog11qt_metacallEN11QMetaObject4CallEiPPv
epsonscan2:_ZN21AboutEpsonScan2Dialog11qt_metacastEPKc
epsonscan2:_ZN21AboutEpsonScan2Dialog15ReadVersionFileEPKc
epsonscan2:_ZN21AboutEpsonScan2Dialog16staticMetaObjectE
epsonscan2:_ZN21AboutEpsonScan2DialogC1EP7QWidget
epsonscan2:_ZN21AboutEpsonScan2DialogC2EP7QWidget
epsonscan2:_ZN21AboutEpsonScan2DialogD0Ev
epsonscan2:_ZN21AboutEpsonScan2DialogD1Ev
epsonscan2:_ZN21AboutEpsonScan2DialogD2Ev
epsonscan2:_ZN21DirectPowerOnCombobox10initializeE13DirectPowerOn
epsonscan2:_ZN21DirectPowerOnCombobox10item_eventEi
epsonscan2:_ZN21DirectPowerOnCombobox11select_itemEv
epsonscan2:_ZN21DirectPowerOnCombobox11set_enabledEb
epsonscan2:_ZN21DirectPowerOnCombobox16get_current_itemEv
epsonscan2:_ZN21DirectPowerOnCombobox8add_itemEPii
epsonscan2:_ZN21DirectPowerOnCombobox9update_uiE17INT_SETTING_VALUE
epsonscan2:_ZN21DirectPowerOnComboboxC1EP7QWidget
epsonscan2:_ZN21DirectPowerOnComboboxC2EP7QWidget
epsonscan2:_ZN21FileNameSettingDialog10InitializeE8SCANPARA
epsonscan2:_ZN21FileNameSettingDialog11qt_metacallEN11QMetaObject4CallEiPPv
epsonscan2:_ZN21FileNameSettingDialog11qt_metacastEPKc
epsonscan2:_ZN21FileNameSettingDialog16staticMetaObjectE
epsonscan2:_ZN21FileNameSettingDialog18onValueChangedBoolEb
epsonscan2:_ZN21FileNameSettingDialog19getFileName_CounterEv
epsonscan2:_ZN21FileNameSettingDialog21getFileName_OverWriteEv
epsonscan2:_ZN21FileNameSettingDialogC1EP7QWidget
epsonscan2:_ZN21FileNameSettingDialogC2EP7QWidget
epsonscan2:_ZN21FileNameSettingDialogD0Ev
epsonscan2:_ZN21FileNameSettingDialogD1Ev
epsonscan2:_ZN21FileNameSettingDialogD2Ev
epsonscan2:_ZN21RemoveBackRadioButtonC1EP7QWidget
epsonscan2:_ZN21RemoveBackRadioButtonC2EP7QWidget
epsonscan2:_ZN21VerticalDoctoolButton11qt_metacallEN11QMetaObject4CallEiPPv
epsonscan2:_ZN21VerticalDoctoolButton11qt_metacastEPKc
epsonscan2:_ZN21VerticalDoctoolButton12button_eventEb
epsonscan2:_ZN21VerticalDoctoolButton16staticMetaObjectE
epsonscan2:_ZN21VerticalDoctoolButtonC1EP7QWidget
epsonscan2:_ZN21VerticalDoctoolButtonC2EP7QWidget
epsonscan2:_ZN22DeviceConnectionDialog10InitializeEv
epsonscan2:_ZN22DeviceConnectionDialog10closeEventEP11QCloseEvent
epsonscan2:_ZN22DeviceConnectionDialog11qt_metacallEN11QMetaObject4CallEiPPv
epsonscan2:_ZN22DeviceConnectionDialog11qt_metacastEPKc
epsonscan2:_ZN22DeviceConnectionDialog15CheckConnectionEv
epsonscan2:_ZN22DeviceConnectionDialog15ConnectToDeviceEPv
epsonscan2:_ZN22DeviceConnectionDialog16staticMetaObjectE
epsonscan2:_ZN22DeviceConnectionDialog19GetConnectionResultEv
epsonscan2:_ZN22DeviceConnectionDialog22ResetOnlyStandaloneValEP10Supervisor
epsonscan2:_ZN22DeviceConnectionDialogC1EP10Supervisor13SDIDeviceInfobP7QWidget
epsonscan2:_ZN22DeviceConnectionDialogC2EP10Supervisor13SDIDeviceInfobP7QWidget
epsonscan2:_ZN22DeviceConnectionDialogD0Ev
epsonscan2:_ZN22DeviceConnectionDialogD1Ev
epsonscan2:_ZN22DeviceConnectionDialogD2Ev
epsonscan2:_ZN22DeviceSelectorCombobox10add_deviceEv
epsonscan2:_ZN22DeviceSelectorCombobox10add_optionEv
epsonscan2:_ZN22DeviceSelectorCombobox10initializeEv
epsonscan2:_ZN22DeviceSelectorCombobox10item_eventEi
epsonscan2:_ZN22DeviceSelectorCombobox11add_manu_ipEv
epsonscan2:_ZN22DeviceSelectorCombobox11select_itemEv
epsonscan2:_ZN22DeviceSelectorCombobox14get_cur_deviceEv
epsonscan2:_ZN22DeviceSelectorCombobox17CreateDisplayNameEPcPKcii
epsonscan2:_ZN22DeviceSelectorCombobox18item_event_optionsEv
epsonscan2:_ZN22DeviceSelectorCombobox18update_device_listEv
epsonscan2:_ZN22DeviceSelectorCombobox6finderEv
epsonscan2:_ZN22DeviceSelectorComboboxC1EP7QWidget
epsonscan2:_ZN22DeviceSelectorComboboxC2EP7QWidget
epsonscan2:_ZN22PaperThicknessComboBox10initializeE19DoubleFeedDetection
epsonscan2:_ZN22PaperThicknessComboBox10item_eventEi
epsonscan2:_ZN22PaperThicknessComboBox11select_itemEv
epsonscan2:_ZN22PaperThicknessComboBox11set_enabledEb
epsonscan2:_ZN22PaperThicknessComboBox8add_itemEPii
epsonscan2:_ZN22PaperThicknessComboBox9update_uiE17INT_SETTING_VALUE
epsonscan2:_ZN22PaperThicknessComboBoxC1EP7QWidget
epsonscan2:_ZN22PaperThicknessComboBoxC2EP7QWidget
epsonscan2:_ZN22QualityPreviewCheckbox10initializeEb
epsonscan2:_ZN22QualityPreviewCheckbox10item_eventEb
epsonscan2:_ZN22QualityPreviewCheckbox11select_itemEb
epsonscan2:_ZN22QualityPreviewCheckbox11set_enabledEb
epsonscan2:_ZN22QualityPreviewCheckbox9update_uiEv
epsonscan2:_ZN22QualityPreviewCheckboxC1EP7QWidget
epsonscan2:_ZN22QualityPreviewCheckboxC2EP7QWidget
epsonscan2:_ZN23BackgroundColorCombobox10initializeE8SCANPARA
epsonscan2:_ZN23BackgroundColorCombobox10item_eventEiP17INT_SETTING_VALUE
epsonscan2:_ZN23BackgroundColorCombobox11select_itemEv
epsonscan2:_ZN23BackgroundColorCombobox11set_enabledEb
epsonscan2:_ZN23BackgroundColorCombobox8add_itemEv
epsonscan2:_ZN23BackgroundColorCombobox9update_uiE17INT_SETTING_VALUE
epsonscan2:_ZN23BackgroundColorComboboxC1EP7QWidget
epsonscan2:_ZN23BackgroundColorComboboxC2EP7QWidget
epsonscan2:_ZN23DeviceNameStackedWidgetC1EP7QWidget
epsonscan2:_ZN23DeviceNameStackedWidgetC2EP7QWidget
epsonscan2:_ZN23ImageTypeSettingsDialog10InitializeEP10Supervisor
epsonscan2:_ZN23ImageTypeSettingsDialog10item_eventEi
epsonscan2:_ZN23ImageTypeSettingsDialog11qt_metacallEN11QMetaObject4CallEiPPv
epsonscan2:_ZN23ImageTypeSettingsDialog11qt_metacastEPKc
epsonscan2:_ZN23ImageTypeSettingsDialog11select_itemE17INT_SETTING_VALUE
epsonscan2:_ZN23ImageTypeSettingsDialog12select_levelE17INT_SETTING_VALUE
epsonscan2:_ZN23ImageTypeSettingsDialog14onValueChangedEi
epsonscan2:_ZN23ImageTypeSettingsDialog15get_currentItemEv
epsonscan2:_ZN23ImageTypeSettingsDialog16get_currentValueEv
epsonscan2:_ZN23ImageTypeSettingsDialog16staticMetaObjectE
epsonscan2:_ZN23ImageTypeSettingsDialog17item_event_sliderEi
epsonscan2:_ZN23ImageTypeSettingsDialog8add_itemEPii
epsonscan2:_ZN23ImageTypeSettingsDialogC1EP7QWidget
epsonscan2:_ZN23ImageTypeSettingsDialogC2EP7QWidget
epsonscan2:_ZN23ImageTypeSettingsDialogD0Ev
epsonscan2:_ZN23ImageTypeSettingsDialogD1Ev
epsonscan2:_ZN23ImageTypeSettingsDialogD2Ev
epsonscan2:_ZN24InitDeviceSelectCombobox10add_deviceEv
epsonscan2:_ZN24InitDeviceSelectCombobox10add_optionEv
epsonscan2:_ZN24InitDeviceSelectCombobox10initializeEv
epsonscan2:_ZN24InitDeviceSelectCombobox10item_eventEi
epsonscan2:_ZN24InitDeviceSelectCombobox11add_manu_ipEv
epsonscan2:_ZN24InitDeviceSelectCombobox11select_itemEv
epsonscan2:_ZN24InitDeviceSelectCombobox17CreateDisplayNameEPcPKcii
epsonscan2:_ZN24InitDeviceSelectCombobox18item_event_optionsEv
epsonscan2:_ZN24InitDeviceSelectCombobox18update_device_listEv
epsonscan2:_ZN24InitDeviceSelectComboboxC1EP7QWidget
epsonscan2:_ZN24InitDeviceSelectComboboxC2EP7QWidget
epsonscan2:_ZN24TextEnhanceSettingDialog11qt_metacallEN11QMetaObject4CallEiPPv
epsonscan2:_ZN24TextEnhanceSettingDialog11qt_metacastEPKc
epsonscan2:_ZN24TextEnhanceSettingDialog14onValueChangedEi
epsonscan2:_ZN24TextEnhanceSettingDialog16staticMetaObjectE
epsonscan2:_ZN24TextEnhanceSettingDialog8GetValueEP8SCANPARA
epsonscan2:_ZN24TextEnhanceSettingDialog8SetValueEv
epsonscan2:_ZN24TextEnhanceSettingDialog8updateUIEv
epsonscan2:_ZN24TextEnhanceSettingDialogC1E8SCANPARAP7QWidget
epsonscan2:_ZN24TextEnhanceSettingDialogC2E8SCANPARAP7QWidget
epsonscan2:_ZN24TextEnhanceSettingDialogD0Ev
epsonscan2:_ZN24TextEnhanceSettingDialogD1Ev
epsonscan2:_ZN24TextEnhanceSettingDialogD2Ev
epsonscan2:_ZN25BlackEdgeInscribeCheckBox10initializeEb
epsonscan2:_ZN25BlackEdgeInscribeCheckBox10item_eventEb
epsonscan2:_ZN25BlackEdgeInscribeCheckBox11select_itemEb
epsonscan2:_ZN25BlackEdgeInscribeCheckBox13focusOutEventEP11QFocusEvent
epsonscan2:_ZN25BlackEdgeInscribeCheckBox16get_current_itemEv
epsonscan2:_ZN25BlackEdgeInscribeCheckBox9update_uiEv
epsonscan2:_ZN25BlackEdgeInscribeCheckBoxC1EP7QWidget
epsonscan2:_ZN25BlackEdgeInscribeCheckBoxC2EP7QWidget
epsonscan2:_ZN25DocumentSizeSettingDialog10InitializeEP17INT_SETTING_VALUE
epsonscan2:_ZN25DocumentSizeSettingDialog11qt_metacallEN11QMetaObject4CallEiPPv
epsonscan2:_ZN25DocumentSizeSettingDialog11qt_metacastEPKc
epsonscan2:_ZN25DocumentSizeSettingDialog16staticMetaObjectE
epsonscan2:_ZN25DocumentSizeSettingDialog18onValueChangedBoolEb
epsonscan2:_ZN25DocumentSizeSettingDialogC1EP17INT_SETTING_VALUEP7QWidget
epsonscan2:_ZN25DocumentSizeSettingDialogC2EP17INT_SETTING_VALUEP7QWidget
epsonscan2:_ZN25DocumentSizeSettingDialogD0Ev
epsonscan2:_ZN25DocumentSizeSettingDialogD1Ev
epsonscan2:_ZN25DocumentSizeSettingDialogD2Ev
epsonscan2:_ZN25ImageFormatSettingsDialog10initializeEP27IMAGE_FORMAT_SETTINGS_VALUE
epsonscan2:_ZN25ImageFormatSettingsDialog11qt_metacallEN11QMetaObject4CallEiPPv
epsonscan2:_ZN25ImageFormatSettingsDialog11qt_metacastEPKc
epsonscan2:_ZN25ImageFormatSettingsDialog12ChangeWidgetE11ImageFormat
epsonscan2:_ZN25ImageFormatSettingsDialog13set_parameterEv
epsonscan2:_ZN25ImageFormatSettingsDialog14onValueChangedEi
epsonscan2:_ZN25ImageFormatSettingsDialog16staticMetaObjectE
epsonscan2:_ZN25ImageFormatSettingsDialog8updateUIEv
epsonscan2:_ZN25ImageFormatSettingsDialogC1EP7QWidget
epsonscan2:_ZN25ImageFormatSettingsDialogC2EP7QWidget
epsonscan2:_ZN25ImageFormatSettingsDialogD0Ev
epsonscan2:_ZN25ImageFormatSettingsDialogD1Ev
epsonscan2:_ZN25ImageFormatSettingsDialogD2Ev
epsonscan2:_ZN25NetworkDeviceSelectDialog10closeEventEP11QCloseEvent
epsonscan2:_ZN25NetworkDeviceSelectDialog11qt_metacallEN11QMetaObject4CallEiPPv
epsonscan2:_ZN25NetworkDeviceSelectDialog11qt_metacastEPKc
epsonscan2:_ZN25NetworkDeviceSelectDialog12InsertDeviceEv
epsonscan2:_ZN25NetworkDeviceSelectDialog16DeleteMessageBoxE7QString
epsonscan2:_ZN25NetworkDeviceSelectDialog16LineEditFinishedEv
epsonscan2:_ZN25NetworkDeviceSelectDialog16PushButtonActionEv
epsonscan2:_ZN25NetworkDeviceSelectDialog16staticMetaObjectE
epsonscan2:_ZN25NetworkDeviceSelectDialog20RemoveNetworkScannerE7QString
epsonscan2:_ZN25NetworkDeviceSelectDialog21AvailableDeleteButtonEv
epsonscan2:_ZN25NetworkDeviceSelectDialog21Get_IP_ListTable_SizeEv
epsonscan2:_ZN25NetworkDeviceSelectDialog24UpdateNetworkSettingFileEv
epsonscan2:_ZN25NetworkDeviceSelectDialog27CreateNewNetworkSettingFileEi
epsonscan2:_ZN25NetworkDeviceSelectDialogC1EP7QWidget
epsonscan2:_ZN25NetworkDeviceSelectDialogC2EP7QWidget
epsonscan2:_ZN25NetworkDeviceSelectDialogD0Ev
epsonscan2:_ZN25NetworkDeviceSelectDialogD1Ev
epsonscan2:_ZN25NetworkDeviceSelectDialogD2Ev
epsonscan2:_ZN25SkipBlankPagesDetLvSlider10initializeEi
epsonscan2:_ZN25SkipBlankPagesDetLvSlider10item_eventEi
epsonscan2:_ZN25SkipBlankPagesDetLvSlider11set_enabledEb
epsonscan2:_ZN25SkipBlankPagesDetLvSlider9update_uiEv
epsonscan2:_ZN25SkipBlankPagesDetLvSliderC1EP7QWidget
epsonscan2:_ZN25SkipBlankPagesDetLvSliderC2EP7QWidget
epsonscan2:_ZN26ADFPaperProtectionCombobox10initializeE18ADFPaperProtection
epsonscan2:_ZN26ADFPaperProtectionCombobox10item_eventEi
epsonscan2:_ZN26ADFPaperProtectionCombobox11select_itemEv
epsonscan2:_ZN26ADFPaperProtectionCombobox11set_enabledEb
epsonscan2:_ZN26ADFPaperProtectionCombobox16get_current_itemEv
epsonscan2:_ZN26ADFPaperProtectionCombobox8add_itemEPii
epsonscan2:_ZN26ADFPaperProtectionCombobox9update_uiE17INT_SETTING_VALUE
epsonscan2:_ZN26ADFPaperProtectionComboboxC1EP7QWidget
epsonscan2:_ZN26ADFPaperProtectionComboboxC2EP7QWidget
epsonscan2:_ZN26AutomaticFeedingModeDialog10EmptyPaperEv
epsonscan2:_ZN26AutomaticFeedingModeDialog10PlacePaperEv
epsonscan2:_ZN26AutomaticFeedingModeDialog10closeEventEP11QCloseEvent
epsonscan2:_ZN26AutomaticFeedingModeDialog11qt_metacallEN11QMetaObject4CallEiPPv
epsonscan2:_ZN26AutomaticFeedingModeDialog11qt_metacastEPKc
epsonscan2:_ZN26AutomaticFeedingModeDialog12ButtonActionEv
epsonscan2:_ZN26AutomaticFeedingModeDialog14ScanInitializeEv
epsonscan2:_ZN26AutomaticFeedingModeDialog16staticMetaObjectE
epsonscan2:_ZN26AutomaticFeedingModeDialog6CancelEv
epsonscan2:_ZN26AutomaticFeedingModeDialog6UpdateEv
epsonscan2:_ZN26AutomaticFeedingModeDialogC1EP10SupervisorP16CustomMessageBoxP7QWidget
epsonscan2:_ZN26AutomaticFeedingModeDialogC2EP10SupervisorP16CustomMessageBoxP7QWidget
epsonscan2:_ZN26AutomaticFeedingModeDialogD0Ev
epsonscan2:_ZN26AutomaticFeedingModeDialogD1Ev
epsonscan2:_ZN26AutomaticFeedingModeDialogD2Ev
epsonscan2:_ZN26FocusPositionSettingDialog11qt_metacallEN11QMetaObject4CallEiPPv
epsonscan2:_ZN26FocusPositionSettingDialog11qt_metacastEPKc
epsonscan2:_ZN26FocusPositionSettingDialog14onValueChangedEi
epsonscan2:_ZN26FocusPositionSettingDialog16PushButtonActionEv
epsonscan2:_ZN26FocusPositionSettingDialog16staticMetaObjectE
epsonscan2:_ZN26FocusPositionSettingDialog8GetValueEP8SCANPARA
epsonscan2:_ZN26FocusPositionSettingDialog8SetValueEv
epsonscan2:_ZN26FocusPositionSettingDialog8updateUIEv
epsonscan2:_ZN26FocusPositionSettingDialogC1EP8SCANPARAP7QWidget
epsonscan2:_ZN26FocusPositionSettingDialogC2EP8SCANPARAP7QWidget
epsonscan2:_ZN26FocusPositionSettingDialogD0Ev
epsonscan2:_ZN26FocusPositionSettingDialogD1Ev
epsonscan2:_ZN26FocusPositionSettingDialogD2Ev
epsonscan2:_ZN26NonConnectPowerOffCombobox10initializeE18NonConnectPowerOff
epsonscan2:_ZN26NonConnectPowerOffCombobox10item_eventEi
epsonscan2:_ZN26NonConnectPowerOffCombobox11select_itemEv
epsonscan2:_ZN26NonConnectPowerOffCombobox11set_enabledEb
epsonscan2:_ZN26NonConnectPowerOffCombobox16get_current_itemEv
epsonscan2:_ZN26NonConnectPowerOffCombobox8add_itemEPii
epsonscan2:_ZN26NonConnectPowerOffCombobox9update_uiE17INT_SETTING_VALUE
epsonscan2:_ZN26NonConnectPowerOffComboboxC1EP7QWidget
epsonscan2:_ZN26NonConnectPowerOffComboboxC2EP7QWidget
epsonscan2:_ZN27ImageFormatSettingsCombobox10initializeE11ImageFormat
epsonscan2:_ZN27ImageFormatSettingsCombobox10item_eventEi
epsonscan2:_ZN27ImageFormatSettingsCombobox11select_itemEv
epsonscan2:_ZN27ImageFormatSettingsCombobox11set_enabledEb
epsonscan2:_ZN27ImageFormatSettingsCombobox16get_current_itemEP11ImageFormat
epsonscan2:_ZN27ImageFormatSettingsCombobox8add_itemEP11ImageFormat
epsonscan2:_ZN27ImageFormatSettingsCombobox9update_uiEP11ImageFormat
epsonscan2:_ZN27ImageFormatSettingsComboboxC1EP7QWidget
epsonscan2:_ZN27ImageFormatSettingsComboboxC2EP7QWidget
epsonscan2:_ZN27TiffCompressionMonoCombobox10initializeE15TiffCompression
epsonscan2:_ZN27TiffCompressionMonoCombobox10item_eventEiP17INT_SETTING_VALUE
epsonscan2:_ZN27TiffCompressionMonoCombobox11select_itemEv
epsonscan2:_ZN27TiffCompressionMonoCombobox11set_enabledEb
epsonscan2:_ZN27TiffCompressionMonoCombobox8add_itemEPii
epsonscan2:_ZN27TiffCompressionMonoCombobox9update_uiE17INT_SETTING_VALUE
epsonscan2:_ZN27TiffCompressionMonoComboboxC1EP7QWidget
epsonscan2:_ZN27TiffCompressionMonoComboboxC2EP7QWidget
epsonscan2:_ZN28AutomaticFeedingModeCombobox10initializeE17INT_SETTING_VALUES0_
epsonscan2:_ZN28AutomaticFeedingModeCombobox10item_eventEiP17INT_SETTING_VALUEPb
epsonscan2:_ZN28AutomaticFeedingModeCombobox11select_itemE17INT_SETTING_VALUEb
epsonscan2:_ZN28AutomaticFeedingModeCombobox11set_enabledEb
epsonscan2:_ZN28AutomaticFeedingModeCombobox8add_itemEv
epsonscan2:_ZN28AutomaticFeedingModeCombobox9update_uiE17INT_SETTING_VALUEb
epsonscan2:_ZN28AutomaticFeedingModeComboboxC1EP7QWidget
epsonscan2:_ZN28AutomaticFeedingModeComboboxC2EP7QWidget
epsonscan2:_ZN28DocumentSourceSettingsDialog10InitializeE17INT_SETTING_VALUE
epsonscan2:_ZN28DocumentSourceSettingsDialog11qt_metacallEN11QMetaObject4CallEiPPv
epsonscan2:_ZN28DocumentSourceSettingsDialog11qt_metacastEPKc
epsonscan2:_ZN28DocumentSourceSettingsDialog14onValueChangedEi
epsonscan2:_ZN28DocumentSourceSettingsDialog15GetCurrentValueEv
epsonscan2:_ZN28DocumentSourceSettingsDialog16staticMetaObjectE
epsonscan2:_ZN28DocumentSourceSettingsDialogC1EP7QWidget
epsonscan2:_ZN28DocumentSourceSettingsDialogC2EP7QWidget
epsonscan2:_ZN28DocumentSourceSettingsDialogD0Ev
epsonscan2:_ZN28DocumentSourceSettingsDialogD1Ev
epsonscan2:_ZN28DocumentSourceSettingsDialogD2Ev
epsonscan2:_ZN28SkipBlankPagesSettingsDialog11qt_metacallEN11QMetaObject4CallEiPPv
epsonscan2:_ZN28SkipBlankPagesSettingsDialog11qt_metacastEPKc
epsonscan2:_ZN28SkipBlankPagesSettingsDialog14onValueChangedEi
epsonscan2:_ZN28SkipBlankPagesSettingsDialog16staticMetaObjectE
epsonscan2:_ZN28SkipBlankPagesSettingsDialog8GetValueEPi
epsonscan2:_ZN28SkipBlankPagesSettingsDialog8SetValueEv
epsonscan2:_ZN28SkipBlankPagesSettingsDialog8updateUIEv
epsonscan2:_ZN28SkipBlankPagesSettingsDialogC1EiP7QWidget
epsonscan2:_ZN28SkipBlankPagesSettingsDialogC2EiP7QWidget
epsonscan2:_ZN28SkipBlankPagesSettingsDialogD0Ev
epsonscan2:_ZN28SkipBlankPagesSettingsDialogD1Ev
epsonscan2:_ZN28SkipBlankPagesSettingsDialogD2Ev
epsonscan2:_ZN29AutoCroppingInscribedCheckBox10initializeEb
epsonscan2:_ZN29AutoCroppingInscribedCheckBox10item_eventEbP17INT_SETTING_VALUE
epsonscan2:_ZN29AutoCroppingInscribedCheckBox11select_itemEb
epsonscan2:_ZN29AutoCroppingInscribedCheckBox11set_enabledEb
epsonscan2:_ZN29AutoCroppingInscribedCheckBox13focusOutEventEP11QFocusEvent
epsonscan2:_ZN29AutoCroppingInscribedCheckBox9update_uiE17INT_SETTING_VALUE
epsonscan2:_ZN29AutoCroppingInscribedCheckBoxC1EP7QWidget
epsonscan2:_ZN29AutoCroppingInscribedCheckBoxC2EP7QWidget
epsonscan2:_ZN29DetectionAreaMaxDoubleSpinBox10initializeE27DOUBLE_FEED_DETECTION_VALUE
epsonscan2:_ZN29DetectionAreaMaxDoubleSpinBox11qt_metacallEN11QMetaObject4CallEiPPv
epsonscan2:_ZN29DetectionAreaMaxDoubleSpinBox11qt_metacastEPKc
epsonscan2:_ZN29DetectionAreaMaxDoubleSpinBox11setMinValueEd
epsonscan2:_ZN29DetectionAreaMaxDoubleSpinBox11set_enabledEb
epsonscan2:_ZN29DetectionAreaMaxDoubleSpinBox12isUnit_inchiEv
epsonscan2:_ZN29DetectionAreaMaxDoubleSpinBox15SetSpinBoxParamE27DOUBLE_FEED_DETECTION_VALUE
epsonscan2:_ZN29DetectionAreaMaxDoubleSpinBox16staticMetaObjectE
epsonscan2:_ZN29DetectionAreaMaxDoubleSpinBox17CreateBaseToValueEv
epsonscan2:_ZN29DetectionAreaMaxDoubleSpinBox17CreateValueToBaseEv
epsonscan2:_ZN29DetectionAreaMaxDoubleSpinBox18CreateDisplayValueEd
epsonscan2:_ZN29DetectionAreaMaxDoubleSpinBox8FinalizeEv
epsonscan2:_ZN29DetectionAreaMaxDoubleSpinBoxC1EP7QWidget
epsonscan2:_ZN29DetectionAreaMaxDoubleSpinBoxC2EP7QWidget
epsonscan2:_ZN29DetectionAreaMinDoubleSpinBox10initializeEi
epsonscan2:_ZN29DetectionAreaMinDoubleSpinBox11qt_metacallEN11QMetaObject4CallEiPPv
epsonscan2:_ZN29DetectionAreaMinDoubleSpinBox11qt_metacastEPKc
epsonscan2:_ZN29DetectionAreaMinDoubleSpinBox11setMaxValueEd
epsonscan2:_ZN29DetectionAreaMinDoubleSpinBox11set_enabledEb
epsonscan2:_ZN29DetectionAreaMinDoubleSpinBox12isUnit_inchiEv
epsonscan2:_ZN29DetectionAreaMinDoubleSpinBox15SetSpinBoxParamEv
epsonscan2:_ZN29DetectionAreaMinDoubleSpinBox16staticMetaObjectE
epsonscan2:_ZN29DetectionAreaMinDoubleSpinBox17CreateBaseToValueEv
epsonscan2:_ZN29DetectionAreaMinDoubleSpinBox17CreateValueToBaseEv
epsonscan2:_ZN29DetectionAreaMinDoubleSpinBox18CreateDisplayValueEd
epsonscan2:_ZN29DetectionAreaMinDoubleSpinBox8FinalizeEv
epsonscan2:_ZN29DetectionAreaMinDoubleSpinBoxC1EP7QWidget
epsonscan2:_ZN29DetectionAreaMinDoubleSpinBoxC2EP7QWidget
epsonscan2:_ZN29TransferDataAfterCompCheckBox10initializeEb
epsonscan2:_ZN29TransferDataAfterCompCheckBox10item_eventEb
epsonscan2:_ZN29TransferDataAfterCompCheckBox11select_itemEb
epsonscan2:_ZN29TransferDataAfterCompCheckBox11set_enabledEb
epsonscan2:_ZN29TransferDataAfterCompCheckBox9update_uiEv
epsonscan2:_ZN29TransferDataAfterCompCheckBoxC1EP7QWidget
epsonscan2:_ZN29TransferDataAfterCompCheckBoxC2EP7QWidget
epsonscan2:_ZN30BehaviorWhenDoubleFeedCombobox10initializeE22BehaviorWhenDoubleFeed
epsonscan2:_ZN30BehaviorWhenDoubleFeedCombobox10item_eventEi
epsonscan2:_ZN30BehaviorWhenDoubleFeedCombobox11select_itemEv
epsonscan2:_ZN30BehaviorWhenDoubleFeedCombobox11set_enabledEb
epsonscan2:_ZN30BehaviorWhenDoubleFeedCombobox16get_current_itemEv
epsonscan2:_ZN30BehaviorWhenDoubleFeedCombobox8add_itemEPii
epsonscan2:_ZN30BehaviorWhenDoubleFeedCombobox9update_uiE17INT_SETTING_VALUE27DOUBLE_FEED_DETECTION_VALUE
epsonscan2:_ZN30BehaviorWhenDoubleFeedComboboxC1EP7QWidget
epsonscan2:_ZN30BehaviorWhenDoubleFeedComboboxC2EP7QWidget
epsonscan2:_ZN30DetectDoubleFeedSettingsDialog10InitializeE27DOUBLE_FEED_DETECTION_VALUE
epsonscan2:_ZN30DetectDoubleFeedSettingsDialog11qt_metacallEN11QMetaObject4CallEiPPv
epsonscan2:_ZN30DetectDoubleFeedSettingsDialog11qt_metacastEPKc
epsonscan2:_ZN30DetectDoubleFeedSettingsDialog12select_unitsEv
epsonscan2:_ZN30DetectDoubleFeedSettingsDialog14onValueChangedEi
epsonscan2:_ZN30DetectDoubleFeedSettingsDialog16staticMetaObjectE
epsonscan2:_ZN30DetectDoubleFeedSettingsDialog8FinalizeEv
epsonscan2:_ZN30DetectDoubleFeedSettingsDialog8GetValueEPdS0_Pi
epsonscan2:_ZN30DetectDoubleFeedSettingsDialog8SetValueEv
epsonscan2:_ZN30DetectDoubleFeedSettingsDialog8updateUIEv
epsonscan2:_ZN30DetectDoubleFeedSettingsDialogC1EP7QWidget
epsonscan2:_ZN30DetectDoubleFeedSettingsDialogC2EP7QWidget
epsonscan2:_ZN30DetectDoubleFeedSettingsDialogD0Ev
epsonscan2:_ZN30DetectDoubleFeedSettingsDialogD1Ev
epsonscan2:_ZN30DetectDoubleFeedSettingsDialogD2Ev
epsonscan2:_ZN30OpenImgFolderAfterScanCheckBox10initializeEb
epsonscan2:_ZN30OpenImgFolderAfterScanCheckBox10item_eventEb
epsonscan2:_ZN30OpenImgFolderAfterScanCheckBox11select_itemEb
epsonscan2:_ZN30OpenImgFolderAfterScanCheckBox11set_enabledEb
epsonscan2:_ZN30OpenImgFolderAfterScanCheckBox9update_uiEv
epsonscan2:_ZN30OpenImgFolderAfterScanCheckBoxC1EP7QWidget
epsonscan2:_ZN30OpenImgFolderAfterScanCheckBoxC2EP7QWidget
epsonscan2:_ZN32AdministratorPasswordInputDialog10closeEventEP11QCloseEvent
epsonscan2:_ZN32AdministratorPasswordInputDialog11GetPasswordEv
epsonscan2:_ZN32AdministratorPasswordInputDialog11qt_metacallEN11QMetaObject4CallEiPPv
epsonscan2:_ZN32AdministratorPasswordInputDialog11qt_metacastEPKc
epsonscan2:_ZN32AdministratorPasswordInputDialog16LineEditFinishedEv
epsonscan2:_ZN32AdministratorPasswordInputDialog16PushButtonActionEv
epsonscan2:_ZN32AdministratorPasswordInputDialog16staticMetaObjectE
epsonscan2:_ZN32AdministratorPasswordInputDialogC1EP7QWidget
epsonscan2:_ZN32AdministratorPasswordInputDialogC2EP7QWidget
epsonscan2:_ZN32AdministratorPasswordInputDialogD0Ev
epsonscan2:_ZN32AdministratorPasswordInputDialogD1Ev
epsonscan2:_ZN32AdministratorPasswordInputDialogD2Ev
epsonscan2:_ZN34SensorGlassDirtSensitivityCombobox10initializeE26SensorGlassDirtSensitivity
epsonscan2:_ZN34SensorGlassDirtSensitivityCombobox10item_eventEi
epsonscan2:_ZN34SensorGlassDirtSensitivityCombobox11select_itemEv
epsonscan2:_ZN34SensorGlassDirtSensitivityCombobox11set_enabledEb
epsonscan2:_ZN34SensorGlassDirtSensitivityCombobox16get_current_itemEv
epsonscan2:_ZN34SensorGlassDirtSensitivityCombobox8add_itemEPii
epsonscan2:_ZN34SensorGlassDirtSensitivityCombobox9update_uiE17INT_SETTING_VALUE
epsonscan2:_ZN34SensorGlassDirtSensitivityComboboxC1EP7QWidget
epsonscan2:_ZN34SensorGlassDirtSensitivityComboboxC2EP7QWidget
epsonscan2:_ZN40SelectableDetectDoubleFeedSettingsDialog10InitializeE17INT_SETTING_VALUE
epsonscan2:_ZN40SelectableDetectDoubleFeedSettingsDialog11qt_metacallEN11QMetaObject4CallEiPPv
epsonscan2:_ZN40SelectableDetectDoubleFeedSettingsDialog11qt_metacastEPKc
epsonscan2:_ZN40SelectableDetectDoubleFeedSettingsDialog12select_unitsEv
epsonscan2:_ZN40SelectableDetectDoubleFeedSettingsDialog14onValueChangedEi
epsonscan2:_ZN40SelectableDetectDoubleFeedSettingsDialog16staticMetaObjectE
epsonscan2:_ZN40SelectableDetectDoubleFeedSettingsDialog17WarningMessageBoxEv
epsonscan2:_ZN40SelectableDetectDoubleFeedSettingsDialog18onValueChangedBoolEb
epsonscan2:_ZN40SelectableDetectDoubleFeedSettingsDialog8FinalizeEv
epsonscan2:_ZN40SelectableDetectDoubleFeedSettingsDialog8GetValueEPdS0_Pi
epsonscan2:_ZN40SelectableDetectDoubleFeedSettingsDialog8SetValueEv
epsonscan2:_ZN40SelectableDetectDoubleFeedSettingsDialog8updateUIEv
epsonscan2:_ZN40SelectableDetectDoubleFeedSettingsDialogC1EP7QWidget
epsonscan2:_ZN40SelectableDetectDoubleFeedSettingsDialogC2EP7QWidget
epsonscan2:_ZN40SelectableDetectDoubleFeedSettingsDialogD0Ev
epsonscan2:_ZN40SelectableDetectDoubleFeedSettingsDialogD1Ev
epsonscan2:_ZN40SelectableDetectDoubleFeedSettingsDialogD2Ev
epsonscan2:_ZN45AdministratorPasswordInputForUKSecurityDialog10closeEventEP11QCloseEvent
epsonscan2:_ZN45AdministratorPasswordInputForUKSecurityDialog11GetPasswordEv
epsonscan2:_ZN45AdministratorPasswordInputForUKSecurityDialog11qt_metacallEN11QMetaObject4CallEiPPv
epsonscan2:_ZN45AdministratorPasswordInputForUKSecurityDialog11qt_metacastEPKc
epsonscan2:_ZN45AdministratorPasswordInputForUKSecurityDialog16LineEditFinishedEv
epsonscan2:_ZN45AdministratorPasswordInputForUKSecurityDialog16PushButtonActionEv
epsonscan2:_ZN45AdministratorPasswordInputForUKSecurityDialog16staticMetaObjectE
epsonscan2:_ZN45AdministratorPasswordInputForUKSecurityDialogC1EP7QWidget
epsonscan2:_ZN45AdministratorPasswordInputForUKSecurityDialogC2EP7QWidget
epsonscan2:_ZN45AdministratorPasswordInputForUKSecurityDialogD0Ev
epsonscan2:_ZN45AdministratorPasswordInputForUKSecurityDialogD1Ev
epsonscan2:_ZN45AdministratorPasswordInputForUKSecurityDialogD2Ev
epsonscan2:_ZN7capitemC1Ev
epsonscan2:_ZN7capitemC2Ev
epsonscan2:_ZNK10MainWindow10metaObjectEv
epsonscan2:_ZNK11GammaSlider10metaObjectEv
epsonscan2:_ZNK12MyRubberBand10metaObjectEv
epsonscan2:_ZNK13AddPageDialog10metaObjectEv
epsonscan2:_ZNK13PreviewWindow10metaObjectEv
epsonscan2:_ZNK13WaitingDialog10metaObjectEv
epsonscan2:_ZNK14ScanningDialog10metaObjectEv
epsonscan2:_ZNK15ImageEditDialog10metaObjectEv
epsonscan2:_ZNK17addeditpageDialog10metaObjectEv
epsonscan2:_ZNK18DeviceSelectDialog10metaObjectEv
epsonscan2:_ZNK18DocumentSizeDialog10metaObjectEv
epsonscan2:_ZNK18GammaDoubleSpinBox10metaObjectEv
epsonscan2:_ZNK19ConfigurationDialog10metaObjectEv
epsonscan2:_ZNK20ContinuousScanDialog10metaObjectEv
epsonscan2:_ZNK20HorizonDoctoolButton10metaObjectEv
epsonscan2:_ZNK21AboutEpsonScan2Dialog10metaObjectEv
epsonscan2:_ZNK21FileNameSettingDialog10metaObjectEv
epsonscan2:_ZNK21VerticalDoctoolButton10metaObjectEv
epsonscan2:_ZNK22DeviceConnectionDialog10metaObjectEv
epsonscan2:_ZNK23ImageTypeSettingsDialog10metaObjectEv
epsonscan2:_ZNK24TextEnhanceSettingDialog10metaObjectEv
epsonscan2:_ZNK25DocumentSizeSettingDialog10metaObjectEv
epsonscan2:_ZNK25ImageFormatSettingsDialog10metaObjectEv
epsonscan2:_ZNK25NetworkDeviceSelectDialog10metaObjectEv
epsonscan2:_ZNK26AutomaticFeedingModeDialog10metaObjectEv
epsonscan2:_ZNK26FocusPositionSettingDialog10metaObjectEv
epsonscan2:_ZNK28DocumentSourceSettingsDialog10metaObjectEv
epsonscan2:_ZNK28SkipBlankPagesSettingsDialog10metaObjectEv
epsonscan2:_ZNK29DetectionAreaMaxDoubleSpinBox10metaObjectEv
epsonscan2:_ZNK29DetectionAreaMinDoubleSpinBox10metaObjectEv
epsonscan2:_ZNK30DetectDoubleFeedSettingsDialog10metaObjectEv
epsonscan2:_ZNK32AdministratorPasswordInputDialog10metaObjectEv
epsonscan2:_ZNK40SelectableDetectDoubleFeedSettingsDialog10metaObjectEv
epsonscan2:_ZNK45AdministratorPasswordInputForUKSecurityDialog10metaObjectEv
epsonscan2:_ZThn16_N10MainWindowD0Ev
epsonscan2:_ZThn16_N10MainWindowD1Ev
epsonscan2:_ZThn16_N11DrawingAreaD0Ev
epsonscan2:_ZThn16_N11DrawingAreaD1Ev
epsonscan2:_ZThn16_N12MyRubberBandD0Ev
epsonscan2:_ZThn16_N12MyRubberBandD1Ev
epsonscan2:_ZThn16_N13AddPageDialogD0Ev
epsonscan2:_ZThn16_N13AddPageDialogD1Ev
epsonscan2:_ZThn16_N13WaitingDialogD0Ev
epsonscan2:_ZThn16_N13WaitingDialogD1Ev
epsonscan2:_ZThn16_N14ScanningDialogD0Ev
epsonscan2:_ZThn16_N14ScanningDialogD1Ev
epsonscan2:_ZThn16_N15ImageEditDialogD0Ev
epsonscan2:_ZThn16_N15ImageEditDialogD1Ev
epsonscan2:_ZThn16_N17addeditpageDialogD0Ev
epsonscan2:_ZThn16_N17addeditpageDialogD1Ev
epsonscan2:_ZThn16_N18DeviceSelectDialogD0Ev
epsonscan2:_ZThn16_N18DeviceSelectDialogD1Ev
epsonscan2:_ZThn16_N18DocumentSizeDialogD0Ev
epsonscan2:_ZThn16_N18DocumentSizeDialogD1Ev
epsonscan2:_ZThn16_N19ConfigurationDialogD0Ev
epsonscan2:_ZThn16_N19ConfigurationDialogD1Ev
epsonscan2:_ZThn16_N20ContinuousScanDialogD0Ev
epsonscan2:_ZThn16_N20ContinuousScanDialogD1Ev
epsonscan2:_ZThn16_N21AboutEpsonScan2DialogD0Ev
epsonscan2:_ZThn16_N21AboutEpsonScan2DialogD1Ev
epsonscan2:_ZThn16_N21FileNameSettingDialogD0Ev
epsonscan2:_ZThn16_N21FileNameSettingDialogD1Ev
epsonscan2:_ZThn16_N22DeviceConnectionDialogD0Ev
epsonscan2:_ZThn16_N22DeviceConnectionDialogD1Ev
epsonscan2:_ZThn16_N23ImageTypeSettingsDialogD0Ev
epsonscan2:_ZThn16_N23ImageTypeSettingsDialogD1Ev
epsonscan2:_ZThn16_N24TextEnhanceSettingDialogD0Ev
epsonscan2:_ZThn16_N24TextEnhanceSettingDialogD1Ev
epsonscan2:_ZThn16_N25DocumentSizeSettingDialogD0Ev
epsonscan2:_ZThn16_N25DocumentSizeSettingDialogD1Ev
epsonscan2:_ZThn16_N25ImageFormatSettingsDialogD0Ev
epsonscan2:_ZThn16_N25ImageFormatSettingsDialogD1Ev
epsonscan2:_ZThn16_N25NetworkDeviceSelectDialogD0Ev
epsonscan2:_ZThn16_N25NetworkDeviceSelectDialogD1Ev
epsonscan2:_ZThn16_N26AutomaticFeedingModeDialogD0Ev
epsonscan2:_ZThn16_N26AutomaticFeedingModeDialogD1Ev
epsonscan2:_ZThn16_N26FocusPositionSettingDialogD0Ev
epsonscan2:_ZThn16_N26FocusPositionSettingDialogD1Ev
epsonscan2:_ZThn16_N28DocumentSourceSettingsDialogD0Ev
epsonscan2:_ZThn16_N28DocumentSourceSettingsDialogD1Ev
epsonscan2:_ZThn16_N28SkipBlankPagesSettingsDialogD0Ev
epsonscan2:_ZThn16_N28SkipBlankPagesSettingsDialogD1Ev
epsonscan2:_ZThn16_N30DetectDoubleFeedSettingsDialogD0Ev
epsonscan2:_ZThn16_N30DetectDoubleFeedSettingsDialogD1Ev
epsonscan2:_ZThn16_N32AdministratorPasswordInputDialogD0Ev
epsonscan2:_ZThn16_N32AdministratorPasswordInputDialogD1Ev
epsonscan2:_ZThn16_N40SelectableDetectDoubleFeedSettingsDialogD0Ev
epsonscan2:_ZThn16_N40SelectableDetectDoubleFeedSettingsDialogD1Ev
epsonscan2:_ZThn16_N45AdministratorPasswordInputForUKSecurityDialogD0Ev
epsonscan2:_ZThn16_N45AdministratorPasswordInputForUKSecurityDialogD1Ev
epsonscan2:__bss_start
epsonscan2:__data_start
epsonscan2:_edata
epsonscan2:_end
epsonscan2:_start
epsonscan2:main
libcommonutility.so:_Z10DeleteFilePKc
libcommonutility.so:_Z10UnlinkFilePKcPK4statiP3FTW
libcommonutility.so:_Z11CloseHandlePv
libcommonutility.so:_Z11FreeLibraryPv
libcommonutility.so:_Z11GetTempPathjRNSt7__cxx1112basic_stringIcSt11char_traitsIcESaIcEEE
libcommonutility.so:_Z11LoadLibraryPKc
libcommonutility.so:_Z12GetLocalTimeP11_SYSTEMTIME
libcommonutility.so:_Z12GetTickCountv
libcommonutility.so:_Z13FormatMessageB5cxx11PKcP13__va_list_tag
libcommonutility.so:_Z13LoadLibraryExPKcPvj
libcommonutility.so:_Z13VerQueryValueRNSt7__cxx1112basic_stringIcSt11char_traitsIcESaIcEEEj
libcommonutility.so:_Z15GetTempFileNameNSt7__cxx1112basic_stringIcSt11char_traitsIcESaIcEEES4_Pc
libcommonutility.so:_Z17GetExitCodeThreadPvPj
libcommonutility.so:_Z17GetModuleFileNamePcj
libcommonutility.so:_Z18GetCurrentThreadIdv
libcommonutility.so:_Z18GetImageFileHeaderB5cxx11iii
libcommonutility.so:_Z18GetTimestampPrefixB5cxx11v
libcommonutility.so:_Z22ES2WaitForSingleObjectPvj
libcommonutility.so:_Z22GetFileVersionInfoSizePKcPj
libcommonutility.so:_Z25ES2WaitForMultipleObjectsjPKPvij
libcommonutility.so:_Z27GetFileNameWithBitsPerPixelB5cxx11PKcN15ENUM_IMAGE_TYPE13enumImageTypeEi
libcommonutility.so:_Z5Sleepj
libcommonutility.so:_Z5_wtofPKw
libcommonutility.so:_Z5_wtoiPKw
libcommonutility.so:_Z7fopen_sPP8_IO_FILEPKcS3_
libcommonutility.so:_Z8CopyFilePKcS0_i
libcommonutility.so:_Z8memcpy_sPvmPKvm
libcommonutility.so:_Z8strcat_sPcmPKc
libcommonutility.so:_Z9AfxGetLogv
libcommonutility.so:_Z9_tcscat_sPcmPKc
libcommonutility.so:_Z9_wfopen_sPP8_IO_FILEPKwS3_
libcommonutility.so:_ZN12ES_CMN_FUNCS4JSON16DictionaryToJSONERKSt3mapINSt7__cxx1112basic_stringIcSt11char_traitsIcESaIcEEEN5boost3anyESt4lessIS7_ESaISt4pairIKS7_S9_EEERS7_
libcommonutility.so:_ZN12ES_CMN_FUNCS4JSON16JSONtoDictionaryERKNSt7__cxx1112basic_stringIcSt11char_traitsIcESaIcEEERSt3mapIS6_N5boost3anyESt4lessIS6_ESaISt4pairIS7_SB_EEE
libcommonutility.so:_ZN12ES_CMN_FUNCS4JSON20DictionaryToJSONFileERKSt3mapINSt7__cxx1112basic_stringIcSt11char_traitsIcESaIcEEEN5boost3anyESt4lessIS7_ESaISt4pairIKS7_S9_EEERSD_
libcommonutility.so:_ZN12ES_CMN_FUNCS4JSON20JSONFiletoDictionaryERKNSt7__cxx1112basic_stringIcSt11char_traitsIcESaIcEEERSt3mapIS6_N5boost3anyESt4lessIS6_ESaISt4pairIS7_SB_EEE
libcommonutility.so:_ZN12ES_CMN_FUNCS4PATH11ES_GetDriveERNSt7__cxx1112basic_stringIcSt11char_traitsIcESaIcEEERKS6_
libcommonutility.so:_ZN12ES_CMN_FUNCS4PATH12ES_RenameExtERNSt7__cxx1112basic_stringIcSt11char_traitsIcESaIcEEERKS6_S9_
libcommonutility.so:_ZN12ES_CMN_FUNCS4PATH13ES_AddBackYenERNSt7__cxx1112basic_stringIcSt11char_traitsIcESaIcEEE
libcommonutility.so:_ZN12ES_CMN_FUNCS4PATH13ES_IsRelativeERKNSt7__cxx1112basic_stringIcSt11char_traitsIcESaIcEEE
libcommonutility.so:_ZN12ES_CMN_FUNCS4PATH13ES_MakeFolderERKNSt7__cxx1112basic_stringIcSt11char_traitsIcESaIcEEE
libcommonutility.so:_ZN12ES_CMN_FUNCS4PATH14ES_CombinePathERNSt7__cxx1112basic_stringIcSt11char_traitsIcESaIcEEERKS6_S9_
libcommonutility.so:_ZN12ES_CMN_FUNCS4PATH14ES_GetFileNameERNSt7__cxx1112basic_stringIcSt11char_traitsIcESaIcEEERKS6_i
libcommonutility.so:_ZN12ES_CMN_FUNCS4PATH14ES_GetFileSizeERKNSt7__cxx1112basic_stringIcSt11char_traitsIcESaIcEEE
libcommonutility.so:_ZN12ES_CMN_FUNCS4PATH14ES_GetTempFileERNSt7__cxx1112basic_stringIcSt11char_traitsIcESaIcEEERKS6_
libcommonutility.so:_ZN12ES_CMN_FUNCS4PATH14ES_GetTempFileERNSt7__cxx1112basic_stringIcSt11char_traitsIcESaIcEEERKS6_S9_
libcommonutility.so:_ZN12ES_CMN_FUNCS4PATH14ES_IsDirectoryERKNSt7__cxx1112basic_stringIcSt11char_traitsIcESaIcEEE
libcommonutility.so:_ZN12ES_CMN_FUNCS4PATH14ES_IsExistFileERKNSt7__cxx1112basic_stringIcSt11char_traitsIcESaIcEEEi
libcommonutility.so:_ZN12ES_CMN_FUNCS4PATH14EnumFilesInDirENSt7__cxx1112basic_stringIcSt11char_traitsIcESaIcEEES6_
libcommonutility.so:_ZN12ES_CMN_FUNCS4PATH15ES_DeleteFolderERKNSt7__cxx1112basic_stringIcSt11char_traitsIcESaIcEEEi
libcommonutility.so:_ZN12ES_CMN_FUNCS4PATH15ES_GetExtensionERNSt7__cxx1112basic_stringIcSt11char_traitsIcESaIcEEERKS6_
libcommonutility.so:_ZN12ES_CMN_FUNCS4PATH16ES_GetFolderPathERNSt7__cxx1112basic_stringIcSt11char_traitsIcESaIcEEERKS6_
libcommonutility.so:_ZN12ES_CMN_FUNCS4PATH16ES_IsExistFolderERKNSt7__cxx1112basic_stringIcSt11char_traitsIcESaIcEEE
libcommonutility.so:_ZN12ES_CMN_FUNCS4PATH16ES_IsRegularFileERKNSt7__cxx1112basic_stringIcSt11char_traitsIcESaIcEEE
libcommonutility.so:_ZN12ES_CMN_FUNCS4PATH16ES_RemoveBackYenERNSt7__cxx1112basic_stringIcSt11char_traitsIcESaIcEEE
libcommonutility.so:_ZN12ES_CMN_FUNCS4PATH17ES_RelativePathToERNSt7__cxx1112basic_stringIcSt11char_traitsIcESaIcEEERKS6_jS9_ji
libcommonutility.so:_ZN12ES_CMN_FUNCS4PATH18ES_ConvertFullpathERNSt7__cxx1112basic_stringIcSt11char_traitsIcESaIcEEERKS6_
libcommonutility.so:_ZN12ES_CMN_FUNCS4PATH18ES_GetModuleFolderEPvRNSt7__cxx1112basic_stringIcSt11char_traitsIcESaIcEEE
libcommonutility.so:_ZN12ES_CMN_FUNCS4PATH18ES_GetWorkTempPathB5cxx11Ev
libcommonutility.so:_ZN12ES_CMN_FUNCS4PATH18ES_IsWritableDriveERKNSt7__cxx1112basic_stringIcSt11char_traitsIcESaIcEEE
libcommonutility.so:_ZN12ES_CMN_FUNCS4PATH19ES_GetSystemTempDirERNSt7__cxx1112basic_stringIcSt11char_traitsIcESaIcEEE
libcommonutility.so:_ZN12ES_CMN_FUNCS4PATH19ES_IsWritableFolderERKNSt7__cxx1112basic_stringIcSt11char_traitsIcESaIcEEE
libcommonutility.so:_ZN12ES_CMN_FUNCS4PATH20ES_GetModuleFileNameEPvRNSt7__cxx1112basic_stringIcSt11char_traitsIcESaIcEEE
libcommonutility.so:_ZN12ES_CMN_FUNCS4PATH20ES_NormalizeFilePathERNSt7__cxx1112basic_stringIcSt11char_traitsIcESaIcEEERKS6_S9_
libcommonutility.so:_ZN12ES_CMN_FUNCS4PATH26ES_RemoveReadOnlyAttributeERKNSt7__cxx1112basic_stringIcSt11char_traitsIcESaIcEEE
libcommonutility.so:_ZN12ES_CMN_FUNCS6BUFFER13CESHeapBuffer10FreeMemoryEPv
libcommonutility.so:_ZN12ES_CMN_FUNCS6BUFFER13CESHeapBuffer11AllocMemoryEj
libcommonutility.so:_ZN12ES_CMN_FUNCS6BUFFER13CESHeapBuffer13ReAllocMemoryEPvj
libcommonutility.so:_ZN12ES_CMN_FUNCS6BUFFER13CESHeapBufferC1ENSt7__cxx1112basic_stringIcSt11char_traitsIcESaIcEEE
libcommonutility.so:_ZN12ES_CMN_FUNCS6BUFFER13CESHeapBufferC1ERKS1_
libcommonutility.so:_ZN12ES_CMN_FUNCS6BUFFER13CESHeapBufferC1Ej
libcommonutility.so:_ZN12ES_CMN_FUNCS6BUFFER13CESHeapBufferC1Ev
libcommonutility.so:_ZN12ES_CMN_FUNCS6BUFFER13CESHeapBufferC2ENSt7__cxx1112basic_stringIcSt11char_traitsIcESaIcEEE
libcommonutility.so:_ZN12ES_CMN_FUNCS6BUFFER13CESHeapBufferC2ERKS1_
libcommonutility.so:_ZN12ES_CMN_FUNCS6BUFFER13CESHeapBufferC2Ej
libcommonutility.so:_ZN12ES_CMN_FUNCS6BUFFER13CESHeapBufferC2Ev
libcommonutility.so:_ZN12ES_CMN_FUNCS6BUFFER13CESHeapBufferD0Ev
libcommonutility.so:_ZN12ES_CMN_FUNCS6BUFFER13CESHeapBufferD1Ev
libcommonutility.so:_ZN12ES_CMN_FUNCS6BUFFER13CESHeapBufferD2Ev
libcommonutility.so:_ZN12ES_CMN_FUNCS6BUFFER13CESHeapBufferaSERS1_
libcommonutility.so:_ZN12ES_CMN_FUNCS6BUFFER13CESHeapBufferpLERS1_
libcommonutility.so:_ZN12ES_CMN_FUNCS6BUFFER14FreeHeapBufferEPv
libcommonutility.so:_ZN12ES_CMN_FUNCS6BUFFER15AllocHeapBufferEj
libcommonutility.so:_ZN12ES_CMN_FUNCS6BUFFER16CESIBufferStream4ReadEPhj
libcommonutility.so:_ZN12ES_CMN_FUNCS6BUFFER16CESIBufferStream9GetLengthEv
libcommonutility.so:_ZN12ES_CMN_FUNCS6BUFFER16CESIBufferStreamC1EPNS0_9IESBufferE
libcommonutility.so:_ZN12ES_CMN_FUNCS6BUFFER16CESIBufferStreamC2EPNS0_9IESBufferE
libcommonutility.so:_ZN12ES_CMN_FUNCS6BUFFER16CESOBufferStream16GetWrittenLengthEv
libcommonutility.so:_ZN12ES_CMN_FUNCS6BUFFER16CESOBufferStream5WriteEPhj
libcommonutility.so:_ZN12ES_CMN_FUNCS6BUFFER16CESOBufferStream9GetLengthEv
libcommonutility.so:_ZN12ES_CMN_FUNCS6BUFFER16CESOBufferStreamC1EPNS0_9IESBufferE
libcommonutility.so:_ZN12ES_CMN_FUNCS6BUFFER16CESOBufferStreamC2EPNS0_9IESBufferE
libcommonutility.so:_ZN12ES_CMN_FUNCS6BUFFER17ReAllocHeapBufferEPvj
libcommonutility.so:_ZN12ES_CMN_FUNCS6BUFFER9CESBuffer10CopyBufferEPKhjj
libcommonutility.so:_ZN12ES_CMN_FUNCS6BUFFER9CESBuffer10CopyBufferERKNS0_9IESBufferE
libcommonutility.so:_ZN12ES_CMN_FUNCS6BUFFER9CESBuffer10CopyBufferEjPKhj
libcommonutility.so:_ZN12ES_CMN_FUNCS6BUFFER9CESBuffer10FillBufferEh
libcommonutility.so:_ZN12ES_CMN_FUNCS6BUFFER9CESBuffer10FreeBufferEv
libcommonutility.so:_ZN12ES_CMN_FUNCS6BUFFER9CESBuffer11AllocBufferEj
libcommonutility.so:_ZN12ES_CMN_FUNCS6BUFFER9CESBuffer12AppendBufferEPKhj
libcommonutility.so:_ZN12ES_CMN_FUNCS6BUFFER9CESBuffer12GetBufferPtrEv
libcommonutility.so:_ZN12ES_CMN_FUNCS6BUFFER9CESBuffer13ReAllocBufferEj
libcommonutility.so:_ZN12ES_CMN_FUNCS6BUFFER9CESBuffer15GetStreamBufferEjj
libcommonutility.so:_ZN12ES_CMN_FUNCS6BUFFER9CESBuffer15GetValidDataLenEv
libcommonutility.so:_ZN12ES_CMN_FUNCS6BUFFER9CESBuffer19ReleaseStreamBufferEv
libcommonutility.so:_ZN12ES_CMN_FUNCS6BUFFER9CESBuffer6AttachEPhj
libcommonutility.so:_ZN12ES_CMN_FUNCS6BUFFER9CESBuffer6AttachERNS0_9IESBufferE
libcommonutility.so:_ZN12ES_CMN_FUNCS6BUFFER9CESBuffer6DetachEv
libcommonutility.so:_ZN12ES_CMN_FUNCS6BUFFER9CESBuffer7IsEmptyEv
libcommonutility.so:_ZN12ES_CMN_FUNCS6BUFFER9CESBufferC1Ev
libcommonutility.so:_ZN12ES_CMN_FUNCS6BUFFER9CESBufferC2Ev
libcommonutility.so:_ZN12ES_CMN_FUNCS6BUFFER9CESBufferD0Ev
libcommonutility.so:_ZN12ES_CMN_FUNCS6BUFFER9CESBufferD1Ev
libcommonutility.so:_ZN12ES_CMN_FUNCS6BUFFER9CESBufferD2Ev
libcommonutility.so:_ZN12ES_CMN_FUNCS6STRING10ReplaceStrENSt7__cxx1112basic_stringIwSt11char_traitsIwESaIwEEES6_S6_
libcommonutility.so:_ZN12ES_CMN_FUNCS6STRING13UnicodeToUTF8ERKNSt7__cxx1112basic_stringIwSt11char_traitsIwESaIwEEE
libcommonutility.so:_ZN12ES_CMN_FUNCS6STRING14UTF8ToUnincodeERKNSt7__cxx1112basic_stringIcSt11char_traitsIcESaIcEEE
libcommonutility.so:_ZN12ES_CMN_FUNCS6STRING17MBStringToUnicodeERKNSt7__cxx1112basic_stringIcSt11char_traitsIcESaIcEEE
libcommonutility.so:_ZN12ES_CMN_FUNCS6STRING17UnicodeToMBStringERKNSt7__cxx1112basic_stringIwSt11char_traitsIwESaIwEEE
libcommonutility.so:_ZN13ES_IMAGE_INFO14GetESImageSizeERKSt3mapINSt7__cxx1112basic_stringIcSt11char_traitsIcESaIcEEEiSt4lessIS6_ESaISt4pairIKS6_iEEE
libcommonutility.so:_ZN13ES_IMAGE_INFO14IsESImageEmptyERKSt3mapINSt7__cxx1112basic_stringIcSt11char_traitsIcESaIcEEEiSt4lessIS6_ESaISt4pairIKS6_iEEE
libcommonutility.so:_ZN13ES_IMAGE_INFO15GetESImageWidthERKSt3mapINSt7__cxx1112basic_stringIcSt11char_traitsIcESaIcEEEiSt4lessIS6_ESaISt4pairIKS6_iEEE
libcommonutility.so:_ZN13ES_IMAGE_INFO16GetESImageHeightERKSt3mapINSt7__cxx1112basic_stringIcSt11char_traitsIcESaIcEEEiSt4lessIS6_ESaISt4pairIKS6_iEEE
libcommonutility.so:_ZN13ES_IMAGE_INFO16GetESImageSizeUNERKSt3mapINSt7__cxx1112basic_stringIcSt11char_traitsIcESaIcEEEiSt4lessIS6_ESaISt4pairIKS6_iEEE
libcommonutility.so:_ZN13ES_IMAGE_INFO18GetESImageDataTypeERKSt3mapINSt7__cxx1112basic_stringIcSt11char_traitsIcESaIcEEEiSt4lessIS6_ESaISt4pairIKS6_iEEE
libcommonutility.so:_ZN13ES_IMAGE_INFO18GetESImageMonoPageERKSt3mapINSt7__cxx1112basic_stringIcSt11char_traitsIcESaIcEEEiSt4lessIS6_ESaISt4pairIKS6_iEEE
libcommonutility.so:_ZN13ES_IMAGE_INFO18GetImageInfoAsDictERSt3mapINSt7__cxx1112basic_stringIcSt11char_traitsIcESaIcEEEN5boost3anyESt4lessIS6_ESaISt4pairIKS6_S8_EEERKS0_IS6_iSA_SaISB_ISC_iEEE
libcommonutility.so:_ZN13ES_IMAGE_INFO18GetImageInfoAsJsonERNSt7__cxx1112basic_stringIcSt11char_traitsIcESaIcEEERKSt3mapIS5_iSt4lessIS5_ESaISt4pairIKS5_iEEE
libcommonutility.so:_ZN13ES_IMAGE_INFO19GetESImageColorTypeERKSt3mapINSt7__cxx1112basic_stringIcSt11char_traitsIcESaIcEEEiSt4lessIS6_ESaISt4pairIKS6_iEEE
libcommonutility.so:_ZN13ES_IMAGE_INFO19GetESImagePageCountERKSt3mapINSt7__cxx1112basic_stringIcSt11char_traitsIcESaIcEEEiSt4lessIS6_ESaISt4pairIKS6_iEEE
libcommonutility.so:_ZN13ES_IMAGE_INFO19GetESImageScanCountERKSt3mapINSt7__cxx1112basic_stringIcSt11char_traitsIcESaIcEEEiSt4lessIS6_ESaISt4pairIKS6_iEEE
libcommonutility.so:_ZN13ES_IMAGE_INFO20GetESImagePaperCountERKSt3mapINSt7__cxx1112basic_stringIcSt11char_traitsIcESaIcEEEiSt4lessIS6_ESaISt4pairIKS6_iEEE
libcommonutility.so:_ZN13ES_IMAGE_INFO20GetESImageUpsideDownERKSt3mapINSt7__cxx1112basic_stringIcSt11char_traitsIcESaIcEEEiSt4lessIS6_ESaISt4pairIKS6_iEEE
libcommonutility.so:_ZN13ES_IMAGE_INFO21GetESImageAutoCroppedERKSt3mapINSt7__cxx1112basic_stringIcSt11char_traitsIcESaIcEEEiSt4lessIS6_ESaISt4pairIKS6_iEEE
libcommonutility.so:_ZN13ES_IMAGE_INFO21GetESImageBytesPerColERKSt3mapINSt7__cxx1112basic_stringIcSt11char_traitsIcESaIcEEEiSt4lessIS6_ESaISt4pairIKS6_iEEE
libcommonutility.so:_ZN13ES_IMAGE_INFO21GetESImageBytesPerRowERKSt3mapINSt7__cxx1112basic_stringIcSt11char_traitsIcESaIcEEEiSt4lessIS6_ESaISt4pairIKS6_iEEE
libcommonutility.so:_ZN13ES_IMAGE_INFO21GetESImageResolutionXERKSt3mapINSt7__cxx1112basic_stringIcSt11char_traitsIcESaIcEEEiSt4lessIS6_ESaISt4pairIKS6_iEEE
libcommonutility.so:_ZN13ES_IMAGE_INFO21GetESImageResolutionYERKSt3mapINSt7__cxx1112basic_stringIcSt11char_traitsIcESaIcEEEiSt4lessIS6_ESaISt4pairIKS6_iEEE
libcommonutility.so:_ZN13ES_IMAGE_INFO21GetESImageSurfaceTypeERKSt3mapINSt7__cxx1112basic_stringIcSt11char_traitsIcESaIcEEEiSt4lessIS6_ESaISt4pairIKS6_iEEE
libcommonutility.so:_ZN13ES_IMAGE_INFO21MakeImageInfoFromDictERSt3mapINSt7__cxx1112basic_stringIcSt11char_traitsIcESaIcEEEiSt4lessIS6_ESaISt4pairIKS6_iEEES0_IS6_N5boost3anyES8_SaIS9_ISA_SG_EEE
libcommonutility.so:_ZN13ES_IMAGE_INFO21MakeImageInfoFromJsonERSt3mapINSt7__cxx1112basic_stringIcSt11char_traitsIcESaIcEEEiSt4lessIS6_ESaISt4pairIKS6_iEEES6_
libcommonutility.so:_ZN13ES_IMAGE_INFO22GetESImageBitsPerPixelERKSt3mapINSt7__cxx1112basic_stringIcSt11char_traitsIcESaIcEEEiSt4lessIS6_ESaISt4pairIKS6_iEEE
libcommonutility.so:_ZN13ES_IMAGE_INFO22GetESImagePixelsPerRowERKSt3mapINSt7__cxx1112basic_stringIcSt11char_traitsIcESaIcEEEiSt4lessIS6_ESaISt4pairIKS6_iEEE
libcommonutility.so:_ZN13ES_IMAGE_INFO23GetESImageBitsPerSampleERKSt3mapINSt7__cxx1112basic_stringIcSt11char_traitsIcESaIcEEEiSt4lessIS6_ESaISt4pairIKS6_iEEE
libcommonutility.so:_ZN13ES_IMAGE_INFO23GetESImageBlankPageSkipERKSt3mapINSt7__cxx1112basic_stringIcSt11char_traitsIcESaIcEEEiSt4lessIS6_ESaISt4pairIKS6_iEEE
libcommonutility.so:_ZN13ES_IMAGE_INFO23GetImageInfoArrayAsJsonERNSt7__cxx1112basic_stringIcSt11char_traitsIcESaIcEEERSt5dequeISt3mapIS5_iSt4lessIS5_ESaISt4pairIKS5_iEEESaISF_EE
libcommonutility.so:_ZN13ES_IMAGE_INFO23GetImageInfoValueForKeyERKSt3mapINSt7__cxx1112basic_stringIcSt11char_traitsIcESaIcEEEiSt4lessIS6_ESaISt4pairIKS6_iEEES6_
libcommonutility.so:_ZN13ES_IMAGE_INFO25GetESImageSamplesPerPixelERKSt3mapINSt7__cxx1112basic_stringIcSt11char_traitsIcESaIcEEEiSt4lessIS6_ESaISt4pairIKS6_iEEE
libcommonutility.so:_ZN13ES_IMAGE_INFO26GetESImageCarrierSheetTypeERKSt3mapINSt7__cxx1112basic_stringIcSt11char_traitsIcESaIcEEEiSt4lessIS6_ESaISt4pairIKS6_iEEE
libcommonutility.so:_ZN13ES_IMAGE_INFO26GetESImageOutputResolutionERKSt3mapINSt7__cxx1112basic_stringIcSt11char_traitsIcESaIcEEEiSt4lessIS6_ESaISt4pairIKS6_iEEE
libcommonutility.so:_ZN13ES_IMAGE_INFO26MakeImageInfoArrayFromJsonERSt5dequeISt3mapINSt7__cxx1112basic_stringIcSt11char_traitsIcESaIcEEEiSt4lessIS7_ESaISt4pairIKS7_iEEESaISE_EERSB_
libcommonutility.so:_ZN13ES_IMAGE_INFO28MakeImageInfoArrayAsDicArrayERSt5dequeISt3mapINSt7__cxx1112basic_stringIcSt11char_traitsIcESaIcEEEN5boost3anyESt4lessIS7_ESaISt4pairIKS7_S9_EEESaISG_EERKS0_IS1_IS7_iSB_SaISC_ISD_iEEESaISM_EE
libcommonutility.so:_ZN13ES_IMAGE_INFO30GetESImageOthersideSurfaceTypeERKSt3mapINSt7__cxx1112basic_stringIcSt11char_traitsIcESaIcEEEiSt4lessIS6_ESaISt4pairIKS6_iEEE
libcommonutility.so:_ZN13ES_IMAGE_INFO30MakeImageInfoArrayFromDicArrayERSt5dequeISt3mapINSt7__cxx1112basic_stringIcSt11char_traitsIcESaIcEEEiSt4lessIS7_ESaISt4pairIKS7_iEEESaISE_EERKS0_IS1_IS7_N5boost3anyES9_SaISA_ISB_SJ_EEESaISM_EE
libcommonutility.so:_ZN7CDbgLog10MessageLogEN14ENUM_LOG_LEVEL12enumLogLevelEPKcS3_S3_iS3_z
libcommonutility.so:_ZN7CDbgLog10MessageLogEN14ENUM_LOG_LEVEL12enumLogLevelEPKcS3_iS3_z
libcommonutility.so:_ZN7CDbgLog10MessageLogEN14ENUM_LOG_LEVEL12enumLogLevelEPKcS3_z
libcommonutility.so:_ZN7CDbgLog11MessageLog2EN14ENUM_LOG_LEVEL12enumLogLevelEPKcS3_iS3_P13__va_list_tag
libcommonutility.so:_ZN7CDbgLog12BuildLogNameEPKc
libcommonutility.so:_ZN7CDbgLog12GetLevelNameB5cxx11EN14ENUM_LOG_LEVEL12enumLogLevelE
libcommonutility.so:_ZN7CDbgLog13WriteTwainLogEPKc
libcommonutility.so:_ZN7CDbgLog15GetArchitectureB5cxx11Ev
libcommonutility.so:_ZN7CDbgLog15GetLogDirectoryB5cxx11Ev
libcommonutility.so:_ZN7CDbgLog15IsEnableLoggingEv
libcommonutility.so:_ZN7CDbgLog16GetCommonAppPathB5cxx11Ev
libcommonutility.so:_ZN7CDbgLog16GetModuleVersionENSt7__cxx1112basic_stringIcSt11char_traitsIcESaIcEEE
libcommonutility.so:_ZN7CDbgLog18SaveDebugImageDataEPKcRKN12ES_CMN_FUNCS6BUFFER9IESBufferEi
libcommonutility.so:_ZN7CDbgLog21IsEnableThreadSafeLogEv
libcommonutility.so:_ZN7CDbgLog4DumpEPhiPKc
libcommonutility.so:_ZN7CDbgLog4DumpERKSt3mapINSt7__cxx1112basic_stringIcSt11char_traitsIcESaIcEEEN5boost3anyESt4lessIS6_ESaISt4pairIKS6_S8_EEEPKcb
libcommonutility.so:_ZN7CDbgLog8WriteLogEPKciS1_
libcommonutility.so:_ZN7CDbgLog9DumpImageEPKcN15ENUM_IMAGE_TYPE13enumImageTypeEiRKN12ES_CMN_FUNCS6BUFFER9IESBufferE
libcommonutility.so:_ZN7CDbgLog9GetHeaderB5cxx11Ev
libcommonutility.so:_ZN7CDbgLog9InitImageEPKcN15ENUM_IMAGE_TYPE13enumImageTypeEiii
libcommonutility.so:_ZN7CDbgLogC1EPKc
libcommonutility.so:_ZN7CDbgLogC2EPKc
libcommonutility.so:_ZN7CDbgLogD0Ev
libcommonutility.so:_ZN7CDbgLogD1Ev
libcommonutility.so:_ZN7CDbgLogD2Ev
libcommonutility.so:_ZN7CESFile10SeekToHeadEv
libcommonutility.so:_ZN7CESFile11GetFileNameB5cxx11Ev
libcommonutility.so:_ZN7CESFile14CreateTempFileENSt7__cxx1112basic_stringIcSt11char_traitsIcESaIcEEES5_NS_14_ES_OPEN_MODESE
libcommonutility.so:_ZN7CESFile15SeekToEndOfFileEv
libcommonutility.so:_ZN7CESFile16ReadDataOfLengthEjPv
libcommonutility.so:_ZN7CESFile16ReadDataOfLengthEjRN12ES_CMN_FUNCS6BUFFER9IESBufferE
libcommonutility.so:_ZN7CESFile16SeekToFileOffsetEj
libcommonutility.so:_ZN7CESFile17ReadAvailableDataERN12ES_CMN_FUNCS6BUFFER9IESBufferE
libcommonutility.so:_ZN7CESFile19ReadDataToEndOfFileERN12ES_CMN_FUNCS6BUFFER9IESBufferE
libcommonutility.so:_ZN7CESFile26CreateFileInstanceWithPathENSt7__cxx1112basic_stringIcSt11char_traitsIcESaIcEEENS_14_ES_OPEN_MODESE
libcommonutility.so:_ZN7CESFile32CreateTempFileInstanceWithPrefixENSt7__cxx1112basic_stringIcSt11char_traitsIcESaIcEEES5_NS_14_ES_OPEN_MODESE
libcommonutility.so:_ZN7CESFile4OpenENSt7__cxx1112basic_stringIcSt11char_traitsIcESaIcEEENS_14_ES_OPEN_MODESE
libcommonutility.so:_ZN7CESFile5FlushEv
libcommonutility.so:_ZN7CESFile6IsOpenEv
libcommonutility.so:_ZN7CESFile9CloseFileEv
libcommonutility.so:_ZN7CESFile9GetLengthEv
libcommonutility.so:_ZN7CESFile9WriteDataERN12ES_CMN_FUNCS6BUFFER9IESBufferE
libcommonutility.so:_ZN7CESFile9WriteDataEjPv
libcommonutility.so:_ZN7CESFileC1Ev
libcommonutility.so:_ZN7CESFileC2Ev
libcommonutility.so:_ZN7CESFileD0Ev
libcommonutility.so:_ZN7CESFileD1Ev
libcommonutility.so:_ZN7CESFileD2Ev
libcommonutility.so:_ZN8CESMutex10CloseMutexEv
libcommonutility.so:_ZN8CESMutex10EnterMutexEv
libcommonutility.so:_ZN8CESMutex12IsExistMutexEPKc
libcommonutility.so:_ZN8CESMutex7ReleaseEv
libcommonutility.so:_ZN8CESMutex9InitMutexEPKcPi
libcommonutility.so:_ZN8CESMutexC1Ev
libcommonutility.so:_ZN8CESMutexC2Ev
libcommonutility.so:_ZN8CESMutexD0Ev
libcommonutility.so:_ZN8CESMutexD1Ev
libcommonutility.so:_ZN8CESMutexD2Ev
libcommonutility.so:_ZNK12ES_CMN_FUNCS6BUFFER9CESBuffer17GetConstBufferPtrEv
libcommonutility.so:_ZNK12ES_CMN_FUNCS6BUFFER9CESBuffer9GetLengthEv
libcommonutility.so:_ZNK7CDbgLog16IsEanbleDumpJsonEv
libcommonutility.so:_ZNK7CDbgLog17IsEnableDumpImageEv
libcommonutility.so:_ZNK7CDbgLog19IsEnableDumpCommandEv
libcommonutility.so:_ZNK7CDbgLog20IsEnableDumpTwainLogEv
libcommonutility.so:theLog
libepsonscan2.so:ConvertDateToXMDate
libepsonscan2.so:ExtGState_Check
libepsonscan2.so:GetElement
libepsonscan2.so:HPDF_3DAnnotExData_New
libepsonscan2.so:HPDF_3DAnnotExData_Set3DMeasurement
libepsonscan2.so:HPDF_3DAnnot_New
libepsonscan2.so:HPDF_3DAnnot_Set3DView
libepsonscan2.so:HPDF_3DC3DMeasure_New
libepsonscan2.so:HPDF_3DC3DMeasure_SetProjectionAnotation
libepsonscan2.so:HPDF_3DC3DMeasure_SetText
libepsonscan2.so:HPDF_3DC3DMeasure_SetTextBoxSize
libepsonscan2.so:HPDF_3DMeasure_SetColor
libepsonscan2.so:HPDF_3DMeasure_SetName
libepsonscan2.so:HPDF_3DMeasure_SetTextSize
libepsonscan2.so:HPDF_3DView_Add3DC3DMeasure
libepsonscan2.so:HPDF_3DView_AddNode
libepsonscan2.so:HPDF_3DView_New
libepsonscan2.so:HPDF_3DView_SetBackgroundColor
libepsonscan2.so:HPDF_3DView_SetCamera
libepsonscan2.so:HPDF_3DView_SetLighting
libepsonscan2.so:HPDF_3DView_SetOrthogonalProjection
libepsonscan2.so:HPDF_3DView_SetPerspectiveProjection
libepsonscan2.so:HPDF_AToF
libepsonscan2.so:HPDF_AToI
libepsonscan2.so:HPDF_AddColorspaceFromProfile
libepsonscan2.so:HPDF_AddIntent
libepsonscan2.so:HPDF_AddPage
libepsonscan2.so:HPDF_AddPageLabel
libepsonscan2.so:HPDF_Annot_Set3DView
libepsonscan2.so:HPDF_Annot_SetCMYKColor
libepsonscan2.so:HPDF_Annot_SetGrayColor
libepsonscan2.so:HPDF_Annot_SetNoColor
libepsonscan2.so:HPDF_Annot_SetRGBColor
libepsonscan2.so:HPDF_Annotation_New
libepsonscan2.so:HPDF_Annotation_SetBorderStyle
libepsonscan2.so:HPDF_Annotation_Validate
libepsonscan2.so:HPDF_Array_Add
libepsonscan2.so:HPDF_Array_AddName
libepsonscan2.so:HPDF_Array_AddNumber
libepsonscan2.so:HPDF_Array_AddReal
libepsonscan2.so:HPDF_Array_Clear
libepsonscan2.so:HPDF_Array_Free
libepsonscan2.so:HPDF_Array_GetItem
libepsonscan2.so:HPDF_Array_Insert
libepsonscan2.so:HPDF_Array_Items
libepsonscan2.so:HPDF_Array_New
libepsonscan2.so:HPDF_Array_Write
libepsonscan2.so:HPDF_AttachFile
libepsonscan2.so:HPDF_Base14FontDef_FindBuiltinData
libepsonscan2.so:HPDF_Base14FontDef_New
libepsonscan2.so:HPDF_BasicEncoder_CopyMap
libepsonscan2.so:HPDF_BasicEncoder_FindBuiltinData
libepsonscan2.so:HPDF_BasicEncoder_Free
libepsonscan2.so:HPDF_BasicEncoder_New
libepsonscan2.so:HPDF_BasicEncoder_OverrideMap
libepsonscan2.so:HPDF_BasicEncoder_ToUnicode
libepsonscan2.so:HPDF_BasicEncoder_Write
libepsonscan2.so:HPDF_Binary_Free
libepsonscan2.so:HPDF_Binary_GetLen
libepsonscan2.so:HPDF_Binary_GetValue
libepsonscan2.so:HPDF_Binary_New
libepsonscan2.so:HPDF_Binary_SetValue
libepsonscan2.so:HPDF_Binary_Write
libepsonscan2.so:HPDF_Boolean_New
libepsonscan2.so:HPDF_Boolean_Write
libepsonscan2.so:HPDF_Box_Array_New
libepsonscan2.so:HPDF_CCITT_Data
libepsonscan2.so:HPDF_CIDFontDef_AddWidth
libepsonscan2.so:HPDF_CIDFontDef_ChangeStyle
libepsonscan2.so:HPDF_CIDFontDef_FreeFunc
libepsonscan2.so:HPDF_CIDFontDef_FreeWidth
libepsonscan2.so:HPDF_CIDFontDef_GetCIDWidth
libepsonscan2.so:HPDF_CIDFontDef_New
libepsonscan2.so:HPDF_CMapEncoder_AddCMap
libepsonscan2.so:HPDF_CMapEncoder_AddCodeSpaceRange
libepsonscan2.so:HPDF_CMapEncoder_AddJWWLineHead
libepsonscan2.so:HPDF_CMapEncoder_AddNotDefRange
libepsonscan2.so:HPDF_CMapEncoder_ByteType
libepsonscan2.so:HPDF_CMapEncoder_Free
libepsonscan2.so:HPDF_CMapEncoder_InitAttr
libepsonscan2.so:HPDF_CMapEncoder_New
libepsonscan2.so:HPDF_CMapEncoder_SetUnicodeArray
libepsonscan2.so:HPDF_CMapEncoder_ToCID
libepsonscan2.so:HPDF_CMapEncoder_ToUnicode
libepsonscan2.so:HPDF_CMapEncoder_Write
libepsonscan2.so:HPDF_CallbackReader_New
libepsonscan2.so:HPDF_CallbackWriter_New
libepsonscan2.so:HPDF_Catalog_AddPageLabel
libepsonscan2.so:HPDF_Catalog_GetNames
libepsonscan2.so:HPDF_Catalog_GetPageLayout
libepsonscan2.so:HPDF_Catalog_GetPageMode
libepsonscan2.so:HPDF_Catalog_GetRoot
libepsonscan2.so:HPDF_Catalog_GetViewerPreference
libepsonscan2.so:HPDF_Catalog_New
libepsonscan2.so:HPDF_Catalog_SetNames
libepsonscan2.so:HPDF_Catalog_SetOpenAction
libepsonscan2.so:HPDF_Catalog_SetPageLayout
libepsonscan2.so:HPDF_Catalog_SetPageMode
libepsonscan2.so:HPDF_Catalog_SetViewerPreference
libepsonscan2.so:HPDF_Catalog_Validate
libepsonscan2.so:HPDF_CheckError
libepsonscan2.so:HPDF_CopyError
libepsonscan2.so:HPDF_Create3DView
libepsonscan2.so:HPDF_CreateExtGState
libepsonscan2.so:HPDF_CreateJavaScript
libepsonscan2.so:HPDF_CreateOutline
libepsonscan2.so:HPDF_DESTINATION_TYPE_NAMES
libepsonscan2.so:HPDF_Destination_New
libepsonscan2.so:HPDF_Destination_SetFit
libepsonscan2.so:HPDF_Destination_SetFitB
libepsonscan2.so:HPDF_Destination_SetFitBH
libepsonscan2.so:HPDF_Destination_SetFitBV
libepsonscan2.so:HPDF_Destination_SetFitH
libepsonscan2.so:HPDF_Destination_SetFitR
libepsonscan2.so:HPDF_Destination_SetFitV
libepsonscan2.so:HPDF_Destination_SetXYZ
libepsonscan2.so:HPDF_Destination_Validate
libepsonscan2.so:HPDF_DictStream_New
libepsonscan2.so:HPDF_Dict_Add
libepsonscan2.so:HPDF_Dict_AddBoolean
libepsonscan2.so:HPDF_Dict_AddName
libepsonscan2.so:HPDF_Dict_AddNumber
libepsonscan2.so:HPDF_Dict_AddPoint3D
libepsonscan2.so:HPDF_Dict_AddReal
libepsonscan2.so:HPDF_Dict_Add_FilterParams
libepsonscan2.so:HPDF_Dict_Free
libepsonscan2.so:HPDF_Dict_GetItem
libepsonscan2.so:HPDF_Dict_GetKeyByObj
libepsonscan2.so:HPDF_Dict_New
libepsonscan2.so:HPDF_Dict_RemoveElement
libepsonscan2.so:HPDF_Dict_Write
libepsonscan2.so:HPDF_Doc_AddPagesTo
libepsonscan2.so:HPDF_Doc_FindEncoder
libepsonscan2.so:HPDF_Doc_FindFont
libepsonscan2.so:HPDF_Doc_FindFontDef
libepsonscan2.so:HPDF_Doc_GetCurrentPages
libepsonscan2.so:HPDF_Doc_PrepareEncryption
libepsonscan2.so:HPDF_Doc_RegisterEncoder
libepsonscan2.so:HPDF_Doc_RegisterFontDef
libepsonscan2.so:HPDF_Doc_SetCurrentPage
libepsonscan2.so:HPDF_Doc_SetCurrentPages
libepsonscan2.so:HPDF_Doc_SetEncryptOff
libepsonscan2.so:HPDF_Doc_SetEncryptOn
libepsonscan2.so:HPDF_Doc_Validate
libepsonscan2.so:HPDF_EmbeddedFile_New
libepsonscan2.so:HPDF_EmbeddedFile_Validate
libepsonscan2.so:HPDF_Encoder_ByteType
libepsonscan2.so:HPDF_Encoder_CheckJWWLineHead
libepsonscan2.so:HPDF_Encoder_Free
libepsonscan2.so:HPDF_Encoder_GetByteType
libepsonscan2.so:HPDF_Encoder_GetType
libepsonscan2.so:HPDF_Encoder_GetUnicode
libepsonscan2.so:HPDF_Encoder_GetWritingMode
libepsonscan2.so:HPDF_Encoder_SetParseText
libepsonscan2.so:HPDF_Encoder_ToUnicode
libepsonscan2.so:HPDF_Encoder_Validate
libepsonscan2.so:HPDF_EncryptDict_CreateID
libepsonscan2.so:HPDF_EncryptDict_GetAttr
libepsonscan2.so:HPDF_EncryptDict_New
libepsonscan2.so:HPDF_EncryptDict_OnFree
libepsonscan2.so:HPDF_EncryptDict_Prepare
libepsonscan2.so:HPDF_EncryptDict_SetPassword
libepsonscan2.so:HPDF_EncryptDict_Validate
libepsonscan2.so:HPDF_Encrypt_CreateEncryptionKey
libepsonscan2.so:HPDF_Encrypt_CreateOwnerKey
libepsonscan2.so:HPDF_Encrypt_CreateUserKey
libepsonscan2.so:HPDF_Encrypt_CryptBuf
libepsonscan2.so:HPDF_Encrypt_Init
libepsonscan2.so:HPDF_Encrypt_InitKey
libepsonscan2.so:HPDF_Encrypt_Reset
libepsonscan2.so:HPDF_Error_GetCode
libepsonscan2.so:HPDF_Error_GetDetailCode
libepsonscan2.so:HPDF_Error_Init
libepsonscan2.so:HPDF_Error_Reset
libepsonscan2.so:HPDF_ExtGState_New
libepsonscan2.so:HPDF_ExtGState_SetAlphaFill
libepsonscan2.so:HPDF_ExtGState_SetAlphaStroke
libepsonscan2.so:HPDF_ExtGState_SetBlendMode
libepsonscan2.so:HPDF_ExtGState_Validate
libepsonscan2.so:HPDF_FToA
libepsonscan2.so:HPDF_FileReader_New
libepsonscan2.so:HPDF_FileReader_ReadFunc
libepsonscan2.so:HPDF_FileReader_SeekFunc
libepsonscan2.so:HPDF_FileStream_FreeFunc
libepsonscan2.so:HPDF_FileStream_SizeFunc
libepsonscan2.so:HPDF_FileStream_TellFunc
libepsonscan2.so:HPDF_FileWriter_New
libepsonscan2.so:HPDF_FileWriter_WriteFunc
libepsonscan2.so:HPDF_FontDef_Cleanup
libepsonscan2.so:HPDF_FontDef_Free
libepsonscan2.so:HPDF_FontDef_Validate
libepsonscan2.so:HPDF_Font_GetAscent
libepsonscan2.so:HPDF_Font_GetBBox
libepsonscan2.so:HPDF_Font_GetCapHeight
libepsonscan2.so:HPDF_Font_GetDescent
libepsonscan2.so:HPDF_Font_GetEncodingName
libepsonscan2.so:HPDF_Font_GetFontName
libepsonscan2.so:HPDF_Font_GetUnicodeWidth
libepsonscan2.so:HPDF_Font_GetXHeight
libepsonscan2.so:HPDF_Font_MeasureText
libepsonscan2.so:HPDF_Font_TextWidth
libepsonscan2.so:HPDF_Font_Validate
libepsonscan2.so:HPDF_Free
libepsonscan2.so:HPDF_FreeDoc
libepsonscan2.so:HPDF_FreeDocAll
libepsonscan2.so:HPDF_FreeMem
libepsonscan2.so:HPDF_FreeTextAnnot_Set2PointCalloutLine
libepsonscan2.so:HPDF_FreeTextAnnot_Set3PointCalloutLine
libepsonscan2.so:HPDF_FreeTextAnnot_SetDefaultStyle
libepsonscan2.so:HPDF_FreeTextAnnot_SetLineEndingStyle
libepsonscan2.so:HPDF_GState_Free
libepsonscan2.so:HPDF_GState_New
libepsonscan2.so:HPDF_GetContents
libepsonscan2.so:HPDF_GetCurrentEncoder
libepsonscan2.so:HPDF_GetCurrentPage
libepsonscan2.so:HPDF_GetEncoder
libepsonscan2.so:HPDF_GetError
libepsonscan2.so:HPDF_GetErrorDetail
libepsonscan2.so:HPDF_GetFont
libepsonscan2.so:HPDF_GetFontDef
libepsonscan2.so:HPDF_GetInfoAttr
libepsonscan2.so:HPDF_GetMem
libepsonscan2.so:HPDF_GetPageByIndex
libepsonscan2.so:HPDF_GetPageLayout
libepsonscan2.so:HPDF_GetPageMode
libepsonscan2.so:HPDF_GetStreamSize
libepsonscan2.so:HPDF_GetTTFontDefFromFile
libepsonscan2.so:HPDF_GetVersion
libepsonscan2.so:HPDF_GetViewerPreference
libepsonscan2.so:HPDF_GryphNameToUnicode
libepsonscan2.so:HPDF_HasDoc
libepsonscan2.so:HPDF_ICC_LoadIccFromMem
libepsonscan2.so:HPDF_IToA
libepsonscan2.so:HPDF_IToA2
libepsonscan2.so:HPDF_Image_AddSMask
libepsonscan2.so:HPDF_Image_GetBitsPerComponent
libepsonscan2.so:HPDF_Image_GetColorSpace
libepsonscan2.so:HPDF_Image_GetHeight
libepsonscan2.so:HPDF_Image_GetSize
libepsonscan2.so:HPDF_Image_GetSize2
libepsonscan2.so:HPDF_Image_GetWidth
libepsonscan2.so:HPDF_Image_Load1BitImageFromMem
libepsonscan2.so:HPDF_Image_LoadJpegImage
libepsonscan2.so:HPDF_Image_LoadJpegImageFromMem
libepsonscan2.so:HPDF_Image_LoadRaw1BitImageFromMem
libepsonscan2.so:HPDF_Image_LoadRawImage
libepsonscan2.so:HPDF_Image_LoadRawImageFromMem
libepsonscan2.so:HPDF_Image_SetColorMask
libepsonscan2.so:HPDF_Image_SetColorSpace
libepsonscan2.so:HPDF_Image_SetMask
libepsonscan2.so:HPDF_Image_SetMaskImage
libepsonscan2.so:HPDF_Image_SetRenderingIntent
libepsonscan2.so:HPDF_Image_Validate
libepsonscan2.so:HPDF_Info_GetInfoAttr
libepsonscan2.so:HPDF_Info_SetInfoAttr
libepsonscan2.so:HPDF_Info_SetInfoDateAttr
libepsonscan2.so:HPDF_InsertPage
libepsonscan2.so:HPDF_LineAnnot_SetCaption
libepsonscan2.so:HPDF_LineAnnot_SetLeader
libepsonscan2.so:HPDF_LineAnnot_SetPosition
libepsonscan2.so:HPDF_LinkAnnot_New
libepsonscan2.so:HPDF_LinkAnnot_SetBorderStyle
libepsonscan2.so:HPDF_LinkAnnot_SetHighlightMode
libepsonscan2.so:HPDF_List_Add
libepsonscan2.so:HPDF_List_Clear
libepsonscan2.so:HPDF_List_Find
libepsonscan2.so:HPDF_List_Free
libepsonscan2.so:HPDF_List_Insert
libepsonscan2.so:HPDF_List_ItemAt
libepsonscan2.so:HPDF_List_New
libepsonscan2.so:HPDF_List_Remove
libepsonscan2.so:HPDF_List_RemoveByIndex
libepsonscan2.so:HPDF_LoadIccProfileFromFile
libepsonscan2.so:HPDF_LoadJpegImageFromFile
libepsonscan2.so:HPDF_LoadJpegImageFromMem
libepsonscan2.so:HPDF_LoadPngImageFromFile
libepsonscan2.so:HPDF_LoadPngImageFromFile2
libepsonscan2.so:HPDF_LoadPngImageFromMem
libepsonscan2.so:HPDF_LoadRawImageFromFile
libepsonscan2.so:HPDF_LoadRawImageFromMem
libepsonscan2.so:HPDF_LoadTTFontFromFile
libepsonscan2.so:HPDF_LoadTTFontFromFile2
libepsonscan2.so:HPDF_LoadType1FontFromFile
libepsonscan2.so:HPDF_LoadU3DFromFile
libepsonscan2.so:HPDF_LoadU3DFromMem
libepsonscan2.so:HPDF_MD5Final
libepsonscan2.so:HPDF_MD5Init
libepsonscan2.so:HPDF_MD5Update
libepsonscan2.so:HPDF_MMgr_Free
libepsonscan2.so:HPDF_MMgr_New
libepsonscan2.so:HPDF_MarkupAnnot_New
libepsonscan2.so:HPDF_MarkupAnnot_SetCloudEffect
libepsonscan2.so:HPDF_MarkupAnnot_SetCreationDate
libepsonscan2.so:HPDF_MarkupAnnot_SetIntent
libepsonscan2.so:HPDF_MarkupAnnot_SetInteriorCMYKColor
libepsonscan2.so:HPDF_MarkupAnnot_SetInteriorGrayColor
libepsonscan2.so:HPDF_MarkupAnnot_SetInteriorRGBColor
libepsonscan2.so:HPDF_MarkupAnnot_SetInteriorTransparent
libepsonscan2.so:HPDF_MarkupAnnot_SetPopup
libepsonscan2.so:HPDF_MarkupAnnot_SetRectDiff
libepsonscan2.so:HPDF_MarkupAnnot_SetSubject
libepsonscan2.so:HPDF_MarkupAnnot_SetTitle
libepsonscan2.so:HPDF_MarkupAnnot_SetTransparency
libepsonscan2.so:HPDF_MemCmp
libepsonscan2.so:HPDF_MemCpy
libepsonscan2.so:HPDF_MemSet
libepsonscan2.so:HPDF_MemStream_FreeData
libepsonscan2.so:HPDF_MemStream_FreeFunc
libepsonscan2.so:HPDF_MemStream_GetBufCount
libepsonscan2.so:HPDF_MemStream_GetBufPtr
libepsonscan2.so:HPDF_MemStream_GetBufSize
libepsonscan2.so:HPDF_MemStream_InWrite
libepsonscan2.so:HPDF_MemStream_New
libepsonscan2.so:HPDF_MemStream_ReadFunc
libepsonscan2.so:HPDF_MemStream_Rewrite
libepsonscan2.so:HPDF_MemStream_SeekFunc
libepsonscan2.so:HPDF_MemStream_SizeFunc
libepsonscan2.so:HPDF_MemStream_TellFunc
libepsonscan2.so:HPDF_MemStream_WriteFunc
libepsonscan2.so:HPDF_NameDict_GetNameTree
libepsonscan2.so:HPDF_NameDict_New
libepsonscan2.so:HPDF_NameDict_SetNameTree
libepsonscan2.so:HPDF_NameDict_Validate
libepsonscan2.so:HPDF_NameTree_Add
libepsonscan2.so:HPDF_NameTree_New
libepsonscan2.so:HPDF_NameTree_Validate
libepsonscan2.so:HPDF_Name_GetValue
libepsonscan2.so:HPDF_Name_New
libepsonscan2.so:HPDF_Name_SetValue
libepsonscan2.so:HPDF_Name_Write
libepsonscan2.so:HPDF_New
libepsonscan2.so:HPDF_NewDoc
libepsonscan2.so:HPDF_NewEx
libepsonscan2.so:HPDF_Null_New
libepsonscan2.so:HPDF_Number_New
libepsonscan2.so:HPDF_Number_SetValue
libepsonscan2.so:HPDF_Number_Write
libepsonscan2.so:HPDF_Obj_ForceFree
libepsonscan2.so:HPDF_Obj_Free
libepsonscan2.so:HPDF_Obj_Write
libepsonscan2.so:HPDF_Obj_WriteValue
libepsonscan2.so:HPDF_OutlineRoot_New
libepsonscan2.so:HPDF_Outline_GetFirst
libepsonscan2.so:HPDF_Outline_GetLast
libepsonscan2.so:HPDF_Outline_GetNext
libepsonscan2.so:HPDF_Outline_GetOpened
libepsonscan2.so:HPDF_Outline_GetParent
libepsonscan2.so:HPDF_Outline_GetPrev
libepsonscan2.so:HPDF_Outline_New
libepsonscan2.so:HPDF_Outline_SetDestination
libepsonscan2.so:HPDF_Outline_SetOpened
libepsonscan2.so:HPDF_Outline_Validate
libepsonscan2.so:HPDF_OutputIntent_New
libepsonscan2.so:HPDF_PD33DMeasure_New
libepsonscan2.so:HPDF_PDFA_AppendOutputIntents
libepsonscan2.so:HPDF_PDFA_GenerateID
libepsonscan2.so:HPDF_PDFA_SetPDFAConformance
libepsonscan2.so:HPDF_PadOrTrancatePasswd
libepsonscan2.so:HPDF_PageLabel_New
libepsonscan2.so:HPDF_Page_Arc
libepsonscan2.so:HPDF_Page_BeginText
libepsonscan2.so:HPDF_Page_CheckState
libepsonscan2.so:HPDF_Page_Circle
libepsonscan2.so:HPDF_Page_Clip
libepsonscan2.so:HPDF_Page_ClosePath
libepsonscan2.so:HPDF_Page_ClosePathEofillStroke
libepsonscan2.so:HPDF_Page_ClosePathFillStroke
libepsonscan2.so:HPDF_Page_ClosePathStroke
libepsonscan2.so:HPDF_Page_Concat
libepsonscan2.so:HPDF_Page_Create3DAnnot
libepsonscan2.so:HPDF_Page_Create3DAnnotExData
libepsonscan2.so:HPDF_Page_Create3DC3DMeasure
libepsonscan2.so:HPDF_Page_Create3DView
libepsonscan2.so:HPDF_Page_CreateCircleAnnot
libepsonscan2.so:HPDF_Page_CreateDestination
libepsonscan2.so:HPDF_Page_CreateFreeTextAnnot
libepsonscan2.so:HPDF_Page_CreateHighlightAnnot
libepsonscan2.so:HPDF_Page_CreateLineAnnot
libepsonscan2.so:HPDF_Page_CreateLinkAnnot
libepsonscan2.so:HPDF_Page_CreatePD33DMeasure
libepsonscan2.so:HPDF_Page_CreatePopupAnnot
libepsonscan2.so:HPDF_Page_CreateProjectionAnnot
libepsonscan2.so:HPDF_Page_CreateSquareAnnot
libepsonscan2.so:HPDF_Page_CreateSquigglyAnnot
libepsonscan2.so:HPDF_Page_CreateStampAnnot
libepsonscan2.so:HPDF_Page_CreateStrikeOutAnnot
libepsonscan2.so:HPDF_Page_CreateTextAnnot
libepsonscan2.so:HPDF_Page_CreateTextMarkupAnnot
libepsonscan2.so:HPDF_Page_CreateURILinkAnnot
libepsonscan2.so:HPDF_Page_CreateUnderlineAnnot
libepsonscan2.so:HPDF_Page_CurveTo
libepsonscan2.so:HPDF_Page_CurveTo2
libepsonscan2.so:HPDF_Page_CurveTo3
libepsonscan2.so:HPDF_Page_DrawImage
libepsonscan2.so:HPDF_Page_Ellipse
libepsonscan2.so:HPDF_Page_EndPath
libepsonscan2.so:HPDF_Page_EndText
libepsonscan2.so:HPDF_Page_Eoclip
libepsonscan2.so:HPDF_Page_Eofill
libepsonscan2.so:HPDF_Page_EofillStroke
libepsonscan2.so:HPDF_Page_ExecuteXObject
libepsonscan2.so:HPDF_Page_Fill
libepsonscan2.so:HPDF_Page_FillStroke
libepsonscan2.so:HPDF_Page_GRestore
libepsonscan2.so:HPDF_Page_GSave
libepsonscan2.so:HPDF_Page_GetCMYKFill
libepsonscan2.so:HPDF_Page_GetCMYKStroke
libepsonscan2.so:HPDF_Page_GetCharSpace
libepsonscan2.so:HPDF_Page_GetCurrentFont
libepsonscan2.so:HPDF_Page_GetCurrentFontSize
libepsonscan2.so:HPDF_Page_GetCurrentPos
libepsonscan2.so:HPDF_Page_GetCurrentPos2
libepsonscan2.so:HPDF_Page_GetCurrentTextPos
libepsonscan2.so:HPDF_Page_GetCurrentTextPos2
libepsonscan2.so:HPDF_Page_GetDash
libepsonscan2.so:HPDF_Page_GetExtGStateName
libepsonscan2.so:HPDF_Page_GetFillingColorSpace
libepsonscan2.so:HPDF_Page_GetFlat
libepsonscan2.so:HPDF_Page_GetGMode
libepsonscan2.so:HPDF_Page_GetGStateDepth
libepsonscan2.so:HPDF_Page_GetGrayFill
libepsonscan2.so:HPDF_Page_GetGrayStroke
libepsonscan2.so:HPDF_Page_GetHeight
libepsonscan2.so:HPDF_Page_GetHorizontalScalling
libepsonscan2.so:HPDF_Page_GetInheritableItem
libepsonscan2.so:HPDF_Page_GetLineCap
libepsonscan2.so:HPDF_Page_GetLineJoin
libepsonscan2.so:HPDF_Page_GetLineWidth
libepsonscan2.so:HPDF_Page_GetLocalFontName
libepsonscan2.so:HPDF_Page_GetMediaBox
libepsonscan2.so:HPDF_Page_GetMiterLimit
libepsonscan2.so:HPDF_Page_GetRGBFill
libepsonscan2.so:HPDF_Page_GetRGBStroke
libepsonscan2.so:HPDF_Page_GetStrokingColorSpace
libepsonscan2.so:HPDF_Page_GetTextLeading
libepsonscan2.so:HPDF_Page_GetTextMatrix
libepsonscan2.so:HPDF_Page_GetTextRaise
libepsonscan2.so:HPDF_Page_GetTextRenderingMode
libepsonscan2.so:HPDF_Page_GetTextRise
libepsonscan2.so:HPDF_Page_GetTransMatrix
libepsonscan2.so:HPDF_Page_GetWidth
libepsonscan2.so:HPDF_Page_GetWordSpace
libepsonscan2.so:HPDF_Page_GetXObjectName
libepsonscan2.so:HPDF_Page_InsertBefore
libepsonscan2.so:HPDF_Page_Insert_Shared_Content_Stream
libepsonscan2.so:HPDF_Page_LineTo
libepsonscan2.so:HPDF_Page_MeasureText
libepsonscan2.so:HPDF_Page_MoveTextPos
libepsonscan2.so:HPDF_Page_MoveTextPos2
libepsonscan2.so:HPDF_Page_MoveTo
libepsonscan2.so:HPDF_Page_MoveToNextLine
libepsonscan2.so:HPDF_Page_New
libepsonscan2.so:HPDF_Page_New_Content_Stream
libepsonscan2.so:HPDF_Page_Rectangle
libepsonscan2.so:HPDF_Page_SetBoxValue
libepsonscan2.so:HPDF_Page_SetCMYKFill
libepsonscan2.so:HPDF_Page_SetCMYKStroke
libepsonscan2.so:HPDF_Page_SetCharSpace
libepsonscan2.so:HPDF_Page_SetDash
libepsonscan2.so:HPDF_Page_SetExtGState
libepsonscan2.so:HPDF_Page_SetFilter
libepsonscan2.so:HPDF_Page_SetFlat
libepsonscan2.so:HPDF_Page_SetFontAndSize
libepsonscan2.so:HPDF_Page_SetGrayFill
libepsonscan2.so:HPDF_Page_SetGrayStroke
libepsonscan2.so:HPDF_Page_SetHeight
libepsonscan2.so:HPDF_Page_SetHorizontalScalling
libepsonscan2.so:HPDF_Page_SetLineCap
libepsonscan2.so:HPDF_Page_SetLineJoin
libepsonscan2.so:HPDF_Page_SetLineWidth
libepsonscan2.so:HPDF_Page_SetMiterLimit
libepsonscan2.so:HPDF_Page_SetRGBFill
libepsonscan2.so:HPDF_Page_SetRGBStroke
libepsonscan2.so:HPDF_Page_SetRotate
libepsonscan2.so:HPDF_Page_SetSize
libepsonscan2.so:HPDF_Page_SetSlideShow
libepsonscan2.so:HPDF_Page_SetTextLeading
libepsonscan2.so:HPDF_Page_SetTextMatrix
libepsonscan2.so:HPDF_Page_SetTextRaise
libepsonscan2.so:HPDF_Page_SetTextRenderingMode
libepsonscan2.so:HPDF_Page_SetTextRise
libepsonscan2.so:HPDF_Page_SetWidth
libepsonscan2.so:HPDF_Page_SetWordSpace
libepsonscan2.so:HPDF_Page_SetZoom
libepsonscan2.so:HPDF_Page_ShowText
libepsonscan2.so:HPDF_Page_ShowTextNextLine
libepsonscan2.so:HPDF_Page_ShowTextNextLineEx
libepsonscan2.so:HPDF_Page_Stroke
libepsonscan2.so:HPDF_Page_TextOut
libepsonscan2.so:HPDF_Page_TextRect
libepsonscan2.so:HPDF_Page_TextWidth
libepsonscan2.so:HPDF_Page_Validate
libepsonscan2.so:HPDF_Pages_AddKids
libepsonscan2.so:HPDF_Pages_New
libepsonscan2.so:HPDF_Pages_Validate
libepsonscan2.so:HPDF_PopupAnnot_New
libepsonscan2.so:HPDF_PopupAnnot_SetOpened
libepsonscan2.so:HPDF_ProjectionAnnot_New
libepsonscan2.so:HPDF_ProjectionAnnot_SetExData
libepsonscan2.so:HPDF_Proxy_New
libepsonscan2.so:HPDF_RaiseError
libepsonscan2.so:HPDF_ReadFromStream
libepsonscan2.so:HPDF_Real_New
libepsonscan2.so:HPDF_Real_SetValue
libepsonscan2.so:HPDF_Real_Write
libepsonscan2.so:HPDF_ResetError
libepsonscan2.so:HPDF_ResetStream
libepsonscan2.so:HPDF_SaveToFile
libepsonscan2.so:HPDF_SaveToStream
libepsonscan2.so:HPDF_SetCompressionMode
libepsonscan2.so:HPDF_SetCurrentEncoder
libepsonscan2.so:HPDF_SetEncryptionMode
libepsonscan2.so:HPDF_SetError
libepsonscan2.so:HPDF_SetErrorHandler
libepsonscan2.so:HPDF_SetInfoAttr
libepsonscan2.so:HPDF_SetInfoDateAttr
libepsonscan2.so:HPDF_SetOpenAction
libepsonscan2.so:HPDF_SetPageLayout
libepsonscan2.so:HPDF_SetPageMode
libepsonscan2.so:HPDF_SetPagesConfiguration
libepsonscan2.so:HPDF_SetPassword
libepsonscan2.so:HPDF_SetPermission
libepsonscan2.so:HPDF_SetViewerPreference
libepsonscan2.so:HPDF_StampAnnot_New
libepsonscan2.so:HPDF_StrCmp
libepsonscan2.so:HPDF_StrCpy
libepsonscan2.so:HPDF_StrLen
libepsonscan2.so:HPDF_StrStr
libepsonscan2.so:HPDF_Stream_CcittToStream
libepsonscan2.so:HPDF_Stream_Free
libepsonscan2.so:HPDF_Stream_Read
libepsonscan2.so:HPDF_Stream_ReadLn
libepsonscan2.so:HPDF_Stream_Seek
libepsonscan2.so:HPDF_Stream_Size
libepsonscan2.so:HPDF_Stream_Tell
libepsonscan2.so:HPDF_Stream_Validate
libepsonscan2.so:HPDF_Stream_Write
libepsonscan2.so:HPDF_Stream_WriteBinary
libepsonscan2.so:HPDF_Stream_WriteChar
libepsonscan2.so:HPDF_Stream_WriteEscapeName
libepsonscan2.so:HPDF_Stream_WriteEscapeText
libepsonscan2.so:HPDF_Stream_WriteEscapeText2
libepsonscan2.so:HPDF_Stream_WriteInt
libepsonscan2.so:HPDF_Stream_WriteReal
libepsonscan2.so:HPDF_Stream_WriteStr
libepsonscan2.so:HPDF_Stream_WriteToStream
libepsonscan2.so:HPDF_Stream_WriteToStreamWithDeflate
libepsonscan2.so:HPDF_Stream_WriteUChar
libepsonscan2.so:HPDF_Stream_WriteUInt
libepsonscan2.so:HPDF_String_Cmp
libepsonscan2.so:HPDF_String_Free
libepsonscan2.so:HPDF_String_New
libepsonscan2.so:HPDF_String_SetValue
libepsonscan2.so:HPDF_String_Write
libepsonscan2.so:HPDF_TTFontDef_GetCharBBox
libepsonscan2.so:HPDF_TTFontDef_GetCharWidth
libepsonscan2.so:HPDF_TTFontDef_GetGidWidth
libepsonscan2.so:HPDF_TTFontDef_GetGlyphid
libepsonscan2.so:HPDF_TTFontDef_Load
libepsonscan2.so:HPDF_TTFontDef_Load2
libepsonscan2.so:HPDF_TTFontDef_New
libepsonscan2.so:HPDF_TTFontDef_SaveFontData
libepsonscan2.so:HPDF_TTFontDef_SetTagName
libepsonscan2.so:HPDF_TTFont_New
libepsonscan2.so:HPDF_TextAnnot_SetIcon
libepsonscan2.so:HPDF_TextAnnot_SetOpened
libepsonscan2.so:HPDF_TextMarkupAnnot_SetQuadPoints
libepsonscan2.so:HPDF_ToBox
libepsonscan2.so:HPDF_ToPoint
libepsonscan2.so:HPDF_ToRect
libepsonscan2.so:HPDF_Type0Font_New
libepsonscan2.so:HPDF_Type1FontDef_Duplicate
libepsonscan2.so:HPDF_Type1FontDef_GetWidth
libepsonscan2.so:HPDF_Type1FontDef_GetWidthByName
libepsonscan2.so:HPDF_Type1FontDef_Load
libepsonscan2.so:HPDF_Type1FontDef_New
libepsonscan2.so:HPDF_Type1FontDef_SetWidths
libepsonscan2.so:HPDF_Type1Font_New
libepsonscan2.so:HPDF_U3D_Add3DView
libepsonscan2.so:HPDF_U3D_AddOnInstanciate
libepsonscan2.so:HPDF_U3D_LoadU3D
libepsonscan2.so:HPDF_U3D_LoadU3DFromMem
libepsonscan2.so:HPDF_U3D_SetDefault3DView
libepsonscan2.so:HPDF_UInt16Swap
libepsonscan2.so:HPDF_URILinkAnnot_New
libepsonscan2.so:HPDF_UnicodeToGryphName
libepsonscan2.so:HPDF_UseCNSEncodings
libepsonscan2.so:HPDF_UseCNSFonts
libepsonscan2.so:HPDF_UseCNTEncodings
libepsonscan2.so:HPDF_UseCNTFonts
libepsonscan2.so:HPDF_UseJPEncodings
libepsonscan2.so:HPDF_UseJPFonts
libepsonscan2.so:HPDF_UseKREncodings
libepsonscan2.so:HPDF_UseKRFonts
libepsonscan2.so:HPDF_UseUTFEncodings
libepsonscan2.so:HPDF_Xref_Add
libepsonscan2.so:HPDF_Xref_Free
libepsonscan2.so:HPDF_Xref_GetEntry
libepsonscan2.so:HPDF_Xref_GetEntryByObjectId
libepsonscan2.so:HPDF_Xref_New
libepsonscan2.so:HPDF_Xref_WriteToStream
libepsonscan2.so:SDIConvertJpegToFormat
libepsonscan2.so:SDIDeviceFinder_Create
libepsonscan2.so:SDIDeviceFinder_Dispose
libepsonscan2.so:SDIDeviceFinder_GetDevices
libepsonscan2.so:SDIDeviceFinder_SetTimeout
libepsonscan2.so:SDIDeviceFinder_StartDiscovery
libepsonscan2.so:SDIDeviceFinder_StopDiscovery
libepsonscan2.so:SDIDeviceInfo_Resolve
libepsonscan2.so:SDIImage_CheckImageIsBlank
libepsonscan2.so:SDIImage_Create
libepsonscan2.so:SDIImage_Dispose
libepsonscan2.so:SDIImage_GetBitsPerSample
libepsonscan2.so:SDIImage_GetHeight
libepsonscan2.so:SDIImage_GetPath
libepsonscan2.so:SDIImage_GetSamplesPerPixel
libepsonscan2.so:SDIImage_GetWidth
libepsonscan2.so:SDIMultipage_Add
libepsonscan2.so:SDIMultipage_Fin
libepsonscan2.so:SDIMultipage_Start
libepsonscan2.so:SDIScannerDrive_DoScanJob
libepsonscan2.so:SDIScannerDriver_CheckCautionStatus
libepsonscan2.so:SDIScannerDriver_CheckNextTransferEvent
libepsonscan2.so:SDIScannerDriver_Close
libepsonscan2.so:SDIScannerDriver_Create
libepsonscan2.so:SDIScannerDriver_Dispose
libepsonscan2.so:SDIScannerDriver_GetAllKeys
libepsonscan2.so:SDIScannerDriver_GetCapability
libepsonscan2.so:SDIScannerDriver_GetDefault
libepsonscan2.so:SDIScannerDriver_GetNextTransferEvent
libepsonscan2.so:SDIScannerDriver_GetValue
libepsonscan2.so:SDIScannerDriver_LockAdministratorLock
libepsonscan2.so:SDIScannerDriver_Open
libepsonscan2.so:SDIScannerDriver_Reset
libepsonscan2.so:SDIScannerDriver_SetValue
libepsonscan2.so:SDIScannerDriver_UnlockAdministratorLock
libepsonscan2.so:SHA1Input
libepsonscan2.so:SHA1PadMessage
libepsonscan2.so:SHA1ProcessMessageBlock
libepsonscan2.so:SHA1Reset
libepsonscan2.so:SHA1Result
libepsonscan2.so:TIFFFaxBlackCodes
libepsonscan2.so:TIFFFaxWhiteCodes
libepsonscan2.so:_ZN22CESManageFileFormatKit10LoadModuleEPKc
libepsonscan2.so:_ZN22CESManageFileFormatKit11_FreeModuleEv
libepsonscan2.so:_ZN22CESManageFileFormatKitC1Ev
libepsonscan2.so:_ZN22CESManageFileFormatKitC2Ev
libepsonscan2.so:_ZN22CESManageFileFormatKitD0Ev
libepsonscan2.so:_ZN22CESManageFileFormatKitD1Ev
libepsonscan2.so:_ZN22CESManageFileFormatKitD2Ev
libepsonscan2.so:_ZN9epsonscan10Brightness13GetCapabilityER13SDICapability
libepsonscan2.so:_ZN9epsonscan10Brightness18GetEngineKeyValuesB5cxx11Ev
libepsonscan2.so:_ZN9epsonscan10Brightness26IsSupportBrightnessCommandEv
libepsonscan2.so:_ZN9epsonscan10Brightness5ResetEv
libepsonscan2.so:_ZN9epsonscan10Brightness8GetValueERi
libepsonscan2.so:_ZN9epsonscan10Brightness8SetValueERKi
libepsonscan2.so:_ZN9epsonscan10Controller10GetDefaultERKNSt7__cxx1112basic_stringIcSt11char_traitsIcESaIcEEE12SDIValueTypePvi
libepsonscan2.so:_ZN9epsonscan10Controller12DequeueEventEv
libepsonscan2.so:_ZN9epsonscan10Controller13GetCapabilityERKNSt7__cxx1112basic_stringIcSt11char_traitsIcESaIcEEER13SDICapability
libepsonscan2.so:_ZN9epsonscan10Controller14CheckNextEventEb
libepsonscan2.so:_ZN9epsonscan10Controller20CheckGlassDirtStatusEv
libepsonscan2.so:_ZN9epsonscan10Controller21LockAdministratorLockEv
libepsonscan2.so:_ZN9epsonscan10Controller23ScannerCallBackReceiverENS_15EngineEventTypeEPNS_5ImageE8SDIError
libepsonscan2.so:_ZN9epsonscan10Controller23UnlockAdministratorLockEv
libepsonscan2.so:_ZN9epsonscan10Controller4OpenEv
libepsonscan2.so:_ZN9epsonscan10Controller4ScanEv
libepsonscan2.so:_ZN9epsonscan10Controller5CloseEv
libepsonscan2.so:_ZN9epsonscan10Controller5ResetEv
libepsonscan2.so:_ZN9epsonscan10Controller6CancelEv
libepsonscan2.so:_ZN9epsonscan10Controller7StopAFMEb
libepsonscan2.so:_ZN9epsonscan10Controller8GetValueERKNSt7__cxx1112basic_stringIcSt11char_traitsIcESaIcEEE12SDIValueTypePvi
libepsonscan2.so:_ZN9epsonscan10Controller8SetValueERKNSt7__cxx1112basic_stringIcSt11char_traitsIcESaIcEEE12SDIValueTypePvi
libepsonscan2.so:_ZN9epsonscan10Controller8StartAFMEb
libepsonscan2.so:_ZN9epsonscan10ControllerC1ERK13SDIDeviceInfoP16SDIScannerDriver
libepsonscan2.so:_ZN9epsonscan10ControllerC2ERK13SDIDeviceInfoP16SDIScannerDriver
libepsonscan2.so:_ZN9epsonscan10ControllerD0Ev
libepsonscan2.so:_ZN9epsonscan10ControllerD1Ev
libepsonscan2.so:_ZN9epsonscan10ControllerD2Ev
libepsonscan2.so:_ZN9epsonscan10DuplexType13GetCapabilityER13SDICapability
libepsonscan2.so:_ZN9epsonscan10DuplexType18GetEngineKeyValuesB5cxx11Ev
libepsonscan2.so:_ZN9epsonscan10DuplexType5ResetEv
libepsonscan2.so:_ZN9epsonscan10DuplexType8GetValueERi
libepsonscan2.so:_ZN9epsonscan10DuplexType8SetValueERKi
libepsonscan2.so:_ZN9epsonscan10Resolution13GetCapabilityER13SDICapability
libepsonscan2.so:_ZN9epsonscan10Resolution17GetScanResolutionEib
libepsonscan2.so:_ZN9epsonscan10Resolution17GetSeolutionTableB5cxx11Eb
libepsonscan2.so:_ZN9epsonscan10Resolution18GetEngineKeyValuesB5cxx11Ev
libepsonscan2.so:_ZN9epsonscan10Resolution38ScanResolutionForDestinationResolutionEiRSt3mapINSt7__cxx1112basic_stringIcSt11char_traitsIcESaIcEEEN5boost3anyESt4lessIS7_ESaISt4pairIKS7_S9_EEE
libepsonscan2.so:_ZN9epsonscan10Resolution5ResetEv
libepsonscan2.so:_ZN9epsonscan10Resolution8GetValueERi
libepsonscan2.so:_ZN9epsonscan10Resolution8SetValueERKi
libepsonscan2.so:_ZN9epsonscan11ImageFormat13GetCapabilityER13SDICapability
libepsonscan2.so:_ZN9epsonscan11ImageFormat18GetEngineKeyValuesB5cxx11Ev
libepsonscan2.so:_ZN9epsonscan11ImageFormat5ResetEv
libepsonscan2.so:_ZN9epsonscan11ImageFormat8GetValueERi
libepsonscan2.so:_ZN9epsonscan11ImageFormat8SetValueERKi
libepsonscan2.so:_ZN9epsonscan11JpegQuality13GetCapabilityER13SDICapability
libepsonscan2.so:_ZN9epsonscan11JpegQuality18GetEngineKeyValuesB5cxx11Ev
libepsonscan2.so:_ZN9epsonscan11JpegQuality5ResetEv
libepsonscan2.so:_ZN9epsonscan11JpegQuality8GetValueERi
libepsonscan2.so:_ZN9epsonscan11JpegQuality8SetValueERKi
libepsonscan2.so:_ZN9epsonscan11Orientation13GetCapabilityER13SDICapability
libepsonscan2.so:_ZN9epsonscan11Orientation18GetEngineKeyValuesB5cxx11Ev
libepsonscan2.so:_ZN9epsonscan11Orientation5ResetEv
libepsonscan2.so:_ZN9epsonscan11Orientation8GetValueERi
libepsonscan2.so:_ZN9epsonscan11Orientation8SetValueERKi
libepsonscan2.so:_ZN9epsonscan11PaperDeskew13GetCapabilityER13SDICapability
libepsonscan2.so:_ZN9epsonscan11PaperDeskew16GetADFCapabilityER13SDICapability
libepsonscan2.so:_ZN9epsonscan11PaperDeskew18GetEngineKeyValuesB5cxx11Ev
libepsonscan2.so:_ZN9epsonscan11PaperDeskew29IsAutoDeskewForWhiteBGEnabledEv
libepsonscan2.so:_ZN9epsonscan11PaperDeskew5ResetEv
libepsonscan2.so:_ZN9epsonscan11PaperDeskew8GetValueERi
libepsonscan2.so:_ZN9epsonscan11PaperDeskew8SetValueERKi
libepsonscan2.so:_ZN9epsonscan11PaperLoaded13GetCapabilityER13SDICapability
libepsonscan2.so:_ZN9epsonscan11PaperLoaded18GetEngineKeyValuesB5cxx11Ev
libepsonscan2.so:_ZN9epsonscan11PaperLoaded5ResetEv
libepsonscan2.so:_ZN9epsonscan11PaperLoaded8GetValueERi
libepsonscan2.so:_ZN9epsonscan11PaperLoaded8SetValueERKi
libepsonscan2.so:_ZN9epsonscan11TextEnhance13GetCapabilityER13SDICapability
libepsonscan2.so:_ZN9epsonscan11TextEnhance18GetEngineKeyValuesB5cxx11Ev
libepsonscan2.so:_ZN9epsonscan11TextEnhance5ResetEv
libepsonscan2.so:_ZN9epsonscan11TextEnhance8GetValueERi
libepsonscan2.so:_ZN9epsonscan11TextEnhance8SetValueERKi
libepsonscan2.so:_ZN9epsonscan11TransferMgr10CanDequeueEv
libepsonscan2.so:_ZN9epsonscan11TransferMgr10EnqueEventENS_13TransferEventE
libepsonscan2.so:_ZN9epsonscan11TransferMgr12DequeueEventEv
libepsonscan2.so:_ZN9epsonscan11TransferMgr20lastEventWithDequeueEb
libepsonscan2.so:_ZN9epsonscan11TransferMgr21CanDequeueWithoutWaitEv
libepsonscan2.so:_ZN9epsonscan11TransferMgr4OpenEv
libepsonscan2.so:_ZN9epsonscan11TransferMgr4waitEv
libepsonscan2.so:_ZN9epsonscan11TransferMgr5AbortEv
libepsonscan2.so:_ZN9epsonscan11TransferMgr5CloseEv
libepsonscan2.so:_ZN9epsonscan11TransferMgr5ResetEv
libepsonscan2.so:_ZN9epsonscan11TransferMgr8isOpenedEv
libepsonscan2.so:_ZN9epsonscan11TransferMgrC1Ev
libepsonscan2.so:_ZN9epsonscan11TransferMgrC2Ev
libepsonscan2.so:_ZN9epsonscan11TransferMgrD0Ev
libepsonscan2.so:_ZN9epsonscan11TransferMgrD1Ev
libepsonscan2.so:_ZN9epsonscan11TransferMgrD2Ev
libepsonscan2.so:_ZN9epsonscan12DocumentType13GetCapabilityER13SDICapability
libepsonscan2.so:_ZN9epsonscan12DocumentType18GetEngineKeyValuesB5cxx11Ev
libepsonscan2.so:_ZN9epsonscan12DocumentType5ResetEv
libepsonscan2.so:_ZN9epsonscan12DocumentType8GetValueERi
libepsonscan2.so:_ZN9epsonscan12DocumentType8SetValueERKi
libepsonscan2.so:_ZN9epsonscan12GetDeviceID2EPKhPhh13ESCommandType
libepsonscan2.so:_ZN9epsonscan12ScanWidthMax12FlatbedValueEv
libepsonscan2.so:_ZN9epsonscan12ScanWidthMax13GetCapabilityER13SDICapability
libepsonscan2.so:_ZN9epsonscan12ScanWidthMax18GetEngineKeyValuesB5cxx11Ev
libepsonscan2.so:_ZN9epsonscan12ScanWidthMax5ResetEv
libepsonscan2.so:_ZN9epsonscan12ScanWidthMax8ADFValueEv
libepsonscan2.so:_ZN9epsonscan12ScanWidthMax8GetValueERi
libepsonscan2.so:_ZN9epsonscan12ScanWidthMax8SetValueERKi
libepsonscan2.so:_ZN9epsonscan12ScanWidthMax9AutoValueEv
libepsonscan2.so:_ZN9epsonscan13ScanAreaWidth13GetCapabilityER13SDICapability
libepsonscan2.so:_ZN9epsonscan13ScanAreaWidth18GetEngineKeyValuesB5cxx11Ev
libepsonscan2.so:_ZN9epsonscan13ScanAreaWidth5ResetEv
libepsonscan2.so:_ZN9epsonscan13ScanAreaWidth8GetValueERi
libepsonscan2.so:_ZN9epsonscan13ScanAreaWidth8SetValueERKi
libepsonscan2.so:_ZN9epsonscan13ScanHeightMax12FlatbedValueEv
libepsonscan2.so:_ZN9epsonscan13ScanHeightMax13GetCapabilityER13SDICapability
libepsonscan2.so:_ZN9epsonscan13ScanHeightMax18GetEngineKeyValuesB5cxx11Ev
libepsonscan2.so:_ZN9epsonscan13ScanHeightMax5ResetEv
libepsonscan2.so:_ZN9epsonscan13ScanHeightMax8ADFValueEv
libepsonscan2.so:_ZN9epsonscan13ScanHeightMax8GetValueERi
libepsonscan2.so:_ZN9epsonscan13ScanHeightMax8SetValueERKi
libepsonscan2.so:_ZN9epsonscan13ScanHeightMax9AutoValueEv
libepsonscan2.so:_ZN9epsonscan13SkipBlankPage13GetCapabilityER13SDICapability
libepsonscan2.so:_ZN9epsonscan13SkipBlankPage18GetEngineKeyValuesB5cxx11Ev
libepsonscan2.so:_ZN9epsonscan13SkipBlankPage23IsSupportBlankPageLevelEv
libepsonscan2.so:_ZN9epsonscan13SkipBlankPage5ResetEv
libepsonscan2.so:_ZN9epsonscan13SkipBlankPage8GetValueERi
libepsonscan2.so:_ZN9epsonscan13SkipBlankPage8SetValueERKi
libepsonscan2.so:_ZN9epsonscan13error_handlerEmmPv
libepsonscan2.so:_ZN9epsonscan13stringToGammaENSt7__cxx1112basic_stringIcSt11char_traitsIcESaIcEEEPh
libepsonscan2.so:_ZN9epsonscan14BuildBaseTableEPhS0_S0_St10shared_ptrINS_6KeyMgrEES1_INS_9ModelInfoEEb
libepsonscan2.so:_ZN9epsonscan14DeviceResolver7ResolveER13SDIDeviceInfo
libepsonscan2.so:_ZN9epsonscan14FunctionalUnit12ADFAvailableEv
libepsonscan2.so:_ZN9epsonscan14FunctionalUnit13GetCapabilityER13SDICapability
libepsonscan2.so:_ZN9epsonscan14FunctionalUnit16FlatbedAvailableEv
libepsonscan2.so:_ZN9epsonscan14FunctionalUnit18GetEngineKeyValuesB5cxx11Ev
libepsonscan2.so:_ZN9epsonscan14FunctionalUnit20TransparentAvailableEv
libepsonscan2.so:_ZN9epsonscan14FunctionalUnit28TransarentAreaGuideAvailableEv
libepsonscan2.so:_ZN9epsonscan14FunctionalUnit5ResetEv
libepsonscan2.so:_ZN9epsonscan14FunctionalUnit8GetValueERi
libepsonscan2.so:_ZN9epsonscan14FunctionalUnit8SetValueERKi
libepsonscan2.so:_ZN9epsonscan14GetOrientation17IsPluginAvailableEv
libepsonscan2.so:_ZN9epsonscan14GetOrientation9DoProcessERSt3mapINSt7__cxx1112basic_stringIcSt11char_traitsIcESaIcEEEiSt4lessIS7_ESaISt4pairIKS7_iEEERN12ES_CMN_FUNCS6BUFFER13CESHeapBufferE
libepsonscan2.so:_ZN9epsonscan14ScanAreaHeight13GetCapabilityER13SDICapability
libepsonscan2.so:_ZN9epsonscan14ScanAreaHeight18GetEngineKeyValuesB5cxx11Ev
libepsonscan2.so:_ZN9epsonscan14ScanAreaHeight30IsOverScanForCroppingAvailableEv
libepsonscan2.so:_ZN9epsonscan14ScanAreaHeight30UpdateScanAreaWithDetectedSizeE20ESFunctionalUnitTypeRSt3mapINSt7__cxx1112basic_stringIcSt11char_traitsIcESaIcEEEN5boost3anyESt4lessIS8_ESaISt4pairIKS8_SA_EEE
libepsonscan2.so:_ZN9epsonscan14ScanAreaHeight5ResetEv
libepsonscan2.so:_ZN9epsonscan14ScanAreaHeight8GetValueERi
libepsonscan2.so:_ZN9epsonscan14ScanAreaHeight8SetValueERKi
libepsonscan2.so:_ZN9epsonscan15BuildGammaTableEiiiPhS0_S0_
libepsonscan2.so:_ZN9epsonscan15ProcOrientation16RotateImageOnMemERN12ES_CMN_FUNCS6BUFFER13CESHeapBufferENS_13EIPRotateTypeERKSt3mapINSt7__cxx1112basic_stringIcSt11char_traitsIcESaIcEEEiSt4lessISC_ESaISt4pairIKSC_iEEES4_R8SDIError
libepsonscan2.so:_ZN9epsonscan15ProcOrientation20RotateImageBy90OnMemERN12ES_CMN_FUNCS6BUFFER13CESHeapBufferERKSt3mapINSt7__cxx1112basic_stringIcSt11char_traitsIcESaIcEEEiSt4lessISB_ESaISt4pairIKSB_iEEES4_iR8SDIError
libepsonscan2.so:_ZN9epsonscan15ProcOrientation21RotateImageB1800OnMemERN12ES_CMN_FUNCS6BUFFER13CESHeapBufferERKSt3mapINSt7__cxx1112basic_stringIcSt11char_traitsIcESaIcEEEiSt4lessISB_ESaISt4pairIKSB_iEEES4_R8SDIError
libepsonscan2.so:_ZN9epsonscan15ScanAreaOffsetX13GetCapabilityER13SDICapability
libepsonscan2.so:_ZN9epsonscan15ScanAreaOffsetX18GetEngineKeyValuesB5cxx11Ev
libepsonscan2.so:_ZN9epsonscan15ScanAreaOffsetX5ResetEv
libepsonscan2.so:_ZN9epsonscan15ScanAreaOffsetX8GetValueERi
libepsonscan2.so:_ZN9epsonscan15ScanAreaOffsetX8SetValueERKi
libepsonscan2.so:_ZN9epsonscan15ScanAreaOffsetY13GetCapabilityER13SDICapability
libepsonscan2.so:_ZN9epsonscan15ScanAreaOffsetY18GetEngineKeyValuesB5cxx11Ev
libepsonscan2.so:_ZN9epsonscan15ScanAreaOffsetY5ResetEv
libepsonscan2.so:_ZN9epsonscan15ScanAreaOffsetY8GetValueERi
libepsonscan2.so:_ZN9epsonscan15ScanAreaOffsetY8SetValueERKi
libepsonscan2.so:_ZN9epsonscan15TiffCompression13GetCapabilityER13SDICapability
libepsonscan2.so:_ZN9epsonscan15TiffCompression18GetEngineKeyValuesB5cxx11Ev
libepsonscan2.so:_ZN9epsonscan15TiffCompression5ResetEv
libepsonscan2.so:_ZN9epsonscan15TiffCompression8GetValueERi
libepsonscan2.so:_ZN9epsonscan15TiffCompression8SetValueERKi
libepsonscan2.so:_ZN9epsonscan16PagesTobeScanned13GetCapabilityER13SDICapability
libepsonscan2.so:_ZN9epsonscan16PagesTobeScanned18GetEngineKeyValuesB5cxx11Ev
libepsonscan2.so:_ZN9epsonscan16PagesTobeScanned5ResetEv
libepsonscan2.so:_ZN9epsonscan16PagesTobeScanned8GetValueERi
libepsonscan2.so:_ZN9epsonscan16PagesTobeScanned8SetValueERKi
libepsonscan2.so:_ZN9epsonscan17AutoCropInscribed13GetCapabilityER13SDICapability
libepsonscan2.so:_ZN9epsonscan17AutoCropInscribed16GetADFCapabilityER13SDICapability
libepsonscan2.so:_ZN9epsonscan17AutoCropInscribed18GetEngineKeyValuesB5cxx11Ev
libepsonscan2.so:_ZN9epsonscan17AutoCropInscribed5ResetEv
libepsonscan2.so:_ZN9epsonscan17AutoCropInscribed8GetValueERi
libepsonscan2.so:_ZN9epsonscan17AutoCropInscribed8SetValueERKi
libepsonscan2.so:_ZN9epsonscan17BackgroundRemoval13GetCapabilityER13SDICapability
libepsonscan2.so:_ZN9epsonscan17BackgroundRemoval18GetEngineKeyValuesB5cxx11Ev
libepsonscan2.so:_ZN9epsonscan17BackgroundRemoval5ResetEv
libepsonscan2.so:_ZN9epsonscan17BackgroundRemoval8GetValueERi
libepsonscan2.so:_ZN9epsonscan17BackgroundRemoval8SetValueERKi
libepsonscan2.so:_ZN9epsonscan19DoubleFeedDetection13GetCapabilityER13SDICapability
libepsonscan2.so:_ZN9epsonscan19DoubleFeedDetection18GetEngineKeyValuesB5cxx11Ev
libepsonscan2.so:_ZN9epsonscan19DoubleFeedDetection5ResetEv
libepsonscan2.so:_ZN9epsonscan19DoubleFeedDetection8GetValueERi
libepsonscan2.so:_ZN9epsonscan19DoubleFeedDetection8SetValueERKi
libepsonscan2.so:_ZN9epsonscan19NoiseReductionLevel13GetCapabilityER13SDICapability
libepsonscan2.so:_ZN9epsonscan19NoiseReductionLevel18GetEngineKeyValuesB5cxx11Ev
libepsonscan2.so:_ZN9epsonscan19NoiseReductionLevel5ResetEv
libepsonscan2.so:_ZN9epsonscan19NoiseReductionLevel8GetValueERi
libepsonscan2.so:_ZN9epsonscan19NoiseReductionLevel8SetValueERKi
libepsonscan2.so:_ZN9epsonscan19ThresholdAdjustment13GetCapabilityER13SDICapability
libepsonscan2.so:_ZN9epsonscan19ThresholdAdjustment18GetEngineKeyValuesB5cxx11Ev
libepsonscan2.so:_ZN9epsonscan19ThresholdAdjustment5ResetEv
libepsonscan2.so:_ZN9epsonscan19ThresholdAdjustment8GetValueERi
libepsonscan2.so:_ZN9epsonscan19ThresholdAdjustment8SetValueERKi
libepsonscan2.so:_ZN9epsonscan19TransferCompression13GetCapabilityER13SDICapability
libepsonscan2.so:_ZN9epsonscan19TransferCompression18GetEngineKeyValuesB5cxx11Ev
libepsonscan2.so:_ZN9epsonscan19TransferCompression18SupportRAWTransferEv
libepsonscan2.so:_ZN9epsonscan19TransferCompression26SupportCompressionTransferEv
libepsonscan2.so:_ZN9epsonscan19TransferCompression5ResetEv
libepsonscan2.so:_ZN9epsonscan19TransferCompression8GetValueERi
libepsonscan2.so:_ZN9epsonscan19TransferCompression8SetValueERKi
libepsonscan2.so:_ZN9epsonscan20DeficiencyCorrection13GetCapabilityER13SDICapability
libepsonscan2.so:_ZN9epsonscan20DeficiencyCorrection18GetEngineKeyValuesB5cxx11Ev
libepsonscan2.so:_ZN9epsonscan20DeficiencyCorrection29IsProcessDeficiencyCorrectionEv
libepsonscan2.so:_ZN9epsonscan20DeficiencyCorrection5ResetEv
libepsonscan2.so:_ZN9epsonscan20DeficiencyCorrection8GetValueERi
libepsonscan2.so:_ZN9epsonscan20DeficiencyCorrection8SetValueERKi
libepsonscan2.so:_ZN9epsonscan20PaperCreaseReduction13GetCapabilityER13SDICapability
libepsonscan2.so:_ZN9epsonscan20PaperCreaseReduction18GetEngineKeyValuesB5cxx11Ev
libepsonscan2.so:_ZN9epsonscan20PaperCreaseReduction5ResetEv
libepsonscan2.so:_ZN9epsonscan20PaperCreaseReduction8GetValueERi
libepsonscan2.so:_ZN9epsonscan20PaperCreaseReduction8SetValueERKi
libepsonscan2.so:_ZN9epsonscan22GetTableFromParamTableERSt3mapINSt7__cxx1112basic_stringIcSt11char_traitsIcESaIcEEEN5boost3anyESt4lessIS6_ESaISt4pairIKS6_S8_EEEPKcSI_PSF_
libepsonscan2.so:_ZN9epsonscan22TextEnhanceSensitivity13GetCapabilityER13SDICapability
libepsonscan2.so:_ZN9epsonscan22TextEnhanceSensitivity18GetEngineKeyValuesB5cxx11Ev
libepsonscan2.so:_ZN9epsonscan22TextEnhanceSensitivity5ResetEv
libepsonscan2.so:_ZN9epsonscan22TextEnhanceSensitivity8GetValueERi
libepsonscan2.so:_ZN9epsonscan22TextEnhanceSensitivity8SetValueERKi
libepsonscan2.so:_ZN9epsonscan23ConvertBackground10To18ERKSt3mapINSt7__cxx1112basic_stringIcSt11char_traitsIcESaIcEEEN5boost3anyESt4lessIS6_ESaISt4pairIKS6_S8_EEERSF_
libepsonscan2.so:_ZN9epsonscan24CustomSkipLevelAsPercentEi
libepsonscan2.so:_ZN9epsonscan24DoubleFeedDetectionLevel13GetCapabilityER13SDICapability
libepsonscan2.so:_ZN9epsonscan24DoubleFeedDetectionLevel16GetADFCapabilityER13SDICapability
libepsonscan2.so:_ZN9epsonscan24DoubleFeedDetectionLevel18GetEngineKeyValuesB5cxx11Ev
libepsonscan2.so:_ZN9epsonscan24DoubleFeedDetectionLevel5ResetEv
libepsonscan2.so:_ZN9epsonscan24DoubleFeedDetectionLevel8GetValueERi
libepsonscan2.so:_ZN9epsonscan24DoubleFeedDetectionLevel8SetValueERKi
libepsonscan2.so:_ZN9epsonscan24ScanHeightMaxInLongPaper13GetCapabilityER13SDICapability
libepsonscan2.so:_ZN9epsonscan24ScanHeightMaxInLongPaper18GetEngineKeyValuesB5cxx11Ev
libepsonscan2.so:_ZN9epsonscan24ScanHeightMaxInLongPaper25ADFMaxScanAreaHeightInHRDEv
libepsonscan2.so:_ZN9epsonscan24ScanHeightMaxInLongPaper5ResetEv
libepsonscan2.so:_ZN9epsonscan24ScanHeightMaxInLongPaper8GetValueERi
libepsonscan2.so:_ZN9epsonscan24ScanHeightMaxInLongPaper8SetValueERKi
libepsonscan2.so:_ZN9epsonscan24UnscannableScanParameter13GetCapabilityER13SDICapability
libepsonscan2.so:_ZN9epsonscan24UnscannableScanParameter18GetEngineKeyValuesB5cxx11Ev
libepsonscan2.so:_ZN9epsonscan24UnscannableScanParameter5ResetEv
libepsonscan2.so:_ZN9epsonscan24UnscannableScanParameter8GetValueERi
libepsonscan2.so:_ZN9epsonscan24UnscannableScanParameter8SetValueERKi
libepsonscan2.so:_ZN9epsonscan31UnscannableScanParameterForAFMC13GetCapabilityER13SDICapability
libepsonscan2.so:_ZN9epsonscan31UnscannableScanParameterForAFMC18GetEngineKeyValuesB5cxx11Ev
libepsonscan2.so:_ZN9epsonscan31UnscannableScanParameterForAFMC5ResetEv
libepsonscan2.so:_ZN9epsonscan31UnscannableScanParameterForAFMC8GetValueERi
libepsonscan2.so:_ZN9epsonscan31UnscannableScanParameterForAFMC8SetValueERKi
libepsonscan2.so:_ZN9epsonscan39ScanHeightMaxInLongPaperResolutionTable13GetCapabilityER13SDICapability
libepsonscan2.so:_ZN9epsonscan39ScanHeightMaxInLongPaperResolutionTable18GetEngineKeyValuesB5cxx11Ev
libepsonscan2.so:_ZN9epsonscan39ScanHeightMaxInLongPaperResolutionTable5ResetEv
libepsonscan2.so:_ZN9epsonscan39ScanHeightMaxInLongPaperResolutionTable8GetValueERNSt7__cxx1112basic_stringIcSt11char_traitsIcESaIcEEE
libepsonscan2.so:_ZN9epsonscan39ScanHeightMaxInLongPaperResolutionTable8SetValueERKNSt7__cxx1112basic_stringIcSt11char_traitsIcESaIcEEE
libepsonscan2.so:_ZN9epsonscan3DTR10DoAutoCropERSt3mapINSt7__cxx1112basic_stringIcSt11char_traitsIcESaIcEEEiSt4lessIS7_ESaISt4pairIKS7_iEEERN12ES_CMN_FUNCS6BUFFER13CESHeapBufferESt10shared_ptrINS_9ModelInfoEES7_
libepsonscan2.so:_ZN9epsonscan3DTR14IsDTRAvailableEv
libepsonscan2.so:_ZN9epsonscan3DTR14JudgeBlankPageERSt3mapINSt7__cxx1112basic_stringIcSt11char_traitsIcESaIcEEEiSt4lessIS7_ESaISt4pairIKS7_iEEERN12ES_CMN_FUNCS6BUFFER13CESHeapBufferESt10shared_ptrINS_9ModelInfoEEiS7_
libepsonscan2.so:_ZN9epsonscan3DTR14JudgeColorTypeERSt3mapINSt7__cxx1112basic_stringIcSt11char_traitsIcESaIcEEEiSt4lessIS7_ESaISt4pairIKS7_iEEERN12ES_CMN_FUNCS6BUFFER13CESHeapBufferESt10shared_ptrINS_9ModelInfoEESK_INS_6KeyMgrEES7_R21SDIAutoColorPixelType
libepsonscan2.so:_ZN9epsonscan3DTR17DoRemovePunchHoleERSt3mapINSt7__cxx1112basic_stringIcSt11char_traitsIcESaIcEEEiSt4lessIS7_ESaISt4pairIKS7_iEEERN12ES_CMN_FUNCS6BUFFER13CESHeapBufferESt10shared_ptrINS_9ModelInfoEEiS7_
libepsonscan2.so:_ZN9epsonscan3DTR9DoProcessERSt3mapINSt7__cxx1112basic_stringIcSt11char_traitsIcESaIcEEEiSt4lessIS7_ESaISt4pairIKS7_iEEERN12ES_CMN_FUNCS6BUFFER13CESHeapBufferE
libepsonscan2.so:_ZN9epsonscan3KeyINSt7__cxx1112basic_stringIcSt11char_traitsIcESaIcEEEE8GetValueE12SDIValueTypePvi
libepsonscan2.so:_ZN9epsonscan3KeyINSt7__cxx1112basic_stringIcSt11char_traitsIcESaIcEEEE8SetValueE12SDIValueTypePvi
libepsonscan2.so:_ZN9epsonscan3KeyIiE8GetValueE12SDIValueTypePvi
libepsonscan2.so:_ZN9epsonscan3KeyIiE8SetValueE12SDIValueTypePvi
libepsonscan2.so:_ZN9epsonscan3Lut10ProcessLUTERSt3mapINSt7__cxx1112basic_stringIcSt11char_traitsIcESaIcEEEiSt4lessIS7_ESaISt4pairIKS7_iEEERN12ES_CMN_FUNCS6BUFFER13CESHeapBufferEPhSK_SK_
libepsonscan2.so:_ZN9epsonscan3Lut10ProcessLUTERSt3mapINSt7__cxx1112basic_stringIcSt11char_traitsIcESaIcEEEiSt4lessIS7_ESaISt4pairIKS7_iEEERN12ES_CMN_FUNCS6BUFFER13CESHeapBufferESt10shared_ptrINS_6KeyMgrEESK_INS_9ModelInfoEEb
libepsonscan2.so:_ZN9epsonscan3Lut18ProcessLUTUsingFitERSt3mapINSt7__cxx1112basic_stringIcSt11char_traitsIcESaIcEEEiSt4lessIS7_ESaISt4pairIKS7_iEEERN12ES_CMN_FUNCS6BUFFER13CESHeapBufferEiii20SDIBackgroundRemovalS7_
libepsonscan2.so:_ZN9epsonscan3Lut20isFitPluginAvailableEv
libepsonscan2.so:_ZN9epsonscan3Lut9DoProcessERSt3mapINSt7__cxx1112basic_stringIcSt11char_traitsIcESaIcEEEiSt4lessIS7_ESaISt4pairIKS7_iEEERN12ES_CMN_FUNCS6BUFFER13CESHeapBufferE
libepsonscan2.so:_ZN9epsonscan3Lut9isSKipLutEv
libepsonscan2.so:_ZN9epsonscan5Image12threadCount_E
libepsonscan2.so:_ZN9epsonscan5Image14applyImageProcESt10shared_ptrINS_6KeyMgrEES1_INS_9ModelInfoEE
libepsonscan2.so:_ZN9epsonscan5Image17m_ThreadCriticSecE
libepsonscan2.so:_ZN9epsonscan5Image31IsHardwareImageProcessSupportedESt10shared_ptrINS_6KeyMgrEE
libepsonscan2.so:_ZN9epsonscan6ESIMP213GetESIMP2PathB5cxx11Ev
libepsonscan2.so:_ZN9epsonscan6ESIMP217IsCarrerSheetCropERSt3mapINSt7__cxx1112basic_stringIcSt11char_traitsIcESaIcEEEiSt4lessIS7_ESaISt4pairIKS7_iEEE
libepsonscan2.so:_ZN9epsonscan6ESIMP217IsESIMP2AvailableEv
libepsonscan2.so:_ZN9epsonscan6ESIMP222DoDeficiencyCorrectionERSt3mapINSt7__cxx1112basic_stringIcSt11char_traitsIcESaIcEEEiSt4lessIS7_ESaISt4pairIKS7_iEEERN12ES_CMN_FUNCS6BUFFER13CESHeapBufferE
libepsonscan2.so:_ZN9epsonscan6ESIMP24CropERSt3mapINSt7__cxx1112basic_stringIcSt11char_traitsIcESaIcEEEiSt4lessIS7_ESaISt4pairIKS7_iEEERN12ES_CMN_FUNCS6BUFFER13CESHeapBufferE
libepsonscan2.so:_ZN9epsonscan6ESIMP26DetectERSt3mapINSt7__cxx1112basic_stringIcSt11char_traitsIcESaIcEEEiSt4lessIS7_ESaISt4pairIKS7_iEEERN12ES_CMN_FUNCS6BUFFER13CESHeapBufferE
libepsonscan2.so:_ZN9epsonscan6ESIMP2C1ESt10shared_ptrINS_6KeyMgrEES1_INS_9ModelInfoEE
libepsonscan2.so:_ZN9epsonscan6ESIMP2C2ESt10shared_ptrINS_6KeyMgrEES1_INS_9ModelInfoEE
libepsonscan2.so:_ZN9epsonscan6ESIMP2D0Ev
libepsonscan2.so:_ZN9epsonscan6ESIMP2D1Ev
libepsonscan2.so:_ZN9epsonscan6ESIMP2D2Ev
libepsonscan2.so:_ZN9epsonscan6Engine12LoadSDModuleE13ESCommandType
libepsonscan2.so:_ZN9epsonscan6Engine13StopJobInModeEh
libepsonscan2.so:_ZN9epsonscan6Engine14SetValueForKeyERKNSt7__cxx1112basic_stringIcSt11char_traitsIcESaIcEEERKN5boost3anyE
libepsonscan2.so:_ZN9epsonscan6Engine14StartJobInModeEh
libepsonscan2.so:_ZN9epsonscan6Engine16ScanInBackgroundEv
libepsonscan2.so:_ZN9epsonscan6Engine16ScannerDidWarmUpEP10IESScanner
libepsonscan2.so:_ZN9epsonscan6Engine17ScannerWillWarmUpEP10IESScanner
libepsonscan2.so:_ZN9epsonscan6Engine19call_GetValueForKeyEPKcR15CESResultString
libepsonscan2.so:_ZN9epsonscan6Engine20ScannerDidDisconnectEP10IESScanner
libepsonscan2.so:_ZN9epsonscan6Engine21ScannerDidPressButtonEh
libepsonscan2.so:_ZN9epsonscan6Engine21ScannerDidRequestStopEP10IESScanner
libepsonscan2.so:_ZN9epsonscan6Engine22InitWithDeviceInfoDictEPKc
libepsonscan2.so:_ZN9epsonscan6Engine23ScannerIsReservedByHostEP10IESScannerPKc
libepsonscan2.so:_ZN9epsonscan6Engine24NetworkScannerDidTimeoutEP10IESScanner
libepsonscan2.so:_ZN9epsonscan6Engine24ScannerDidCancelScanningEP10IESScanner
libepsonscan2.so:_ZN9epsonscan6Engine25ScannerWillCancelScanningEP10IESScanner
libepsonscan2.so:_ZN9epsonscan6Engine26RequestSavingPendingImagesEv
libepsonscan2.so:_ZN9epsonscan6Engine28ScannerDidNotifyStatusChangeEP10IESScanner
libepsonscan2.so:_ZN9epsonscan6Engine28ScannerDidScanToScannedImageEP10IESScannerP15IESScannedImage
libepsonscan2.so:_ZN9epsonscan6Engine29ScannerWillScanToScannedImageEP10IESScannerP15IESScannedImage
libepsonscan2.so:_ZN9epsonscan6Engine29call_GetAvailableValuesForKeyEPKcR15CESResultString
libepsonscan2.so:_ZN9epsonscan6Engine30SetValuesForKeysWithDictionaryERKSt3mapINSt7__cxx1112basic_stringIcSt11char_traitsIcESaIcEEEN5boost3anyESt4lessIS7_ESaISt4pairIKS7_S9_EEE
libepsonscan2.so:_ZN9epsonscan6Engine31ScannerDidEndContinuousScanningEP10IESScanner
libepsonscan2.so:_ZN9epsonscan6Engine34NetworkScannerShouldPreventTimeoutEP10IESScanner
libepsonscan2.so:_ZN9epsonscan6Engine34ScannerWillBeginContinuousScanningEP10IESScanner
libepsonscan2.so:_ZN9epsonscan6Engine35NetworkScannerDidReceiveServerErrorEP10IESScanner
libepsonscan2.so:_ZN9epsonscan6Engine35ScannerDidCompleteScanningWithErrorEP10IESScanner11ESErrorCode
libepsonscan2.so:_ZN9epsonscan6Engine35ScannerDidRequestPushScanConnectionEP10IESScanner
libepsonscan2.so:_ZN9epsonscan6Engine36NetworkScannerDidRequestStopScanningEP10IESScanner
libepsonscan2.so:_ZN9epsonscan6Engine36ScannerDidInterruptScanningWithErrorEP10IESScanner11ESErrorCode
libepsonscan2.so:_ZN9epsonscan6Engine37NetworkScannerDidRequestStartScanningEP10IESScanner
libepsonscan2.so:_ZN9epsonscan6Engine43ScannerDidEncounterDeviceCommunicationErrorEP10IESScanner11ESErrorCode
libepsonscan2.so:_ZN9epsonscan6Engine4OpenEv
libepsonscan2.so:_ZN9epsonscan6Engine5CloseEv
libepsonscan2.so:_ZN9epsonscan6Engine6CancelEv
libepsonscan2.so:_ZN9epsonscan6EngineC1E13ESCommandType
libepsonscan2.so:_ZN9epsonscan6EngineC2E13ESCommandType
libepsonscan2.so:_ZN9epsonscan6EngineD0Ev
libepsonscan2.so:_ZN9epsonscan6EngineD1Ev
libepsonscan2.so:_ZN9epsonscan6EngineD2Ev
libepsonscan2.so:_ZN9epsonscan6Filter16GetPluginRootDirB5cxx11Ev
libepsonscan2.so:_ZN9epsonscan6Filter7ProcessERSt3mapINSt7__cxx1112basic_stringIcSt11char_traitsIcESaIcEEEiSt4lessIS7_ESaISt4pairIKS7_iEEERN12ES_CMN_FUNCS6BUFFER13CESHeapBufferE
libepsonscan2.so:_ZN9epsonscan6Finder17GetDevicesPointerEv
libepsonscan2.so:_ZN9epsonscan6Finder4StopEv
libepsonscan2.so:_ZN9epsonscan6Finder5StartEb
libepsonscan2.so:_ZN9epsonscan6FinderC1Ev
libepsonscan2.so:_ZN9epsonscan6FinderC2Ev
libepsonscan2.so:_ZN9epsonscan6KeyMgr10GetDefaultERKNSt7__cxx1112basic_stringIcSt11char_traitsIcESaIcEEE12SDIValueTypePvi
libepsonscan2.so:_ZN9epsonscan6KeyMgr10GetScannerEv
libepsonscan2.so:_ZN9epsonscan6KeyMgr11GetValueIntENSt7__cxx1112basic_stringIcSt11char_traitsIcESaIcEEE
libepsonscan2.so:_ZN9epsonscan6KeyMgr11SetValueIntENSt7__cxx1112basic_stringIcSt11char_traitsIcESaIcEEEi
libepsonscan2.so:_ZN9epsonscan6KeyMgr12GetModelInfoEv
libepsonscan2.so:_ZN9epsonscan6KeyMgr13GetCapabilityERKNSt7__cxx1112basic_stringIcSt11char_traitsIcESaIcEEER13SDICapability
libepsonscan2.so:_ZN9epsonscan6KeyMgr14GetKeyInstanceERKNSt7__cxx1112basic_stringIcSt11char_traitsIcESaIcEEE
libepsonscan2.so:_ZN9epsonscan6KeyMgr18GetEngineKeyValuesB5cxx11Ev
libepsonscan2.so:_ZN9epsonscan6KeyMgr24UpdateOtherEngineSettingERSt3mapINSt7__cxx1112basic_stringIcSt11char_traitsIcESaIcEEEN5boost3anyESt4lessIS7_ESaISt4pairIKS7_S9_EEE
libepsonscan2.so:_ZN9epsonscan6KeyMgr33ResolveEngineSettingInconsistentsERSt3mapINSt7__cxx1112basic_stringIcSt11char_traitsIcESaIcEEEN5boost3anyESt4lessIS7_ESaISt4pairIKS7_S9_EEE
libepsonscan2.so:_ZN9epsonscan6KeyMgr5ResetEv
libepsonscan2.so:_ZN9epsonscan6KeyMgr8GetValueERKNSt7__cxx1112basic_stringIcSt11char_traitsIcESaIcEEE12SDIValueTypePvi
libepsonscan2.so:_ZN9epsonscan6KeyMgr8SetValueERKNSt7__cxx1112basic_stringIcSt11char_traitsIcESaIcEEE12SDIValueTypePvi
libepsonscan2.so:_ZN9epsonscan6KeyMgrC1ESt10shared_ptrINS_9ModelInfoEES1_INS_7ScannerEE
libepsonscan2.so:_ZN9epsonscan6KeyMgrC2ESt10shared_ptrINS_9ModelInfoEES1_INS_7ScannerEE
libepsonscan2.so:_ZN9epsonscan6Resize13ProcessResizeEiiiiiiiiPhS1_
libepsonscan2.so:_ZN9epsonscan7Dropout13GetCapabilityER13SDICapability
libepsonscan2.so:_ZN9epsonscan7Dropout18GetEngineKeyValuesB5cxx11Ev
libepsonscan2.so:_ZN9epsonscan7Dropout5ResetEv
libepsonscan2.so:_ZN9epsonscan7Dropout8GetValueERi
libepsonscan2.so:_ZN9epsonscan7Dropout8SetValueERKi
libepsonscan2.so:_ZN9epsonscan7Scanner10MakeEngineE13ESCommandTypeRK13SDIDeviceInfo
libepsonscan2.so:_ZN9epsonscan7Scanner13StopJobInModeEh
libepsonscan2.so:_ZN9epsonscan7Scanner14SetValueForKeyERKNSt7__cxx1112basic_stringIcSt11char_traitsIcESaIcEEERKN5boost3anyE
libepsonscan2.so:_ZN9epsonscan7Scanner14StartJobInModeEh
libepsonscan2.so:_ZN9epsonscan7Scanner15Is2in1SupporetdEv
libepsonscan2.so:_ZN9epsonscan7Scanner16InitSecondEngineEv
libepsonscan2.so:_ZN9epsonscan7Scanner18GetComTypeForFirstEv
libepsonscan2.so:_ZN9epsonscan7Scanner19GetComTypeForSecondEv
libepsonscan2.so:_ZN9epsonscan7Scanner22EngineCallBackReceiverENS_15EngineEventTypeEPNS_5ImageE8SDIError
libepsonscan2.so:_ZN9epsonscan7Scanner27UpdateModelInfoUsingScannerEv
libepsonscan2.so:_ZN9epsonscan7Scanner30SetValuesForKeysWithDictionaryERKSt3mapINSt7__cxx1112basic_stringIcSt11char_traitsIcESaIcEEEN5boost3anyESt4lessIS7_ESaISt4pairIKS7_S9_EEE
libepsonscan2.so:_ZN9epsonscan7Scanner4OpenEv
libepsonscan2.so:_ZN9epsonscan7Scanner4ScanEv
libepsonscan2.so:_ZN9epsonscan7Scanner5CloseEv
libepsonscan2.so:_ZN9epsonscan7Scanner6CancelEv
libepsonscan2.so:_ZN9epsonscan7ScannerC1ERK13SDIDeviceInfoSt10shared_ptrINS_9ModelInfoEE
libepsonscan2.so:_ZN9epsonscan7ScannerC2ERK13SDIDeviceInfoSt10shared_ptrINS_9ModelInfoEE
libepsonscan2.so:_ZN9epsonscan7ScannerD0Ev
libepsonscan2.so:_ZN9epsonscan7ScannerD1Ev
libepsonscan2.so:_ZN9epsonscan7ScannerD2Ev
libepsonscan2.so:_ZN9epsonscan8AutoSize13GetCapabilityER13SDICapability
libepsonscan2.so:_ZN9epsonscan8AutoSize14IsCRPAvailableEv
libepsonscan2.so:_ZN9epsonscan8AutoSize18GetEngineKeyValuesB5cxx11Ev
libepsonscan2.so:_ZN9epsonscan8AutoSize19IsHardwareAvailableEv
libepsonscan2.so:_ZN9epsonscan8AutoSize19IsSoftwareAvailableEv
libepsonscan2.so:_ZN9epsonscan8AutoSize20IsLongPaperAvailableEv
libepsonscan2.so:_ZN9epsonscan8AutoSize31IsDetectedDocumentSizeAvailableE20ESFunctionalUnitType
libepsonscan2.so:_ZN9epsonscan8AutoSize32IsAdvancedSotwareAutoCropEnabledEv
libepsonscan2.so:_ZN9epsonscan8AutoSize5ResetEv
libepsonscan2.so:_ZN9epsonscan8AutoSize8GetValueERi
libepsonscan2.so:_ZN9epsonscan8AutoSize8SetValueERKi
libepsonscan2.so:_ZN9epsonscan8Contrast13GetCapabilityER13SDICapability
libepsonscan2.so:_ZN9epsonscan8Contrast18GetEngineKeyValuesB5cxx11Ev
libepsonscan2.so:_ZN9epsonscan8Contrast24IsSupportContrastCommandEv
libepsonscan2.so:_ZN9epsonscan8Contrast5ResetEv
libepsonscan2.so:_ZN9epsonscan8Contrast8GetValueERi
libepsonscan2.so:_ZN9epsonscan8Contrast8SetValueERKi
libepsonscan2.so:_ZN9epsonscan9ColorType12GetColorTypeEv
libepsonscan2.so:_ZN9epsonscan9ColorType13GetCapabilityER13SDICapability
libepsonscan2.so:_ZN9epsonscan9ColorType13GetGammaTableERSt3mapINSt7__cxx1112basic_stringIcSt11char_traitsIcESaIcEEEN5boost3anyESt4lessIS7_ESaISt4pairIKS7_S9_EEE
libepsonscan2.so:_ZN9epsonscan9ColorType16IsHardawaDropoutEv
libepsonscan2.so:_ZN9epsonscan9ColorType17IsSoftwareDropoutEv
libepsonscan2.so:_ZN9epsonscan9ColorType18GetEngineKeyValuesB5cxx11Ev
libepsonscan2.so:_ZN9epsonscan9ColorType23GetScanCounterColorTypeEv
libepsonscan2.so:_ZN9epsonscan9ColorType30IsSupportHardwareColorTypeAutoEv
libepsonscan2.so:_ZN9epsonscan9ColorType5ResetEv
libepsonscan2.so:_ZN9epsonscan9ColorType8GetValueERi
libepsonscan2.so:_ZN9epsonscan9ColorType8SetValueERKi
libepsonscan2.so:_ZN9epsonscan9DDEFilter14IsDDEAvailableEv
libepsonscan2.so:_ZN9epsonscan9DDEFilter9DoProcessERSt3mapINSt7__cxx1112basic_stringIcSt11char_traitsIcESaIcEEEiSt4lessIS7_ESaISt4pairIKS7_iEEERN12ES_CMN_FUNCS6BUFFER13CESHeapBufferE
libepsonscan2.so:_ZN9epsonscan9FFManager10DecodeJpegERN12ES_CMN_FUNCS6BUFFER13CESHeapBufferEiib
libepsonscan2.so:_ZN9epsonscan9FFManager12MultipageAddEPKc
libepsonscan2.so:_ZN9epsonscan9FFManager12MultipageFinEv
libepsonscan2.so:_ZN9epsonscan9FFManager13GetJpegHeaderENSt7__cxx1112basic_stringIcSt11char_traitsIcESaIcEEERiS7_S7_
libepsonscan2.so:_ZN9epsonscan9FFManager14MultipageStartEPKc14SDIImageFormatSt10shared_ptrINS_6KeyMgrEE
libepsonscan2.so:_ZN9epsonscan9FFManager15ConvertPNMToRAWERN12ES_CMN_FUNCS6BUFFER13CESHeapBufferEbi
libepsonscan2.so:_ZN9epsonscan9FFManager19ConvertJpegToFormatENSt7__cxx1112basic_stringIcSt11char_traitsIcESaIcEEE14SDIImageFormatSt10shared_ptrINS_6KeyMgrEE
libepsonscan2.so:_ZN9epsonscan9FFManager4OpenEP9IFKWriter14SDIImageFormatRKSt3mapINSt7__cxx1112basic_stringIcSt11char_traitsIcESaIcEEEiSt4lessISA_ESaISt4pairIKSA_iEEEbRNS_6KeyMgrE
libepsonscan2.so:_ZN9epsonscan9FFManager5CloseEP9IFKWriter
libepsonscan2.so:_ZN9epsonscan9FFManager5WriteERN12ES_CMN_FUNCS6BUFFER13CESHeapBufferENSt7__cxx1112basic_stringIcSt11char_traitsIcESaIcEEE14SDIImageFormatRKSt3mapISA_iSt4lessISA_ESaISt4pairIKSA_iEEERNS_6KeyMgrEb
libepsonscan2.so:_ZN9epsonscan9FFManager6CreateEPKc14SDIImageFormatPP14IFKDestinationPP9IFKWriter
libepsonscan2.so:_ZN9epsonscan9FFManager7DoWriteEP9IFKWriterRN12ES_CMN_FUNCS6BUFFER13CESHeapBufferEb
libepsonscan2.so:_ZN9epsonscan9FFManager8FinalizeEPP9IFKWriter
libepsonscan2.so:_ZN9epsonscan9FFManagerC1Ev
libepsonscan2.so:_ZN9epsonscan9FFManagerC2Ev
libepsonscan2.so:_ZN9epsonscan9ModelInfo11GetSha1HashERKNSt7__cxx1112basic_stringIcSt11char_traitsIcESaIcEEERS6_
libepsonscan2.so:_ZN9epsonscan9ModelInfo15GetConvertTableERSt3mapINSt7__cxx1112basic_stringIcSt11char_traitsIcESaIcEEEN5boost3anyESt4lessIS7_ESaISt4pairIKS7_S9_EEE
libepsonscan2.so:_ZN9epsonscan9ModelInfo19GetModelInfoDirPathERK13SDIDeviceInfoRNSt7__cxx1112basic_stringIcSt11char_traitsIcESaIcEEE
libepsonscan2.so:_ZN9epsonscan9ModelInfo23GetModelIDFromProductIDEiNSt7__cxx1112basic_stringIcSt11char_traitsIcESaIcEEERS6_
libepsonscan2.so:_ZN9epsonscan9ModelInfo23GetModelIDFromProductIDEiRNSt7__cxx1112basic_stringIcSt11char_traitsIcESaIcEEE
libepsonscan2.so:_ZN9epsonscan9ModelInfo25GetModelIDFromProductNameERKNSt7__cxx1112basic_stringIcSt11char_traitsIcESaIcEEERS6_
libepsonscan2.so:_ZN9epsonscan9ModelInfo25GetModelIDFromProductNameERKNSt7__cxx1112basic_stringIcSt11char_traitsIcESaIcEEES6_RS6_
libepsonscan2.so:_ZN9epsonscan9ModelInfoC1ERK13SDIDeviceInfo
libepsonscan2.so:_ZN9epsonscan9ModelInfoC2ERK13SDIDeviceInfo
libepsonscan2.so:_ZN9epsonscan9ModelInfoD0Ev
libepsonscan2.so:_ZN9epsonscan9ModelInfoD1Ev
libepsonscan2.so:_ZN9epsonscan9ModelInfoD2Ev
libepsonscan2.so:_ZN9epsonscan9MultiTiff13GetCapabilityER13SDICapability
libepsonscan2.so:_ZN9epsonscan9MultiTiff18GetEngineKeyValuesB5cxx11Ev
libepsonscan2.so:_ZN9epsonscan9MultiTiff5ResetEv
libepsonscan2.so:_ZN9epsonscan9MultiTiff8GetValueERi
libepsonscan2.so:_ZN9epsonscan9MultiTiff8SetValueERKi
libepsonscan2.so:_ZN9epsonscan9NetFinder12SetCancelledEb
libepsonscan2.so:_ZN9epsonscan9NetFinder4StopEv
libepsonscan2.so:_ZN9epsonscan9NetFinder5ResetEv
libepsonscan2.so:_ZN9epsonscan9NetFinder5StartERSt8functionIFvR13SDIDeviceInfoEE
libepsonscan2.so:_ZN9epsonscan9NetFinderC1Ev
libepsonscan2.so:_ZN9epsonscan9NetFinderC2Ev
libepsonscan2.so:_ZN9epsonscan9Threshold13GetCapabilityER13SDICapability
libepsonscan2.so:_ZN9epsonscan9Threshold18GetEngineKeyValuesB5cxx11Ev
libepsonscan2.so:_ZN9epsonscan9Threshold5ResetEv
libepsonscan2.so:_ZN9epsonscan9Threshold8GetValueERi
libepsonscan2.so:_ZN9epsonscan9Threshold8SetValueERKi
libepsonscan2.so:_ZN9epsonscan9UsbFinder5StartERSt6vectorI13SDIDeviceInfoSaIS2_EEb
libepsonscan2.so:_ZNK9epsonscan6Finder15GetDevicesCountEv
libepsonscan2.so:_ZNK9epsonscan6KeyMgr10GetAllKeysB5cxx11Ev
libepsonscansdk.so:_Z11eslCallbackP13_EslCBDataHdrPv
libepsonscansdk.so:_Z12SetErrorCodePjj
libepsonscansdk.so:_Z13getDeviceNameRKNSt7__cxx1112basic_stringIcSt11char_traitsIcESaIcEEE
libepsonscansdk.so:_Z17SCAN_SAVE_Defaultv
libepsonscansdk.so:_Z17imagefileCallbackP19_EslCBDataImageFilePv
libepsonscansdk.so:_Z18scanstatusCallbackP20_EslCBDataScanStatusPv
libepsonscansdk.so:_ZN10DeviceList11device_listB5cxx11E
libepsonscansdk.so:_ZN10DeviceList13select_deviceE
libepsonscansdk.so:_ZN10DeviceList22select_manu_ip_addressE
libepsonscansdk.so:_ZN10DeviceList24manu_network_device_listB5cxx11E
libepsonscansdk.so:_ZN10DeviceList4listEPKcb
libepsonscansdk.so:_ZN10DeviceList9show_listEv
libepsonscansdk.so:_ZN10DeviceListC1Ev
libepsonscansdk.so:_ZN10DeviceListC2Ev
libepsonscansdk.so:_ZN10DeviceListD1Ev
libepsonscansdk.so:_ZN10DeviceListD2Ev
libepsonscansdk.so:_ZN10Supervisor10Scan_StartE16SDIOperationType
libepsonscansdk.so:_ZN10Supervisor11Dispose_PtrEv
libepsonscansdk.so:_ZN10Supervisor11Save_Image2Eb
libepsonscansdk.so:_ZN10Supervisor11setCallbackEjPvS0_
libepsonscansdk.so:_ZN10Supervisor13Get_All_ValueEv
libepsonscansdk.so:_ZN10Supervisor13Set_All_ValueEv
libepsonscansdk.so:_ZN10Supervisor14Scan_TerminateEv
libepsonscansdk.so:_ZN10Supervisor15Cancel_ScanningEv
libepsonscansdk.so:_ZN10Supervisor15Dispose_ScannerEv
libepsonscansdk.so:_ZN10Supervisor17CheckImageIsBlankEv
libepsonscansdk.so:_ZN10Supervisor17Continue_ScanningEv
libepsonscansdk.so:_ZN10Supervisor17DeviceInfoResolveEP13SDIDeviceInfo
libepsonscansdk.so:_ZN10Supervisor17Get_Counter_ValueEv
libepsonscansdk.so:_ZN10Supervisor17SANEManuNetfinderEv
libepsonscansdk.so:_ZN10Supervisor18CheckScanningErrorE8SDIError
libepsonscansdk.so:_ZN10Supervisor18Connecting_ScannerE13SDIDeviceInfoPFvP16SDIScannerDriver21SDIInterruptEventTypePvE
libepsonscansdk.so:_ZN10Supervisor18GetScannerPositionEv
libepsonscansdk.so:_ZN10Supervisor19Get_Exclusion_ValueEv
libepsonscansdk.so:_ZN10Supervisor19Set_Exclusion_ValueEv
libepsonscansdk.so:_ZN10Supervisor20GetPaperLoadedStatusEv
libepsonscansdk.so:_ZN10Supervisor21Disconnecting_ScannerEv
libepsonscansdk.so:_ZN10Supervisor22CheckDeviceErrorStatusEv
libepsonscansdk.so:_ZN10Supervisor22CheckNextTransferEventEb
libepsonscansdk.so:_ZN10Supervisor24sendAppCallbackImageFileEjjPKc
libepsonscansdk.so:_ZN10Supervisor25sendAppCallbackScanStatusEjjjl
libepsonscansdk.so:_ZN10Supervisor33GetUnscannebleScanParameterStatusEv
libepsonscansdk.so:_ZN10Supervisor5SetUpEv
libepsonscansdk.so:_ZN10Supervisor8ScanningEv
libepsonscansdk.so:_ZN10Supervisor9Get_ImageEv
libepsonscansdk.so:_ZN10Supervisor9Save_PathEv
libepsonscansdk.so:_ZN10Supervisor9TerminateEv
libepsonscansdk.so:_ZN10SupervisorC1Ev
libepsonscansdk.so:_ZN10SupervisorC2Ev
libepsonscansdk.so:_ZN12CInstanceMgr10getScanMgrEj
libepsonscansdk.so:_ZN12CInstanceMgr13createScanMgrEv
libepsonscansdk.so:_ZN12CInstanceMgr14destroyScanMgrEj
libepsonscansdk.so:_ZN12CInstanceMgrC1Ev
libepsonscansdk.so:_ZN12CInstanceMgrC2Ev
libepsonscansdk.so:_ZN12CInstanceMgrD1Ev
libepsonscansdk.so:_ZN12CInstanceMgrD2Ev
libepsonscansdk.so:_ZN13Configuration16GetConfigurationEv
libepsonscansdk.so:_ZN13Configuration16SetConfigurationE13CONFIGURATION
libepsonscansdk.so:_ZN13ConfigurationC1Ev
libepsonscansdk.so:_ZN13ConfigurationC2Ev
libepsonscansdk.so:_ZN17SaveImagePathList20save_image_path_listB5cxx11E
libepsonscansdk.so:_ZN17SaveImagePathListC1Ev
libepsonscansdk.so:_ZN17SaveImagePathListC2Ev
libepsonscansdk.so:_ZN8CScanMgr11loadDefaultEv
libepsonscansdk.so:_ZN8CScanMgr11openScannerEPK12_ConnectInfo
libepsonscansdk.so:_ZN8CScanMgr12closeScannerEv
libepsonscansdk.so:_ZN8CScanMgr12getParamInfoEP12_EslParamHdr
libepsonscansdk.so:_ZN8CScanMgr12setParamSaveEPK12_EslParamHdr
libepsonscansdk.so:_ZN8CScanMgr12setParamScanEPK12_EslParamHdr
libepsonscansdk.so:_ZN8CScanMgr12setParameterEP12_EslParamHdr
libepsonscansdk.so:_ZN8CScanMgr12showEslErrorEj
libepsonscansdk.so:_ZN8CScanMgr13ctrlParameterE13_eParamOpTypeP12_EslParamHdr
libepsonscansdk.so:_ZN8CScanMgr13setSDKDefaultEv
libepsonscansdk.so:_ZN8CScanMgr14execSaveStoredEv
libepsonscansdk.so:_ZN8CScanMgr15execScanAndSaveEv
libepsonscansdk.so:_ZN8CScanMgr15loadScanDefaultEv
libepsonscansdk.so:_ZN8CScanMgr16execScanAndStoreEv
libepsonscansdk.so:_ZN8CScanMgr18getEslDeviceStatusEv
libepsonscansdk.so:_ZN8CScanMgr19StandardSizeToPixelE9_eDocSize10_eSizeUnit7tagRECT
libepsonscansdk.so:_ZN8CScanMgr19getCurrentParamSaveEP12_EslParamHdr
libepsonscansdk.so:_ZN8CScanMgr19getCurrentParamScanEP12_EslParamHdr
libepsonscansdk.so:_ZN8CScanMgr19getCurrentParameterEP12_EslParamHdr
libepsonscansdk.so:_ZN8CScanMgr19getDefaultParamSaveEP12_EslParamHdr
libepsonscansdk.so:_ZN8CScanMgr19getDefaultParamScanEP12_EslParamHdr
libepsonscansdk.so:_ZN8CScanMgr19getDefaultParameterEP12_EslParamHdr
libepsonscansdk.so:_ZN8CScanMgr19getInfoCapabilitiesEP12_EslParamHdr
libepsonscansdk.so:_ZN8CScanMgr19getSettingParameterE20_eSpecifiedParameterPi
libepsonscansdk.so:_ZN8CScanMgr19setScanCapabilitiesEPK12_EslParamHdr
libepsonscansdk.so:_ZN8CScanMgr19setSettingParameterE20_eSpecifiedParameteri
libepsonscansdk.so:_ZN8CScanMgr19showEslDeviceStatusEj
libepsonscansdk.so:_ZN8CScanMgr20calculate_pixel_sizeEd
libepsonscansdk.so:_ZN8CScanMgr24conversionJpegCapSDKtoSVEPK12_EslParamHdr
libepsonscansdk.so:_ZN8CScanMgr24conversionSaveCapSDKtoSVEPK12_EslParamHdr
libepsonscansdk.so:_ZN8CScanMgr24conversionScanCapSDKtoSVEPK12_EslParamHdr
libepsonscansdk.so:_ZN8CScanMgr24conversionTiffCapSDKtoSVEPK12_EslParamHdr
libepsonscansdk.so:_ZN8CScanMgr24sendAppCallbackImageFileEP19_EslCBDataImageFile
libepsonscansdk.so:_ZN8CScanMgr25sendAppCallbackScanStatusEP20_EslCBDataScanStatus
libepsonscansdk.so:_ZN8CScanMgr4freeEv
libepsonscansdk.so:_ZN8CScanMgr7executeE10_eExecTypePFiP13_EslCBDataHdrPvES3_
libepsonscansdk.so:_ZN8CScanMgr8execSaveE10_eExecType
libepsonscansdk.so:_ZN8CScanMgr8execScanE10_eExecType
libepsonscansdk.so:_ZN8CScanMgr8setParamEPK12_EslParamHdr
libepsonscansdk.so:_ZN8CScanMgrC1Ev
libepsonscansdk.so:_ZN8CScanMgrC2Ev
libepsonscansdk.so:_ZN8CScanMgrD1Ev
libepsonscansdk.so:_ZN8CScanMgrD2Ev
libepsonscansdk.so:eslCloseScanner
libepsonscansdk.so:eslCtrlParameter
libepsonscansdk.so:eslExecute
libepsonscansdk.so:eslFree
libepsonscansdk.so:eslGetDeviceStatus
libepsonscansdk.so:eslGetSettingParameter
libepsonscansdk.so:eslInit
libepsonscansdk.so:eslOpenScanner
libepsonscansdk.so:eslSetSettingParameter
libepsonscansdk.so:g_pInstMgr
libepsonscansdk.so:main
libes2command.so:ESCreateScanner
libes2command.so:SHA1Input
libes2command.so:SHA1PadMessage
libes2command.so:SHA1ProcessMessageBlock
libes2command.so:SHA1Reset
libes2command.so:SHA1Result
libes2command.so:_Z10DeleteFilePKc
libes2command.so:_Z10LTrimSpaceRNSt7__cxx1112basic_stringIcSt11char_traitsIcESaIcEEE
libes2command.so:_Z10RTrimSpaceRNSt7__cxx1112basic_stringIcSt11char_traitsIcESaIcEEE
libes2command.so:_Z11CloseHandlePv
libes2command.so:_Z11FreeLibraryPv
libes2command.so:_Z11LoadLibraryPKc
libes2command.so:_Z13IsThreadAlivePv
libes2command.so:_Z13LoadLibraryExPKcPvj
libes2command.so:_Z13PixelFromInchfi
libes2command.so:_Z15CreateInterfacePKcPP10IInterface
libes2command.so:_Z16IsPassedIntervaljjPj
libes2command.so:_Z17GetExitCodeThreadPvPj
libes2command.so:_Z17GetModuleFileNamePcj
libes2command.so:_Z18AnyArrayToIndexSetRSt5dequeIN5boost3anyESaIS1_EE
libes2command.so:_Z18ESCIGetBytesPerRowii
libes2command.so:_Z18ipc_interface_pathNSt7__cxx1112basic_stringIcSt11char_traitsIcESaIcEEE
libes2command.so:_Z22ES2WaitForSingleObjectPvj
libes2command.so:_Z23ErrorCodeForHeaderErrorRSt3mapINSt7__cxx1112basic_stringIcSt11char_traitsIcESaIcEEEN5boost3anyESt4lessIS5_ESaISt4pairIKS5_S7_EEE
libes2command.so:_Z25ES2WaitForMultipleObjectsjPKPvij
libes2command.so:_Z30ESCIRoundColorCorrectionMatrixiPdPi
libes2command.so:_Z5Sleepj
libes2command.so:_Z5_wtofPKw
libes2command.so:_Z5_wtoiPKw
libes2command.so:_Z7fopen_sPP8_IO_FILEPKcS3_
libes2command.so:_Z8CopyFilePKcS0_i
libes2command.so:_Z8memcpy_sPvmPKvm
libes2command.so:_Z8strcat_sPcmPKc
libes2command.so:_Z9TrimSpaceRNSt7__cxx1112basic_stringIcSt11char_traitsIcESaIcEEE
libes2command.so:_Z9_tcscat_sPcmPKc
libes2command.so:_Z9_wfopen_sPP8_IO_FILEPKwS3_
libes2command.so:_ZN10CESScanner10GetAllKeysB5cxx11Ev
libes2command.so:_ZN10CESScanner10GetAllKeysEP15IESResultString
libes2command.so:_ZN10CESScanner10InitializeEv
libes2command.so:_ZN10CESScanner11DoAutoFocusEPf
libes2command.so:_ZN10CESScanner12GetAllValuesEP15IESResultString
libes2command.so:_ZN10CESScanner12GetPriorKeysB5cxx11Ev
libes2command.so:_ZN10CESScanner13SetConnectionEPKc
libes2command.so:_ZN10CESScanner14CreateInstanceE13ESCommandType
libes2command.so:_ZN10CESScanner14GetValueForKeyEPKcP15IESResultString
libes2command.so:_ZN10CESScanner14GetValueForKeyEPKcRN5boost3anyE
libes2command.so:_ZN10CESScanner14SetValueForKeyEPKcN5boost3anyE
libes2command.so:_ZN10CESScanner14SetValueForKeyEPKcS1_
libes2command.so:_ZN10CESScanner15DestroyInstanceEv
libes2command.so:_ZN10CESScanner16ScanInBackgroundEv
libes2command.so:_ZN10CESScanner17SetValuesWithJSONEPKc
libes2command.so:_ZN10CESScanner18EnterScannerThreadEPv
libes2command.so:_ZN10CESScanner18GetAllValuesForKeyEPKcP15IESResultString
libes2command.so:_ZN10CESScanner18GetAllValuesForKeyEPKcRSt3mapINSt7__cxx1112basic_stringIcSt11char_traitsIcESaIcEEEN5boost3anyESt4lessIS8_ESaISt4pairIKS8_SA_EEE
libes2command.so:_ZN10CESScanner19GetCapabilityForKeyEPKcRSt3mapINSt7__cxx1112basic_stringIcSt11char_traitsIcESaIcEEEN5boost3anyESt4lessIS8_ESaISt4pairIKS8_SA_EEE
libes2command.so:_ZN10CESScanner19GetDuplexCapabilityERSt3mapINSt7__cxx1112basic_stringIcSt11char_traitsIcESaIcEEEN5boost3anyESt4lessIS6_ESaISt4pairIKS6_S8_EEE
libes2command.so:_ZN10CESScanner21GetAllAvailableValuesEP15IESResultString
libes2command.so:_ZN10CESScanner21GetCleaningCapabilityERSt3mapINSt7__cxx1112basic_stringIcSt11char_traitsIcESaIcEEEN5boost3anyESt4lessIS6_ESaISt4pairIKS6_S8_EEE
libes2command.so:_ZN10CESScanner21GetDefaultValueForKeyEPKcP15IESResultString
libes2command.so:_ZN10CESScanner21GetDefaultValueForKeyEPKcRSt3mapINSt7__cxx1112basic_stringIcSt11char_traitsIcESaIcEEEN5boost3anyESt4lessIS8_ESaISt4pairIKS8_SA_EEE
libes2command.so:_ZN10CESScanner21GetScanAreaCapabilityERSt3mapINSt7__cxx1112basic_stringIcSt11char_traitsIcESaIcEEEN5boost3anyESt4lessIS6_ESaISt4pairIKS6_S8_EEE
libes2command.so:_ZN10CESScanner21GetScanSizeCapabilityERSt3mapINSt7__cxx1112basic_stringIcSt11char_traitsIcESaIcEEEN5boost3anyESt4lessIS6_ESaISt4pairIKS6_S8_EEE
libes2command.so:_ZN10CESScanner22GetAllValuesDictionaryB5cxx11Ev
libes2command.so:_ZN10CESScanner22GetAvailableDictionaryB5cxx11Ev
libes2command.so:_ZN10CESScanner22GetGammaModeCapabilityERSt3mapINSt7__cxx1112basic_stringIcSt11char_traitsIcESaIcEEEN5boost3anyESt4lessIS6_ESaISt4pairIKS6_S8_EEE
libes2command.so:_ZN10CESScanner22GetQuietModeCapabilityERSt3mapINSt7__cxx1112basic_stringIcSt11char_traitsIcESaIcEEEN5boost3anyESt4lessIS6_ESaISt4pairIKS6_S8_EEE
libes2command.so:_ZN10CESScanner22GetThresholdCapabilityERSt3mapINSt7__cxx1112basic_stringIcSt11char_traitsIcESaIcEEEN5boost3anyESt4lessIS6_ESaISt4pairIKS6_S8_EEE
libes2command.so:_ZN10CESScanner23GetBufferSizeCapabilityERSt3mapINSt7__cxx1112basic_stringIcSt11char_traitsIcESaIcEEEN5boost3anyESt4lessIS6_ESaISt4pairIKS6_S8_EEE
libes2command.so:_ZN10CESScanner23GetDuplexTypeCapabilityERSt3mapINSt7__cxx1112basic_stringIcSt11char_traitsIcESaIcEEEN5boost3anyESt4lessIS6_ESaISt4pairIKS6_S8_EEE
libes2command.so:_ZN10CESScanner23GetGammaTableCapabilityERSt3mapINSt7__cxx1112basic_stringIcSt11char_traitsIcESaIcEEEN5boost3anyESt4lessIS6_ESaISt4pairIKS6_S8_EEE
libes2command.so:_ZN10CESScanner23GetValueForUndefinedKeyEPKcRN5boost3anyE
libes2command.so:_ZN10CESScanner23GetWorkFolderCapabilityERSt3mapINSt7__cxx1112basic_stringIcSt11char_traitsIcESaIcEEEN5boost3anyESt4lessIS6_ESaISt4pairIKS6_S8_EEE
libes2command.so:_ZN10CESScanner23IsScannableDeviceConfigEv
libes2command.so:_ZN10CESScanner23SetValueForUndefinedKeyEPKcN5boost3anyE
libes2command.so:_ZN10CESScanner24GetAvailableValuesForKeyEPKcP15IESResultString
libes2command.so:_ZN10CESScanner24GetAvailableValuesForKeyEPKcRSt3mapINSt7__cxx1112basic_stringIcSt11char_traitsIcESaIcEEEN5boost3anyESt4lessIS8_ESaISt4pairIKS8_SA_EEE
libes2command.so:_ZN10CESScanner24GetCalibrationCapabilityERSt3mapINSt7__cxx1112basic_stringIcSt11char_traitsIcESaIcEEEN5boost3anyESt4lessIS6_ESaISt4pairIKS6_S8_EEE
libes2command.so:_ZN10CESScanner24GetColorFormatCapabilityERSt3mapINSt7__cxx1112basic_stringIcSt11char_traitsIcESaIcEEEN5boost3anyESt4lessIS6_ESaISt4pairIKS6_S8_EEE
libes2command.so:_ZN10CESScanner24GetErrorStatusCapabilityERSt3mapINSt7__cxx1112basic_stringIcSt11char_traitsIcESaIcEEEN5boost3anyESt4lessIS6_ESaISt4pairIKS6_S8_EEE
libes2command.so:_ZN10CESScanner24GetMaxScanSizeCapabilityERSt3mapINSt7__cxx1112basic_stringIcSt11char_traitsIcESaIcEEEN5boost3anyESt4lessIS6_ESaISt4pairIKS6_S8_EEE
libes2command.so:_ZN10CESScanner24GetProductNameCapabilityERSt3mapINSt7__cxx1112basic_stringIcSt11char_traitsIcESaIcEEEN5boost3anyESt4lessIS6_ESaISt4pairIKS6_S8_EEE
libes2command.so:_ZN10CESScanner24GetXResolutionCapabilityERSt3mapINSt7__cxx1112basic_stringIcSt11char_traitsIcESaIcEEEN5boost3anyESt4lessIS6_ESaISt4pairIKS6_S8_EEE
libes2command.so:_ZN10CESScanner24GetYResolutionCapabilityERSt3mapINSt7__cxx1112basic_stringIcSt11char_traitsIcESaIcEEEN5boost3anyESt4lessIS6_ESaISt4pairIKS6_S8_EEE
libes2command.so:_ZN10CESScanner25GetAuthPasswordCapabilityERSt3mapINSt7__cxx1112basic_stringIcSt11char_traitsIcESaIcEEEN5boost3anyESt4lessIS6_ESaISt4pairIKS6_S8_EEE
libes2command.so:_ZN10CESScanner25GetAuthUserNameCapabilityERSt3mapINSt7__cxx1112basic_stringIcSt11char_traitsIcESaIcEEEN5boost3anyESt4lessIS6_ESaISt4pairIKS6_S8_EEE
libes2command.so:_ZN10CESScanner25GetBitsPerPixelCapabilityERSt3mapINSt7__cxx1112basic_stringIcSt11char_traitsIcESaIcEEEN5boost3anyESt4lessIS6_ESaISt4pairIKS6_S8_EEE
libes2command.so:_ZN10CESScanner25GetTargetCapabilityForKeyEPKcS1_P15IESResultString
libes2command.so:_ZN10CESScanner25GetTargetCapabilityForKeyEPKcS1_RSt3mapINSt7__cxx1112basic_stringIcSt11char_traitsIcESaIcEEEN5boost3anyESt4lessIS8_ESaISt4pairIKS8_SA_EEE
libes2command.so:_ZN10CESScanner26GetXOffsetMarginCapabilityERSt3mapINSt7__cxx1112basic_stringIcSt11char_traitsIcESaIcEEEN5boost3anyESt4lessIS6_ESaISt4pairIKS6_S8_EEE
libes2command.so:_ZN10CESScanner26GetYOffsetMarginCapabilityERSt3mapINSt7__cxx1112basic_stringIcSt11char_traitsIcESaIcEEEN5boost3anyESt4lessIS6_ESaISt4pairIKS6_S8_EEE
libes2command.so:_ZN10CESScanner27GetAuthenticationCapabilityERSt3mapINSt7__cxx1112basic_stringIcSt11char_traitsIcESaIcEEEN5boost3anyESt4lessIS6_ESaISt4pairIKS6_S8_EEE
libes2command.so:_ZN10CESScanner27GetDocumentLoadedCapabilityERSt3mapINSt7__cxx1112basic_stringIcSt11char_traitsIcESaIcEEEN5boost3anyESt4lessIS6_ESaISt4pairIKS6_S8_EEE
libes2command.so:_ZN10CESScanner28GetScanAreaInPixelCapabilityERSt3mapINSt7__cxx1112basic_stringIcSt11char_traitsIcESaIcEEEN5boost3anyESt4lessIS6_ESaISt4pairIKS6_S8_EEE
libes2command.so:_ZN10CESScanner28GetScanSizeInPixelCapabilityERSt3mapINSt7__cxx1112basic_stringIcSt11char_traitsIcESaIcEEEN5boost3anyESt4lessIS6_ESaISt4pairIKS6_S8_EEE
libes2command.so:_ZN10CESScanner29GetPagesToBeScannedCapabilityERSt3mapINSt7__cxx1112basic_stringIcSt11char_traitsIcESaIcEEEN5boost3anyESt4lessIS6_ESaISt4pairIKS6_S8_EEE
libes2command.so:_ZN10CESScanner30GetOpticalResolutionCapabilityERSt3mapINSt7__cxx1112basic_stringIcSt11char_traitsIcESaIcEEEN5boost3anyESt4lessIS6_ESaISt4pairIKS6_S8_EEE
libes2command.so:_ZN10CESScanner30SetValuesForKeysWithDictionaryERSt3mapINSt7__cxx1112basic_stringIcSt11char_traitsIcESaIcEEEN5boost3anyESt4lessIS6_ESaISt4pairIKS6_S8_EEE
libes2command.so:_ZN10CESScanner31GetFunctionalUnitTypeCapabilityERSt3mapINSt7__cxx1112basic_stringIcSt11char_traitsIcESaIcEEEN5boost3anyESt4lessIS6_ESaISt4pairIKS6_S8_EEE
libes2command.so:_ZN10CESScanner32GetDoubleFeedDetectionCapabilityERSt3mapINSt7__cxx1112basic_stringIcSt11char_traitsIcESaIcEEEN5boost3anyESt4lessIS6_ESaISt4pairIKS6_S8_EEE
libes2command.so:_ZN10CESScanner34GetAuthenticationEnabledCapabilityERSt3mapINSt7__cxx1112basic_stringIcSt11char_traitsIcESaIcEEEN5boost3anyESt4lessIS6_ESaISt4pairIKS6_S8_EEE
libes2command.so:_ZN10CESScannerC1Ev
libes2command.so:_ZN10CESScannerC2Ev
libes2command.so:_ZN10CESScannerD0Ev
libes2command.so:_ZN10CESScannerD1Ev
libes2command.so:_ZN10CESScannerD2Ev
libes2command.so:_ZN10epsonscan210es2command11Environment14IsCommandRetryEv
libes2command.so:_ZN10epsonscan210es2command11Environment22IsAllowStatusAuthErrorEv
libes2command.so:_ZN10epsonscan210es2command9ModelInfo23IsShouldKeepControlModeERKNSt7__cxx1112basic_stringIcSt11char_traitsIcESaIcEEE
libes2command.so:_ZN10epsonscan210es2command9ModelInfo23IsSupportedLogFunctionsERKNSt7__cxx1112basic_stringIcSt11char_traitsIcESaIcEEE18ESCILogFunctionKey
libes2command.so:_ZN10epsonscan210es2command9ModelInfo25IsShouldIgnoreDateAndTimeERKNSt7__cxx1112basic_stringIcSt11char_traitsIcESaIcEEE
libes2command.so:_ZN10epsonscan210es2command9ModelInfo26IsShouldSyncFunctionalUnitERKNSt7__cxx1112basic_stringIcSt11char_traitsIcESaIcEEE
libes2command.so:_ZN10epsonscan210es2command9ModelInfo28IsShouldIgnoreCancelResponseERKNSt7__cxx1112basic_stringIcSt11char_traitsIcESaIcEEE
libes2command.so:_ZN10epsonscan210es2command9ModelInfo28IsShouldSendStatAfterADFScanERKNSt7__cxx1112basic_stringIcSt11char_traitsIcESaIcEEE
libes2command.so:_ZN10epsonscan210es2command9ModelInfo30IsShouldAlwaysWaitAtIMGRequestERKNSt7__cxx1112basic_stringIcSt11char_traitsIcESaIcEEE
libes2command.so:_ZN10epsonscan210es2command9ModelInfo30IsShouldZeroClearEdgeFillForFBERKNSt7__cxx1112basic_stringIcSt11char_traitsIcESaIcEEE
libes2command.so:_ZN10epsonscan210es2command9ModelInfo32IsShouldObserveButtonWithCommandERKNSt7__cxx1112basic_stringIcSt11char_traitsIcESaIcEEE
libes2command.so:_ZN10epsonscan210es2command9ModelInfo34CustomButtonObservationInterval_msERKNSt7__cxx1112basic_stringIcSt11char_traitsIcESaIcEEE
libes2command.so:_ZN10epsonscan210es2command9ModelInfo6sm_mtxE
libes2command.so:_ZN10epsonscan210es2command9ModelInfo8InstanceEv
libes2command.so:_ZN10epsonscan210es2command9ModelInfoC1Ev
libes2command.so:_ZN10epsonscan210es2command9ModelInfoC2Ev
libes2command.so:_ZN10epsonscan210es2command9ModelInfoD1Ev
libes2command.so:_ZN10epsonscan210es2command9ModelInfoD2Ev
libes2command.so:_ZN12CCommandBase10DidTimeoutEv
libes2command.so:_ZN12CCommandBase10OpenDeviceEv
libes2command.so:_ZN12CCommandBase10ReceiveAckERh
libes2command.so:_ZN12CCommandBase11CloseDeviceEv
libes2command.so:_ZN12CCommandBase11GetDelegateEv
libes2command.so:_ZN12CCommandBase11IsCancelledEv
libes2command.so:_ZN12CCommandBase11SetDelegateEP18IESScannerDelegateP10IESScanner
libes2command.so:_ZN12CCommandBase11SetScanningEb
libes2command.so:_ZN12CCommandBase12SetCancelledEb
libes2command.so:_ZN12CCommandBase13DidDisconnectEv
libes2command.so:_ZN12CCommandBase13GetWorkFolderB5cxx11Ev
libes2command.so:_ZN12CCommandBase13SetWorkFolderENSt7__cxx1112basic_stringIcSt11char_traitsIcESaIcEEE
libes2command.so:_ZN12CCommandBase14DidPressButtonEh
libes2command.so:_ZN12CCommandBase14DidRequestStopEv
libes2command.so:_ZN12CCommandBase14SetInterruptedEb
libes2command.so:_ZN12CCommandBase16IsReservedByHostEP10IInterfacePKc
libes2command.so:_ZN12CCommandBase18DeviceDisconnectedEv
libes2command.so:_ZN12CCommandBase18GetDeviceInterfaceEv
libes2command.so:_ZN12CCommandBase18SetDeviceInterfaceEP10IInterface
libes2command.so:_ZN12CCommandBase18ShouldStopScanningEP10IInterface
libes2command.so:_ZN12CCommandBase20CreateSha1HashedDataENSt7__cxx1112basic_stringIcSt11char_traitsIcESaIcEEERSt6vectorIhSaIhEE
libes2command.so:_ZN12CCommandBase20ShouldPreventTimeoutEv
libes2command.so:_ZN12CCommandBase21DidNotifyStatusChangeEv
libes2command.so:_ZN12CCommandBase21DidReceiveServerErrorEv
libes2command.so:_ZN12CCommandBase21DidRequestStartOrStopEv
libes2command.so:_ZN12CCommandBase22CreateSha256HashedDataENSt7__cxx1112basic_stringIcSt11char_traitsIcESaIcEEERSt6vectorIhSaIhEE
libes2command.so:_ZN12CCommandBase22DidRequestGetImageDataEv
libes2command.so:_ZN12CCommandBase22DidRequestStopScanningEv
libes2command.so:_ZN12CCommandBase23DidRequestStartScanningEv
libes2command.so:_ZN12CCommandBase24DeviceCommunicationErrorE11ESErrorCode
libes2command.so:_ZN12CCommandBase28CallDelegateScannerDidWarmUpEv
libes2command.so:_ZN12CCommandBase28CreateSha1HashedPasswordDataENSt7__cxx1112basic_stringIcSt11char_traitsIcESaIcEEES5_RSt6vectorIhSaIhEE
libes2command.so:_ZN12CCommandBase28DidRequestPushScanConnectionEv
libes2command.so:_ZN12CCommandBase29CallDelegateScannerWillWarmUpEv
libes2command.so:_ZN12CCommandBase32CallDelegateScannerDidDisconnectEv
libes2command.so:_ZN12CCommandBase33CallDelegateScannerDidPressButtonEh
libes2command.so:_ZN12CCommandBase33CallDelegateScannerDidRequestStopEv
libes2command.so:_ZN12CCommandBase35CallDelegateScannerIsReservedByHostEPKc
libes2command.so:_ZN12CCommandBase36CallDelegateScannerDidCancelScanningEv
libes2command.so:_ZN12CCommandBase37CallDelegateScannerWillCancelScanningEv
libes2command.so:_ZN12CCommandBase40CallDelegateScannerDidNotifyStatusChangeEv
libes2command.so:_ZN12CCommandBase40CallDelegateScannerDidScanToScannedImageEP15IESScannedImage
libes2command.so:_ZN12CCommandBase41CallDelegateScannerWillScanToScannedImageEP15IESScannedImage
libes2command.so:_ZN12CCommandBase43CallDelegateNetworkScannerScannerDidTimeoutEv
libes2command.so:_ZN12CCommandBase43CallDelegateScannerDidEndContinuousScanningEv
libes2command.so:_ZN12CCommandBase46CallDelegateNetworkScannerShouldPreventTimeoutEv
libes2command.so:_ZN12CCommandBase46CallDelegateScannerWillBeginContinuousScanningEv
libes2command.so:_ZN12CCommandBase47CallDelegateNetworkScannerDidReceiveServerErrorEv
libes2command.so:_ZN12CCommandBase47CallDelegateScannerDidCompleteScanningWithErrorE11ESErrorCode
libes2command.so:_ZN12CCommandBase47CallDelegateScannerDidRequestPushScanConnectionEv
libes2command.so:_ZN12CCommandBase48CallDelegateNetworkScannerDidRequestStopScanningEv
libes2command.so:_ZN12CCommandBase48CallDelegateScannerDidInterruptScanningWithErrorE11ESErrorCode
libes2command.so:_ZN12CCommandBase49CallDelegateNetworkScannerDidRequestStartScanningEv
libes2command.so:_ZN12CCommandBase4ReadEPhj
libes2command.so:_ZN12CCommandBase55CallDelegateScannerDidEncounterDeviceCommunicationErrorE11ESErrorCode
libes2command.so:_ZN12CCommandBase5WriteEPhjj
libes2command.so:_ZN12CCommandBase7SendAckEv
libes2command.so:_ZN12CCommandBaseC1Ev
libes2command.so:_ZN12CCommandBaseC2Ev
libes2command.so:_ZN12CCommandBaseD0Ev
libes2command.so:_ZN12CCommandBaseD1Ev
libes2command.so:_ZN12CCommandBaseD2Ev
libes2command.so:_ZN12CESCICommand10InitializeEv
libes2command.so:_ZN12CESCICommand12RequestFocusERh
libes2command.so:_ZN12CESCICommand12SendCommand1EhN12CCommandBase17ENUM_CONTROL_CODEEj
libes2command.so:_ZN12CESCICommand12SendCommand2EhN12CCommandBase17ENUM_CONTROL_CODEEPhj
libes2command.so:_ZN12CESCICommand12SendCommand3EhN12CCommandBase17ENUM_CONTROL_CODEEPhRN12ES_CMN_FUNCS6BUFFER9IESBufferE
libes2command.so:_ZN12CESCICommand12SendCommand4EhN12CCommandBase17ENUM_CONTROL_CODEERSt6vectorIhSaIhEEPhj
libes2command.so:_ZN12CESCICommand13ReadImageDataERN12ES_CMN_FUNCS6BUFFER9IESBufferEjRh
libes2command.so:_ZN12CESCICommand13RequestStatusERNS_22ST_ESCI_SCANNER_STATUSE
libes2command.so:_ZN12CESCICommand13SendCommand2AEhN12CCommandBase17ENUM_CONTROL_CODEERh
libes2command.so:_ZN12CESCICommand13SendCommand4AEhN12CCommandBase17ENUM_CONTROL_CODEERSt6vectorIhSaIhEERh
libes2command.so:_ZN12CESCICommand14RequestUseDICEEv
libes2command.so:_ZN12CESCICommand15RequestIdentityERNS_16ST_ESCI_IDENTITYERSt3setIiSt4lessIiESaIiEE
libes2command.so:_ZN12CESCICommand15RequestSetFocusEh
libes2command.so:_ZN12CESCICommand16RequestLoadPaperEv
libes2command.so:_ZN12CESCICommand17IsUsesExtTransferEv
libes2command.so:_ZN12CESCICommand17RequestEjectPaperEv
libes2command.so:_ZN12CESCICommand17RequestHWPropertyERNS_19ST_ESCI_HW_PROPERTYERSt3setIiSt4lessIiESaIiEES7_
libes2command.so:_ZN12CESCICommand18RequestScanToImageERP15CESScannedImage
libes2command.so:_ZN12CESCICommand18WaitWhileWarmingUpEi
libes2command.so:_ZN12CESCICommand19RequestButtonStatusERh
libes2command.so:_ZN12CESCICommand19SendAckForImageDataEv
libes2command.so:_ZN12CESCICommand20RequestSetGammaTableEhR13CESGammaTable
libes2command.so:_ZN12CESCICommand20RequestStartScanningERNS_24ST_ESCI_IMAGE_INFO_BLOCKE
libes2command.so:_ZN12CESCICommand21RequestCancelScanningEv
libes2command.so:_ZN12CESCICommand21RequestCaptureScannerEv
libes2command.so:_ZN12CESCICommand21RequestExtendedStatusERNS_23ST_ESCI_EXTENDED_STATUSE
libes2command.so:_ZN12CESCICommand21RequestReleaseScannerEv
libes2command.so:_ZN12CESCICommand21RequestSetColorMatrixERA3_A3_Kf
libes2command.so:_ZN12CESCICommand22RequestEndTransmissionEv
libes2command.so:_ZN12CESCICommand22RequestGetPowerOffTimeERj
libes2command.so:_ZN12CESCICommand22RequestSetPowerOffTimeEj
libes2command.so:_ZN12CESCICommand23RequestExtendedIdentityERNS_25ST_ESCI_EXTENDED_IDENTITYE
libes2command.so:_ZN12CESCICommand24RequestInitializeScannerEv
libes2command.so:_ZN12CESCICommand24RequestMaintenanceStatusEv
libes2command.so:_ZN12CESCICommand24RequestScanningParameterERNS_26ST_ESCI_SCANNING_PARAMETERE
libes2command.so:_ZN12CESCICommand25RequestReadLogForFunctionEtRj
libes2command.so:_ZN12CESCICommand26RequestWriteLogForFunctionEtj
libes2command.so:_ZN12CESCICommand28IsShouldIgnoreCancelResponseEv
libes2command.so:_ZN12CESCICommand28RequestSetFunctionalUnitTypeEh
libes2command.so:_ZN12CESCICommand28RequestSetScanningParametersENS_26ST_ESCI_SCANNING_PARAMETERE
libes2command.so:_ZN12CESCICommand29IsAvoidsAckWhileImageTransferEv
libes2command.so:_ZN12CESCICommand29RequestCaptureScannerWithAuthERKNSt7__cxx1112basic_stringIcSt11char_traitsIcESaIcEEES7_
libes2command.so:_ZN12CESCICommand29RequestReleaseScannerWithAuthEv
libes2command.so:_ZN12CESCICommand31RequestMaintenanceWithParameterENS_29ST_ESCI_MAINTENANCE_PARAMETERE
libes2command.so:_ZN12CESCICommandC1Ev
libes2command.so:_ZN12CESCICommandC2Ev
libes2command.so:_ZN12CESCICommandD0Ev
libes2command.so:_ZN12CESCICommandD1Ev
libes2command.so:_ZN12CESCICommandD2Ev
libes2command.so:_ZN12CESCIScanner10DoCleaningEv
libes2command.so:_ZN12CESCIScanner10GetAllKeysB5cxx11Ev
libes2command.so:_ZN12CESCIScanner10InitializeEv
libes2command.so:_ZN12CESCIScanner11DoAutoFocusEPf
libes2command.so:_ZN12CESCIScanner11GetDelegateEv
libes2command.so:_ZN12CESCIScanner11GetScanAreaEv
libes2command.so:_ZN12CESCIScanner11GetScanSizeEv
libes2command.so:_ZN12CESCIScanner11SetDelegateEP18IESScannerDelegate
libes2command.so:_ZN12CESCIScanner11SetDelegateEP18IESScannerDelegateP10IESScanner
libes2command.so:_ZN12CESCIScanner11SetScanAreaE8stESRectIfE
libes2command.so:_ZN12CESCIScanner11SetScanSizeE8stESSizeIfE
libes2command.so:_ZN12CESCIScanner11SetScanningEb
libes2command.so:_ZN12CESCIScanner12GetGammaModeEv
libes2command.so:_ZN12CESCIScanner12GetQuietModeEv
libes2command.so:_ZN12CESCIScanner12GetThresholdEv
libes2command.so:_ZN12CESCIScanner12SetCancelledEb
libes2command.so:_ZN12CESCIScanner12SetGammaModeEi
libes2command.so:_ZN12CESCIScanner12SetQuietModeEi
libes2command.so:_ZN12CESCIScanner12SetThresholdEi
libes2command.so:_ZN12CESCIScanner13DoCalibrationEv
libes2command.so:_ZN12CESCIScanner13GetBufferSizeEv
libes2command.so:_ZN12CESCIScanner13GetDuplexTypeEv
libes2command.so:_ZN12CESCIScanner13GetWorkFolderB5cxx11Ev
libes2command.so:_ZN12CESCIScanner13SetBufferSizeEi
libes2command.so:_ZN12CESCIScanner13SetWorkFolderENSt7__cxx1112basic_stringIcSt11char_traitsIcESaIcEEE
libes2command.so:_ZN12CESCIScanner13StopJobInModeEh
libes2command.so:_ZN12CESCIScanner14GetColorFormatEv
libes2command.so:_ZN12CESCIScanner14GetColorMatrixEv
libes2command.so:_ZN12CESCIScanner14GetErrorStatusEv
libes2command.so:_ZN12CESCIScanner14GetMaxScanSizeEv
libes2command.so:_ZN12CESCIScanner14GetProductNameB5cxx11Ev
libes2command.so:_ZN12CESCIScanner14GetValueForKeyEPKcRN5boost3anyE
libes2command.so:_ZN12CESCIScanner14GetXResolutionEv
libes2command.so:_ZN12CESCIScanner14GetYResolutionEv
libes2command.so:_ZN12CESCIScanner14SetColorFormatEi
libes2command.so:_ZN12CESCIScanner14SetColorMatrixESt5dequeIfSaIfEE
libes2command.so:_ZN12CESCIScanner14SetValueForKeyEPKcN5boost3anyE
libes2command.so:_ZN12CESCIScanner14SetXResolutionEi
libes2command.so:_ZN12CESCIScanner14SetYResolutionEi
libes2command.so:_ZN12CESCIScanner14StartJobInModeEh
libes2command.so:_ZN12CESCIScanner15GetAuthPasswordB5cxx11Ev
libes2command.so:_ZN12CESCIScanner15GetAuthUserNameB5cxx11Ev
libes2command.so:_ZN12CESCIScanner15GetBitsPerPixelEv
libes2command.so:_ZN12CESCIScanner15IsDuplexEnabledEv
libes2command.so:_ZN12CESCIScanner15IsFeederEnabledEv
libes2command.so:_ZN12CESCIScanner15SetAuthPasswordENSt7__cxx1112basic_stringIcSt11char_traitsIcESaIcEEE
libes2command.so:_ZN12CESCIScanner15SetAuthUserNameENSt7__cxx1112basic_stringIcSt11char_traitsIcESaIcEEE
libes2command.so:_ZN12CESCIScanner16GetBitsPerSampleEv
libes2command.so:_ZN12CESCIScanner16GetGammaTableRedEv
libes2command.so:_ZN12CESCIScanner16GetXOffsetMarginEv
libes2command.so:_ZN12CESCIScanner16GetYOffsetMarginEv
libes2command.so:_ZN12CESCIScanner16IsDocumentLoadedEv
libes2command.so:_ZN12CESCIScanner16SetDuplexEnabledEb
libes2command.so:_ZN12CESCIScanner16SetGammaTableRedESt5dequeIiSaIiEE
libes2command.so:_ZN12CESCIScanner16SetXOffsetMarginEf
libes2command.so:_ZN12CESCIScanner16SetYOffsetMarginEf
libes2command.so:_ZN12CESCIScanner17GetGammaTableBlueEv
libes2command.so:_ZN12CESCIScanner17GetGammaTableMonoEv
libes2command.so:_ZN12CESCIScanner17IsDuplexSupportedEv
libes2command.so:_ZN12CESCIScanner17IsFeederSupportedEv
libes2command.so:_ZN12CESCIScanner17SetGammaTableBlueESt5dequeIiSaIiEE
libes2command.so:_ZN12CESCIScanner17SetGammaTableMonoESt5dequeIiSaIiEE
libes2command.so:_ZN12CESCIScanner18GetDeviceInterfaceEv
libes2command.so:_ZN12CESCIScanner18GetFocusCapabilityERSt3mapINSt7__cxx1112basic_stringIcSt11char_traitsIcESaIcEEEN5boost3anyESt4lessIS6_ESaISt4pairIKS6_S8_EEE
libes2command.so:_ZN12CESCIScanner18GetGammaTableGreenEv
libes2command.so:_ZN12CESCIScanner18GetSamplesPerPixelEv
libes2command.so:_ZN12CESCIScanner18GetScanAreaInPixelEv
libes2command.so:_ZN12CESCIScanner18GetScanSizeInPixelEv
libes2command.so:_ZN12CESCIScanner18SetDeviceInterfaceEP10IInterface
libes2command.so:_ZN12CESCIScanner18SetGammaTableGreenESt5dequeIiSaIiEE
libes2command.so:_ZN12CESCIScanner18SetScanAreaInPixelE8stESRectIjE
libes2command.so:_ZN12CESCIScanner18SetScanSizeInPixelE8stESSizeIjE
libes2command.so:_ZN12CESCIScanner19GetCapabilityForKeyEPKcRSt3mapINSt7__cxx1112basic_stringIcSt11char_traitsIcESaIcEEEN5boost3anyESt4lessIS8_ESaISt4pairIKS8_SA_EEE
libes2command.so:_ZN12CESCIScanner19GetPagesToBeScannedEv
libes2command.so:_ZN12CESCIScanner19IsCleaningSupportedEv
libes2command.so:_ZN12CESCIScanner19SetPagesToBeScannedEi
libes2command.so:_ZN12CESCIScanner20GetOpticalResolutionEv
libes2command.so:_ZN12CESCIScanner20GetVersionCapabilityERSt3mapINSt7__cxx1112basic_stringIcSt11char_traitsIcESaIcEEEN5boost3anyESt4lessIS6_ESaISt4pairIKS6_S8_EEE
libes2command.so:_ZN12CESCIScanner21GetFilmTypeCapabilityERSt3mapINSt7__cxx1112basic_stringIcSt11char_traitsIcESaIcEEEN5boost3anyESt4lessIS6_ESaISt4pairIKS6_S8_EEE
libes2command.so:_ZN12CESCIScanner21GetFunctionalUnitTypeEv
libes2command.so:_ZN12CESCIScanner21GetHalftoneCapabilityERSt3mapINSt7__cxx1112basic_stringIcSt11char_traitsIcESaIcEEEN5boost3anyESt4lessIS6_ESaISt4pairIKS6_S8_EEE
libes2command.so:_ZN12CESCIScanner21GetLampModeCapabilityERSt3mapINSt7__cxx1112basic_stringIcSt11char_traitsIcESaIcEEEN5boost3anyESt4lessIS6_ESaISt4pairIKS6_S8_EEE
libes2command.so:_ZN12CESCIScanner21GetMaxFocusCapabilityERSt3mapINSt7__cxx1112basic_stringIcSt11char_traitsIcESaIcEEEN5boost3anyESt4lessIS6_ESaISt4pairIKS6_S8_EEE
libes2command.so:_ZN12CESCIScanner21GetMinFocusCapabilityERSt3mapINSt7__cxx1112basic_stringIcSt11char_traitsIcESaIcEEEN5boost3anyESt4lessIS6_ESaISt4pairIKS6_S8_EEE
libes2command.so:_ZN12CESCIScanner21GetOverScanCapabilityERSt3mapINSt7__cxx1112basic_stringIcSt11char_traitsIcESaIcEEEN5boost3anyESt4lessIS6_ESaISt4pairIKS6_S8_EEE
libes2command.so:_ZN12CESCIScanner21GetSupportedThresholdEv
libes2command.so:_ZN12CESCIScanner21LockAdministratorLockEv
libes2command.so:_ZN12CESCIScanner21SetFunctionalUnitTypeEi
libes2command.so:_ZN12CESCIScanner22GetDoubleFeedDetectionEv
libes2command.so:_ZN12CESCIScanner22GetSupportedGammaModesEv
libes2command.so:_ZN12CESCIScanner22GetSupportedQuietModesEv
libes2command.so:_ZN12CESCIScanner22GetWarmingUpCapabilityERSt3mapINSt7__cxx1112basic_stringIcSt11char_traitsIcESaIcEEEN5boost3anyESt4lessIS6_ESaISt4pairIKS6_S8_EEE
libes2command.so:_ZN12CESCIScanner22IsCalibrationSupportedEv
libes2command.so:_ZN12CESCIScanner22IsSupportedLogFunctionE18ESCILogFunctionKey
libes2command.so:_ZN12CESCIScanner22SetDoubleFeedDetectionEi
libes2command.so:_ZN12CESCIScanner23GetDigitalICECapabilityERSt3mapINSt7__cxx1112basic_stringIcSt11char_traitsIcESaIcEEEN5boost3anyESt4lessIS6_ESaISt4pairIKS6_S8_EEE
libes2command.so:_ZN12CESCIScanner23IsAuthenticationEnabledEv
libes2command.so:_ZN12CESCIScanner23SetPanelToPushScanReadyEi
libes2command.so:_ZN12CESCIScanner23UnlockAdministratorLockEv
libes2command.so:_ZN12CESCIScanner24GetColorMatrixCapabilityERSt3mapINSt7__cxx1112basic_stringIcSt11char_traitsIcESaIcEEEN5boost3anyESt4lessIS6_ESaISt4pairIKS6_S8_EEE
libes2command.so:_ZN12CESCIScanner24GetScanCounterCapabilityERSt3mapINSt7__cxx1112basic_stringIcSt11char_traitsIcESaIcEEEN5boost3anyESt4lessIS6_ESaISt4pairIKS6_S8_EEE
libes2command.so:_ZN12CESCIScanner24GetSupportedColorFormatsEv
libes2command.so:_ZN12CESCIScanner24GetSupportedXResolutionsEv
libes2command.so:_ZN12CESCIScanner24GetSupportedYResolutionsEv
libes2command.so:_ZN12CESCIScanner24SetAuthenticationEnabledEb
libes2command.so:_ZN12CESCIScanner25GetButtonStatusCapabilityERSt3mapINSt7__cxx1112basic_stringIcSt11char_traitsIcESaIcEEEN5boost3anyESt4lessIS6_ESaISt4pairIKS6_S8_EEE
libes2command.so:_ZN12CESCIScanner25GetLamp1CounterCapabilityERSt3mapINSt7__cxx1112basic_stringIcSt11char_traitsIcESaIcEEEN5boost3anyESt4lessIS6_ESaISt4pairIKS6_S8_EEE
libes2command.so:_ZN12CESCIScanner25GetLamp2CounterCapabilityERSt3mapINSt7__cxx1112basic_stringIcSt11char_traitsIcESaIcEEEN5boost3anyESt4lessIS6_ESaISt4pairIKS6_S8_EEE
libes2command.so:_ZN12CESCIScanner25GetPowerOffTimeCapabilityERSt3mapINSt7__cxx1112basic_stringIcSt11char_traitsIcESaIcEEEN5boost3anyESt4lessIS6_ESaISt4pairIKS6_S8_EEE
libes2command.so:_ZN12CESCIScanner25GetScanningModeCapabilityERSt3mapINSt7__cxx1112basic_stringIcSt11char_traitsIcESaIcEEEN5boost3anyESt4lessIS6_ESaISt4pairIKS6_S8_EEE
libes2command.so:_ZN12CESCIScanner25IsAuthenticationSupportedEv
libes2command.so:_ZN12CESCIScanner25IsCaptureCommandSupportedEv
libes2command.so:_ZN12CESCIScanner26GetGuidePositionCapabilityERSt3mapINSt7__cxx1112basic_stringIcSt11char_traitsIcESaIcEEEN5boost3anyESt4lessIS6_ESaISt4pairIKS6_S8_EEE
libes2command.so:_ZN12CESCIScanner26SetCaptureCommandSupportedEb
libes2command.so:_ZN12CESCIScanner27GetLightIntensityCapabilityERSt3mapINSt7__cxx1112basic_stringIcSt11char_traitsIcESaIcEEEN5boost3anyESt4lessIS6_ESaISt4pairIKS6_S8_EEE
libes2command.so:_ZN12CESCIScanner28GetColorMatrixModeCapabilityERSt3mapINSt7__cxx1112basic_stringIcSt11char_traitsIcESaIcEEEN5boost3anyESt4lessIS6_ESaISt4pairIKS6_S8_EEE
libes2command.so:_ZN12CESCIScanner30GetDuplexScanCounterCapabilityERSt3mapINSt7__cxx1112basic_stringIcSt11char_traitsIcESaIcEEEN5boost3anyESt4lessIS6_ESaISt4pairIKS6_S8_EEE
libes2command.so:_ZN12CESCIScanner30GetPaperEndDetectionCapabilityERSt3mapINSt7__cxx1112basic_stringIcSt11char_traitsIcESaIcEEEN5boost3anyESt4lessIS6_ESaISt4pairIKS6_S8_EEE
libes2command.so:_ZN12CESCIScanner30ScheduleAutoFeedingModeTimeoutEv
libes2command.so:_ZN12CESCIScanner31GetDisableJobContinueCapabilityERSt3mapINSt7__cxx1112basic_stringIcSt11char_traitsIcESaIcEEEN5boost3anyESt4lessIS6_ESaISt4pairIKS6_S8_EEE
libes2command.so:_ZN12CESCIScanner31GetSimplexScanCounterCapabilityERSt3mapINSt7__cxx1112basic_stringIcSt11char_traitsIcESaIcEEEN5boost3anyESt4lessIS6_ESaISt4pairIKS6_S8_EEE
libes2command.so:_ZN12CESCIScanner31GetSupportedFunctionalUnitTypesEv
libes2command.so:_ZN12CESCIScanner32GetPickupRollerCounterCapabilityERSt3mapINSt7__cxx1112basic_stringIcSt11char_traitsIcESaIcEEEN5boost3anyESt4lessIS6_ESaISt4pairIKS6_S8_EEE
libes2command.so:_ZN12CESCIScanner32GetSupportedDoubleFeedDetectionsEv
libes2command.so:_ZN12CESCIScanner33GetDetectedDocumentSizeCapabilityERSt3mapINSt7__cxx1112basic_stringIcSt11char_traitsIcESaIcEEEN5boost3anyESt4lessIS6_ESaISt4pairIKS6_S8_EEE
libes2command.so:_ZN12CESCIScanner34GetGuidePositionReadOnlyCapabilityERSt3mapINSt7__cxx1112basic_stringIcSt11char_traitsIcESaIcEEEN5boost3anyESt4lessIS6_ESaISt4pairIKS6_S8_EEE
libes2command.so:_ZN12CESCIScanner36GetCaptureCommandSupportedCapabilityERSt3mapINSt7__cxx1112basic_stringIcSt11char_traitsIcESaIcEEEN5boost3anyESt4lessIS6_ESaISt4pairIKS6_S8_EEE
libes2command.so:_ZN12CESCIScanner36GetMaxScanSizeInLongLengthCapabilityERSt3mapINSt7__cxx1112basic_stringIcSt11char_traitsIcESaIcEEEN5boost3anyESt4lessIS6_ESaISt4pairIKS6_S8_EEE
libes2command.so:_ZN12CESCIScanner42GetShouldIgnoreCancelFromScannerCapabilityERSt3mapINSt7__cxx1112basic_stringIcSt11char_traitsIcESaIcEEEN5boost3anyESt4lessIS6_ESaISt4pairIKS6_S8_EEE
libes2command.so:_ZN12CESCIScanner4OpenEv
libes2command.so:_ZN12CESCIScanner4ScanEv
libes2command.so:_ZN12CESCIScanner5AbortEv
libes2command.so:_ZN12CESCIScanner5CloseEv
libes2command.so:_ZN12CESCIScanner5ResetEv
libes2command.so:_ZN12CESCIScanner6CancelEv
libes2command.so:_ZN12CESCIScannerC1Ev
libes2command.so:_ZN12CESCIScannerC2Ev
libes2command.so:_ZN12CESCIScannerD0Ev
libes2command.so:_ZN12CESCIScannerD1Ev
libes2command.so:_ZN12CESCIScannerD2Ev
libes2command.so:_ZN13CESCI2Command10GetExtInfoERSt3mapINSt7__cxx1112basic_stringIcSt11char_traitsIcESaIcEEEN5boost3anyESt4lessIS6_ESaISt4pairIKS6_S8_EEE
libes2command.so:_ZN13CESCI2Command10GetResultsERSt3mapINSt7__cxx1112basic_stringIcSt11char_traitsIcESaIcEEEN5boost3anyESt4lessIS6_ESaISt4pairIKS6_S8_EEEPSt5dequeIS6_SaIS6_EE
libes2command.so:_ZN13CESCI2Command10InitializeEv
libes2command.so:_ZN13CESCI2Command11RunSequenceE16ESCI2RequestCodePSt6vectorIhSaIhEEPSt3mapINSt7__cxx1112basic_stringIcSt11char_traitsIcESaIcEEEN5boost3anyESt4lessISB_ESaISt4pairIKSB_SD_EEEPN12ES_CMN_FUNCS6BUFFER13CESHeapBufferE
libes2command.so:_ZN13CESCI2Command11SendRequestE16ESCI2RequestCodePSt6vectorIhSaIhEE
libes2command.so:_ZN13CESCI2Command12FourCharCodeENSt7__cxx1112basic_stringIcSt11char_traitsIcESaIcEEE
libes2command.so:_ZN13CESCI2Command12ReceiveReplyER16ESCI2RequestCodePSt3mapINSt7__cxx1112basic_stringIcSt11char_traitsIcESaIcEEEN5boost3anyESt4lessIS8_ESaISt4pairIKS8_SA_EEEPN12ES_CMN_FUNCS6BUFFER13CESHeapBufferE
libes2command.so:_ZN13CESCI2Command12RequestImageERSt3mapINSt7__cxx1112basic_stringIcSt11char_traitsIcESaIcEEEN5boost3anyESt4lessIS6_ESaISt4pairIKS6_S8_EEERN12ES_CMN_FUNCS6BUFFER13CESHeapBufferE
libes2command.so:_ZN13CESCI2Command13RequestCancelEv
libes2command.so:_ZN13CESCI2Command13StartScanningEv
libes2command.so:_ZN13CESCI2Command13WaitUntilDoneEv
libes2command.so:_ZN13CESCI2Command14HeaderPaseRuleB5cxx11Ev
libes2command.so:_ZN13CESCI2Command14RequestAfmModeEb
libes2command.so:_ZN13CESCI2Command14RequestJobModeEj
libes2command.so:_ZN13CESCI2Command14SendParametersESt3mapINSt7__cxx1112basic_stringIcSt11char_traitsIcESaIcEEEN5boost3anyESt4lessIS6_ESaISt4pairIKS6_S8_EEE
libes2command.so:_ZN13CESCI2Command15GetCapabilitiesERSt3mapINSt7__cxx1112basic_stringIcSt11char_traitsIcESaIcEEEN5boost3anyESt4lessIS6_ESaISt4pairIKS6_S8_EEE
libes2command.so:_ZN13CESCI2Command15GetInfoPaseRuleB5cxx11Ev
libes2command.so:_ZN13CESCI2Command15RequestFinalizeEv
libes2command.so:_ZN13CESCI2Command17GetStatusPaseRuleB5cxx11Ev
libes2command.so:_ZN13CESCI2Command18GetMaintenanceInfoERSt3mapINSt7__cxx1112basic_stringIcSt11char_traitsIcESaIcEEEN5boost3anyESt4lessIS6_ESaISt4pairIKS6_S8_EEE
libes2command.so:_ZN13CESCI2Command18GetResultsPaseRuleB5cxx11Ev
libes2command.so:_ZN13CESCI2Command18RequestRunSequenceE16ESCI2RequestCodehPSt6vectorIhSaIhEERKSt3mapINSt7__cxx1112basic_stringIcSt11char_traitsIcESaIcEEEN5boost3anyESt4lessISB_ESaISt4pairIKSB_SD_EEERSK_
libes2command.so:_ZN13CESCI2Command18SyncFunctionalUnitEv
libes2command.so:_ZN13CESCI2Command20CapabilitiesPaseRuleB5cxx11Ev
libes2command.so:_ZN13CESCI2Command20GetMaintenanceStatusERSt3mapINSt7__cxx1112basic_stringIcSt11char_traitsIcESaIcEEEN5boost3anyESt4lessIS6_ESaISt4pairIKS6_S8_EEE
libes2command.so:_ZN13CESCI2Command21GetMaintenanceResultsERSt3mapINSt7__cxx1112basic_stringIcSt11char_traitsIcESaIcEEEN5boost3anyESt4lessIS6_ESaISt4pairIKS6_S8_EEEPSt5dequeIS6_SaIS6_EE
libes2command.so:_ZN13CESCI2Command21ParameterDataWithDictERSt3mapINSt7__cxx1112basic_stringIcSt11char_traitsIcESaIcEEEN5boost3anyESt4lessIS6_ESaISt4pairIKS6_S8_EEEjRSt5dequeIS6_SaIS6_EE
libes2command.so:_ZN13CESCI2Command21RequestScannerControlEv
libes2command.so:_ZN13CESCI2Command21RequestScannerInquiryEv
libes2command.so:_ZN13CESCI2Command23IsShouldKeepControlModeEv
libes2command.so:_ZN13CESCI2Command24RequestAdministratorLockEbRKNSt7__cxx1112basic_stringIcSt11char_traitsIcESaIcEEE
libes2command.so:_ZN13CESCI2Command25IsShouldIgnoreDateAndTimeEv
libes2command.so:_ZN13CESCI2Command25RequestScannerMaintenanceEv
libes2command.so:_ZN13CESCI2Command25SendMaintenanceParametersESt3mapINSt7__cxx1112basic_stringIcSt11char_traitsIcESaIcEEEN5boost3anyESt4lessIS6_ESaISt4pairIKS6_S8_EEE
libes2command.so:_ZN13CESCI2Command26GetMaintenanceCapabilitiesERSt3mapINSt7__cxx1112basic_stringIcSt11char_traitsIcESaIcEEEN5boost3anyESt4lessIS6_ESaISt4pairIKS6_S8_EEE
libes2command.so:_ZN13CESCI2Command26GetMaintenanceInfoPaseRuleB5cxx11Ev
libes2command.so:_ZN13CESCI2Command26IsShouldSyncFunctionalUnitEv
libes2command.so:_ZN13CESCI2Command27RequestPanelToPushScanReadyEb
libes2command.so:_ZN13CESCI2Command28IsShouldSendStatAfterADFScanEv
libes2command.so:_ZN13CESCI2Command29GetMaintenanceResultsPaseRuleB5cxx11Ev
libes2command.so:_ZN13CESCI2Command30CESCI2DataEnumeratorDataSource18ReadFromEnumeratorEP20CESCI2DataEnumeratorPhj
libes2command.so:_ZN13CESCI2Command30CESCI2DataEnumeratorDataSource4InitEPS_
libes2command.so:_ZN13CESCI2Command30CESCI2DataEnumeratorDataSourceC1Ev
libes2command.so:_ZN13CESCI2Command30CESCI2DataEnumeratorDataSourceC2Ev
libes2command.so:_ZN13CESCI2Command30CESCI2DataEnumeratorDataSourceD1Ev
libes2command.so:_ZN13CESCI2Command30CESCI2DataEnumeratorDataSourceD2Ev
libes2command.so:_ZN13CESCI2Command30IsShouldZeroClearEdgeFillForFBEv
libes2command.so:_ZN13CESCI2Command32MaintenanceParameterDataWithDictERSt3mapINSt7__cxx1112basic_stringIcSt11char_traitsIcESaIcEEEN5boost3anyESt4lessIS6_ESaISt4pairIKS6_S8_EEEjRSt5dequeIS6_SaIS6_EE
libes2command.so:_ZN13CESCI2Command34GetMaintenanceCapabilitiesPaseRuleB5cxx11Ev
libes2command.so:_ZN13CESCI2Command37RequestMechanicalControlWithParameterERSt6vectorIhSaIhEE
libes2command.so:_ZN13CESCI2Command6FCCSTRB5cxx11Ej
libes2command.so:_ZN13CESCI2Command7GetInfoERSt3mapINSt7__cxx1112basic_stringIcSt11char_traitsIcESaIcEEEN5boost3anyESt4lessIS6_ESaISt4pairIKS6_S8_EEE
libes2command.so:_ZN13CESCI2Command7GetModeEv
libes2command.so:_ZN13CESCI2Command7IsRetryEv
libes2command.so:_ZN13CESCI2Command7SetModeEh
libes2command.so:_ZN13CESCI2Command9GetStatusERSt3mapINSt7__cxx1112basic_stringIcSt11char_traitsIcESaIcEEEN5boost3anyESt4lessIS6_ESaISt4pairIKS6_S8_EEE
libes2command.so:_ZN13CESCI2CommandC1Ev
libes2command.so:_ZN13CESCI2CommandC2Ev
libes2command.so:_ZN13CESCI2CommandD0Ev
libes2command.so:_ZN13CESCI2CommandD1Ev
libes2command.so:_ZN13CESCI2CommandD2Ev
libes2command.so:_ZN13CESCI2Scanner10DoCleaningEv
libes2command.so:_ZN13CESCI2Scanner10GetAllKeysB5cxx11Ev
libes2command.so:_ZN13CESCI2Scanner10InitializeEv
libes2command.so:_ZN13CESCI2Scanner11DoAutoFocusEPf
libes2command.so:_ZN13CESCI2Scanner11GetDelegateEv
libes2command.so:_ZN13CESCI2Scanner11GetScanAreaEv
libes2command.so:_ZN13CESCI2Scanner11GetScanSizeEv
libes2command.so:_ZN13CESCI2Scanner11SetDelegateEP18IESScannerDelegate
libes2command.so:_ZN13CESCI2Scanner11SetDelegateEP18IESScannerDelegateP10IESScanner
libes2command.so:_ZN13CESCI2Scanner11SetScanAreaE8stESRectIfE
libes2command.so:_ZN13CESCI2Scanner11SetScanSizeE8stESSizeIfE
libes2command.so:_ZN13CESCI2Scanner11SetScanningEb
libes2command.so:_ZN13CESCI2Scanner12GetGammaModeEv
libes2command.so:_ZN13CESCI2Scanner12GetPriorKeysB5cxx11Ev
libes2command.so:_ZN13CESCI2Scanner12GetQuietModeEv
libes2command.so:_ZN13CESCI2Scanner12GetThresholdEv
libes2command.so:_ZN13CESCI2Scanner12SetCancelledEb
libes2command.so:_ZN13CESCI2Scanner12SetGammaModeEi
libes2command.so:_ZN13CESCI2Scanner12SetQuietModeEi
libes2command.so:_ZN13CESCI2Scanner12SetThresholdEi
libes2command.so:_ZN13CESCI2Scanner13DoCalibrationEv
libes2command.so:_ZN13CESCI2Scanner13GetBufferSizeEv
libes2command.so:_ZN13CESCI2Scanner13GetDuplexTypeEv
libes2command.so:_ZN13CESCI2Scanner13GetWorkFolderB5cxx11Ev
libes2command.so:_ZN13CESCI2Scanner13SetBufferSizeEi
libes2command.so:_ZN13CESCI2Scanner13SetWorkFolderENSt7__cxx1112basic_stringIcSt11char_traitsIcESaIcEEE
libes2command.so:_ZN13CESCI2Scanner13StopJobInModeEh
libes2command.so:_ZN13CESCI2Scanner14GetColorFormatEv
libes2command.so:_ZN13CESCI2Scanner14GetColorMatrixEv
libes2command.so:_ZN13CESCI2Scanner14GetErrorStatusEv
libes2command.so:_ZN13CESCI2Scanner14GetMaxScanSizeEv
libes2command.so:_ZN13CESCI2Scanner14GetProductNameB5cxx11Ev
libes2command.so:_ZN13CESCI2Scanner14GetValueForKeyEPKcRN5boost3anyE
libes2command.so:_ZN13CESCI2Scanner14GetXResolutionEv
libes2command.so:_ZN13CESCI2Scanner14GetYResolutionEv
libes2command.so:_ZN13CESCI2Scanner14SetColorFormatEi
libes2command.so:_ZN13CESCI2Scanner14SetColorMatrixESt5dequeIfSaIfEE
libes2command.so:_ZN13CESCI2Scanner14SetValueForKeyEPKcN5boost3anyE
libes2command.so:_ZN13CESCI2Scanner14SetXResolutionEi
libes2command.so:_ZN13CESCI2Scanner14SetYResolutionEi
libes2command.so:_ZN13CESCI2Scanner14StartJobInModeEh
libes2command.so:_ZN13CESCI2Scanner15GetAuthPasswordB5cxx11Ev
libes2command.so:_ZN13CESCI2Scanner15GetAuthUserNameB5cxx11Ev
libes2command.so:_ZN13CESCI2Scanner15GetBitsPerPixelEv
libes2command.so:_ZN13CESCI2Scanner15IsDuplexEnabledEv
libes2command.so:_ZN13CESCI2Scanner15IsFeederEnabledEv
libes2command.so:_ZN13CESCI2Scanner15SetAuthPasswordENSt7__cxx1112basic_stringIcSt11char_traitsIcESaIcEEE
libes2command.so:_ZN13CESCI2Scanner15SetAuthUserNameENSt7__cxx1112basic_stringIcSt11char_traitsIcESaIcEEE
libes2command.so:_ZN13CESCI2Scanner16GetBitsPerSampleEv
libes2command.so:_ZN13CESCI2Scanner16GetGammaTableRedEv
libes2command.so:_ZN13CESCI2Scanner16GetXOffsetMarginEv
libes2command.so:_ZN13CESCI2Scanner16GetYOffsetMarginEv
libes2command.so:_ZN13CESCI2Scanner16IsDocumentLoadedEv
libes2command.so:_ZN13CESCI2Scanner16SetDuplexEnabledEb
libes2command.so:_ZN13CESCI2Scanner16SetGammaTableRedESt5dequeIiSaIiEE
libes2command.so:_ZN13CESCI2Scanner16SetXOffsetMarginEf
libes2command.so:_ZN13CESCI2Scanner16SetYOffsetMarginEf
libes2command.so:_ZN13CESCI2Scanner17GetGammaTableBlueEv
libes2command.so:_ZN13CESCI2Scanner17GetGammaTableMonoEv
libes2command.so:_ZN13CESCI2Scanner17IsDuplexSupportedEv
libes2command.so:_ZN13CESCI2Scanner17IsFeederSupportedEv
libes2command.so:_ZN13CESCI2Scanner17SetGammaTableBlueESt5dequeIiSaIiEE
libes2command.so:_ZN13CESCI2Scanner17SetGammaTableMonoESt5dequeIiSaIiEE
libes2command.so:_ZN13CESCI2Scanner18GetDeviceInterfaceEv
libes2command.so:_ZN13CESCI2Scanner18GetFocusCapabilityERSt3mapINSt7__cxx1112basic_stringIcSt11char_traitsIcESaIcEEEN5boost3anyESt4lessIS6_ESaISt4pairIKS6_S8_EEE
libes2command.so:_ZN13CESCI2Scanner18GetGammaTableGreenEv
libes2command.so:_ZN13CESCI2Scanner18GetSamplesPerPixelEv
libes2command.so:_ZN13CESCI2Scanner18GetScanAreaInPixelEv
libes2command.so:_ZN13CESCI2Scanner18GetScanSizeInPixelEv
libes2command.so:_ZN13CESCI2Scanner18SetDeviceInterfaceEP10IInterface
libes2command.so:_ZN13CESCI2Scanner18SetGammaTableGreenESt5dequeIiSaIiEE
libes2command.so:_ZN13CESCI2Scanner18SetScanAreaInPixelE8stESRectIjE
libes2command.so:_ZN13CESCI2Scanner18SetScanSizeInPixelE8stESSizeIjE
libes2command.so:_ZN13CESCI2Scanner19GetADFLoadCapablityERSt3mapINSt7__cxx1112basic_stringIcSt11char_traitsIcESaIcEEEN5boost3anyESt4lessIS6_ESaISt4pairIKS6_S8_EEE
libes2command.so:_ZN13CESCI2Scanner19GetCapabilityForKeyEPKcRSt3mapINSt7__cxx1112basic_stringIcSt11char_traitsIcESaIcEEEN5boost3anyESt4lessIS8_ESaISt4pairIKS8_SA_EEE
libes2command.so:_ZN13CESCI2Scanner19GetPagesToBeScannedEv
libes2command.so:_ZN13CESCI2Scanner19IsCleaningSupportedEv
libes2command.so:_ZN13CESCI2Scanner19SetPagesToBeScannedEi
libes2command.so:_ZN13CESCI2Scanner20GetBGColorCapabilityERSt3mapINSt7__cxx1112basic_stringIcSt11char_traitsIcESaIcEEEN5boost3anyESt4lessIS6_ESaISt4pairIKS6_S8_EEE
libes2command.so:_ZN13CESCI2Scanner20GetContrastCapablityERSt3mapINSt7__cxx1112basic_stringIcSt11char_traitsIcESaIcEEEN5boost3anyESt4lessIS6_ESaISt4pairIKS6_S8_EEE
libes2command.so:_ZN13CESCI2Scanner20GetOpticalResolutionEv
libes2command.so:_ZN13CESCI2Scanner20GetVersionCapabilityERSt3mapINSt7__cxx1112basic_stringIcSt11char_traitsIcESaIcEEEN5boost3anyESt4lessIS6_ESaISt4pairIKS6_S8_EEE
libes2command.so:_ZN13CESCI2Scanner21GetFilmTypeCapabilityERSt3mapINSt7__cxx1112basic_stringIcSt11char_traitsIcESaIcEEEN5boost3anyESt4lessIS6_ESaISt4pairIKS6_S8_EEE
libes2command.so:_ZN13CESCI2Scanner21GetFunctionalUnitTypeEv
libes2command.so:_ZN13CESCI2Scanner21GetMaxFocusCapabilityERSt3mapINSt7__cxx1112basic_stringIcSt11char_traitsIcESaIcEEEN5boost3anyESt4lessIS6_ESaISt4pairIKS6_S8_EEE
libes2command.so:_ZN13CESCI2Scanner21GetMinFocusCapabilityERSt3mapINSt7__cxx1112basic_stringIcSt11char_traitsIcESaIcEEEN5boost3anyESt4lessIS6_ESaISt4pairIKS6_S8_EEE
libes2command.so:_ZN13CESCI2Scanner21GetOverScanCapabilityERSt3mapINSt7__cxx1112basic_stringIcSt11char_traitsIcESaIcEEEN5boost3anyESt4lessIS6_ESaISt4pairIKS6_S8_EEE
libes2command.so:_ZN13CESCI2Scanner21GetScanSizeCapabilityERSt3mapINSt7__cxx1112basic_stringIcSt11char_traitsIcESaIcEEEN5boost3anyESt4lessIS6_ESaISt4pairIKS6_S8_EEE
libes2command.so:_ZN13CESCI2Scanner21GetSkipImageCapablityERSt3mapINSt7__cxx1112basic_stringIcSt11char_traitsIcESaIcEEEN5boost3anyESt4lessIS6_ESaISt4pairIKS6_S8_EEE
libes2command.so:_ZN13CESCI2Scanner21GetSupportedThresholdEv
libes2command.so:_ZN13CESCI2Scanner21LockAdministratorLockEv
libes2command.so:_ZN13CESCI2Scanner21SetFunctionalUnitTypeEi
libes2command.so:_ZN13CESCI2Scanner22GetAdminLockCapabilityERSt3mapINSt7__cxx1112basic_stringIcSt11char_traitsIcESaIcEEEN5boost3anyESt4lessIS6_ESaISt4pairIKS6_S8_EEE
libes2command.so:_ZN13CESCI2Scanner22GetBrightnessCapablityERSt3mapINSt7__cxx1112basic_stringIcSt11char_traitsIcESaIcEEEN5boost3anyESt4lessIS6_ESaISt4pairIKS6_S8_EEE
libes2command.so:_ZN13CESCI2Scanner22GetDoubleFeedDetectionEv
libes2command.so:_ZN13CESCI2Scanner22GetErrorCodeCapabilityERSt3mapINSt7__cxx1112basic_stringIcSt11char_traitsIcESaIcEEEN5boost3anyESt4lessIS6_ESaISt4pairIKS6_S8_EEE
libes2command.so:_ZN13CESCI2Scanner22GetGammaScaleCapablityERSt3mapINSt7__cxx1112basic_stringIcSt11char_traitsIcESaIcEEEN5boost3anyESt4lessIS6_ESaISt4pairIKS6_S8_EEE
libes2command.so:_ZN13CESCI2Scanner22GetMaintenanceHashTypeEv
libes2command.so:_ZN13CESCI2Scanner22GetSupportedGammaModesEv
libes2command.so:_ZN13CESCI2Scanner22GetSupportedQuietModesEv
libes2command.so:_ZN13CESCI2Scanner22IsCalibrationSupportedEv
libes2command.so:_ZN13CESCI2Scanner22SetDoubleFeedDetectionEi
libes2command.so:_ZN13CESCI2Scanner23IsAuthenticationEnabledEv
libes2command.so:_ZN13CESCI2Scanner23IsScannableDeviceConfigEv
libes2command.so:_ZN13CESCI2Scanner23SetPanelToPushScanReadyEi
libes2command.so:_ZN13CESCI2Scanner23UnlockAdministratorLockEv
libes2command.so:_ZN13CESCI2Scanner24GetColorMatrixCapabilityERSt3mapINSt7__cxx1112basic_stringIcSt11char_traitsIcESaIcEEEN5boost3anyESt4lessIS6_ESaISt4pairIKS6_S8_EEE
libes2command.so:_ZN13CESCI2Scanner24GetImageFormatCapabilityERSt3mapINSt7__cxx1112basic_stringIcSt11char_traitsIcESaIcEEEN5boost3anyESt4lessIS6_ESaISt4pairIKS6_S8_EEE
libes2command.so:_ZN13CESCI2Scanner24GetJPEGQualityCapabilityERSt3mapINSt7__cxx1112basic_stringIcSt11char_traitsIcESaIcEEEN5boost3anyESt4lessIS6_ESaISt4pairIKS6_S8_EEE
libes2command.so:_ZN13CESCI2Scanner24GetMinScanSizeCapabilityERSt3mapINSt7__cxx1112basic_stringIcSt11char_traitsIcESaIcEEEN5boost3anyESt4lessIS6_ESaISt4pairIKS6_S8_EEE
libes2command.so:_ZN13CESCI2Scanner24GetScanCounterCapabilityERSt3mapINSt7__cxx1112basic_stringIcSt11char_traitsIcESaIcEEEN5boost3anyESt4lessIS6_ESaISt4pairIKS6_S8_EEE
libes2command.so:_ZN13CESCI2Scanner24GetSupportedColorFormatsEv
libes2command.so:_ZN13CESCI2Scanner24GetSupportedXResolutionsEv
libes2command.so:_ZN13CESCI2Scanner24GetSupportedYResolutionsEv
libes2command.so:_ZN13CESCI2Scanner24SetAuthenticationEnabledEb
libes2command.so:_ZN13CESCI2Scanner25GetAutoCroppingCapabilityERSt3mapINSt7__cxx1112basic_stringIcSt11char_traitsIcESaIcEEEN5boost3anyESt4lessIS6_ESaISt4pairIKS6_S8_EEE
libes2command.so:_ZN13CESCI2Scanner25GetCardScanningCapabilityERSt3mapINSt7__cxx1112basic_stringIcSt11char_traitsIcESaIcEEEN5boost3anyESt4lessIS6_ESaISt4pairIKS6_S8_EEE
libes2command.so:_ZN13CESCI2Scanner25GetCroppingSizeCapabilityERSt3mapINSt7__cxx1112basic_stringIcSt11char_traitsIcESaIcEEEN5boost3anyESt4lessIS6_ESaISt4pairIKS6_S8_EEE
libes2command.so:_ZN13CESCI2Scanner25GetGuidelessADFCapabilityERSt3mapINSt7__cxx1112basic_stringIcSt11char_traitsIcESaIcEEEN5boost3anyESt4lessIS6_ESaISt4pairIKS6_S8_EEE
libes2command.so:_ZN13CESCI2Scanner25GetPowerOffTimeCapabilityERSt3mapINSt7__cxx1112basic_stringIcSt11char_traitsIcESaIcEEEN5boost3anyESt4lessIS6_ESaISt4pairIKS6_S8_EEE
libes2command.so:_ZN13CESCI2Scanner25GetScanningModeCapabilityERSt3mapINSt7__cxx1112basic_stringIcSt11char_traitsIcESaIcEEEN5boost3anyESt4lessIS6_ESaISt4pairIKS6_S8_EEE
libes2command.so:_ZN13CESCI2Scanner25GetSerialNumberCapabilityERSt3mapINSt7__cxx1112basic_stringIcSt11char_traitsIcESaIcEEEN5boost3anyESt4lessIS6_ESaISt4pairIKS6_S8_EEE
libes2command.so:_ZN13CESCI2Scanner25IsAuthenticationSupportedEv
libes2command.so:_ZN13CESCI2Scanner25IsCaptureCommandSupportedEv
libes2command.so:_ZN13CESCI2Scanner26GetBatteryStatusCapabilityERSt3mapINSt7__cxx1112basic_stringIcSt11char_traitsIcESaIcEEEN5boost3anyESt4lessIS6_ESaISt4pairIKS6_S8_EEE
libes2command.so:_ZN13CESCI2Scanner26GetDirectPowerOnCapabilityERSt3mapINSt7__cxx1112basic_stringIcSt11char_traitsIcESaIcEEEN5boost3anyESt4lessIS6_ESaISt4pairIKS6_S8_EEE
libes2command.so:_ZN13CESCI2Scanner26GetEdgeFillColorCapabilityERSt3mapINSt7__cxx1112basic_stringIcSt11char_traitsIcESaIcEEEN5boost3anyESt4lessIS6_ESaISt4pairIKS6_S8_EEE
libes2command.so:_ZN13CESCI2Scanner26GetEdgeFillWidthCapabilityERSt3mapINSt7__cxx1112basic_stringIcSt11char_traitsIcESaIcEEEN5boost3anyESt4lessIS6_ESaISt4pairIKS6_S8_EEE
libes2command.so:_ZN13CESCI2Scanner26GetGuidePositionCapabilityERSt3mapINSt7__cxx1112basic_stringIcSt11char_traitsIcESaIcEEEN5boost3anyESt4lessIS6_ESaISt4pairIKS6_S8_EEE
libes2command.so:_ZN13CESCI2Scanner26GetLengthPaddingCapabilityERSt3mapINSt7__cxx1112basic_stringIcSt11char_traitsIcESaIcEEEN5boost3anyESt4lessIS6_ESaISt4pairIKS6_S8_EEE
libes2command.so:_ZN13CESCI2Scanner26GetPowerSaveTimeCapabilityERSt3mapINSt7__cxx1112basic_stringIcSt11char_traitsIcESaIcEEEN5boost3anyESt4lessIS6_ESaISt4pairIKS6_S8_EEE
libes2command.so:_ZN13CESCI2Scanner26GetWarningStatusCapabilityERSt3mapINSt7__cxx1112basic_stringIcSt11char_traitsIcESaIcEEEN5boost3anyESt4lessIS6_ESaISt4pairIKS6_S8_EEE
libes2command.so:_ZN13CESCI2Scanner26SetCaptureCommandSupportedEb
libes2command.so:_ZN13CESCI2Scanner27GetDetectBlankPageCapablityERSt3mapINSt7__cxx1112basic_stringIcSt11char_traitsIcESaIcEEEN5boost3anyESt4lessIS6_ESaISt4pairIKS6_S8_EEE
libes2command.so:_ZN13CESCI2Scanner27GetDetectColorTypeCapablityERSt3mapINSt7__cxx1112basic_stringIcSt11char_traitsIcESaIcEEEN5boost3anyESt4lessIS6_ESaISt4pairIKS6_S8_EEE
libes2command.so:_ZN13CESCI2Scanner27GetMaxImagePixelsCapabilityERSt3mapINSt7__cxx1112basic_stringIcSt11char_traitsIcESaIcEEEN5boost3anyESt4lessIS6_ESaISt4pairIKS6_S8_EEE
libes2command.so:_ZN13CESCI2Scanner27GetSharpnessFilterCapablityERSt3mapINSt7__cxx1112basic_stringIcSt11char_traitsIcESaIcEEEN5boost3anyESt4lessIS6_ESaISt4pairIKS6_S8_EEE
libes2command.so:_ZN13CESCI2Scanner27GetSkewCorrectionCapabilityERSt3mapINSt7__cxx1112basic_stringIcSt11char_traitsIcESaIcEEEN5boost3anyESt4lessIS6_ESaISt4pairIKS6_S8_EEE
libes2command.so:_ZN13CESCI2Scanner28GetAutoFeedingModeCapabilityERSt3mapINSt7__cxx1112basic_stringIcSt11char_traitsIcESaIcEEEN5boost3anyESt4lessIS6_ESaISt4pairIKS6_S8_EEE
libes2command.so:_ZN13CESCI2Scanner28GetColorMatrixModeCapabilityERSt3mapINSt7__cxx1112basic_stringIcSt11char_traitsIcESaIcEEEN5boost3anyESt4lessIS6_ESaISt4pairIKS6_S8_EEE
libes2command.so:_ZN13CESCI2Scanner28GetPaperJamCounterCapabilityERSt3mapINSt7__cxx1112basic_stringIcSt11char_traitsIcESaIcEEEN5boost3anyESt4lessIS6_ESaISt4pairIKS6_S8_EEE
libes2command.so:_ZN13CESCI2Scanner28GetPowerOffTime2ndCapabilityERSt3mapINSt7__cxx1112basic_stringIcSt11char_traitsIcESaIcEEEN5boost3anyESt4lessIS6_ESaISt4pairIKS6_S8_EEE
libes2command.so:_ZN13CESCI2Scanner29GetAdminLockEnabledCapabilityERSt3mapINSt7__cxx1112basic_stringIcSt11char_traitsIcESaIcEEEN5boost3anyESt4lessIS6_ESaISt4pairIKS6_S8_EEE
libes2command.so:_ZN13CESCI2Scanner29GetBackgroundRemovalCapablityERSt3mapINSt7__cxx1112basic_stringIcSt11char_traitsIcESaIcEEEN5boost3anyESt4lessIS6_ESaISt4pairIKS6_S8_EEE
libes2command.so:_ZN13CESCI2Scanner29GetColorCounterTypeCapabilityERSt3mapINSt7__cxx1112basic_stringIcSt11char_traitsIcESaIcEEEN5boost3anyESt4lessIS6_ESaISt4pairIKS6_S8_EEE
libes2command.so:_ZN13CESCI2Scanner29GetPaperEndDetectionCapabiliyERSt3mapINSt7__cxx1112basic_stringIcSt11char_traitsIcESaIcEEEN5boost3anyESt4lessIS6_ESaISt4pairIKS6_S8_EEE
libes2command.so:_ZN13CESCI2Scanner29GetRollerKitCounterCapabilityERSt3mapINSt7__cxx1112basic_stringIcSt11char_traitsIcESaIcEEEN5boost3anyESt4lessIS6_ESaISt4pairIKS6_S8_EEE
libes2command.so:_ZN13CESCI2Scanner29GetRollerKitNearendCapabilityERSt3mapINSt7__cxx1112basic_stringIcSt11char_traitsIcESaIcEEEN5boost3anyESt4lessIS6_ESaISt4pairIKS6_S8_EEE
libes2command.so:_ZN13CESCI2Scanner30GetAdminLockPasswordCapabilityERSt3mapINSt7__cxx1112basic_stringIcSt11char_traitsIcESaIcEEEN5boost3anyESt4lessIS6_ESaISt4pairIKS6_S8_EEE
libes2command.so:_ZN13CESCI2Scanner30GetClientApplicationCapabilityERSt3mapINSt7__cxx1112basic_stringIcSt11char_traitsIcESaIcEEEN5boost3anyESt4lessIS6_ESaISt4pairIKS6_S8_EEE
libes2command.so:_ZN13CESCI2Scanner30GetDuplexScanCounterCapabilityERSt3mapINSt7__cxx1112basic_stringIcSt11char_traitsIcESaIcEEEN5boost3anyESt4lessIS6_ESaISt4pairIKS6_S8_EEE
libes2command.so:_ZN13CESCI2Scanner30GetSensorGlassStatusCapabilityERSt3mapINSt7__cxx1112basic_stringIcSt11char_traitsIcESaIcEEEN5boost3anyESt4lessIS6_ESaISt4pairIKS6_S8_EEE
libes2command.so:_ZN13CESCI2Scanner30ScheduleAutoFeedingModeTimeoutEv
libes2command.so:_ZN13CESCI2Scanner31GetADFPaperProtectionCapabilityERSt3mapINSt7__cxx1112basic_stringIcSt11char_traitsIcESaIcEEEN5boost3anyESt4lessIS6_ESaISt4pairIKS6_S8_EEE
libes2command.so:_ZN13CESCI2Scanner31GetDisableJobContinueCapabilityERSt3mapINSt7__cxx1112basic_stringIcSt11char_traitsIcESaIcEEEN5boost3anyESt4lessIS6_ESaISt4pairIKS6_S8_EEE
libes2command.so:_ZN13CESCI2Scanner31GetDocumentSeparationCapabilityERSt3mapINSt7__cxx1112basic_stringIcSt11char_traitsIcESaIcEEEN5boost3anyESt4lessIS6_ESaISt4pairIKS6_S8_EEE
libes2command.so:_ZN13CESCI2Scanner31GetLaminatedPaperModeCapabilityERSt3mapINSt7__cxx1112basic_stringIcSt11char_traitsIcESaIcEEEN5boost3anyESt4lessIS6_ESaISt4pairIKS6_S8_EEE
libes2command.so:_ZN13CESCI2Scanner31GetLightIntensityBackCapabilityERSt3mapINSt7__cxx1112basic_stringIcSt11char_traitsIcESaIcEEEN5boost3anyESt4lessIS6_ESaISt4pairIKS6_S8_EEE
libes2command.so:_ZN13CESCI2Scanner31GetMaxLongLengthTableCapabilityERSt3mapINSt7__cxx1112basic_stringIcSt11char_traitsIcESaIcEEEN5boost3anyESt4lessIS6_ESaISt4pairIKS6_S8_EEE
libes2command.so:_ZN13CESCI2Scanner31GetNonConnectPowerOffCapabilityERSt3mapINSt7__cxx1112basic_stringIcSt11char_traitsIcESaIcEEEN5boost3anyESt4lessIS6_ESaISt4pairIKS6_S8_EEE
libes2command.so:_ZN13CESCI2Scanner31GetRollerKitLifeLimitCapabilityERSt3mapINSt7__cxx1112basic_stringIcSt11char_traitsIcESaIcEEEN5boost3anyESt4lessIS6_ESaISt4pairIKS6_S8_EEE
libes2command.so:_ZN13CESCI2Scanner31GetSimplexScanCounterCapabilityERSt3mapINSt7__cxx1112basic_stringIcSt11char_traitsIcESaIcEEEN5boost3anyESt4lessIS6_ESaISt4pairIKS6_S8_EEE
libes2command.so:_ZN13CESCI2Scanner31GetSupportedFunctionalUnitTypesEv
libes2command.so:_ZN13CESCI2Scanner32GetDefaultPasswordTypeCapabilityERSt3mapINSt7__cxx1112basic_stringIcSt11char_traitsIcESaIcEEEN5boost3anyESt4lessIS6_ESaISt4pairIKS6_S8_EEE
libes2command.so:_ZN13CESCI2Scanner32GetDetectBlankPageLevelCapablityERSt3mapINSt7__cxx1112basic_stringIcSt11char_traitsIcESaIcEEEN5boost3anyESt4lessIS6_ESaISt4pairIKS6_S8_EEE
libes2command.so:_ZN13CESCI2Scanner32GetFlatbedLamp1CounterCapabilityERSt3mapINSt7__cxx1112basic_stringIcSt11char_traitsIcESaIcEEEN5boost3anyESt4lessIS6_ESaISt4pairIKS6_S8_EEE
libes2command.so:_ZN13CESCI2Scanner32GetFlatbedLamp2CounterCapabilityERSt3mapINSt7__cxx1112basic_stringIcSt11char_traitsIcESaIcEEEN5boost3anyESt4lessIS6_ESaISt4pairIKS6_S8_EEE
libes2command.so:_ZN13CESCI2Scanner32GetInterruptionEnabledCapabilityERSt3mapINSt7__cxx1112basic_stringIcSt11char_traitsIcESaIcEEEN5boost3anyESt4lessIS6_ESaISt4pairIKS6_S8_EEE
libes2command.so:_ZN13CESCI2Scanner32GetOverScanForCroppingCapabilityERSt3mapINSt7__cxx1112basic_stringIcSt11char_traitsIcESaIcEEEN5boost3anyESt4lessIS6_ESaISt4pairIKS6_S8_EEE
libes2command.so:_ZN13CESCI2Scanner32GetPassportCarrierSheetCapabiliyERSt3mapINSt7__cxx1112basic_stringIcSt11char_traitsIcESaIcEEEN5boost3anyESt4lessIS6_ESaISt4pairIKS6_S8_EEE
libes2command.so:_ZN13CESCI2Scanner32GetPickupRollerCounterCapabilityERSt3mapINSt7__cxx1112basic_stringIcSt11char_traitsIcESaIcEEEN5boost3anyESt4lessIS6_ESaISt4pairIKS6_S8_EEE
libes2command.so:_ZN13CESCI2Scanner32GetPickupRollerNearendCapabilityERSt3mapINSt7__cxx1112basic_stringIcSt11char_traitsIcESaIcEEEN5boost3anyESt4lessIS6_ESaISt4pairIKS6_S8_EEE
libes2command.so:_ZN13CESCI2Scanner32GetRetardRollerCounterCapabilityERSt3mapINSt7__cxx1112basic_stringIcSt11char_traitsIcESaIcEEEN5boost3anyESt4lessIS6_ESaISt4pairIKS6_S8_EEE
libes2command.so:_ZN13CESCI2Scanner32GetRetardRollerNearendCapabilityERSt3mapINSt7__cxx1112basic_stringIcSt11char_traitsIcESaIcEEEN5boost3anyESt4lessIS6_ESaISt4pairIKS6_S8_EEE
libes2command.so:_ZN13CESCI2Scanner32GetSupportedDoubleFeedDetectionsEv
libes2command.so:_ZN13CESCI2Scanner33GetCarrierSheetDetectionCapabiliyERSt3mapINSt7__cxx1112basic_stringIcSt11char_traitsIcESaIcEEEN5boost3anyESt4lessIS6_ESaISt4pairIKS6_S8_EEE
libes2command.so:_ZN13CESCI2Scanner33GetCroppableResolutionsCapabilityERSt3mapINSt7__cxx1112basic_stringIcSt11char_traitsIcESaIcEEEN5boost3anyESt4lessIS6_ESaISt4pairIKS6_S8_EEE
libes2command.so:_ZN13CESCI2Scanner33GetDetectedDocumentSizeCapabilityERSt3mapINSt7__cxx1112basic_stringIcSt11char_traitsIcESaIcEEEN5boost3anyESt4lessIS6_ESaISt4pairIKS6_S8_EEE
libes2command.so:_ZN13CESCI2Scanner33GetImagePaperProtectionCapabilityERSt3mapINSt7__cxx1112basic_stringIcSt11char_traitsIcESaIcEEEN5boost3anyESt4lessIS6_ESaISt4pairIKS6_S8_EEE
libes2command.so:_ZN13CESCI2Scanner33GetRollerKitNotifyCountCapabilityERSt3mapINSt7__cxx1112basic_stringIcSt11char_traitsIcESaIcEEEN5boost3anyESt4lessIS6_ESaISt4pairIKS6_S8_EEE
libes2command.so:_ZN13CESCI2Scanner33GetSeparationPadCounterCapabilityERSt3mapINSt7__cxx1112basic_stringIcSt11char_traitsIcESaIcEEEN5boost3anyESt4lessIS6_ESaISt4pairIKS6_S8_EEE
libes2command.so:_ZN13CESCI2Scanner33GetSeparationPadNearendCapabilityERSt3mapINSt7__cxx1112basic_stringIcSt11char_traitsIcESaIcEEEN5boost3anyESt4lessIS6_ESaISt4pairIKS6_S8_EEE
libes2command.so:_ZN13CESCI2Scanner34GetAutoCroppingInscribedCapabilityERSt3mapINSt7__cxx1112basic_stringIcSt11char_traitsIcESaIcEEEN5boost3anyESt4lessIS6_ESaISt4pairIKS6_S8_EEE
libes2command.so:_ZN13CESCI2Scanner34GetCleaningWarningNotifyCapabilityERSt3mapINSt7__cxx1112basic_stringIcSt11char_traitsIcESaIcEEEN5boost3anyESt4lessIS6_ESaISt4pairIKS6_S8_EEE
libes2command.so:_ZN13CESCI2Scanner34GetDisableKeepingCaptureCapabilityERSt3mapINSt7__cxx1112basic_stringIcSt11char_traitsIcESaIcEEEN5boost3anyESt4lessIS6_ESaISt4pairIKS6_S8_EEE
libes2command.so:_ZN13CESCI2Scanner34GetDuplexCardScanCounterCapabilityERSt3mapINSt7__cxx1112basic_stringIcSt11char_traitsIcESaIcEEEN5boost3anyESt4lessIS6_ESaISt4pairIKS6_S8_EEE
libes2command.so:_ZN13CESCI2Scanner34GetFirstPCConnectionDateCapabilityERSt3mapINSt7__cxx1112basic_stringIcSt11char_traitsIcESaIcEEEN5boost3anyESt4lessIS6_ESaISt4pairIKS6_S8_EEE
libes2command.so:_ZN13CESCI2Scanner34GetPickupRollerLifeLimitCapabilityERSt3mapINSt7__cxx1112basic_stringIcSt11char_traitsIcESaIcEEEN5boost3anyESt4lessIS6_ESaISt4pairIKS6_S8_EEE
libes2command.so:_ZN13CESCI2Scanner34GetRetardRollerLifeLimitCapabilityERSt3mapINSt7__cxx1112basic_stringIcSt11char_traitsIcESaIcEEEN5boost3anyESt4lessIS6_ESaISt4pairIKS6_S8_EEE
libes2command.so:_ZN13CESCI2Scanner34GetScannerPositionStatusCapabilityERSt3mapINSt7__cxx1112basic_stringIcSt11char_traitsIcESaIcEEEN5boost3anyESt4lessIS6_ESaISt4pairIKS6_S8_EEE
libes2command.so:_ZN13CESCI2Scanner35GetAutoFeedingModeTimeoutCapabilityERSt3mapINSt7__cxx1112basic_stringIcSt11char_traitsIcESaIcEEEN5boost3anyESt4lessIS6_ESaISt4pairIKS6_S8_EEE
libes2command.so:_ZN13CESCI2Scanner35GetBehaviorWhenDoubleFeedCapabilityERSt3mapINSt7__cxx1112basic_stringIcSt11char_traitsIcESaIcEEEN5boost3anyESt4lessIS6_ESaISt4pairIKS6_S8_EEE
libes2command.so:_ZN13CESCI2Scanner35GetCleaningWarningCounterCapabilityERSt3mapINSt7__cxx1112basic_stringIcSt11char_traitsIcESaIcEEEN5boost3anyESt4lessIS6_ESaISt4pairIKS6_S8_EEE
libes2command.so:_ZN13CESCI2Scanner35GetImageDoubleFeedCounterCapabilityERSt3mapINSt7__cxx1112basic_stringIcSt11char_traitsIcESaIcEEEN5boost3anyESt4lessIS6_ESaISt4pairIKS6_S8_EEE
libes2command.so:_ZN13CESCI2Scanner35GetPaperProtectionCounterCapabilityERSt3mapINSt7__cxx1112basic_stringIcSt11char_traitsIcESaIcEEEN5boost3anyESt4lessIS6_ESaISt4pairIKS6_S8_EEE
libes2command.so:_ZN13CESCI2Scanner35GetSeparationPadLifeLimitCapabilityERSt3mapINSt7__cxx1112basic_stringIcSt11char_traitsIcESaIcEEEN5boost3anyESt4lessIS6_ESaISt4pairIKS6_S8_EEE
libes2command.so:_ZN13CESCI2Scanner35GetSimplexCardScanCounterCapabilityERSt3mapINSt7__cxx1112basic_stringIcSt11char_traitsIcESaIcEEEN5boost3anyESt4lessIS6_ESaISt4pairIKS6_S8_EEE
libes2command.so:_ZN13CESCI2Scanner35GetSpecialDocumentCounterCapabilityERSt3mapINSt7__cxx1112basic_stringIcSt11char_traitsIcESaIcEEEN5boost3anyESt4lessIS6_ESaISt4pairIKS6_S8_EEE
libes2command.so:_ZN13CESCI2Scanner36GetLengthDoubleFeedCounterCapabilityERSt3mapINSt7__cxx1112basic_stringIcSt11char_traitsIcESaIcEEEN5boost3anyESt4lessIS6_ESaISt4pairIKS6_S8_EEE
libes2command.so:_ZN13CESCI2Scanner36GetMaxScanSizeInLongLengthCapabilityERSt3mapINSt7__cxx1112basic_stringIcSt11char_traitsIcESaIcEEEN5boost3anyESt4lessIS6_ESaISt4pairIKS6_S8_EEE
libes2command.so:_ZN13CESCI2Scanner36GetPickupRollerNotifyCountCapabilityERSt3mapINSt7__cxx1112basic_stringIcSt11char_traitsIcESaIcEEEN5boost3anyESt4lessIS6_ESaISt4pairIKS6_S8_EEE
libes2command.so:_ZN13CESCI2Scanner36GetRetardRollerNotifyCountCapabilityERSt3mapINSt7__cxx1112basic_stringIcSt11char_traitsIcESaIcEEEN5boost3anyESt4lessIS6_ESaISt4pairIKS6_S8_EEE
libes2command.so:_ZN13CESCI2Scanner37GetImageDoubleFeedDetectionCapabilityERSt3mapINSt7__cxx1112basic_stringIcSt11char_traitsIcESaIcEEEN5boost3anyESt4lessIS6_ESaISt4pairIKS6_S8_EEE
libes2command.so:_ZN13CESCI2Scanner37GetSeparationPadNotifyCountCapabilityERSt3mapINSt7__cxx1112basic_stringIcSt11char_traitsIcESaIcEEEN5boost3anyESt4lessIS6_ESaISt4pairIKS6_S8_EEE
libes2command.so:_ZN13CESCI2Scanner38GetContinuousAutoFeedingModeCapabilityERSt3mapINSt7__cxx1112basic_stringIcSt11char_traitsIcESaIcEEEN5boost3anyESt4lessIS6_ESaISt4pairIKS6_S8_EEE
libes2command.so:_ZN13CESCI2Scanner38GetDocumentFeederBGLevelBackCapabilityERSt3mapINSt7__cxx1112basic_stringIcSt11char_traitsIcESaIcEEEN5boost3anyESt4lessIS6_ESaISt4pairIKS6_S8_EEE
libes2command.so:_ZN13CESCI2Scanner38GetDocumentTopCorrectionBackCapabilityERSt3mapINSt7__cxx1112basic_stringIcSt11char_traitsIcESaIcEEEN5boost3anyESt4lessIS6_ESaISt4pairIKS6_S8_EEE
libes2command.so:_ZN13CESCI2Scanner38GetLenghtDoubleFeedDetectionCapabilityERSt3mapINSt7__cxx1112basic_stringIcSt11char_traitsIcESaIcEEEN5boost3anyESt4lessIS6_ESaISt4pairIKS6_S8_EEE
libes2command.so:_ZN13CESCI2Scanner39GetCleaningWarningNotifyCountCapabilityERSt3mapINSt7__cxx1112basic_stringIcSt11char_traitsIcESaIcEEEN5boost3anyESt4lessIS6_ESaISt4pairIKS6_S8_EEE
libes2command.so:_ZN13CESCI2Scanner39GetDocumentFeederBGLevelFrontCapabilityERSt3mapINSt7__cxx1112basic_stringIcSt11char_traitsIcESaIcEEEN5boost3anyESt4lessIS6_ESaISt4pairIKS6_S8_EEE
libes2command.so:_ZN13CESCI2Scanner39GetDocumentFeederLamp1CounterCapabilityERSt3mapINSt7__cxx1112basic_stringIcSt11char_traitsIcESaIcEEEN5boost3anyESt4lessIS6_ESaISt4pairIKS6_S8_EEE
libes2command.so:_ZN13CESCI2Scanner39GetDocumentFeederLamp2CounterCapabilityERSt3mapINSt7__cxx1112basic_stringIcSt11char_traitsIcESaIcEEEN5boost3anyESt4lessIS6_ESaISt4pairIKS6_S8_EEE
libes2command.so:_ZN13CESCI2Scanner39GetDocumentTopCorrectionFrontCapabilityERSt3mapINSt7__cxx1112basic_stringIcSt11char_traitsIcESaIcEEEN5boost3anyESt4lessIS6_ESaISt4pairIKS6_S8_EEE
libes2command.so:_ZN13CESCI2Scanner39GetSensorGlassDirtSensitivityCapabilityERSt3mapINSt7__cxx1112basic_stringIcSt11char_traitsIcESaIcEEEN5boost3anyESt4lessIS6_ESaISt4pairIKS6_S8_EEE
libes2command.so:_ZN13CESCI2Scanner40GetDocumentDriveCorrectionBackCapabilityERSt3mapINSt7__cxx1112basic_stringIcSt11char_traitsIcESaIcEEEN5boost3anyESt4lessIS6_ESaISt4pairIKS6_S8_EEE
libes2command.so:_ZN13CESCI2Scanner40GetPassportCarrierSheetCounterCapabilityERSt3mapINSt7__cxx1112basic_stringIcSt11char_traitsIcESaIcEEEN5boost3anyESt4lessIS6_ESaISt4pairIKS6_S8_EEE
libes2command.so:_ZN13CESCI2Scanner40GetUltraSonicDoubleFeedCounterCapabilityERSt3mapINSt7__cxx1112basic_stringIcSt11char_traitsIcESaIcEEEN5boost3anyESt4lessIS6_ESaISt4pairIKS6_S8_EEE
libes2command.so:_ZN13CESCI2Scanner41GetDocumentDriveCorrectionFrontCapabilityERSt3mapINSt7__cxx1112basic_stringIcSt11char_traitsIcESaIcEEEN5boost3anyESt4lessIS6_ESaISt4pairIKS6_S8_EEE
libes2command.so:_ZN13CESCI2Scanner43GetDoubleFeedDetectionRangeLengthCapabilityERSt3mapINSt7__cxx1112basic_stringIcSt11char_traitsIcESaIcEEEN5boost3anyESt4lessIS6_ESaISt4pairIKS6_S8_EEE
libes2command.so:_ZN13CESCI2Scanner43GetDoubleFeedDetectionRangeOffsetCapabilityERSt3mapINSt7__cxx1112basic_stringIcSt11char_traitsIcESaIcEEEN5boost3anyESt4lessIS6_ESaISt4pairIKS6_S8_EEE
libes2command.so:_ZN13CESCI2Scanner43GetUnavailableScanParameterStatusCapabilityERSt3mapINSt7__cxx1112basic_stringIcSt11char_traitsIcESaIcEEEN5boost3anyESt4lessIS6_ESaISt4pairIKS6_S8_EEE
libes2command.so:_ZN13CESCI2Scanner44GetLengthDoubleFeedDetectionLengthCapabilityERSt3mapINSt7__cxx1112basic_stringIcSt11char_traitsIcESaIcEEEN5boost3anyESt4lessIS6_ESaISt4pairIKS6_S8_EEE
libes2command.so:_ZN13CESCI2Scanner46GetMinDoubleFeedDetectionRangeLengthCapabilityERSt3mapINSt7__cxx1112basic_stringIcSt11char_traitsIcESaIcEEEN5boost3anyESt4lessIS6_ESaISt4pairIKS6_S8_EEE
libes2command.so:_ZN13CESCI2Scanner4OpenEv
libes2command.so:_ZN13CESCI2Scanner4ScanEv
libes2command.so:_ZN13CESCI2Scanner5AbortEv
libes2command.so:_ZN13CESCI2Scanner5CloseEv
libes2command.so:_ZN13CESCI2Scanner5ResetEv
libes2command.so:_ZN13CESCI2Scanner6CancelEv
libes2command.so:_ZN13CESCI2ScannerC1Ev
libes2command.so:_ZN13CESCI2ScannerC2Ev
libes2command.so:_ZN13CESCI2ScannerD0Ev
libes2command.so:_ZN13CESCI2ScannerD1Ev
libes2command.so:_ZN13CESCI2ScannerD2Ev
libes2command.so:_ZN13CESCIAccessor10DoCleaningEv
libes2command.so:_ZN13CESCIAccessor10GetJobModeEv
libes2command.so:_ZN13CESCIAccessor10GetVersionB5cxx11Ev
libes2command.so:_ZN13CESCIAccessor10IsCapturedEv
libes2command.so:_ZN13CESCIAccessor10SetJobModeEh
libes2command.so:_ZN13CESCIAccessor11DoAutoFocusEPf
libes2command.so:_ZN13CESCIAccessor11GetBitDepthEv
libes2command.so:_ZN13CESCIAccessor11GetFilmTypeEv
libes2command.so:_ZN13CESCIAccessor11GetIdentityEv
libes2command.so:_ZN13CESCIAccessor11GetLampModeEv
libes2command.so:_ZN13CESCIAccessor11GetMaxFocusEv
libes2command.so:_ZN13CESCIAccessor11GetMinFocusEv
libes2command.so:_ZN13CESCIAccessor11GetScanAreaEv
libes2command.so:_ZN13CESCIAccessor11GetScanSizeEv
libes2command.so:_ZN13CESCIAccessor11IsWarmingUpEv
libes2command.so:_ZN13CESCIAccessor11SetBitDepthEh
libes2command.so:_ZN13CESCIAccessor11SetCapturedEb
libes2command.so:_ZN13CESCIAccessor11SetFilmTypeEi
libes2command.so:_ZN13CESCIAccessor11SetLampModeEi
libes2command.so:_ZN13CESCIAccessor11SetScanAreaE8stESRectIfE
libes2command.so:_ZN13CESCIAccessor11SetScanAreaE8stESRectIfEb
libes2command.so:_ZN13CESCIAccessor11SetScanSizeE8stESSizeIfE
libes2command.so:_ZN13CESCIAccessor12GetColorModeEv
libes2command.so:_ZN13CESCIAccessor12GetGammaModeEv
libes2command.so:_ZN13CESCIAccessor12GetHalftonesEv
libes2command.so:_ZN13CESCIAccessor12GetQuietModeEv
libes2command.so:_ZN13CESCIAccessor12GetThresholdEv
libes2command.so:_ZN13CESCIAccessor12SetColorModeEh
libes2command.so:_ZN13CESCIAccessor12SetGammaModeEi
libes2command.so:_ZN13CESCIAccessor12SetHalftonesEi
libes2command.so:_ZN13CESCIAccessor12SetQuietModeEi
libes2command.so:_ZN13CESCIAccessor12SetThresholdEi
libes2command.so:_ZN13CESCIAccessor13DoCalibrationEv
libes2command.so:_ZN13CESCIAccessor13GetBufferSizeEv
libes2command.so:_ZN13CESCIAccessor13GetDigitalICEEv
libes2command.so:_ZN13CESCIAccessor13GetDuplexTypeEv
libes2command.so:_ZN13CESCIAccessor13ScanForNormalEv
libes2command.so:_ZN13CESCIAccessor13SetBufferSizeEi
libes2command.so:_ZN13CESCIAccessor13SetDigitalICEEi
libes2command.so:_ZN13CESCIAccessor13SetGammaTableERKSt5dequeIiSaIiEEh
libes2command.so:_ZN13CESCIAccessor13StopJobInModeEh
libes2command.so:_ZN13CESCIAccessor14CaptureScannerEv
libes2command.so:_ZN13CESCIAccessor14GetColorFormatEv
libes2command.so:_ZN13CESCIAccessor14GetColorMatrixEv
libes2command.so:_ZN13CESCIAccessor14GetErrorStatusEv
libes2command.so:_ZN13CESCIAccessor14GetExtIdentityEv
libes2command.so:_ZN13CESCIAccessor14GetMaxScanSizeEv
libes2command.so:_ZN13CESCIAccessor14GetProductNameB5cxx11Ev
libes2command.so:_ZN13CESCIAccessor14GetScanCounterEv
libes2command.so:_ZN13CESCIAccessor14GetXResolutionEv
libes2command.so:_ZN13CESCIAccessor14GetYResolutionEv
libes2command.so:_ZN13CESCIAccessor14ReleaseScannerEv
libes2command.so:_ZN13CESCIAccessor14ScanForFilmICEEv
libes2command.so:_ZN13CESCIAccessor14SetColorFormatEi
libes2command.so:_ZN13CESCIAccessor14SetColorMatrixESt5dequeIfSaIfEE
libes2command.so:_ZN13CESCIAccessor14SetScanCounterEi
libes2command.so:_ZN13CESCIAccessor14SetXResolutionEi
libes2command.so:_ZN13CESCIAccessor14SetYResolutionEi
libes2command.so:_ZN13CESCIAccessor14StartJobInModeEh
libes2command.so:_ZN13CESCIAccessor15GetAuthPasswordB5cxx11Ev
libes2command.so:_ZN13CESCIAccessor15GetAuthUserNameB5cxx11Ev
libes2command.so:_ZN13CESCIAccessor15GetBitsPerPixelEv
libes2command.so:_ZN13CESCIAccessor15GetButtonStatusEv
libes2command.so:_ZN13CESCIAccessor15GetLamp1CounterEv
libes2command.so:_ZN13CESCIAccessor15GetLamp2CounterEv
libes2command.so:_ZN13CESCIAccessor15GetPowerOffTimeEv
libes2command.so:_ZN13CESCIAccessor15GetScanningModeEv
libes2command.so:_ZN13CESCIAccessor15IsDuplexEnabledEv
libes2command.so:_ZN13CESCIAccessor15IsFeederEnabledEv
libes2command.so:_ZN13CESCIAccessor15ScanForPrintICEEv
libes2command.so:_ZN13CESCIAccessor15SetAuthPasswordENSt7__cxx1112basic_stringIcSt11char_traitsIcESaIcEEE
libes2command.so:_ZN13CESCIAccessor15SetAuthUserNameENSt7__cxx1112basic_stringIcSt11char_traitsIcESaIcEEE
libes2command.so:_ZN13CESCIAccessor15SetLamp1CounterEi
libes2command.so:_ZN13CESCIAccessor15SetLamp2CounterEi
libes2command.so:_ZN13CESCIAccessor15SetPowerOffTimeEi
libes2command.so:_ZN13CESCIAccessor15SetScanningModeEi
libes2command.so:_ZN13CESCIAccessor16ApplyColorMatrixERN12ES_CMN_FUNCS6BUFFER9IESBufferEj
libes2command.so:_ZN13CESCIAccessor16GetBitsPerSampleEv
libes2command.so:_ZN13CESCIAccessor16GetGammaTableRedEv
libes2command.so:_ZN13CESCIAccessor16GetGuidePositionEv
libes2command.so:_ZN13CESCIAccessor16GetOptionControlEv
libes2command.so:_ZN13CESCIAccessor16GetXOffsetMarginEv
libes2command.so:_ZN13CESCIAccessor16GetYOffsetMarginEv
libes2command.so:_ZN13CESCIAccessor16IsDocumentLoadedEv
libes2command.so:_ZN13CESCIAccessor16SetDuplexEnabledEb
libes2command.so:_ZN13CESCIAccessor16SetGammaTableRedESt5dequeIiSaIiEE
libes2command.so:_ZN13CESCIAccessor16SetOptionControlEh
libes2command.so:_ZN13CESCIAccessor16SetXOffsetMarginEf
libes2command.so:_ZN13CESCIAccessor16SetYOffsetMarginEf
libes2command.so:_ZN13CESCIAccessor17GetGammaTableBlueEv
libes2command.so:_ZN13CESCIAccessor17GetGammaTableMonoEv
libes2command.so:_ZN13CESCIAccessor17IsAutoScanEnabledEv
libes2command.so:_ZN13CESCIAccessor17IsDuplexSupportedEv
libes2command.so:_ZN13CESCIAccessor17IsFeederSupportedEv
libes2command.so:_ZN13CESCIAccessor17IsOverScanEnabledEv
libes2command.so:_ZN13CESCIAccessor17ScanForDigitalICEEv
libes2command.so:_ZN13CESCIAccessor17SetGammaTableBlueESt5dequeIiSaIiEE
libes2command.so:_ZN13CESCIAccessor17SetGammaTableMonoESt5dequeIiSaIiEE
libes2command.so:_ZN13CESCIAccessor17StopJobInContinueEv
libes2command.so:_ZN13CESCIAccessor17StopJobInStandardEv
libes2command.so:_ZN13CESCIAccessor18DeviceDisconnectedEv
libes2command.so:_ZN13CESCIAccessor18GetGammaTableGreenEv
libes2command.so:_ZN13CESCIAccessor18GetGuidePositionFBEv
libes2command.so:_ZN13CESCIAccessor18GetSamplesPerPixelEv
libes2command.so:_ZN13CESCIAccessor18GetScanAreaInPixelEv
libes2command.so:_ZN13CESCIAccessor18GetScanSizeInPixelEv
libes2command.so:_ZN13CESCIAccessor18IsFlatbedSupportedEv
libes2command.so:_ZN13CESCIAccessor18SetAutoScanEnabledEb
libes2command.so:_ZN13CESCIAccessor18SetGammaTableGreenESt5dequeIiSaIiEE
libes2command.so:_ZN13CESCIAccessor18SetGuidePositionFBEi
libes2command.so:_ZN13CESCIAccessor18SetOverScanEnabledEb
libes2command.so:_ZN13CESCIAccessor18SetScanAreaInPixelE8stESRectIjE
libes2command.so:_ZN13CESCIAccessor18SetScanAreaInPixelE8stESRectIjEb
libes2command.so:_ZN13CESCIAccessor18SetScanSizeInPixelE8stESSizeIjE
libes2command.so:_ZN13CESCIAccessor18StartJobInContinueEv
libes2command.so:_ZN13CESCIAccessor18StartJobInStandardEv
libes2command.so:_ZN13CESCIAccessor18StopButtonCheckingEv
libes2command.so:_ZN13CESCIAccessor19CreateImageInstanceEv
libes2command.so:_ZN13CESCIAccessor19GetGuidePositionADFEv
libes2command.so:_ZN13CESCIAccessor19GetLightIntensityFBEv
libes2command.so:_ZN13CESCIAccessor19GetPagesToBeScannedEv
libes2command.so:_ZN13CESCIAccessor19IsAutoScanSupportedEv
libes2command.so:_ZN13CESCIAccessor19IsCleaningSupportedEv
libes2command.so:_ZN13CESCIAccessor19IsPowerOffSupportedEv
libes2command.so:_ZN13CESCIAccessor19SetGuidePositionADFEi
libes2command.so:_ZN13CESCIAccessor19SetLightIntensityFBEi
libes2command.so:_ZN13CESCIAccessor19SetPagesToBeScannedEi
libes2command.so:_ZN13CESCIAccessor19StartButtonCheckingEv
libes2command.so:_ZN13CESCIAccessor20GetDuplexScanCounterEv
libes2command.so:_ZN13CESCIAccessor20GetOpticalResolutionEv
libes2command.so:_ZN13CESCIAccessor20IsDisableJobContinueEv
libes2command.so:_ZN13CESCIAccessor20IsQuietModeSupportedEv
libes2command.so:_ZN13CESCIAccessor20SetDuplexScanCounterEi
libes2command.so:_ZN13CESCIAccessor21GetFunctionalUnitTypeEv
libes2command.so:_ZN13CESCIAccessor21GetSimplexScanCounterEv
libes2command.so:_ZN13CESCIAccessor21GetSupportedFilmTypesEv
libes2command.so:_ZN13CESCIAccessor21GetSupportedHalftonesEv
libes2command.so:_ZN13CESCIAccessor21GetSupportedLampModesEv
libes2command.so:_ZN13CESCIAccessor21GetSupportedThresholdEv
libes2command.so:_ZN13CESCIAccessor21IsLampChangeSupportedEv
libes2command.so:_ZN13CESCIAccessor21IsPushButtonSupportedEv
libes2command.so:_ZN13CESCIAccessor21RequestSetGammaTablesEv
libes2command.so:_ZN13CESCIAccessor21ScanForDocumentFeederEv
libes2command.so:_ZN13CESCIAccessor21SetDisableJobContinueEb
libes2command.so:_ZN13CESCIAccessor21SetFunctionalUnitTypeEi
libes2command.so:_ZN13CESCIAccessor21SetScanningParametersEv
libes2command.so:_ZN13CESCIAccessor21SetSimplexScanCounterEi
libes2command.so:_ZN13CESCIAccessor22GetDoubleFeedDetectionEv
libes2command.so:_ZN13CESCIAccessor22GetPickupRollerCounterEv
libes2command.so:_ZN13CESCIAccessor22GetSupportedGammaModesEv
libes2command.so:_ZN13CESCIAccessor22GetSupportedQuietModesEv
libes2command.so:_ZN13CESCIAccessor22IsCalibrationSupportedEv
libes2command.so:_ZN13CESCIAccessor22SetDoubleFeedDetectionEi
libes2command.so:_ZN13CESCIAccessor22SetPickupRollerCounterEi
libes2command.so:_ZN13CESCIAccessor23GetDetectedDocumentSizeEv
libes2command.so:_ZN13CESCIAccessor23GetSupportedDigitalICEsEv
libes2command.so:_ZN13CESCIAccessor23IsAuthenticationEnabledEv
libes2command.so:_ZN13CESCIAccessor23IsInfraRedLampSupportedEv
libes2command.so:_ZN13CESCIAccessor24GetSupportedColorFormatsEv
libes2command.so:_ZN13CESCIAccessor24GetSupportedXResolutionsEv
libes2command.so:_ZN13CESCIAccessor24GetSupportedYResolutionsEv
libes2command.so:_ZN13CESCIAccessor24SetAuthenticationEnabledEb
libes2command.so:_ZN13CESCIAccessor25ButtonObservationIntervalEv
libes2command.so:_ZN13CESCIAccessor25IsAuthenticationSupportedEv
libes2command.so:_ZN13CESCIAccessor25IsCaptureCommandSupportedEv
libes2command.so:_ZN13CESCIAccessor26GetMaxScanSizeInLongLengthEv
libes2command.so:_ZN13CESCIAccessor26IsPaperEndDetectionEnabledEv
libes2command.so:_ZN13CESCIAccessor26SetCaptureCommandSupportedEb
libes2command.so:_ZN13CESCIAccessor26SetMaxScanSizeInLongLengthE8stESSizeIfE
libes2command.so:_ZN13CESCIAccessor27IsTransparencyUnitSupportedEv
libes2command.so:_ZN13CESCIAccessor27SetPaperEndDetectionEnabledEb
libes2command.so:_ZN13CESCIAccessor28IsPageFeedTypeDocumentFeederEv
libes2command.so:_ZN13CESCIAccessor28IsPaperEndDetectionSupportedEv
libes2command.so:_ZN13CESCIAccessor29CreateScanningParametersParamERN12CESCICommand26ST_ESCI_SCANNING_PARAMETERE
libes2command.so:_ZN13CESCIAccessor30GetSupportedLightIntensitiesFBEv
libes2command.so:_ZN13CESCIAccessor30IsDoubleFeedDetectionSupportedEv
libes2command.so:_ZN13CESCIAccessor30ShouldObserveButtonWithCommandEb
libes2command.so:_ZN13CESCIAccessor31GetSupportedFunctionalUnitTypesEv
libes2command.so:_ZN13CESCIAccessor31IsShouldIgnoreCancelFromScannerEv
libes2command.so:_ZN13CESCIAccessor32GetSupportedDoubleFeedDetectionsEv
libes2command.so:_ZN13CESCIAccessor32IsDocumentSizeDetectionSupportedEv
libes2command.so:_ZN13CESCIAccessor32SetShouldIgnoreCancelFromScannerEb
libes2command.so:_ZN13CESCIAccessor34IsTransparencyUnit2ndAreaSupportedEv
libes2command.so:_ZN13CESCIAccessor4OpenEv
libes2command.so:_ZN13CESCIAccessor4ScanEv
libes2command.so:_ZN13CESCIAccessor5CloseEv
libes2command.so:_ZN13CESCIAccessor5ResetEv
libes2command.so:_ZN13CESCIAccessor5SetupEv
libes2command.so:_ZN13CESCIAccessor6CancelEv
libes2command.so:_ZN13CESCIAccessor6IsDumbEv
libes2command.so:_ZN13CESCIAccessor8FinalizeEv
libes2command.so:_ZN13CESCIAccessor8GetFocusEv
libes2command.so:_ZN13CESCIAccessor8SetFocusEf
libes2command.so:_ZN13CESCIAccessor9GetStatusEv
libes2command.so:_ZN13CESCIAccessor9IsPrefeedEv
libes2command.so:_ZN13CESCIAccessorC1Ev
libes2command.so:_ZN13CESCIAccessorC2Ev
libes2command.so:_ZN13CESCIAccessorD0Ev
libes2command.so:_ZN13CESCIAccessorD1Ev
libes2command.so:_ZN13CESCIAccessorD2Ev
libes2command.so:_ZN14CESCI2Accessor10DoCleaningEv
libes2command.so:_ZN14CESCI2Accessor10GetBGColorEv
libes2command.so:_ZN14CESCI2Accessor10GetExtInfoEv
libes2command.so:_ZN14CESCI2Accessor10GetJobModeEv
libes2command.so:_ZN14CESCI2Accessor10GetResultsEv
libes2command.so:_ZN14CESCI2Accessor10GetVersionB5cxx11Ev
libes2command.so:_ZN14CESCI2Accessor10InitializeEv
libes2command.so:_ZN14CESCI2Accessor10ScanForAFMEv
libes2command.so:_ZN14CESCI2Accessor10SetBGColorEi
libes2command.so:_ZN14CESCI2Accessor10SetJobModeEh
libes2command.so:_ZN14CESCI2Accessor11DoAutoFocusEPf
libes2command.so:_ZN14CESCI2Accessor11GetContrastEv
libes2command.so:_ZN14CESCI2Accessor11GetFilmTypeEv
libes2command.so:_ZN14CESCI2Accessor11GetMaxFocusEv
libes2command.so:_ZN14CESCI2Accessor11GetMinFocusEv
libes2command.so:_ZN14CESCI2Accessor11GetScanAreaEv
libes2command.so:_ZN14CESCI2Accessor11GetScanSizeEv
libes2command.so:_ZN14CESCI2Accessor11ScanForAFMCEv
libes2command.so:_ZN14CESCI2Accessor11SetContrastEi
libes2command.so:_ZN14CESCI2Accessor11SetFilmTypeEi
libes2command.so:_ZN14CESCI2Accessor11SetScanAreaE8stESRectIfE
libes2command.so:_ZN14CESCI2Accessor11SetScanAreaE8stESRectIfEb
libes2command.so:_ZN14CESCI2Accessor11SetScanSizeE8stESSizeIfE
libes2command.so:_ZN14CESCI2Accessor12GetErrorCodeEv
libes2command.so:_ZN14CESCI2Accessor12GetGammaModeEv
libes2command.so:_ZN14CESCI2Accessor12GetQuietModeEv
libes2command.so:_ZN14CESCI2Accessor12GetThresholdEv
libes2command.so:_ZN14CESCI2Accessor12IsCompressedEv
libes2command.so:_ZN14CESCI2Accessor12SetGammaModeEi
libes2command.so:_ZN14CESCI2Accessor12SetQuietModeEi
libes2command.so:_ZN14CESCI2Accessor12SetThresholdEi
libes2command.so:_ZN14CESCI2Accessor13DidDisconnectEv
libes2command.so:_ZN14CESCI2Accessor13DoCalibrationEv
libes2command.so:_ZN14CESCI2Accessor13GetBrightnessEv
libes2command.so:_ZN14CESCI2Accessor13GetBufferSizeEv
libes2command.so:_ZN14CESCI2Accessor13GetDuplexTypeEv
libes2command.so:_ZN14CESCI2Accessor13GetGammaScaleEv
libes2command.so:_ZN14CESCI2Accessor13IsFeedTypeADFEv
libes2command.so:_ZN14CESCI2Accessor13ScanInContextEv
libes2command.so:_ZN14CESCI2Accessor13SetAfmEnabledEb
libes2command.so:_ZN14CESCI2Accessor13SetBrightnessEi
libes2command.so:_ZN14CESCI2Accessor13SetBufferSizeEi
libes2command.so:_ZN14CESCI2Accessor13SetGammaScaleEi
libes2command.so:_ZN14CESCI2Accessor13SetGammaTableESt5dequeIiSaIiEEh
libes2command.so:_ZN14CESCI2Accessor13StopJobInModeEh
libes2command.so:_ZN14CESCI2Accessor13TransferImageEv
libes2command.so:_ZN14CESCI2Accessor14CaptureScannerEv
libes2command.so:_ZN14CESCI2Accessor14GetColorFormatEv
libes2command.so:_ZN14CESCI2Accessor14GetColorMatrixEv
libes2command.so:_ZN14CESCI2Accessor14GetErrorStatusEv
libes2command.so:_ZN14CESCI2Accessor14GetImageFormatEv
libes2command.so:_ZN14CESCI2Accessor14GetJPEGQualityEv
libes2command.so:_ZN14CESCI2Accessor14GetMaxScanSizeEv
libes2command.so:_ZN14CESCI2Accessor14GetMinScanSizeEv
libes2command.so:_ZN14CESCI2Accessor14GetProductNameB5cxx11Ev
libes2command.so:_ZN14CESCI2Accessor14GetScanCounterEv
libes2command.so:_ZN14CESCI2Accessor14GetXResolutionEv
libes2command.so:_ZN14CESCI2Accessor14GetYResolutionEv
libes2command.so:_ZN14CESCI2Accessor14IsGuidelessADFEv
libes2command.so:_ZN14CESCI2Accessor14ReleaseScannerEv
libes2command.so:_ZN14CESCI2Accessor14SetColorFormatEi
libes2command.so:_ZN14CESCI2Accessor14SetColorMatrixESt5dequeIfSaIfEE
libes2command.so:_ZN14CESCI2Accessor14SetImageFormatEi
libes2command.so:_ZN14CESCI2Accessor14SetJPEGQualityEi
libes2command.so:_ZN14CESCI2Accessor14SetScanCounterEi
libes2command.so:_ZN14CESCI2Accessor14SetXResolutionEi
libes2command.so:_ZN14CESCI2Accessor14SetYResolutionEi
libes2command.so:_ZN14CESCI2Accessor14StartJobInModeEh
libes2command.so:_ZN14CESCI2Accessor15GetAuthPasswordB5cxx11Ev
libes2command.so:_ZN14CESCI2Accessor15GetAuthUserNameB5cxx11Ev
libes2command.so:_ZN14CESCI2Accessor15GetBitsPerPixelEv
libes2command.so:_ZN14CESCI2Accessor15GetCapabilitiesEv
libes2command.so:_ZN14CESCI2Accessor15GetCroppingSizeEv
libes2command.so:_ZN14CESCI2Accessor15GetPowerOffTimeEv
libes2command.so:_ZN14CESCI2Accessor15GetScanningModeEv
libes2command.so:_ZN14CESCI2Accessor15GetSerialNumberB5cxx11Ev
libes2command.so:_ZN14CESCI2Accessor15IsDuplexEnabledEv
libes2command.so:_ZN14CESCI2Accessor15IsFeederEnabledEv
libes2command.so:_ZN14CESCI2Accessor15SetAuthPasswordENSt7__cxx1112basic_stringIcSt11char_traitsIcESaIcEEE
libes2command.so:_ZN14CESCI2Accessor15SetAuthUserNameENSt7__cxx1112basic_stringIcSt11char_traitsIcESaIcEEE
libes2command.so:_ZN14CESCI2Accessor15SetCroppingSizeEf
libes2command.so:_ZN14CESCI2Accessor15SetPowerOffTimeEi
libes2command.so:_ZN14CESCI2Accessor15SetScanningModeEi
libes2command.so:_ZN14CESCI2Accessor15_SetColorMatrixERA3_A3_f
libes2command.so:_ZN14CESCI2Accessor16GetBatteryStatusEv
libes2command.so:_ZN14CESCI2Accessor16GetBitsPerSampleEv
libes2command.so:_ZN14CESCI2Accessor16GetDirectPowerOnEv
libes2command.so:_ZN14CESCI2Accessor16GetEdgeFillColorEv
libes2command.so:_ZN14CESCI2Accessor16GetGammaTableRedEv
libes2command.so:_ZN14CESCI2Accessor16GetGuidePositionEv
libes2command.so:_ZN14CESCI2Accessor16GetPowerSaveTimeEv
libes2command.so:_ZN14CESCI2Accessor16GetWarningStatusEv
libes2command.so:_ZN14CESCI2Accessor16GetXOffsetMarginEv
libes2command.so:_ZN14CESCI2Accessor16GetYOffsetMarginEv
libes2command.so:_ZN14CESCI2Accessor16IsDocumentLoadedEv
libes2command.so:_ZN14CESCI2Accessor16SetDirectPowerOnEi
libes2command.so:_ZN14CESCI2Accessor16SetDuplexEnabledEb
libes2command.so:_ZN14CESCI2Accessor16SetEdgeFillColorEi
libes2command.so:_ZN14CESCI2Accessor16SetGammaTableRedESt5dequeIiSaIiEE
libes2command.so:_ZN14CESCI2Accessor16SetPowerSaveTimeEi
libes2command.so:_ZN14CESCI2Accessor16SetXOffsetMarginEf
libes2command.so:_ZN14CESCI2Accessor16SetYOffsetMarginEf
libes2command.so:_ZN14CESCI2Accessor17AbortImageHandlesEv
libes2command.so:_ZN14CESCI2Accessor17GetGammaTableBlueEv
libes2command.so:_ZN14CESCI2Accessor17GetGammaTableMonoEv
libes2command.so:_ZN14CESCI2Accessor17GetMaxImagePixelsEv
libes2command.so:_ZN14CESCI2Accessor17GetSharpnessLevelEv
libes2command.so:_ZN14CESCI2Accessor17IsDuplexSupportedEv
libes2command.so:_ZN14CESCI2Accessor17IsFeederSupportedEv
libes2command.so:_ZN14CESCI2Accessor17IsOverScanEnabledEv
libes2command.so:_ZN14CESCI2Accessor17ParametersForScanERSt3mapINSt7__cxx1112basic_stringIcSt11char_traitsIcESaIcEEEN5boost3anyESt4lessIS6_ESaISt4pairIKS6_S8_EEE
libes2command.so:_ZN14CESCI2Accessor17SetGammaTableBlueESt5dequeIiSaIiEE
libes2command.so:_ZN14CESCI2Accessor17SetGammaTableMonoESt5dequeIiSaIiEE
libes2command.so:_ZN14CESCI2Accessor17SetSharpnessLevelEi
libes2command.so:_ZN14CESCI2Accessor17StopJobInContinueEv
libes2command.so:_ZN14CESCI2Accessor17StopJobInStandardEv
libes2command.so:_ZN14CESCI2Accessor17StopScanningInAFMEv
libes2command.so:_ZN14CESCI2Accessor18DeviceDisconnectedEv
libes2command.so:_ZN14CESCI2Accessor18GetColorMatrixModeEv
libes2command.so:_ZN14CESCI2Accessor18GetGammaTableGreenEv
libes2command.so:_ZN14CESCI2Accessor18GetMaintenanceInfoEv
libes2command.so:_ZN14CESCI2Accessor18GetPaperJamCounterEv
libes2command.so:_ZN14CESCI2Accessor18GetPowerOffTime2ndEv
libes2command.so:_ZN14CESCI2Accessor18GetSamplesPerPixelEv
libes2command.so:_ZN14CESCI2Accessor18GetScanAreaInPixelEv
libes2command.so:_ZN14CESCI2Accessor18GetScanSizeInPixelEv
libes2command.so:_ZN14CESCI2Accessor18GetSensorGlassSTATB5cxx11Ev
libes2command.so:_ZN14CESCI2Accessor18IsAdfLoadSupportedEv
libes2command.so:_ZN14CESCI2Accessor18IsAdminLockEnabledEv
libes2command.so:_ZN14CESCI2Accessor18IsSkipImageEnabledEv
libes2command.so:_ZN14CESCI2Accessor18ProcessPageEndInfoERSt3mapINSt7__cxx1112basic_stringIcSt11char_traitsIcESaIcEEEN5boost3anyESt4lessIS6_ESaISt4pairIKS6_S8_EEERS6_bPSt5dequeIS8_SaIS8_EE
libes2command.so:_ZN14CESCI2Accessor18SetColorMatrixModeEi
libes2command.so:_ZN14CESCI2Accessor18SetGammaTableGreenESt5dequeIiSaIiEE
libes2command.so:_ZN14CESCI2Accessor18SetOverScanEnabledEb
libes2command.so:_ZN14CESCI2Accessor18SetPaperJamCounterEi
libes2command.so:_ZN14CESCI2Accessor18SetPowerOffTime2ndEi
libes2command.so:_ZN14CESCI2Accessor18SetScanAreaInPixelE8stESRectIjE
libes2command.so:_ZN14CESCI2Accessor18SetScanAreaInPixelE8stESRectIjEb
libes2command.so:_ZN14CESCI2Accessor18SetScanSizeInPixelE8stESSizeIjE
libes2command.so:_ZN14CESCI2Accessor18StartJobInContinueEv
libes2command.so:_ZN14CESCI2Accessor18StartJobInStandardEv
libes2command.so:_ZN14CESCI2Accessor18StartScanningInAFMEv
libes2command.so:_ZN14CESCI2Accessor18StopButtonCheckingEv
libes2command.so:_ZN14CESCI2Accessor18StopScanningInAFMCEv
libes2command.so:_ZN14CESCI2Accessor18WaitUntilSetForcusEPf
libes2command.so:_ZN14CESCI2Accessor19DisposeImageHandlesEv
libes2command.so:_ZN14CESCI2Accessor19GetCardScanningSTATB5cxx11Ev
libes2command.so:_ZN14CESCI2Accessor19GetColorCounterTypeEv
libes2command.so:_ZN14CESCI2Accessor19GetEdgeFillWidthTopEv
libes2command.so:_ZN14CESCI2Accessor19GetPagesToBeScannedEv
libes2command.so:_ZN14CESCI2Accessor19GetRollerKitCounterEv
libes2command.so:_ZN14CESCI2Accessor19GetRollerKitNearendEv
libes2command.so:_ZN14CESCI2Accessor19IsAutoScanSupportedEv
libes2command.so:_ZN14CESCI2Accessor19IsCleaningSupportedEv
libes2command.so:_ZN14CESCI2Accessor19IsOverScanSupportedEv
libes2command.so:_ZN14CESCI2Accessor19SetColorCounterTypeEi
libes2command.so:_ZN14CESCI2Accessor19SetEdgeFillWidthTopEf
libes2command.so:_ZN14CESCI2Accessor19SetPagesToBeScannedEi
libes2command.so:_ZN14CESCI2Accessor19SetRollerKitCounterEi
libes2command.so:_ZN14CESCI2Accessor19SetSkipImageEnabledEb
libes2command.so:_ZN14CESCI2Accessor19StartButtonCheckingEv
libes2command.so:_ZN14CESCI2Accessor19StartScanningInAFMCEv
libes2command.so:_ZN14CESCI2Accessor20GetAdminLockPasswordB5cxx11Ev
libes2command.so:_ZN14CESCI2Accessor20GetBackGroundRemovalEv
libes2command.so:_ZN14CESCI2Accessor20GetClientApplicationEv
libes2command.so:_ZN14CESCI2Accessor20GetDuplexScanCounterEv
libes2command.so:_ZN14CESCI2Accessor20GetEdgeFillWidthLeftEv
libes2command.so:_ZN14CESCI2Accessor20GetMaintenanceStatusEv
libes2command.so:_ZN14CESCI2Accessor20GetOpticalResolutionEv
libes2command.so:_ZN14CESCI2Accessor20GetSensorGlassStatusEv
libes2command.so:_ZN14CESCI2Accessor20GetSupportedBGColorsEv
libes2command.so:_ZN14CESCI2Accessor20GetSupportedContrastEv
libes2command.so:_ZN14CESCI2Accessor20GetSupportedFilmTypeEv
libes2command.so:_ZN14CESCI2Accessor20GetSupportedJobModesEv
libes2command.so:_ZN14CESCI2Accessor20IsAdminLockSupportedEv
libes2command.so:_ZN14CESCI2Accessor20IsAutoFocusSupportedEv
libes2command.so:_ZN14CESCI2Accessor20IsDisableJobContinueEv
libes2command.so:_ZN14CESCI2Accessor20IsErrorCodeSupportedEv
libes2command.so:_ZN14CESCI2Accessor20IsLegacyAFMSupportedEv
libes2command.so:_ZN14CESCI2Accessor20IsPowerSaveSupportedEv
libes2command.so:_ZN14CESCI2Accessor20IsSkipImageSupportedEv
libes2command.so:_ZN14CESCI2Accessor20ProcessPageStartInfoERSt3mapINSt7__cxx1112basic_stringIcSt11char_traitsIcESaIcEEEN5boost3anyESt4lessIS6_ESaISt4pairIKS6_S8_EEEPSt5dequeIS8_SaIS8_EERS6_
libes2command.so:_ZN14CESCI2Accessor20SetAdminLockPasswordENSt7__cxx1112basic_stringIcSt11char_traitsIcESaIcEEE
libes2command.so:_ZN14CESCI2Accessor20SetBackGroundRemovalEi
libes2command.so:_ZN14CESCI2Accessor20SetClientApplicationEi
libes2command.so:_ZN14CESCI2Accessor20SetDuplexScanCounterEi
libes2command.so:_ZN14CESCI2Accessor20SetEdgeFillWidthLeftEf
libes2command.so:_ZN14CESCI2Accessor21ErrorsForInterruptionEv
libes2command.so:_ZN14CESCI2Accessor21GetADFPaperProtectionEv
libes2command.so:_ZN14CESCI2Accessor21GetDocumentSeparationEv
libes2command.so:_ZN14CESCI2Accessor21GetEdgeFillWidthRightEv
libes2command.so:_ZN14CESCI2Accessor21GetFunctionalUnitTypeEv
libes2command.so:_ZN14CESCI2Accessor21GetLaminatedPaperModeEv
libes2command.so:_ZN14CESCI2Accessor21GetLightIntensityBackEv
libes2command.so:_ZN14CESCI2Accessor21GetMaxLongLengthTableB5cxx11Ev
libes2command.so:_ZN14CESCI2Accessor21GetNonConnectPowerOffEv
libes2command.so:_ZN14CESCI2Accessor21GetRollerKitLifeLimitEv
libes2command.so:_ZN14CESCI2Accessor21GetSimplexScanCounterEv
libes2command.so:_ZN14CESCI2Accessor21GetSupportedThresholdEv
libes2command.so:_ZN14CESCI2Accessor21IsAutoCroppingEnabledEv
libes2command.so:_ZN14CESCI2Accessor21IsCardScanningEnabledEv
libes2command.so:_ZN14CESCI2Accessor21IsInterruptionEnabledEv
libes2command.so:_ZN14CESCI2Accessor21LockAdministratorLockEv
libes2command.so:_ZN14CESCI2Accessor21ProcessImageDataBlockERN12ES_CMN_FUNCS6BUFFER13CESHeapBufferERNSt7__cxx1112basic_stringIcSt11char_traitsIcESaIcEEE
libes2command.so:_ZN14CESCI2Accessor21SetADFPaperProtectionEi
libes2command.so:_ZN14CESCI2Accessor21SetDisableJobContinueEb
libes2command.so:_ZN14CESCI2Accessor21SetEdgeFillWidthRightEf
libes2command.so:_ZN14CESCI2Accessor21SetFunctionalUnitTypeEi
libes2command.so:_ZN14CESCI2Accessor21SetLaminatedPaperModeEi
libes2command.so:_ZN14CESCI2Accessor21SetLightIntensityBackEi
libes2command.so:_ZN14CESCI2Accessor21SetNonConnectPowerOffEi
libes2command.so:_ZN14CESCI2Accessor21SetSimplexScanCounterEi
libes2command.so:_ZN14CESCI2Accessor22DidRequestGetImageDataEv
libes2command.so:_ZN14CESCI2Accessor22DidRequestStopScanningEv
libes2command.so:_ZN14CESCI2Accessor22GetDefaultPasswordTypeEv
libes2command.so:_ZN14CESCI2Accessor22GetDeviceMaxBufferSizeEv
libes2command.so:_ZN14CESCI2Accessor22GetDoubleFeedDetectionEv
libes2command.so:_ZN14CESCI2Accessor22GetEdgeFillWidthBottomEv
libes2command.so:_ZN14CESCI2Accessor22GetFlatbedLamp1CounterEv
libes2command.so:_ZN14CESCI2Accessor22GetFlatbedLamp2CounterEv
libes2command.so:_ZN14CESCI2Accessor22GetMaintenanceHashTypeEv
libes2command.so:_ZN14CESCI2Accessor22GetPickupRollerCounterEv
libes2command.so:_ZN14CESCI2Accessor22GetPickupRollerNearendEv
libes2command.so:_ZN14CESCI2Accessor22GetRetardRollerCounterEv
libes2command.so:_ZN14CESCI2Accessor22GetRetardRollerNearendEv
libes2command.so:_ZN14CESCI2Accessor22GetScannerPositionSTATB5cxx11Ev
libes2command.so:_ZN14CESCI2Accessor22GetSupportedBrightnessEv
libes2command.so:_ZN14CESCI2Accessor22GetSupportedCapabilityERKj
libes2command.so:_ZN14CESCI2Accessor22GetSupportedGammaModesEv
libes2command.so:_ZN14CESCI2Accessor22GetSupportedGammaScaleEv
libes2command.so:_ZN14CESCI2Accessor22GetSupportedQuietModesEv
libes2command.so:_ZN14CESCI2Accessor22IncludedInDocumentTypeEPSt5dequeIN5boost3anyESaIS2_EEj
libes2command.so:_ZN14CESCI2Accessor22IsCalibrationSupportedEv
libes2command.so:_ZN14CESCI2Accessor22IsManualFocusSupportedEv
libes2command.so:_ZN14CESCI2Accessor22ResetParametersForKeysEPSt5dequeINSt7__cxx1112basic_stringIcSt11char_traitsIcESaIcEEESaIS6_EE
libes2command.so:_ZN14CESCI2Accessor22ScanForAFMInBackgroundEv
libes2command.so:_ZN14CESCI2Accessor22SetAutoCroppingEnabledEb
libes2command.so:_ZN14CESCI2Accessor22SetDoubleFeedDetectionEi
libes2command.so:_ZN14CESCI2Accessor22SetEdgeFillWidthBottomEf
libes2command.so:_ZN14CESCI2Accessor22SetFlatbedLamp1CounterEi
libes2command.so:_ZN14CESCI2Accessor22SetFlatbedLamp2CounterEi
libes2command.so:_ZN14CESCI2Accessor22SetInterruptionEnabledEb
libes2command.so:_ZN14CESCI2Accessor22SetPickupRollerCounterEi
libes2command.so:_ZN14CESCI2Accessor22SetRetardRollerCounterEi
libes2command.so:_ZN14CESCI2Accessor23GetCroppableResolutionsEv
libes2command.so:_ZN14CESCI2Accessor23GetDetectBlankPageLevelEv
libes2command.so:_ZN14CESCI2Accessor23GetDetectedDocumentSizeEv
libes2command.so:_ZN14CESCI2Accessor23GetGammaTableForChannelEh
libes2command.so:_ZN14CESCI2Accessor23GetRollerKitNotifyCountEv
libes2command.so:_ZN14CESCI2Accessor23GetSeparationPadCounterEv
libes2command.so:_ZN14CESCI2Accessor23GetSeparationPadNearendEv
libes2command.so:_ZN14CESCI2Accessor23GetSupportedJPEGQualityEv
libes2command.so:_ZN14CESCI2Accessor23IsAuthenticationEnabledEv
libes2command.so:_ZN14CESCI2Accessor23IsAutoCroppingSupportedEv
libes2command.so:_ZN14CESCI2Accessor23IsCardScanningSupportedEv
libes2command.so:_ZN14CESCI2Accessor23IsDisableKeepingCaptureEv
libes2command.so:_ZN14CESCI2Accessor23IsScannableDeviceConfigEv
libes2command.so:_ZN14CESCI2Accessor23IsSkewCorrectionEnabledEv
libes2command.so:_ZN14CESCI2Accessor23IsSupportedScanningModeEv
libes2command.so:_ZN14CESCI2Accessor23ScanForAFMCInBackgroundEv
libes2command.so:_ZN14CESCI2Accessor23SetDetectBlankPageLevelEi
libes2command.so:_ZN14CESCI2Accessor23SetPanelToPushScanReadyEi
libes2command.so:_ZN14CESCI2Accessor23SetRollerKitNotifyCountEi
libes2command.so:_ZN14CESCI2Accessor23SetSeparationPadCounterEi
libes2command.so:_ZN14CESCI2Accessor23UnlockAdministratorLockEv
libes2command.so:_ZN14CESCI2Accessor24DeviceCommunicationErrorE11ESErrorCode
libes2command.so:_ZN14CESCI2Accessor24DoScanForAFMInBackgroundEPv
libes2command.so:_ZN14CESCI2Accessor24GetCleaningWarningNotifyEv
libes2command.so:_ZN14CESCI2Accessor24GetDuplexCardScanCounterEv
libes2command.so:_ZN14CESCI2Accessor24GetFirstPCConnectionDateB5cxx11Ev
libes2command.so:_ZN14CESCI2Accessor24GetPickupRollerLifeLimitEv
libes2command.so:_ZN14CESCI2Accessor24GetRetardRollerLifeLimitEv
libes2command.so:_ZN14CESCI2Accessor24GetScannerPositionStatusEv
libes2command.so:_ZN14CESCI2Accessor24GetSupportedColorFormatsEv
libes2command.so:_ZN14CESCI2Accessor24GetSupportedImageFormatsEv
libes2command.so:_ZN14CESCI2Accessor24GetSupportedScanCountersEv
libes2command.so:_ZN14CESCI2Accessor24GetSupportedXResolutionsEv
libes2command.so:_ZN14CESCI2Accessor24GetSupportedYResolutionsEv
libes2command.so:_ZN14CESCI2Accessor24IsDetectBlankPageEnabledEv
libes2command.so:_ZN14CESCI2Accessor24IsDetectColorTypeEnabledEv
libes2command.so:_ZN14CESCI2Accessor24IsLengthPaddingSupportedEv
libes2command.so:_ZN14CESCI2Accessor24IsPushScanReadySupportedEv
libes2command.so:_ZN14CESCI2Accessor24SetAuthenticationEnabledEb
libes2command.so:_ZN14CESCI2Accessor24SetCleaningWarningNotifyEi
libes2command.so:_ZN14CESCI2Accessor24SetDisableKeepingCaptureEb
libes2command.so:_ZN14CESCI2Accessor24SetDuplexCardScanCounterEi
libes2command.so:_ZN14CESCI2Accessor24SetFirstPCConnectionDateENSt7__cxx1112basic_stringIcSt11char_traitsIcESaIcEEE
libes2command.so:_ZN14CESCI2Accessor24SetSkewCorrectionEnabledEb
libes2command.so:_ZN14CESCI2Accessor25DoScanForAFMCInBackgroundEPv
libes2command.so:_ZN14CESCI2Accessor25GetAutoFeedingModeTimeoutEv
libes2command.so:_ZN14CESCI2Accessor25GetBehaviorWhenDoubleFeedEv
libes2command.so:_ZN14CESCI2Accessor25GetCleaningWarningCounterEv
libes2command.so:_ZN14CESCI2Accessor25GetDocumentSeparationSTATB5cxx11Ev
libes2command.so:_ZN14CESCI2Accessor25GetImageDoubleFeedCounterEv
libes2command.so:_ZN14CESCI2Accessor25GetPaperProtectionCounterEv
libes2command.so:_ZN14CESCI2Accessor25GetSeparationPadLifeLimitEv
libes2command.so:_ZN14CESCI2Accessor25GetSimplexCardScanCounterEv
libes2command.so:_ZN14CESCI2Accessor25GetSpecialDocumentCounterEv
libes2command.so:_ZN14CESCI2Accessor25GetSupportedCroppingSizesEv
libes2command.so:_ZN14CESCI2Accessor25GetSupportedDirectPowerOnEv
libes2command.so:_ZN14CESCI2Accessor25GetSupportedEdgeFillWidthEv
libes2command.so:_ZN14CESCI2Accessor25GetSupportedGammaChannelsEv
libes2command.so:_ZN14CESCI2Accessor25GetSupportedPowerOffTimesEv
libes2command.so:_ZN14CESCI2Accessor25IsAuthenticationSupportedEv
libes2command.so:_ZN14CESCI2Accessor25IsCaptureCommandSupportedEv
libes2command.so:_ZN14CESCI2Accessor25IsExtInformationSupportedEv
libes2command.so:_ZN14CESCI2Accessor25IsSkewCorrectionSupportedEv
libes2command.so:_ZN14CESCI2Accessor25RequestingUnlockAdminLockEv
libes2command.so:_ZN14CESCI2Accessor25SetAutoFeedingModeTimeoutEi
libes2command.so:_ZN14CESCI2Accessor25SetBehaviorWhenDoubleFeedEi
libes2command.so:_ZN14CESCI2Accessor25SetCleaningWarningCounterEi
libes2command.so:_ZN14CESCI2Accessor25SetDetectBlankPageEnabledEb
libes2command.so:_ZN14CESCI2Accessor25SetDetectColorTypeEnabledEb
libes2command.so:_ZN14CESCI2Accessor25SetImageDoubleFeedCounterEi
libes2command.so:_ZN14CESCI2Accessor25SetPaperProtectionCounterEi
libes2command.so:_ZN14CESCI2Accessor25SetSimplexCardScanCounterEi
libes2command.so:_ZN14CESCI2Accessor25SetSpecialDocumentCounterEi
libes2command.so:_ZN14CESCI2Accessor26GetLengthDoubleFeedCounterEv
libes2command.so:_ZN14CESCI2Accessor26GetMaintenanceCapabilitiesEv
libes2command.so:_ZN14CESCI2Accessor26GetMaintenanceResultForKeyENSt7__cxx1112basic_stringIcSt11char_traitsIcESaIcEEE
libes2command.so:_ZN14CESCI2Accessor26GetMaxScanSizeInLongLengthEv
libes2command.so:_ZN14CESCI2Accessor26GetPickupRollerNotifyCountEv
libes2command.so:_ZN14CESCI2Accessor26GetRetardRollerNotifyCountEv
libes2command.so:_ZN14CESCI2Accessor26GetSupportedEdgeFillColorsEv
libes2command.so:_ZN14CESCI2Accessor26GetSupportedPowerSaveTimesEv
libes2command.so:_ZN14CESCI2Accessor26GetSupportedSharpnessLevelEv
libes2command.so:_ZN14CESCI2Accessor26IsAutoFeedingModeSupportedEv
libes2command.so:_ZN14CESCI2Accessor26IsDetectBlankPageSupportedEv
libes2command.so:_ZN14CESCI2Accessor26IsDetectColorTypeSupportedEv
libes2command.so:_ZN14CESCI2Accessor26IsPaperEndDetectionEnabledEv
libes2command.so:_ZN14CESCI2Accessor26SetCaptureCommandSupportedEb
libes2command.so:_ZN14CESCI2Accessor26SetLengthDoubleFeedCounterEi
libes2command.so:_ZN14CESCI2Accessor26SetPickupRollerNotifyCountEi
libes2command.so:_ZN14CESCI2Accessor26SetRetardRollerNotifyCountEi
libes2command.so:_ZN14CESCI2Accessor27GetIntegerKeyValueToADFTreeERKj
libes2command.so:_ZN14CESCI2Accessor27GetMaxScanSizeInNormalSpeedEv
libes2command.so:_ZN14CESCI2Accessor27GetSeparationPadNotifyCountEv
libes2command.so:_ZN14CESCI2Accessor27IsDocumentSeparationEnabledEv
libes2command.so:_ZN14CESCI2Accessor27IsRollerKitNearendSupportedEv
libes2command.so:_ZN14CESCI2Accessor27NotifyDidScanToScannedImageEP15IESScannedImage
libes2command.so:_ZN14CESCI2Accessor27NotifyEndContinuousScanningEv
libes2command.so:_ZN14CESCI2Accessor27SetIntegerKeyValueToADFTreeERKji
libes2command.so:_ZN14CESCI2Accessor27SetPaperEndDetectionEnabledEb
libes2command.so:_ZN14CESCI2Accessor27SetSeparationPadNotifyCountEi
libes2command.so:_ZN14CESCI2Accessor28GetDocumentFeederBGLevelBackB5cxx11Ev
libes2command.so:_ZN14CESCI2Accessor28GetDocumentTopCorrectionBackEv
libes2command.so:_ZN14CESCI2Accessor28GetSupportedColorMatrixModesEv
libes2command.so:_ZN14CESCI2Accessor28GetSupportedPaperJamCountersEv
libes2command.so:_ZN14CESCI2Accessor28GetSupportedPowerOffTimes2ndEv
libes2command.so:_ZN14CESCI2Accessor28IsOverScanForCroppingEnabledEv
libes2command.so:_ZN14CESCI2Accessor28IsPaperEndDetectionSupportedEv
libes2command.so:_ZN14CESCI2Accessor28IsSensorGlassStatusSupportedEv
libes2command.so:_ZN14CESCI2Accessor28NotifyWillScanToScannedImageEP15IESScannedImage
libes2command.so:_ZN14CESCI2Accessor28SetDocumentTopCorrectionBackEf
libes2command.so:_ZN14CESCI2Accessor29GetCleaningWarningNotifyCountEv
libes2command.so:_ZN14CESCI2Accessor29GetDocumentFeederBGLevelFrontB5cxx11Ev
libes2command.so:_ZN14CESCI2Accessor29GetDocumentFeederLamp1CounterEv
libes2command.so:_ZN14CESCI2Accessor29GetDocumentFeederLamp2CounterEv
libes2command.so:_ZN14CESCI2Accessor29GetDocumentTopCorrectionFrontEv
libes2command.so:_ZN14CESCI2Accessor29GetSensorGlassDirtSensitivityEv
libes2command.so:_ZN14CESCI2Accessor29GetSupportedBackGroundRemovalEv
libes2command.so:_ZN14CESCI2Accessor29GetSupportedColorCounterTypesEv
libes2command.so:_ZN14CESCI2Accessor29GetSupportedRollerKitCountersEv
libes2command.so:_ZN14CESCI2Accessor29IsDocumentSeparationSupportedEv
libes2command.so:_ZN14CESCI2Accessor29IsImagePaperProtectionEnabledEv
libes2command.so:_ZN14CESCI2Accessor29IsPassportCarrierSheetEnabledEv
libes2command.so:_ZN14CESCI2Accessor29IsRollerKitLifeLimitSupportedEv
libes2command.so:_ZN14CESCI2Accessor29NotifyBeginContinuousScanningEv
libes2command.so:_ZN14CESCI2Accessor29SetCleaningWarningNotifyCountEi
libes2command.so:_ZN14CESCI2Accessor29SetDocumentFeederLamp1CounterEi
libes2command.so:_ZN14CESCI2Accessor29SetDocumentFeederLamp2CounterEi
libes2command.so:_ZN14CESCI2Accessor29SetDocumentTopCorrectionFrontEf
libes2command.so:_ZN14CESCI2Accessor29SetOverScanForCroppingEnabledEb
libes2command.so:_ZN14CESCI2Accessor29SetSensorGlassDirtSensitivityEi
libes2command.so:_ZN14CESCI2Accessor29StopScanningInAutoFeedingModeEv
libes2command.so:_ZN14CESCI2Accessor30GetDocumentDriveCorrectionBackEv
libes2command.so:_ZN14CESCI2Accessor30GetPassportCarrierSheetCounterEv
libes2command.so:_ZN14CESCI2Accessor30GetSupportedADFPaperProtectionEv
libes2command.so:_ZN14CESCI2Accessor30GetSupportedClientApplicationsEv
libes2command.so:_ZN14CESCI2Accessor30GetSupportedDuplexScanCountersEv
libes2command.so:_ZN14CESCI2Accessor30GetSupportedNonConnectPowerOffEv
libes2command.so:_ZN14CESCI2Accessor30GetUltraSonicDoubleFeedCounterEv
libes2command.so:_ZN14CESCI2Accessor30IsAutoCroppingInscribedEnabledEv
libes2command.so:_ZN14CESCI2Accessor30IsDefaultPasswordTypeSupportedEv
libes2command.so:_ZN14CESCI2Accessor30IsOverScanForCroppingSupportedEv
libes2command.so:_ZN14CESCI2Accessor30IsPickupRollerNearendSupportedEv
libes2command.so:_ZN14CESCI2Accessor30IsRetardRollerNearendSupportedEv
libes2command.so:_ZN14CESCI2Accessor30ScheduleAutoFeedingModeTimeoutEv
libes2command.so:_ZN14CESCI2Accessor30SetDocumentDriveCorrectionBackEf
libes2command.so:_ZN14CESCI2Accessor30SetImagePaperProtectionEnabledEb
libes2command.so:_ZN14CESCI2Accessor30SetPassportCarrierSheetCounterEi
libes2command.so:_ZN14CESCI2Accessor30SetPassportCarrierSheetEnabledEb
libes2command.so:_ZN14CESCI2Accessor30SetUltraSonicDoubleFeedCounterEi
libes2command.so:_ZN14CESCI2Accessor31GetDocumentDriveCorrectionFrontEv
libes2command.so:_ZN14CESCI2Accessor31GetSupportedFunctionalUnitTypesEv
libes2command.so:_ZN14CESCI2Accessor31GetSupportedLaminatedPaperModesEv
libes2command.so:_ZN14CESCI2Accessor31GetSupportedSimplexScanCountersEv
libes2command.so:_ZN14CESCI2Accessor31GetUnavailableScanParameterSTATB5cxx11Ev
libes2command.so:_ZN14CESCI2Accessor31IsImagePaperProtectionSupportedEv
libes2command.so:_ZN14CESCI2Accessor31IsPassportCarrierSheetSupportedEv
libes2command.so:_ZN14CESCI2Accessor31IsSeparationPadNearendSupportedEv
libes2command.so:_ZN14CESCI2Accessor31NotifyCompleteScanningWithErrorE11ESErrorCode
libes2command.so:_ZN14CESCI2Accessor31SetAutoCroppingInscribedEnabledEb
libes2command.so:_ZN14CESCI2Accessor31SetDocumentDriveCorrectionFrontEf
libes2command.so:_ZN14CESCI2Accessor32GetSupportedDetectBlankPageLevelEv
libes2command.so:_ZN14CESCI2Accessor32GetSupportedDoubleFeedDetectionsEv
libes2command.so:_ZN14CESCI2Accessor32GetSupportedFlatbedLamp1CountersEv
libes2command.so:_ZN14CESCI2Accessor32GetSupportedFlatbedLamp2CountersEv
libes2command.so:_ZN14CESCI2Accessor32GetSupportedLightIntensitiesBackEv
libes2command.so:_ZN14CESCI2Accessor32GetSupportedPickupRollerCountersEv
libes2command.so:_ZN14CESCI2Accessor32GetSupportedRetardRollerCountersEv
libes2command.so:_ZN14CESCI2Accessor32GetSupportedRollerKitNotifyCountEv
libes2command.so:_ZN14CESCI2Accessor32InvalidateAutoFeedingModeTimeoutEv
libes2command.so:_ZN14CESCI2Accessor32IsAdminLockEnabledWithUnlockTestEb
libes2command.so:_ZN14CESCI2Accessor32IsAutoCroppingInscribedSupportedEv
libes2command.so:_ZN14CESCI2Accessor32IsCarrierSheetDetectionSupportedEv
libes2command.so:_ZN14CESCI2Accessor32IsDocumentSizeDetectionSupportedEv
libes2command.so:_ZN14CESCI2Accessor32IsPickupRollerLifeLimitSupportedEv
libes2command.so:_ZN14CESCI2Accessor32IsRetardRollerLifeLimitSupportedEv
libes2command.so:_ZN14CESCI2Accessor32IsScannerPositionStatusSupportedEv
libes2command.so:_ZN14CESCI2Accessor32NotifyInterruptScanningWithErrorE11ESErrorCode
libes2command.so:_ZN14CESCI2Accessor33CallDelegateScannerDidPressButtonEh
libes2command.so:_ZN14CESCI2Accessor33CallDelegateScannerDidRequestStopEv
libes2command.so:_ZN14CESCI2Accessor33GetDoubleFeedDetectionRangeLengthEv
libes2command.so:_ZN14CESCI2Accessor33GetDoubleFeedDetectionRangeOffsetEv
libes2command.so:_ZN14CESCI2Accessor33GetSupportedCleaningWarningNotifyEv
libes2command.so:_ZN14CESCI2Accessor33GetSupportedSeparationPadCountersEv
libes2command.so:_ZN14CESCI2Accessor33GetUnavailableScanParameterStatusEv
libes2command.so:_ZN14CESCI2Accessor33IsImageDoubleFeedDetectionEnabledEv
libes2command.so:_ZN14CESCI2Accessor33IsSeparationPadLifeLimitSupportedEv
libes2command.so:_ZN14CESCI2Accessor33SetDoubleFeedDetectionRangeLengthEf
libes2command.so:_ZN14CESCI2Accessor33SetDoubleFeedDetectionRangeOffsetEf
libes2command.so:_ZN14CESCI2Accessor34GetLengthDoubleFeedDetectionLengthEv
libes2command.so:_ZN14CESCI2Accessor34GetSupportedBehaviorWhenDoubleFeedEv
libes2command.so:_ZN14CESCI2Accessor34GetSupportedCleaningWarningCounterEv
libes2command.so:_ZN14CESCI2Accessor34GetSupportedDuplexCardScanCountersEv
libes2command.so:_ZN14CESCI2Accessor34GetSupportedFirstPCConnectionDatesEv
libes2command.so:_ZN14CESCI2Accessor34IsLengthDoubleFeedDetectionEnabledEv
libes2command.so:_ZN14CESCI2Accessor34SetImageDoubleFeedDetectionEnabledEb
libes2command.so:_ZN14CESCI2Accessor34SetLengthDoubleFeedDetectionLengthEf
libes2command.so:_ZN14CESCI2Accessor35GetSupportedImageDoubleFeedCountersEv
libes2command.so:_ZN14CESCI2Accessor35GetSupportedPaperProtectionCountersEv
libes2command.so:_ZN14CESCI2Accessor35GetSupportedPickupRollerNotifyCountEv
libes2command.so:_ZN14CESCI2Accessor35GetSupportedRetardRollerNotifyCountEv
libes2command.so:_ZN14CESCI2Accessor35GetSupportedSimplexCardScanCountersEv
libes2command.so:_ZN14CESCI2Accessor35GetSupportedSpecialDocumentCountersEv
libes2command.so:_ZN14CESCI2Accessor35IsDoubleFeedDetectionRangeSupportedEv
libes2command.so:_ZN14CESCI2Accessor35IsImageDoubleFeedDetectionSupportedEv
libes2command.so:_ZN14CESCI2Accessor35IsMaxScanSizeInNormalSpeedSupportedEv
libes2command.so:_ZN14CESCI2Accessor35SetLengthDoubleFeedDetectionEnabledEb
libes2command.so:_ZN14CESCI2Accessor36GetFunctionalUnitSpecificResolutionsEv
libes2command.so:_ZN14CESCI2Accessor36GetMinDoubleFeedDetectionRangeLengthEv
libes2command.so:_ZN14CESCI2Accessor36GetSupportedIntegerKeyValueToADFTreeERKj
libes2command.so:_ZN14CESCI2Accessor36GetSupportedLengthDoubleFeedCountersEv
libes2command.so:_ZN14CESCI2Accessor36GetSupportedSeparationPadNotifyCountEv
libes2command.so:_ZN14CESCI2Accessor36IsContinuousAutoFeedingModeSupportedEv
libes2command.so:_ZN14CESCI2Accessor36IsDocumentFeederBGLevelBackSupportedEv
libes2command.so:_ZN14CESCI2Accessor36IsLengthDoubleFeedDetectionSupportedEv
libes2command.so:_ZN14CESCI2Accessor37GetMaxLengthDoubleFeedDetectionLengthEv
libes2command.so:_ZN14CESCI2Accessor37IsDocumentFeederBGLevelFrontSupportedEv
libes2command.so:_ZN14CESCI2Accessor38GetSupportedCleaningWarningNotifyCountEv
libes2command.so:_ZN14CESCI2Accessor38GetSupportedDocumentTopCorrectionsBackEv
libes2command.so:_ZN14CESCI2Accessor39GetSupportedDocumentFeederLamp1CountersEv
libes2command.so:_ZN14CESCI2Accessor39GetSupportedDocumentFeederLamp2CountersEv
libes2command.so:_ZN14CESCI2Accessor39GetSupportedDocumentTopCorrectionsFrontEv
libes2command.so:_ZN14CESCI2Accessor40GetMaxScanSizeInLongLengthWithResolutionEi
libes2command.so:_ZN14CESCI2Accessor40GetSupportedDocumentDriveCorrectionsBackEv
libes2command.so:_ZN14CESCI2Accessor40GetSupportedPassportCarrierSheetCountersEv
libes2command.so:_ZN14CESCI2Accessor40GetSupportedSensorGlassDirtSensitivitiesEv
libes2command.so:_ZN14CESCI2Accessor40GetSupportedUltraSonicDoubleFeedCountersEv
libes2command.so:_ZN14CESCI2Accessor41GetSupportedDocumentDriveCorrectionsFrontEv
libes2command.so:_ZN14CESCI2Accessor41IsUnavailableScanParameterStatusSupportedEv
libes2command.so:_ZN14CESCI2Accessor41StopScanningInAutoFeedingModeInBackgroundEv
libes2command.so:_ZN14CESCI2Accessor43DoStopScanningInAutoFeedingModeInBackgroundEPv
libes2command.so:_ZN14CESCI2Accessor49CallDelegateNetworkScannerDidRequestStartScanningEv
libes2command.so:_ZN14CESCI2Accessor4OpenEv
libes2command.so:_ZN14CESCI2Accessor4ScanEv
libes2command.so:_ZN14CESCI2Accessor5AbortEv
libes2command.so:_ZN14CESCI2Accessor5CloseEv
libes2command.so:_ZN14CESCI2Accessor5ResetEv
libes2command.so:_ZN14CESCI2Accessor5SetupEv
libes2command.so:_ZN14CESCI2Accessor6CancelEv
libes2command.so:_ZN14CESCI2Accessor7GetInfoEv
libes2command.so:_ZN14CESCI2Accessor7StopAFMEv
libes2command.so:_ZN14CESCI2Accessor8GetFocusEv
libes2command.so:_ZN14CESCI2Accessor8SetFocusEf
libes2command.so:_ZN14CESCI2Accessor8StartAFMEv
libes2command.so:_ZN14CESCI2Accessor8StopAFMCEv
libes2command.so:_ZN14CESCI2Accessor9GetStatusEv
libes2command.so:_ZN14CESCI2Accessor9StartAFMCEv
libes2command.so:_ZN14CESCI2AccessorC1Ev
libes2command.so:_ZN14CESCI2AccessorC2Ev
libes2command.so:_ZN14CESCI2AccessorD0Ev
libes2command.so:_ZN14CESCI2AccessorD1Ev
libes2command.so:_ZN14CESCI2AccessorD2Ev
libes2command.so:_ZN15CESScannedImage11SetDelegateEP23IESScannedImageDelegate
libes2command.so:_ZN15CESScannedImage12GetImageSizeEv
libes2command.so:_ZN15CESScannedImage12IsDoubleFeedEv
libes2command.so:_ZN15CESScannedImage12IsUpsideDownEv
libes2command.so:_ZN15CESScannedImage12SeekToOffsetEj
libes2command.so:_ZN15CESScannedImage12SetImageSizeERK8stESSizeIjE
libes2command.so:_ZN15CESScannedImage13IsAutoCroppedEv
libes2command.so:_ZN15CESScannedImage13ReadDataToEndERN12ES_CMN_FUNCS6BUFFER9IESBufferE
libes2command.so:_ZN15CESScannedImage13SetDoubleFeedEb
libes2command.so:_ZN15CESScannedImage13SetUpsideDownEb
libes2command.so:_ZN15CESScannedImage14CloseWithWidthEii
libes2command.so:_ZN15CESScannedImage14DeleteInstanceEv
libes2command.so:_ZN15CESScannedImage14GetBytesPerRowEv
libes2command.so:_ZN15CESScannedImage14GetImageFormatEv
libes2command.so:_ZN15CESScannedImage14GetStorageTypeEv
libes2command.so:_ZN15CESScannedImage14GetSurfaceTypeEv
libes2command.so:_ZN15CESScannedImage14SetAutoCroppedEb
libes2command.so:_ZN15CESScannedImage14SetImageFormatE13ESImageFormat
libes2command.so:_ZN15CESScannedImage14SetStorageTypeE20ENUM_ES_STORAGE_TYPE
libes2command.so:_ZN15CESScannedImage14SetSurfaceTypeE20ENUM_ES_SURFACE_TYPE
libes2command.so:_ZN15CESScannedImage15GetBitsPerPixelEv
libes2command.so:_ZN15CESScannedImage15GetDocumentTypeEv
libes2command.so:_ZN15CESScannedImage15GetSerialNumberEv
libes2command.so:_ZN15CESScannedImage15RelegationOwnerEv
libes2command.so:_ZN15CESScannedImage15SetDocumentTypeE21ENUM_ES_DOCUMENT_TYPE
libes2command.so:_ZN15CESScannedImage15SetSerialNumberEj
libes2command.so:_ZN15CESScannedImage16GetBitsPerSampleEv
libes2command.so:_ZN15CESScannedImage16ReadDataOfLengthEjRN12ES_CMN_FUNCS6BUFFER9IESBufferE
libes2command.so:_ZN15CESScannedImage17IsRelegationOwnerEv
libes2command.so:_ZN15CESScannedImage18GetSamplesPerPixelEv
libes2command.so:_ZN15CESScannedImage19IsProgressAvailableEv
libes2command.so:_ZN15CESScannedImage20GetExpectedImageSizeEv
libes2command.so:_ZN15CESScannedImage20GetPaperSerialNumberEv
libes2command.so:_ZN15CESScannedImage20GetProgressInPercentEv
libes2command.so:_ZN15CESScannedImage20IsAutoDetectMonoPageEv
libes2command.so:_ZN15CESScannedImage20SetPaperSerialNumberEj
libes2command.so:_ZN15CESScannedImage21IsAutoDetectBlankPageEv
libes2command.so:_ZN15CESScannedImage21SetAutoDetectMonoPageEb
libes2command.so:_ZN15CESScannedImage22GetDigitalICEImageTypeEv
libes2command.so:_ZN15CESScannedImage22SetAutoDetectBlankPageEb
libes2command.so:_ZN15CESScannedImage22SetDigitalICEImageTypeE30ENUM_ES_DIGITAL_ICE_IMAGE_TYPE
libes2command.so:_ZN15CESScannedImage4InitEiiiiiNSt7__cxx1112basic_stringIcSt11char_traitsIcESaIcEEE
libes2command.so:_ZN15CESScannedImage4OpenEv
libes2command.so:_ZN15CESScannedImage5AbortEv
libes2command.so:_ZN15CESScannedImage5CloseEv
libes2command.so:_ZN15CESScannedImage8GetWidthEv
libes2command.so:_ZN15CESScannedImage8IsClosedEv
libes2command.so:_ZN15CESScannedImage9GetHeightEv
libes2command.so:_ZN15CESScannedImage9WriteDataERN12ES_CMN_FUNCS6BUFFER13CESHeapBufferE
libes2command.so:_ZN15CESScannedImageC1Ev
libes2command.so:_ZN15CESScannedImageC2Ev
libes2command.so:_ZN15CESScannedImageD0Ev
libes2command.so:_ZN15CESScannedImageD1Ev
libes2command.so:_ZN15CESScannedImageD2Ev
libes2command.so:_ZN16CESCI2JSONPerser13ParseWithDataERN12ES_CMN_FUNCS6BUFFER13CESHeapBufferERSt3mapINSt7__cxx1112basic_stringIcSt11char_traitsIcESaIcEEEN5boost3anyESt4lessISA_ESaISt4pairIKSA_SC_EEE
libes2command.so:_ZN16InterfaceFactory6CreateEPKcPP10IInterface
libes2command.so:_ZN16USBInterfaceImpl11SetDelegateEP18IInterfaceDelegate
libes2command.so:_ZN16USBInterfaceImpl14SetupInterfaceEv
libes2command.so:_ZN16USBInterfaceImpl16sm_isInitializedE
libes2command.so:_ZN16USBInterfaceImpl18sm_nDefaultTimeoutE
libes2command.so:_ZN16USBInterfaceImpl19sm_nConnectionCountE
libes2command.so:_ZN16USBInterfaceImpl20IsInterruptSupportedEv
libes2command.so:_ZN16USBInterfaceImpl20ReadExtendedTransferEPhj
libes2command.so:_ZN16USBInterfaceImpl21ReceiveInterruptEventEv
libes2command.so:_ZN16USBInterfaceImpl21WaitTimeAfterFinalizeEv
libes2command.so:_ZN16USBInterfaceImpl26IsSupportsExtendedTransferEv
libes2command.so:_ZN16USBInterfaceImpl29AbortExtendedTransferWithCodeEh
libes2command.so:_ZN16USBInterfaceImpl29IsAvoidsAckWhileImageTransferEv
libes2command.so:_ZN16USBInterfaceImpl31StartExtendedTransferWithBlocksEjjj
libes2command.so:_ZN16USBInterfaceImpl4InitEtt
libes2command.so:_ZN16USBInterfaceImpl4InitEttNSt7__cxx1112basic_stringIcSt11char_traitsIcESaIcEEE
libes2command.so:_ZN16USBInterfaceImpl4OpenEv
libes2command.so:_ZN16USBInterfaceImpl4ReadEPhj
libes2command.so:_ZN16USBInterfaceImpl5CloseEv
libes2command.so:_ZN16USBInterfaceImpl5WriteEPhj
libes2command.so:_ZN16USBInterfaceImpl5WriteEPhjj
libes2command.so:_ZN16USBInterfaceImpl6sm_ctxE
libes2command.so:_ZN16USBInterfaceImpl8IsOpenedEv
libes2command.so:_ZN16USBInterfaceImpl9IsMatchIDEttNSt7__cxx1112basic_stringIcSt11char_traitsIcESaIcEEEP13libusb_device
libes2command.so:_ZN16USBInterfaceImpl9IsMatchIDEttP13libusb_device
libes2command.so:_ZN16USBInterfaceImplC1Ev
libes2command.so:_ZN16USBInterfaceImplC2Ev
libes2command.so:_ZN16USBInterfaceImplD0Ev
libes2command.so:_ZN16USBInterfaceImplD1Ev
libes2command.so:_ZN16USBInterfaceImplD2Ev
libes2command.so:_ZN18CESCI2ScannedImage14CloseWithWidthEii
libes2command.so:_ZN18CESCI2ScannedImage14DeleteInstanceEv
libes2command.so:_ZN18CESCI2ScannedImage18GetStoreBufferSizeEv
libes2command.so:_ZN18CESCI2ScannedImage18SetStoreBufferSizeEi
libes2command.so:_ZN18CESCI2ScannedImage19IsProgressAvailableEv
libes2command.so:_ZN18CESCI2ScannedImage20GetDummyBytesPerLineEv
libes2command.so:_ZN18CESCI2ScannedImage20SetDummyBytesPerLineEi
libes2command.so:_ZN18CESCI2ScannedImage9WriteDataERN12ES_CMN_FUNCS6BUFFER13CESHeapBufferE
libes2command.so:_ZN18CESCI2ScannedImageC1Ev
libes2command.so:_ZN18CESCI2ScannedImageC2Ev
libes2command.so:_ZN18CESCI2ScannedImageD0Ev
libes2command.so:_ZN18CESCI2ScannedImageD1Ev
libes2command.so:_ZN18CESCI2ScannedImageD2Ev
libes2command.so:_ZN20CESCI2DataEnumerator13SetDataSourceEP30IESCI2DataEnumeratorDataSource
libes2command.so:_ZN20CESCI2DataEnumerator4ReadEPhj
libes2command.so:_ZN20CESCI2DataEnumerator8NextdataEv
libes2command.so:_ZN20CESCI2DataEnumeratorC1ERN12ES_CMN_FUNCS6BUFFER13CESHeapBufferE
libes2command.so:_ZN20CESCI2DataEnumeratorC2ERN12ES_CMN_FUNCS6BUFFER13CESHeapBufferE
libes2command.so:_ZN20CESCI2DataEnumeratorD1Ev
libes2command.so:_ZN20CESCI2DataEnumeratorD2Ev
libes2command.so:_ZN21CESCI2DataConstructor10AppendDataERKSt6vectorIhSaIhEE
libes2command.so:_ZN21CESCI2DataConstructor13AppendDecimalEt
libes2command.so:_ZN21CESCI2DataConstructor13AppendIntegerEi
libes2command.so:_ZN21CESCI2DataConstructor20AppendFourCharStringERKNSt7__cxx1112basic_stringIcSt11char_traitsIcESaIcEEE
libes2command.so:_ZN21CESCI2DataConstructor4InitEv
libes2command.so:_ZN21CESCI2DataConstructor9AppendHexEm
libes2command.so:_ZN21CESCI2DataConstructorC1Ev
libes2command.so:_ZN21CESCI2DataConstructorC2Ev
libes2command.so:_ZN21CESCI2DataConstructorD1Ev
libes2command.so:_ZN21CESCI2DataConstructorD2Ev
libes2command.so:_ZN3ipc16IPCInterfaceImpl10recv_replyEPj
libes2command.so:_ZN3ipc16IPCInterfaceImpl11SetDelegateEP18IInterfaceDelegate
libes2command.so:_ZN3ipc16IPCInterfaceImpl11get_status_EjRj
libes2command.so:_ZN3ipc16IPCInterfaceImpl11get_status_Ev
libes2command.so:_ZN3ipc16IPCInterfaceImpl13recv_message_EPvl
libes2command.so:_ZN3ipc16IPCInterfaceImpl13recv_message_ERNS_10ipc_headerERPc
libes2command.so:_ZN3ipc16IPCInterfaceImpl13send_message_ENS_10ipc_headerEPKc
libes2command.so:_ZN3ipc16IPCInterfaceImpl13send_message_EPKvl
libes2command.so:_ZN3ipc16IPCInterfaceImpl16default_timeout_E
libes2command.so:_ZN3ipc16IPCInterfaceImpl20IsInterruptSupportedEv
libes2command.so:_ZN3ipc16IPCInterfaceImpl20ReadExtendedTransferEPhj
libes2command.so:_ZN3ipc16IPCInterfaceImpl21ReceiveInterruptEventEv
libes2command.so:_ZN3ipc16IPCInterfaceImpl21WaitTimeAfterFinalizeEv
libes2command.so:_ZN3ipc16IPCInterfaceImpl26IsSupportsExtendedTransferEv
libes2command.so:_ZN3ipc16IPCInterfaceImpl29AbortExtendedTransferWithCodeEh
libes2command.so:_ZN3ipc16IPCInterfaceImpl29IsAvoidsAckWhileImageTransferEv
libes2command.so:_ZN3ipc16IPCInterfaceImpl31StartExtendedTransferWithBlocksEjjj
libes2command.so:_ZN3ipc16IPCInterfaceImpl4InitENSt7__cxx1112basic_stringIcSt11char_traitsIcESaIcEEEii
libes2command.so:_ZN3ipc16IPCInterfaceImpl4OpenEv
libes2command.so:_ZN3ipc16IPCInterfaceImpl4ReadEPhj
libes2command.so:_ZN3ipc16IPCInterfaceImpl4readEiPvl
libes2command.so:_ZN3ipc16IPCInterfaceImpl5CloseEv
libes2command.so:_ZN3ipc16IPCInterfaceImpl5WriteEPhj
libes2command.so:_ZN3ipc16IPCInterfaceImpl5WriteEPhjj
libes2command.so:_ZN3ipc16IPCInterfaceImpl5fork_Ev
libes2command.so:_ZN3ipc16IPCInterfaceImpl5open_Ei
libes2command.so:_ZN3ipc16IPCInterfaceImpl5writeEiPKvl
libes2command.so:_ZN3ipc16IPCInterfaceImpl8IsOpenedEv
libes2command.so:_ZN3ipc16IPCInterfaceImpl8connect_Ev
libes2command.so:_ZN3ipc16IPCInterfaceImplC1ENSt7__cxx1112basic_stringIcSt11char_traitsIcESaIcEEE
libes2command.so:_ZN3ipc16IPCInterfaceImplC2ENSt7__cxx1112basic_stringIcSt11char_traitsIcESaIcEEE
libes2command.so:_ZN3ipc16IPCInterfaceImplD0Ev
libes2command.so:_ZN3ipc16IPCInterfaceImplD1Ev
libes2command.so:_ZN3ipc16IPCInterfaceImplD2Ev
libes2command.so:_ZN3ipc5kill_EiiiNSt7__cxx1112basic_stringIcSt11char_traitsIcESaIcEEE
libes2command.so:_ZN9Interface10DidTimeoutEv
libes2command.so:_ZN9Interface11SetDelegateEP18IInterfaceDelegate
libes2command.so:_ZN9Interface13DidDisconnectEv
libes2command.so:_ZN9Interface14DidPressButtonEh
libes2command.so:_ZN9Interface14DidRequestStopEv
libes2command.so:_ZN9Interface15DestroyInstanceEv
libes2command.so:_ZN9Interface16IsReservedByHostEP10IInterfacePKc
libes2command.so:_ZN9Interface18ShouldStopScanningEP10IInterface
libes2command.so:_ZN9Interface20IsInterruptSupportedEv
libes2command.so:_ZN9Interface20ReadExtendedTransferEPhj
libes2command.so:_ZN9Interface20ShouldPreventTimeoutEv
libes2command.so:_ZN9Interface21DidNotifyStatusChangeEv
libes2command.so:_ZN9Interface21DidReceiveServerErrorEv
libes2command.so:_ZN9Interface21DidRequestStartOrStopEv
libes2command.so:_ZN9Interface21ReceiveInterruptEventEv
libes2command.so:_ZN9Interface21WaitTimeAfterFinalizeEv
libes2command.so:_ZN9Interface22DidRequestGetImageDataEv
libes2command.so:_ZN9Interface22DidRequestStopScanningEv
libes2command.so:_ZN9Interface23DidRequestStartScanningEv
libes2command.so:_ZN9Interface24DeviceCommunicationErrorE11ESErrorCode
libes2command.so:_ZN9Interface26IsSupportsExtendedTransferEv
libes2command.so:_ZN9Interface28DidRequestPushScanConnectionEv
libes2command.so:_ZN9Interface29AbortExtendedTransferWithCodeEh
libes2command.so:_ZN9Interface29IsAvoidsAckWhileImageTransferEv
libes2command.so:_ZN9Interface31StartExtendedTransferWithBlocksEjjj
libes2command.so:_ZN9Interface4OpenEv
libes2command.so:_ZN9Interface4ReadEPhj
libes2command.so:_ZN9Interface5CloseEv
libes2command.so:_ZN9Interface5WriteEPhj
libes2command.so:_ZN9Interface5WriteEPhjj
libes2command.so:_ZN9Interface8IsOpenedEv
libes2command.so:_ZN9InterfaceC1E16ESConnectionTypeSt10unique_ptrI14IInterfaceImplSt14default_deleteIS2_EE
libes2command.so:_ZN9InterfaceC2E16ESConnectionTypeSt10unique_ptrI14IInterfaceImplSt14default_deleteIS2_EE
libes2command.so:_ZNK12CCommandBase10IsScanningEv
libes2command.so:_ZNK12CCommandBase13IsInterruptedEv
libes2command.so:_ZNK12CCommandBase14IsDeviceOpenedEv
libes2command.so:_ZNK12CESCIScanner10IsScanningEv
libes2command.so:_ZNK12CESCIScanner12IsAfmEnabledEv
libes2command.so:_ZNK12CESCIScanner13IsInterruptedEv
libes2command.so:_ZNK12CESCIScanner8IsOpenedEv
libes2command.so:_ZNK13CESCI2Scanner10IsScanningEv
libes2command.so:_ZNK13CESCI2Scanner12IsAfmEnabledEv
libes2command.so:_ZNK13CESCI2Scanner13IsInterruptedEv
libes2command.so:_ZNK13CESCI2Scanner8IsOpenedEv
libes2command.so:_ZNK13CESCIAccessor8IsOpenedEv
libes2command.so:_ZNK14CESCI2Accessor12IsAfmEnabledEv
libes2command.so:_ZNK14CESCI2Accessor8IsOpenedEv
libes2command.so:_ZNK9Interface14ConnectionTypeEv
libes2command.so:_ZThn8_N9Interface10DidTimeoutEv
libes2command.so:_ZThn8_N9Interface13DidDisconnectEv
libes2command.so:_ZThn8_N9Interface14DidPressButtonEh
libes2command.so:_ZThn8_N9Interface14DidRequestStopEv
libes2command.so:_ZThn8_N9Interface16IsReservedByHostEP10IInterfacePKc
libes2command.so:_ZThn8_N9Interface18ShouldStopScanningEP10IInterface
libes2command.so:_ZThn8_N9Interface20ShouldPreventTimeoutEv
libes2command.so:_ZThn8_N9Interface21DidNotifyStatusChangeEv
libes2command.so:_ZThn8_N9Interface21DidReceiveServerErrorEv
libes2command.so:_ZThn8_N9Interface21DidRequestStartOrStopEv
libes2command.so:_ZThn8_N9Interface22DidRequestGetImageDataEv
libes2command.so:_ZThn8_N9Interface22DidRequestStopScanningEv
libes2command.so:_ZThn8_N9Interface23DidRequestStartScanningEv
libes2command.so:_ZThn8_N9Interface24DeviceCommunicationErrorE11ESErrorCode
libes2command.so:_ZThn8_N9Interface28DidRequestPushScanConnectionEv
libes2command.so:_ZTv0_n1000_N12CESCIScanner16GetYOffsetMarginEv
libes2command.so:_ZTv0_n1000_N13CESCI2Scanner16GetYOffsetMarginEv
libes2command.so:_ZTv0_n1008_N12CESCIScanner16SetYOffsetMarginEf
libes2command.so:_ZTv0_n1008_N13CESCI2Scanner16SetYOffsetMarginEf
libes2command.so:_ZTv0_n1016_N12CESCIScanner24GetSupportedColorFormatsEv
libes2command.so:_ZTv0_n1016_N13CESCI2Scanner24GetSupportedColorFormatsEv
libes2command.so:_ZTv0_n1024_N12CESCIScanner14GetColorFormatEv
libes2command.so:_ZTv0_n1024_N13CESCI2Scanner14GetColorFormatEv
libes2command.so:_ZTv0_n1032_N12CESCIScanner14SetColorFormatEi
libes2command.so:_ZTv0_n1032_N13CESCI2Scanner14SetColorFormatEi
libes2command.so:_ZTv0_n1040_N12CESCIScanner16GetBitsPerSampleEv
libes2command.so:_ZTv0_n1040_N13CESCI2Scanner16GetBitsPerSampleEv
libes2command.so:_ZTv0_n1048_N12CESCIScanner18GetSamplesPerPixelEv
libes2command.so:_ZTv0_n1048_N13CESCI2Scanner18GetSamplesPerPixelEv
libes2command.so:_ZTv0_n104_NK12CESCIScanner10IsScanningEv
libes2command.so:_ZTv0_n104_NK13CESCI2Scanner10IsScanningEv
libes2command.so:_ZTv0_n1056_N12CESCIScanner15GetBitsPerPixelEv
libes2command.so:_ZTv0_n1056_N13CESCI2Scanner15GetBitsPerPixelEv
libes2command.so:_ZTv0_n1064_N12CESCIScanner14GetColorMatrixEv
libes2command.so:_ZTv0_n1064_N13CESCI2Scanner14GetColorMatrixEv
libes2command.so:_ZTv0_n1072_N12CESCIScanner14SetColorMatrixESt5dequeIfSaIfEE
libes2command.so:_ZTv0_n1072_N13CESCI2Scanner14SetColorMatrixESt5dequeIfSaIfEE
libes2command.so:_ZTv0_n1080_N12CESCIScanner22GetSupportedGammaModesEv
libes2command.so:_ZTv0_n1080_N13CESCI2Scanner22GetSupportedGammaModesEv
libes2command.so:_ZTv0_n1088_N12CESCIScanner12GetGammaModeEv
libes2command.so:_ZTv0_n1088_N13CESCI2Scanner12GetGammaModeEv
libes2command.so:_ZTv0_n1096_N12CESCIScanner12SetGammaModeEi
libes2command.so:_ZTv0_n1096_N13CESCI2Scanner12SetGammaModeEi
libes2command.so:_ZTv0_n1104_N12CESCIScanner17GetGammaTableMonoEv
libes2command.so:_ZTv0_n1104_N13CESCI2Scanner17GetGammaTableMonoEv
libes2command.so:_ZTv0_n1112_N12CESCIScanner16GetGammaTableRedEv
libes2command.so:_ZTv0_n1112_N13CESCI2Scanner16GetGammaTableRedEv
libes2command.so:_ZTv0_n1120_N12CESCIScanner18GetGammaTableGreenEv
libes2command.so:_ZTv0_n1120_N13CESCI2Scanner18GetGammaTableGreenEv
libes2command.so:_ZTv0_n1128_N12CESCIScanner17GetGammaTableBlueEv
libes2command.so:_ZTv0_n1128_N13CESCI2Scanner17GetGammaTableBlueEv
libes2command.so:_ZTv0_n112_N12CESCIScanner10DoCleaningEv
libes2command.so:_ZTv0_n112_N13CESCI2Scanner10DoCleaningEv
libes2command.so:_ZTv0_n1136_N12CESCIScanner17SetGammaTableMonoESt5dequeIiSaIiEE
libes2command.so:_ZTv0_n1136_N13CESCI2Scanner17SetGammaTableMonoESt5dequeIiSaIiEE
libes2command.so:_ZTv0_n1144_N12CESCIScanner16SetGammaTableRedESt5dequeIiSaIiEE
libes2command.so:_ZTv0_n1144_N13CESCI2Scanner16SetGammaTableRedESt5dequeIiSaIiEE
libes2command.so:_ZTv0_n1152_N12CESCIScanner18SetGammaTableGreenESt5dequeIiSaIiEE
libes2command.so:_ZTv0_n1152_N13CESCI2Scanner18SetGammaTableGreenESt5dequeIiSaIiEE
libes2command.so:_ZTv0_n1160_N12CESCIScanner17SetGammaTableBlueESt5dequeIiSaIiEE
libes2command.so:_ZTv0_n1160_N13CESCI2Scanner17SetGammaTableBlueESt5dequeIiSaIiEE
libes2command.so:_ZTv0_n1168_N12CESCIScanner21GetSupportedThresholdEv
libes2command.so:_ZTv0_n1168_N13CESCI2Scanner21GetSupportedThresholdEv
libes2command.so:_ZTv0_n1176_N12CESCIScanner12GetThresholdEv
libes2command.so:_ZTv0_n1176_N13CESCI2Scanner12GetThresholdEv
libes2command.so:_ZTv0_n1184_N12CESCIScanner12SetThresholdEi
libes2command.so:_ZTv0_n1184_N13CESCI2Scanner12SetThresholdEi
libes2command.so:_ZTv0_n1192_N12CESCIScanner22GetSupportedQuietModesEv
libes2command.so:_ZTv0_n1192_N13CESCI2Scanner22GetSupportedQuietModesEv
libes2command.so:_ZTv0_n1200_N12CESCIScanner12GetQuietModeEv
libes2command.so:_ZTv0_n1200_N13CESCI2Scanner12GetQuietModeEv
libes2command.so:_ZTv0_n1208_N12CESCIScanner12SetQuietModeEi
libes2command.so:_ZTv0_n1208_N13CESCI2Scanner12SetQuietModeEi
libes2command.so:_ZTv0_n120_N12CESCIScanner13DoCalibrationEv
libes2command.so:_ZTv0_n120_N13CESCI2Scanner13DoCalibrationEv
libes2command.so:_ZTv0_n1216_N12CESCIScanner17IsFeederSupportedEv
libes2command.so:_ZTv0_n1216_N13CESCI2Scanner17IsFeederSupportedEv
libes2command.so:_ZTv0_n1224_N12CESCIScanner15IsFeederEnabledEv
libes2command.so:_ZTv0_n1224_N13CESCI2Scanner15IsFeederEnabledEv
libes2command.so:_ZTv0_n1232_N12CESCIScanner13GetDuplexTypeEv
libes2command.so:_ZTv0_n1232_N13CESCI2Scanner13GetDuplexTypeEv
libes2command.so:_ZTv0_n1240_N12CESCIScanner17IsDuplexSupportedEv
libes2command.so:_ZTv0_n1240_N13CESCI2Scanner17IsDuplexSupportedEv
libes2command.so:_ZTv0_n1248_N12CESCIScanner15IsDuplexEnabledEv
libes2command.so:_ZTv0_n1248_N13CESCI2Scanner15IsDuplexEnabledEv
libes2command.so:_ZTv0_n1256_N12CESCIScanner16SetDuplexEnabledEb
libes2command.so:_ZTv0_n1256_N13CESCI2Scanner16SetDuplexEnabledEb
libes2command.so:_ZTv0_n1264_N12CESCIScanner32GetSupportedDoubleFeedDetectionsEv
libes2command.so:_ZTv0_n1264_N13CESCI2Scanner32GetSupportedDoubleFeedDetectionsEv
libes2command.so:_ZTv0_n1272_N12CESCIScanner22GetDoubleFeedDetectionEv
libes2command.so:_ZTv0_n1272_N13CESCI2Scanner22GetDoubleFeedDetectionEv
libes2command.so:_ZTv0_n1280_N12CESCIScanner22SetDoubleFeedDetectionEi
libes2command.so:_ZTv0_n1280_N13CESCI2Scanner22SetDoubleFeedDetectionEi
libes2command.so:_ZTv0_n1288_N12CESCIScanner16IsDocumentLoadedEv
libes2command.so:_ZTv0_n1288_N13CESCI2Scanner16IsDocumentLoadedEv
libes2command.so:_ZTv0_n128_NK12CESCIScanner13IsInterruptedEv
libes2command.so:_ZTv0_n128_NK13CESCI2Scanner13IsInterruptedEv
libes2command.so:_ZTv0_n1296_N12CESCIScanner19GetPagesToBeScannedEv
libes2command.so:_ZTv0_n1296_N13CESCI2Scanner19GetPagesToBeScannedEv
libes2command.so:_ZTv0_n1304_N12CESCIScanner19SetPagesToBeScannedEi
libes2command.so:_ZTv0_n1304_N13CESCI2Scanner19SetPagesToBeScannedEi
libes2command.so:_ZTv0_n1312_N12CESCIScanner19IsCleaningSupportedEv
libes2command.so:_ZTv0_n1312_N13CESCI2Scanner19IsCleaningSupportedEv
libes2command.so:_ZTv0_n1320_N12CESCIScanner22IsCalibrationSupportedEv
libes2command.so:_ZTv0_n1320_N13CESCI2Scanner22IsCalibrationSupportedEv
libes2command.so:_ZTv0_n1328_N12CESCIScanner25IsCaptureCommandSupportedEv
libes2command.so:_ZTv0_n1328_N13CESCI2Scanner25IsCaptureCommandSupportedEv
libes2command.so:_ZTv0_n1336_N12CESCIScanner26SetCaptureCommandSupportedEb
libes2command.so:_ZTv0_n1336_N13CESCI2Scanner26SetCaptureCommandSupportedEb
libes2command.so:_ZTv0_n136_NK12CESCIScanner12IsAfmEnabledEv
libes2command.so:_ZTv0_n136_NK13CESCI2Scanner12IsAfmEnabledEv
libes2command.so:_ZTv0_n144_N12CESCIScanner30ScheduleAutoFeedingModeTimeoutEv
libes2command.so:_ZTv0_n144_N13CESCI2Scanner30ScheduleAutoFeedingModeTimeoutEv
libes2command.so:_ZTv0_n152_N12CESCIScanner14StartJobInModeEh
libes2command.so:_ZTv0_n152_N13CESCI2Scanner14StartJobInModeEh
libes2command.so:_ZTv0_n160_N12CESCIScanner13StopJobInModeEh
libes2command.so:_ZTv0_n160_N13CESCI2Scanner13StopJobInModeEh
libes2command.so:_ZTv0_n168_N12CESCIScanner11DoAutoFocusEPf
libes2command.so:_ZTv0_n168_N13CESCI2Scanner11DoAutoFocusEPf
libes2command.so:_ZTv0_n176_N12CESCIScanner23SetPanelToPushScanReadyEi
libes2command.so:_ZTv0_n176_N13CESCI2Scanner23SetPanelToPushScanReadyEi
libes2command.so:_ZTv0_n184_N13CESCI2Scanner23IsScannableDeviceConfigEv
libes2command.so:_ZTv0_n192_N12CESCIScanner23UnlockAdministratorLockEv
libes2command.so:_ZTv0_n192_N13CESCI2Scanner23UnlockAdministratorLockEv
libes2command.so:_ZTv0_n200_N12CESCIScanner21LockAdministratorLockEv
libes2command.so:_ZTv0_n200_N13CESCI2Scanner21LockAdministratorLockEv
libes2command.so:_ZTv0_n208_N12CESCIScanner5ResetEv
libes2command.so:_ZTv0_n208_N13CESCI2Scanner5ResetEv
libes2command.so:_ZTv0_n24_N12CESCIScanner11SetDelegateEP18IESScannerDelegate
libes2command.so:_ZTv0_n24_N13CESCI2Scanner11SetDelegateEP18IESScannerDelegate
libes2command.so:_ZTv0_n288_N12CESCIScannerD0Ev
libes2command.so:_ZTv0_n288_N12CESCIScannerD1Ev
libes2command.so:_ZTv0_n288_N13CESCI2ScannerD0Ev
libes2command.so:_ZTv0_n288_N13CESCI2ScannerD1Ev
libes2command.so:_ZTv0_n296_N12CESCIScanner10InitializeEv
libes2command.so:_ZTv0_n296_N13CESCI2Scanner10InitializeEv
libes2command.so:_ZTv0_n304_N12CESCIScanner11SetDelegateEP18IESScannerDelegateP10IESScanner
libes2command.so:_ZTv0_n304_N13CESCI2Scanner11SetDelegateEP18IESScannerDelegateP10IESScanner
libes2command.so:_ZTv0_n312_N12CESCIScanner11GetDelegateEv
libes2command.so:_ZTv0_n312_N13CESCI2Scanner11GetDelegateEv
libes2command.so:_ZTv0_n320_N12CESCIScanner18SetDeviceInterfaceEP10IInterface
libes2command.so:_ZTv0_n320_N13CESCI2Scanner18SetDeviceInterfaceEP10IInterface
libes2command.so:_ZTv0_n328_N12CESCIScanner18GetDeviceInterfaceEv
libes2command.so:_ZTv0_n328_N13CESCI2Scanner18GetDeviceInterfaceEv
libes2command.so:_ZTv0_n336_N12CESCIScanner11SetScanningEb
libes2command.so:_ZTv0_n336_N13CESCI2Scanner11SetScanningEb
libes2command.so:_ZTv0_n344_N12CESCIScanner12SetCancelledEb
libes2command.so:_ZTv0_n344_N13CESCI2Scanner12SetCancelledEb
libes2command.so:_ZTv0_n352_N12CESCIScanner10GetAllKeysB5cxx11Ev
libes2command.so:_ZTv0_n352_N13CESCI2Scanner10GetAllKeysB5cxx11Ev
libes2command.so:_ZTv0_n360_N12CESCIScanner19GetCapabilityForKeyEPKcRSt3mapINSt7__cxx1112basic_stringIcSt11char_traitsIcESaIcEEEN5boost3anyESt4lessIS8_ESaISt4pairIKS8_SA_EEE
libes2command.so:_ZTv0_n360_N13CESCI2Scanner19GetCapabilityForKeyEPKcRSt3mapINSt7__cxx1112basic_stringIcSt11char_traitsIcESaIcEEEN5boost3anyESt4lessIS8_ESaISt4pairIKS8_SA_EEE
libes2command.so:_ZTv0_n408_N12CESCIScanner14GetValueForKeyEPKcRN5boost3anyE
libes2command.so:_ZTv0_n408_N13CESCI2Scanner14GetValueForKeyEPKcRN5boost3anyE
libes2command.so:_ZTv0_n416_N12CESCIScanner14SetValueForKeyEPKcN5boost3anyE
libes2command.so:_ZTv0_n416_N13CESCI2Scanner14SetValueForKeyEPKcN5boost3anyE
libes2command.so:_ZTv0_n424_N13CESCI2Scanner12GetPriorKeysB5cxx11Ev
libes2command.so:_ZTv0_n456_N12CESCIScanner20GetVersionCapabilityERSt3mapINSt7__cxx1112basic_stringIcSt11char_traitsIcESaIcEEEN5boost3anyESt4lessIS6_ESaISt4pairIKS6_S8_EEE
libes2command.so:_ZTv0_n456_N13CESCI2Scanner20GetVersionCapabilityERSt3mapINSt7__cxx1112basic_stringIcSt11char_traitsIcESaIcEEEN5boost3anyESt4lessIS6_ESaISt4pairIKS6_S8_EEE
libes2command.so:_ZTv0_n48_N12CESCIScanner4OpenEv
libes2command.so:_ZTv0_n48_N13CESCI2Scanner4OpenEv
libes2command.so:_ZTv0_n56_N12CESCIScanner5CloseEv
libes2command.so:_ZTv0_n56_N13CESCI2Scanner5CloseEv
libes2command.so:_ZTv0_n576_N13CESCI2Scanner21GetScanSizeCapabilityERSt3mapINSt7__cxx1112basic_stringIcSt11char_traitsIcESaIcEEEN5boost3anyESt4lessIS6_ESaISt4pairIKS6_S8_EEE
libes2command.so:_ZTv0_n616_N12CESCIScanner24GetColorMatrixCapabilityERSt3mapINSt7__cxx1112basic_stringIcSt11char_traitsIcESaIcEEEN5boost3anyESt4lessIS6_ESaISt4pairIKS6_S8_EEE
libes2command.so:_ZTv0_n616_N13CESCI2Scanner24GetColorMatrixCapabilityERSt3mapINSt7__cxx1112basic_stringIcSt11char_traitsIcESaIcEEEN5boost3anyESt4lessIS6_ESaISt4pairIKS6_S8_EEE
libes2command.so:_ZTv0_n64_NK12CESCIScanner8IsOpenedEv
libes2command.so:_ZTv0_n64_NK13CESCI2Scanner8IsOpenedEv
libes2command.so:_ZTv0_n728_N12CESCIScanner13GetWorkFolderB5cxx11Ev
libes2command.so:_ZTv0_n728_N13CESCI2Scanner13GetWorkFolderB5cxx11Ev
libes2command.so:_ZTv0_n72_N12CESCIScanner4ScanEv
libes2command.so:_ZTv0_n72_N13CESCI2Scanner4ScanEv
libes2command.so:_ZTv0_n736_N12CESCIScanner13SetWorkFolderENSt7__cxx1112basic_stringIcSt11char_traitsIcESaIcEEE
libes2command.so:_ZTv0_n736_N13CESCI2Scanner13SetWorkFolderENSt7__cxx1112basic_stringIcSt11char_traitsIcESaIcEEE
libes2command.so:_ZTv0_n744_N12CESCIScanner14GetErrorStatusEv
libes2command.so:_ZTv0_n744_N13CESCI2Scanner14GetErrorStatusEv
libes2command.so:_ZTv0_n752_N12CESCIScanner13GetBufferSizeEv
libes2command.so:_ZTv0_n752_N13CESCI2Scanner13GetBufferSizeEv
libes2command.so:_ZTv0_n760_N12CESCIScanner13SetBufferSizeEi
libes2command.so:_ZTv0_n760_N13CESCI2Scanner13SetBufferSizeEi
libes2command.so:_ZTv0_n768_N12CESCIScanner25IsAuthenticationSupportedEv
libes2command.so:_ZTv0_n768_N13CESCI2Scanner25IsAuthenticationSupportedEv
libes2command.so:_ZTv0_n776_N12CESCIScanner23IsAuthenticationEnabledEv
libes2command.so:_ZTv0_n776_N13CESCI2Scanner23IsAuthenticationEnabledEv
libes2command.so:_ZTv0_n784_N12CESCIScanner24SetAuthenticationEnabledEb
libes2command.so:_ZTv0_n784_N13CESCI2Scanner24SetAuthenticationEnabledEb
libes2command.so:_ZTv0_n792_N12CESCIScanner15GetAuthUserNameB5cxx11Ev
libes2command.so:_ZTv0_n792_N13CESCI2Scanner15GetAuthUserNameB5cxx11Ev
libes2command.so:_ZTv0_n800_N12CESCIScanner15SetAuthUserNameENSt7__cxx1112basic_stringIcSt11char_traitsIcESaIcEEE
libes2command.so:_ZTv0_n800_N13CESCI2Scanner15SetAuthUserNameENSt7__cxx1112basic_stringIcSt11char_traitsIcESaIcEEE
libes2command.so:_ZTv0_n808_N12CESCIScanner15GetAuthPasswordB5cxx11Ev
libes2command.so:_ZTv0_n808_N13CESCI2Scanner15GetAuthPasswordB5cxx11Ev
libes2command.so:_ZTv0_n816_N12CESCIScanner15SetAuthPasswordENSt7__cxx1112basic_stringIcSt11char_traitsIcESaIcEEE
libes2command.so:_ZTv0_n816_N13CESCI2Scanner15SetAuthPasswordENSt7__cxx1112basic_stringIcSt11char_traitsIcESaIcEEE
libes2command.so:_ZTv0_n824_N12CESCIScanner14GetProductNameB5cxx11Ev
libes2command.so:_ZTv0_n824_N13CESCI2Scanner14GetProductNameB5cxx11Ev
libes2command.so:_ZTv0_n832_N12CESCIScanner31GetSupportedFunctionalUnitTypesEv
libes2command.so:_ZTv0_n832_N13CESCI2Scanner31GetSupportedFunctionalUnitTypesEv
libes2command.so:_ZTv0_n840_N12CESCIScanner21GetFunctionalUnitTypeEv
libes2command.so:_ZTv0_n840_N13CESCI2Scanner21GetFunctionalUnitTypeEv
libes2command.so:_ZTv0_n848_N12CESCIScanner21SetFunctionalUnitTypeEi
libes2command.so:_ZTv0_n848_N13CESCI2Scanner21SetFunctionalUnitTypeEi
libes2command.so:_ZTv0_n856_N12CESCIScanner24GetSupportedXResolutionsEv
libes2command.so:_ZTv0_n856_N13CESCI2Scanner24GetSupportedXResolutionsEv
libes2command.so:_ZTv0_n864_N12CESCIScanner24GetSupportedYResolutionsEv
libes2command.so:_ZTv0_n864_N13CESCI2Scanner24GetSupportedYResolutionsEv
libes2command.so:_ZTv0_n872_N12CESCIScanner14GetXResolutionEv
libes2command.so:_ZTv0_n872_N13CESCI2Scanner14GetXResolutionEv
libes2command.so:_ZTv0_n880_N12CESCIScanner14GetYResolutionEv
libes2command.so:_ZTv0_n880_N13CESCI2Scanner14GetYResolutionEv
libes2command.so:_ZTv0_n888_N12CESCIScanner14SetXResolutionEi
libes2command.so:_ZTv0_n888_N13CESCI2Scanner14SetXResolutionEi
libes2command.so:_ZTv0_n88_N12CESCIScanner6CancelEv
libes2command.so:_ZTv0_n88_N13CESCI2Scanner6CancelEv
libes2command.so:_ZTv0_n896_N12CESCIScanner14SetYResolutionEi
libes2command.so:_ZTv0_n896_N13CESCI2Scanner14SetYResolutionEi
libes2command.so:_ZTv0_n904_N12CESCIScanner20GetOpticalResolutionEv
libes2command.so:_ZTv0_n904_N13CESCI2Scanner20GetOpticalResolutionEv
libes2command.so:_ZTv0_n912_N12CESCIScanner14GetMaxScanSizeEv
libes2command.so:_ZTv0_n912_N13CESCI2Scanner14GetMaxScanSizeEv
libes2command.so:_ZTv0_n920_N12CESCIScanner11GetScanAreaEv
libes2command.so:_ZTv0_n920_N13CESCI2Scanner11GetScanAreaEv
libes2command.so:_ZTv0_n928_N12CESCIScanner11SetScanAreaE8stESRectIfE
libes2command.so:_ZTv0_n928_N13CESCI2Scanner11SetScanAreaE8stESRectIfE
libes2command.so:_ZTv0_n936_N12CESCIScanner18GetScanAreaInPixelEv
libes2command.so:_ZTv0_n936_N13CESCI2Scanner18GetScanAreaInPixelEv
libes2command.so:_ZTv0_n944_N12CESCIScanner18SetScanAreaInPixelE8stESRectIjE
libes2command.so:_ZTv0_n944_N13CESCI2Scanner18SetScanAreaInPixelE8stESRectIjE
libes2command.so:_ZTv0_n952_N12CESCIScanner11GetScanSizeEv
libes2command.so:_ZTv0_n952_N13CESCI2Scanner11GetScanSizeEv
libes2command.so:_ZTv0_n960_N12CESCIScanner11SetScanSizeE8stESSizeIfE
libes2command.so:_ZTv0_n960_N13CESCI2Scanner11SetScanSizeE8stESSizeIfE
libes2command.so:_ZTv0_n968_N12CESCIScanner18GetScanSizeInPixelEv
libes2command.so:_ZTv0_n968_N13CESCI2Scanner18GetScanSizeInPixelEv
libes2command.so:_ZTv0_n96_N12CESCIScanner5AbortEv
libes2command.so:_ZTv0_n96_N13CESCI2Scanner5AbortEv
libes2command.so:_ZTv0_n976_N12CESCIScanner18SetScanSizeInPixelE8stESSizeIjE
libes2command.so:_ZTv0_n976_N13CESCI2Scanner18SetScanSizeInPixelE8stESSizeIjE
libes2command.so:_ZTv0_n984_N12CESCIScanner16GetXOffsetMarginEv
libes2command.so:_ZTv0_n984_N13CESCI2Scanner16GetXOffsetMarginEv
libes2command.so:_ZTv0_n992_N12CESCIScanner16SetXOffsetMarginEf
libes2command.so:_ZTv0_n992_N13CESCI2Scanner16SetXOffsetMarginEf
libes2fileformat.so:CreateAndInitFKDestinationInstance
libes2fileformat.so:CreateAndInitFKReaderInstance
libes2fileformat.so:CreateAndInitFKSourceInstance
libes2fileformat.so:CreateAndInitFKWriterInstance
libes2fileformat.so:DecodeJpegWithResize
libes2fileformat.so:_Z10DeleteFilePKc
libes2fileformat.so:_Z11CloseHandlePv
libes2fileformat.so:_Z11FreeLibraryPv
libes2fileformat.so:_Z11LoadLibraryPKc
libes2fileformat.so:_Z13LoadLibraryExPKcPvj
libes2fileformat.so:_Z16get_scale_factoriiii
libes2fileformat.so:_Z17GetExitCodeThreadPvPj
libes2fileformat.so:_Z17GetModuleFileNamePcj
libes2fileformat.so:_Z22ES2WaitForSingleObjectPvj
libes2fileformat.so:_Z25ES2WaitForMultipleObjectsjPKPvij
libes2fileformat.so:_Z5Sleepj
libes2fileformat.so:_Z5_wtofPKw
libes2fileformat.so:_Z5_wtoiPKw
libes2fileformat.so:_Z7fopen_sPP8_IO_FILEPKcS3_
libes2fileformat.so:_Z8CopyFilePKcS0_i
libes2fileformat.so:_Z8memcpy_sPvmPKvm
libes2fileformat.so:_Z8strcat_sPcmPKc
libes2fileformat.so:_Z9_tcscat_sPcmPKc
libes2fileformat.so:_Z9_wfopen_sPP8_IO_FILEPKwS3_
libes2fileformat.so:_ZN10CFKBmpUtil11GetFileSizeERNSt7__cxx1112basic_stringIcSt11char_traitsIcESaIcEEE
libes2fileformat.so:_ZN10CFKBmpUtil14CheckImageInfoERKSt3mapINSt7__cxx1112basic_stringIcSt11char_traitsIcESaIcEEEiSt4lessIS6_ESaISt4pairIKS6_iEEE
libes2fileformat.so:_ZN10CFKBmpUtil18SwapCopyAsBGRBytesEPKhPhj
libes2fileformat.so:_ZN10CFKBmpUtil20GetPaletteEntryCountERK19tagBITMAPINFOHEADER
libes2fileformat.so:_ZN10CFKBmpUtil9GetStrideERK19tagBITMAPINFOHEADER
libes2fileformat.so:_ZN10CFKPnmUtil11GetFileSizeENSt7__cxx1112basic_stringIcSt11char_traitsIcESaIcEEE
libes2fileformat.so:_ZN10CFKPnmUtil14CheckImageInfoERKSt3mapINSt7__cxx1112basic_stringIcSt11char_traitsIcESaIcEEEiSt4lessIS6_ESaISt4pairIKS6_iEEE
libes2fileformat.so:_ZN10CFKPnmUtil8FlipBitsERN12ES_CMN_FUNCS6BUFFER9IESBufferE
libes2fileformat.so:_ZN10CFKPnmUtil9GetStrideERK10tagPNMINFO
libes2fileformat.so:_ZN12CFKBmpWriter10InitializeEv
libes2fileformat.so:_ZN12CFKBmpWriter18IsMultiPageSupportEv
libes2fileformat.so:_ZN12CFKBmpWriter24FinalizeWriterWithOptionEPSt3mapINSt7__cxx1112basic_stringIcSt11char_traitsIcESaIcEEEN5boost3anyESt4lessIS6_ESaISt4pairIKS6_S8_EEER18ENUM_FK_ERROR_CODE
libes2fileformat.so:_ZN12CFKBmpWriter25AppendSourceToDestinationEP9CFKSourceR18ENUM_FK_ERROR_CODE
libes2fileformat.so:_ZN12CFKBmpWriter25CloseWriterPageWithOptionEPSt3mapINSt7__cxx1112basic_stringIcSt11char_traitsIcESaIcEEEN5boost3anyESt4lessIS6_ESaISt4pairIKS6_S8_EEER18ENUM_FK_ERROR_CODE
libes2fileformat.so:_ZN12CFKBmpWriter27OpenWriterPageWithImageInfoEPSt3mapINSt7__cxx1112basic_stringIcSt11char_traitsIcESaIcEEEiSt4lessIS6_ESaISt4pairIKS6_iEEEPS0_IS6_N5boost3anyES8_SaIS9_ISA_SG_EEER18ENUM_FK_ERROR_CODE
libes2fileformat.so:_ZN12CFKBmpWriter30AppendConstSourceToDestinationEPK9CFKSourceR18ENUM_FK_ERROR_CODE
libes2fileformat.so:_ZN12CFKBmpWriter31InitializeWriterWithDestinationEP14CFKDestinationPSt3mapINSt7__cxx1112basic_stringIcSt11char_traitsIcESaIcEEEN5boost3anyESt4lessIS8_ESaISt4pairIKS8_SA_EEER18ENUM_FK_ERROR_CODE
libes2fileformat.so:_ZN12CFKBmpWriterC1Ev
libes2fileformat.so:_ZN12CFKBmpWriterC2Ev
libes2fileformat.so:_ZN12CFKBmpWriterD0Ev
libes2fileformat.so:_ZN12CFKBmpWriterD1Ev
libes2fileformat.so:_ZN12CFKBmpWriterD2Ev
libes2fileformat.so:_ZN12CFKPngWriter10InitializeEv
libes2fileformat.so:_ZN12CFKPngWriter18IsMultiPageSupportEv
libes2fileformat.so:_ZN12CFKPngWriter24FinalizeWriterWithOptionEPSt3mapINSt7__cxx1112basic_stringIcSt11char_traitsIcESaIcEEEN5boost3anyESt4lessIS6_ESaISt4pairIKS6_S8_EEER18ENUM_FK_ERROR_CODE
libes2fileformat.so:_ZN12CFKPngWriter25AppendSourceToDestinationEP9CFKSourceR18ENUM_FK_ERROR_CODE
libes2fileformat.so:_ZN12CFKPngWriter25CloseWriterPageWithOptionEPSt3mapINSt7__cxx1112basic_stringIcSt11char_traitsIcESaIcEEEN5boost3anyESt4lessIS6_ESaISt4pairIKS6_S8_EEER18ENUM_FK_ERROR_CODE
libes2fileformat.so:_ZN12CFKPngWriter27OpenWriterPageWithImageInfoEPSt3mapINSt7__cxx1112basic_stringIcSt11char_traitsIcESaIcEEEiSt4lessIS6_ESaISt4pairIKS6_iEEEPS0_IS6_N5boost3anyES8_SaIS9_ISA_SG_EEER18ENUM_FK_ERROR_CODE
libes2fileformat.so:_ZN12CFKPngWriter30AppendConstSourceToDestinationEPK9CFKSourceR18ENUM_FK_ERROR_CODE
libes2fileformat.so:_ZN12CFKPngWriter31InitializeWriterWithDestinationEP14CFKDestinationPSt3mapINSt7__cxx1112basic_stringIcSt11char_traitsIcESaIcEEEN5boost3anyESt4lessIS8_ESaISt4pairIKS8_SA_EEER18ENUM_FK_ERROR_CODE
libes2fileformat.so:_ZN12CFKPngWriterC1Ev
libes2fileformat.so:_ZN12CFKPngWriterC2Ev
libes2fileformat.so:_ZN12CFKPngWriterD0Ev
libes2fileformat.so:_ZN12CFKPngWriterD1Ev
libes2fileformat.so:_ZN12CFKPngWriterD2Ev
libes2fileformat.so:_ZN12CFKPnmWriter10InitializeEv
libes2fileformat.so:_ZN12CFKPnmWriter18IsMultiPageSupportEv
libes2fileformat.so:_ZN12CFKPnmWriter24FinalizeWriterWithOptionEPSt3mapINSt7__cxx1112basic_stringIcSt11char_traitsIcESaIcEEEN5boost3anyESt4lessIS6_ESaISt4pairIKS6_S8_EEER18ENUM_FK_ERROR_CODE
libes2fileformat.so:_ZN12CFKPnmWriter25AppendSourceToDestinationEP9CFKSourceR18ENUM_FK_ERROR_CODE
libes2fileformat.so:_ZN12CFKPnmWriter25CloseWriterPageWithOptionEPSt3mapINSt7__cxx1112basic_stringIcSt11char_traitsIcESaIcEEEN5boost3anyESt4lessIS6_ESaISt4pairIKS6_S8_EEER18ENUM_FK_ERROR_CODE
libes2fileformat.so:_ZN12CFKPnmWriter27OpenWriterPageWithImageInfoEPSt3mapINSt7__cxx1112basic_stringIcSt11char_traitsIcESaIcEEEiSt4lessIS6_ESaISt4pairIKS6_iEEEPS0_IS6_N5boost3anyES8_SaIS9_ISA_SG_EEER18ENUM_FK_ERROR_CODE
libes2fileformat.so:_ZN12CFKPnmWriter30AppendConstSourceToDestinationEPK9CFKSourceR18ENUM_FK_ERROR_CODE
libes2fileformat.so:_ZN12CFKPnmWriter31InitializeWriterWithDestinationEP14CFKDestinationPSt3mapINSt7__cxx1112basic_stringIcSt11char_traitsIcESaIcEEEN5boost3anyESt4lessIS8_ESaISt4pairIKS8_SA_EEER18ENUM_FK_ERROR_CODE
libes2fileformat.so:_ZN12CFKPnmWriterC1Ev
libes2fileformat.so:_ZN12CFKPnmWriterC2Ev
libes2fileformat.so:_ZN12CFKPnmWriterD0Ev
libes2fileformat.so:_ZN12CFKPnmWriterD1Ev
libes2fileformat.so:_ZN12CFKPnmWriterD2Ev
libes2fileformat.so:_ZN13CFKJpegReader12GetImageInfoERSt3mapINSt7__cxx1112basic_stringIcSt11char_traitsIcESaIcEEEiSt4lessIS6_ESaISt4pairIKS6_iEEE
libes2fileformat.so:_ZN13CFKJpegReader20AppendSourceToReaderEP9IFKSourceR18ENUM_FK_ERROR_CODE
libes2fileformat.so:_ZN13CFKJpegReader26OpenReaderWithOptionAsJsonEPKcR18ENUM_FK_ERROR_CODE
libes2fileformat.so:_ZN13CFKJpegReader27CloseReaderWithOptionAsJsonEPKcR18ENUM_FK_ERROR_CODE
libes2fileformat.so:_ZN13CFKJpegReaderC1Ev
libes2fileformat.so:_ZN13CFKJpegReaderC2Ev
libes2fileformat.so:_ZN13CFKJpegReaderD0Ev
libes2fileformat.so:_ZN13CFKJpegReaderD1Ev
libes2fileformat.so:_ZN13CFKJpegReaderD2Ev
libes2fileformat.so:_ZN13CFKJpegWriter10InitializeEv
libes2fileformat.so:_ZN13CFKJpegWriter18IsMultiPageSupportEv
libes2fileformat.so:_ZN13CFKJpegWriter24FinalizeWriterWithOptionEPSt3mapINSt7__cxx1112basic_stringIcSt11char_traitsIcESaIcEEEN5boost3anyESt4lessIS6_ESaISt4pairIKS6_S8_EEER18ENUM_FK_ERROR_CODE
libes2fileformat.so:_ZN13CFKJpegWriter25AppendSourceToDestinationEP9CFKSourceR18ENUM_FK_ERROR_CODE
libes2fileformat.so:_ZN13CFKJpegWriter25CloseWriterPageWithOptionEPSt3mapINSt7__cxx1112basic_stringIcSt11char_traitsIcESaIcEEEN5boost3anyESt4lessIS6_ESaISt4pairIKS6_S8_EEER18ENUM_FK_ERROR_CODE
libes2fileformat.so:_ZN13CFKJpegWriter27OpenWriterPageWithImageInfoEPSt3mapINSt7__cxx1112basic_stringIcSt11char_traitsIcESaIcEEEiSt4lessIS6_ESaISt4pairIKS6_iEEEPS0_IS6_N5boost3anyES8_SaIS9_ISA_SG_EEER18ENUM_FK_ERROR_CODE
libes2fileformat.so:_ZN13CFKJpegWriter30AppendConstSourceToDestinationEPK9CFKSourceR18ENUM_FK_ERROR_CODE
libes2fileformat.so:_ZN13CFKJpegWriter31InitializeWriterWithDestinationEP14CFKDestinationPSt3mapINSt7__cxx1112basic_stringIcSt11char_traitsIcESaIcEEEN5boost3anyESt4lessIS8_ESaISt4pairIKS8_SA_EEER18ENUM_FK_ERROR_CODE
libes2fileformat.so:_ZN13CFKJpegWriterC1Ev
libes2fileformat.so:_ZN13CFKJpegWriterC2Ev
libes2fileformat.so:_ZN13CFKJpegWriterD0Ev
libes2fileformat.so:_ZN13CFKJpegWriterD1Ev
libes2fileformat.so:_ZN13CFKJpegWriterD2Ev
libes2fileformat.so:_ZN13CFKTiffWriter10InitializeEv
libes2fileformat.so:_ZN13CFKTiffWriter18IsMultiPageSupportEv
libes2fileformat.so:_ZN13CFKTiffWriter23CheckFileFormatMaxbytesEi
libes2fileformat.so:_ZN13CFKTiffWriter24FinalizeWriterWithOptionEPSt3mapINSt7__cxx1112basic_stringIcSt11char_traitsIcESaIcEEEN5boost3anyESt4lessIS6_ESaISt4pairIKS6_S8_EEER18ENUM_FK_ERROR_CODE
libes2fileformat.so:_ZN13CFKTiffWriter25AppendSourceToDestinationEP9CFKSourceR18ENUM_FK_ERROR_CODE
libes2fileformat.so:_ZN13CFKTiffWriter25CloseWriterPageWithOptionEPSt3mapINSt7__cxx1112basic_stringIcSt11char_traitsIcESaIcEEEN5boost3anyESt4lessIS6_ESaISt4pairIKS6_S8_EEER18ENUM_FK_ERROR_CODE
libes2fileformat.so:_ZN13CFKTiffWriter27OpenWriterPageWithImageInfoEPSt3mapINSt7__cxx1112basic_stringIcSt11char_traitsIcESaIcEEEiSt4lessIS6_ESaISt4pairIKS6_iEEEPS0_IS6_N5boost3anyES8_SaIS9_ISA_SG_EEER18ENUM_FK_ERROR_CODE
libes2fileformat.so:_ZN13CFKTiffWriter30AppendConstSourceToDestinationEPK9CFKSourceR18ENUM_FK_ERROR_CODE
libes2fileformat.so:_ZN13CFKTiffWriter31InitializeWriterWithDestinationEP14CFKDestinationPSt3mapINSt7__cxx1112basic_stringIcSt11char_traitsIcESaIcEEEN5boost3anyESt4lessIS8_ESaISt4pairIKS8_SA_EEER18ENUM_FK_ERROR_CODE
libes2fileformat.so:_ZN13CFKTiffWriterC1Ev
libes2fileformat.so:_ZN13CFKTiffWriterC2Ev
libes2fileformat.so:_ZN13CFKTiffWriterD0Ev
libes2fileformat.so:_ZN13CFKTiffWriterD1Ev
libes2fileformat.so:_ZN13CFKTiffWriterD2Ev
libes2fileformat.so:_ZN14CFKDestination17GetUserDataAsJsonER15IESResultString
libes2fileformat.so:_ZN14CFKDestination17SetUserDataAsJsonEPKc
libes2fileformat.so:_ZN14CFKDestination22NotifyReceiveImageDataERN12ES_CMN_FUNCS6BUFFER9IESBufferEPKc
libes2fileformat.so:_ZN14CFKDestination29CreateAndInitInstanceWithTypeE17FKDestinationTypeRN12ES_CMN_FUNCS6BUFFER9IESBufferE
libes2fileformat.so:_ZN14CFKDestination33NotifyDidEndReceivingForImageInfoEPKc
libes2fileformat.so:_ZN14CFKDestination35NotifyDidBeginReceivingForImageInfoEPKc
libes2fileformat.so:_ZN14CFKDestination9GetSourceEv
libes2fileformat.so:_ZN14CFKDestinationC1Ev
libes2fileformat.so:_ZN14CFKDestinationC2Ev
libes2fileformat.so:_ZN14CFKDestinationD0Ev
libes2fileformat.so:_ZN14CFKDestinationD1Ev
libes2fileformat.so:_ZN14CFKDestinationD2Ev
libes2fileformat.so:_ZN16CFKBmpEncodeUtil14InitBitmapInfoERKSt3mapINSt7__cxx1112basic_stringIcSt11char_traitsIcESaIcEEEiSt4lessIS6_ESaISt4pairIKS6_iEEEbi
libes2fileformat.so:_ZN16CFKBmpEncodeUtil19WriteDataAtPositionEP14IFKDestinationPKhjj
libes2fileformat.so:_ZN16CFKBmpEncodeUtil20InitBitmapFileHeaderERKSt3mapINSt7__cxx1112basic_stringIcSt11char_traitsIcESaIcEEEiSt4lessIS6_ESaISt4pairIKS6_iEEER19tagBITMAPFILEHEADER
libes2fileformat.so:_ZN16CFKBmpEncodeUtil21StartEncodingWithDataEP14IFKDestinationRKSt3mapINSt7__cxx1112basic_stringIcSt11char_traitsIcESaIcEEEiSt4lessIS8_ESaISt4pairIKS8_iEEEbiR18ENUM_FK_ERROR_CODE
libes2fileformat.so:_ZN16CFKBmpEncodeUtil21StartEncodingWithPathERKNSt7__cxx1112basic_stringIcSt11char_traitsIcESaIcEEERKSt3mapIS5_iSt4lessIS5_ESaISt4pairIS6_iEEEbiR18ENUM_FK_ERROR_CODE
libes2fileformat.so:_ZN16CFKBmpEncodeUtil22WriteScanlinesWithDataERKN12ES_CMN_FUNCS6BUFFER9IESBufferEP14IFKDestinationR18ENUM_FK_ERROR_CODE
libes2fileformat.so:_ZN16CFKBmpEncodeUtil30FinalizeEncodingAndReturnErrorEP14IFKDestinationR18ENUM_FK_ERROR_CODE
libes2fileformat.so:_ZN16CFKBmpEncodeUtil7DestroyEb
libes2fileformat.so:_ZN16CFKBmpEncodeUtilC1Ev
libes2fileformat.so:_ZN16CFKBmpEncodeUtilC2Ev
libes2fileformat.so:_ZN16CFKBmpEncodeUtilD0Ev
libes2fileformat.so:_ZN16CFKBmpEncodeUtilD1Ev
libes2fileformat.so:_ZN16CFKBmpEncodeUtilD2Ev
libes2fileformat.so:_ZN16CFKPngEncodeUtil19DestroyPngResourcesEb
libes2fileformat.so:_ZN16CFKPngEncodeUtil21StartEncodingWithPathERKNSt7__cxx1112basic_stringIcSt11char_traitsIcESaIcEEERKSt3mapIS5_iSt4lessIS5_ESaISt4pairIS6_iEEER18ENUM_FK_ERROR_CODE
libes2fileformat.so:_ZN16CFKPngEncodeUtil22WriteScanlinesWithDataERKN12ES_CMN_FUNCS6BUFFER9IESBufferER18ENUM_FK_ERROR_CODE
libes2fileformat.so:_ZN16CFKPngEncodeUtil30FinalizeEncodingAndReturnErrorER18ENUM_FK_ERROR_CODE
libes2fileformat.so:_ZN16CFKPngEncodeUtilC1Ev
libes2fileformat.so:_ZN16CFKPngEncodeUtilC2Ev
libes2fileformat.so:_ZN16CFKPngEncodeUtilD0Ev
libes2fileformat.so:_ZN16CFKPngEncodeUtilD1Ev
libes2fileformat.so:_ZN16CFKPngEncodeUtilD2Ev
libes2fileformat.so:_ZN16CFKPnmEncodeUtil11InitPnmInfoERKSt3mapINSt7__cxx1112basic_stringIcSt11char_traitsIcESaIcEEEiSt4lessIS6_ESaISt4pairIKS6_iEEE
libes2fileformat.so:_ZN16CFKPnmEncodeUtil17InitPnmFileHeaderERKSt3mapINSt7__cxx1112basic_stringIcSt11char_traitsIcESaIcEEEiSt4lessIS6_ESaISt4pairIKS6_iEEE
libes2fileformat.so:_ZN16CFKPnmEncodeUtil19WriteDataAtPositionEP14IFKDestinationPKhjj
libes2fileformat.so:_ZN16CFKPnmEncodeUtil21StartEncodingWithDataEP14IFKDestinationRKSt3mapINSt7__cxx1112basic_stringIcSt11char_traitsIcESaIcEEEiSt4lessIS8_ESaISt4pairIKS8_iEEEiR18ENUM_FK_ERROR_CODE
libes2fileformat.so:_ZN16CFKPnmEncodeUtil21StartEncodingWithPathERKNSt7__cxx1112basic_stringIcSt11char_traitsIcESaIcEEERKSt3mapIS5_iSt4lessIS5_ESaISt4pairIS6_iEEEiR18ENUM_FK_ERROR_CODE
libes2fileformat.so:_ZN16CFKPnmEncodeUtil22WriteScanlinesWithDataERKN12ES_CMN_FUNCS6BUFFER9IESBufferEP14IFKDestinationR18ENUM_FK_ERROR_CODE
libes2fileformat.so:_ZN16CFKPnmEncodeUtil30FinalizeEncodingAndReturnErrorEP14IFKDestinationR18ENUM_FK_ERROR_CODE
libes2fileformat.so:_ZN16CFKPnmEncodeUtil7DestroyEb
libes2fileformat.so:_ZN16CFKPnmEncodeUtilC1Ev
libes2fileformat.so:_ZN16CFKPnmEncodeUtilC2Ev
libes2fileformat.so:_ZN16CFKPnmEncodeUtilD0Ev
libes2fileformat.so:_ZN16CFKPnmEncodeUtilD1Ev
libes2fileformat.so:_ZN16CFKPnmEncodeUtilD2Ev
libes2fileformat.so:_ZN16FKTiffEncodeUtil12CloseOutFileEb
libes2fileformat.so:_ZN16FKTiffEncodeUtil12StartWritingEv
libes2fileformat.so:_ZN16FKTiffEncodeUtil13StartWithPathERNSt7__cxx1112basic_stringIcSt11char_traitsIcESaIcEEERSt3mapIS5_iSt4lessIS5_ESaISt4pairIKS5_iEEEjiS6_R18ENUM_FK_ERROR_CODEj
libes2fileformat.so:_ZN16FKTiffEncodeUtil14GetOrientationEv
libes2fileformat.so:_ZN16FKTiffEncodeUtil15FinalizeWritingEv
libes2fileformat.so:_ZN16FKTiffEncodeUtil15GetRowsPerStripEj
libes2fileformat.so:_ZN16FKTiffEncodeUtil16GetPlannerConfigEv
libes2fileformat.so:_ZN16FKTiffEncodeUtil17GetTiffColorSpaceEjj
libes2fileformat.so:_ZN16FKTiffEncodeUtil19OpenOutFileWithPathEPNSt7__cxx1112basic_stringIcSt11char_traitsIcESaIcEEE
libes2fileformat.so:_ZN16FKTiffEncodeUtil19OpenOutFileWithPathEPNSt7__cxx1112basic_stringIcSt11char_traitsIcESaIcEEEi
libes2fileformat.so:_ZN16FKTiffEncodeUtil22FinalizeAndReturnErrorER18ENUM_FK_ERROR_CODE
libes2fileformat.so:_ZN16FKTiffEncodeUtil22WriteScanlinesWithDataERKN12ES_CMN_FUNCS6BUFFER9IESBufferER18ENUM_FK_ERROR_CODE
libes2fileformat.so:_ZN16FKTiffEncodeUtil24WriteScanlinesWithHeightEjjPh
libes2fileformat.so:_ZN16FKTiffEncodeUtil28GetTiffSetICCProfileWithPathEPNSt7__cxx1112basic_stringIcSt11char_traitsIcESaIcEEE
libes2fileformat.so:_ZN16FKTiffEncodeUtil30GetRgbColorSpaceForCompressionEj
libes2fileformat.so:_ZN16FKTiffEncodeUtil31GetMonoColorSpaceForCompressionEj
libes2fileformat.so:_ZN16FKTiffEncodeUtil34WriteScanlinesWithInversePixelDataERKN12ES_CMN_FUNCS6BUFFER9IESBufferER18ENUM_FK_ERROR_CODE
libes2fileformat.so:_ZN16FKTiffEncodeUtilC1Ev
libes2fileformat.so:_ZN16FKTiffEncodeUtilC2Ev
libes2fileformat.so:_ZN16FKTiffEncodeUtilD0Ev
libes2fileformat.so:_ZN16FKTiffEncodeUtilD1Ev
libes2fileformat.so:_ZN16FKTiffEncodeUtilD2Ev
libes2fileformat.so:_ZN17CFKJpegDecodeUtil10AppendDataERN12ES_CMN_FUNCS6BUFFER13CESHeapBufferE
libes2fileformat.so:_ZN17CFKJpegDecodeUtil13scanJpegLinesERN12ES_CMN_FUNCS6BUFFER13CESHeapBufferEiiR18ENUM_FK_ERROR_CODE
libes2fileformat.so:_ZN17CFKJpegDecodeUtil19jpegStartDecompressEv
libes2fileformat.so:_ZN17CFKJpegDecodeUtil24DecodeJpegDataWithResizeERKN12ES_CMN_FUNCS6BUFFER9IESBufferERS2_R8stESSizeIjERNSt7__cxx1112basic_stringIcSt11char_traitsIcESaIcEEE
libes2fileformat.so:_ZN17CFKJpegDecodeUtil25DecodedDataAndReturnErrorERN12ES_CMN_FUNCS6BUFFER13CESHeapBufferER18ENUM_FK_ERROR_CODEii
libes2fileformat.so:_ZN17CFKJpegDecodeUtil27StartDecodingAndReturnErrorER18ENUM_FK_ERROR_CODE
libes2fileformat.so:_ZN17CFKJpegDecodeUtil30FinalizeDecodingAndReturnErrorER18ENUM_FK_ERROR_CODE
libes2fileformat.so:_ZN17CFKJpegDecodeUtilC1Ev
libes2fileformat.so:_ZN17CFKJpegDecodeUtilC2Ev
libes2fileformat.so:_ZN17CFKJpegDecodeUtilD1Ev
libes2fileformat.so:_ZN17CFKJpegDecodeUtilD2Ev
libes2fileformat.so:_ZN17CFKJpegEncodeUtil12CloseOutFileEv
libes2fileformat.so:_ZN17CFKJpegEncodeUtil19OpenOutFileWithPathEPNSt7__cxx1112basic_stringIcSt11char_traitsIcESaIcEEE
libes2fileformat.so:_ZN17CFKJpegEncodeUtil21StartEncodingWithDestEP14CFKDestinationPSt3mapINSt7__cxx1112basic_stringIcSt11char_traitsIcESaIcEEEiSt4lessIS8_ESaISt4pairIKS8_iEEEliS8_R18ENUM_FK_ERROR_CODE
libes2fileformat.so:_ZN17CFKJpegEncodeUtil22WriteScanlinesWithDataERKN12ES_CMN_FUNCS6BUFFER9IESBufferER18ENUM_FK_ERROR_CODE
libes2fileformat.so:_ZN17CFKJpegEncodeUtil24UpdateJpegStructWithDestEP14CFKDestinationPSt3mapINSt7__cxx1112basic_stringIcSt11char_traitsIcESaIcEEEiSt4lessIS8_ESaISt4pairIKS8_iEEEli
libes2fileformat.so:_ZN17CFKJpegEncodeUtil30FinalizeEncodingAndReturnErrorER18ENUM_FK_ERROR_CODE
libes2fileformat.so:_ZN17CFKJpegEncodeUtilC1Ev
libes2fileformat.so:_ZN17CFKJpegEncodeUtilC2Ev
libes2fileformat.so:_ZN17CFKJpegEncodeUtilD1Ev
libes2fileformat.so:_ZN17CFKJpegEncodeUtilD2Ev
libes2fileformat.so:_ZN20FKTiffJpegEncodeUtil12StartWritingEv
libes2fileformat.so:_ZN20FKTiffJpegEncodeUtil15FinalizeWritingEv
libes2fileformat.so:_ZN20FKTiffJpegEncodeUtil15GetRowsPerStripEj
libes2fileformat.so:_ZN20FKTiffJpegEncodeUtil22WriteScanlinesWithDataERKN12ES_CMN_FUNCS6BUFFER9IESBufferER18ENUM_FK_ERROR_CODE
libes2fileformat.so:_ZN20FKTiffJpegEncodeUtil30GetRgbColorSpaceForCompressionEj
libes2fileformat.so:_ZN20FKTiffJpegEncodeUtilC1Ev
libes2fileformat.so:_ZN20FKTiffJpegEncodeUtilC2Ev
libes2fileformat.so:_ZN20FKTiffJpegEncodeUtilD0Ev
libes2fileformat.so:_ZN20FKTiffJpegEncodeUtilD1Ev
libes2fileformat.so:_ZN20FKTiffJpegEncodeUtilD2Ev
libes2fileformat.so:_ZN9CFKReader12AppendSourceEP9IFKSourceR18ENUM_FK_ERROR_CODE
libes2fileformat.so:_ZN9CFKReader12GetImageInfoB5cxx11Ev
libes2fileformat.so:_ZN9CFKReader18GetImageInfoAsJsonER15IESResultString
libes2fileformat.so:_ZN9CFKReader19CloseAndReturnErrorER18ENUM_FK_ERROR_CODE
libes2fileformat.so:_ZN9CFKReader19OpenWithDestinationEP14IFKDestinationR18ENUM_FK_ERROR_CODE
libes2fileformat.so:_ZN9CFKReader21CloseWithOptionAsJsonEPKcR18ENUM_FK_ERROR_CODE
libes2fileformat.so:_ZN9CFKReader22CreateFKReaderWithTypeE12FKReaderType
libes2fileformat.so:_ZN9CFKReader25OpenWithDestinationAsJsonEP14IFKDestinationPKcR18ENUM_FK_ERROR_CODE
libes2fileformat.so:_ZN9CFKReaderC1Ev
libes2fileformat.so:_ZN9CFKReaderC2Ev
libes2fileformat.so:_ZN9CFKReaderD0Ev
libes2fileformat.so:_ZN9CFKReaderD1Ev
libes2fileformat.so:_ZN9CFKReaderD2Ev
libes2fileformat.so:_ZN9CFKSource29CreateAndInitInstanceWithTypeE12FKSourceTypeRN12ES_CMN_FUNCS6BUFFER9IESBufferEi
libes2fileformat.so:_ZN9CFKSource9GetSourceEv
libes2fileformat.so:_ZN9CFKSourceC1Ev
libes2fileformat.so:_ZN9CFKSourceC2Ev
libes2fileformat.so:_ZN9CFKSourceD0Ev
libes2fileformat.so:_ZN9CFKSourceD1Ev
libes2fileformat.so:_ZN9CFKSourceD2Ev
libes2fileformat.so:_ZN9CFKWriter12AppendSourceEP9IFKSourceR18ENUM_FK_ERROR_CODE
libes2fileformat.so:_ZN9CFKWriter12GetPageCountEv
libes2fileformat.so:_ZN9CFKWriter17AppendConstSourceEPK9IFKSourceR18ENUM_FK_ERROR_CODE
libes2fileformat.so:_ZN9CFKWriter21InitializeDestinationEP14IFKDestinationR18ENUM_FK_ERROR_CODE
libes2fileformat.so:_ZN9CFKWriter21OpenPageWithImageInfoEPKcR18ENUM_FK_ERROR_CODE
libes2fileformat.so:_ZN9CFKWriter22CreateFKWriterWithTypeE12FKWriterTypeRSt3mapINSt7__cxx1112basic_stringIcSt11char_traitsIcESaIcEEEN5boost3anyESt4lessIS7_ESaISt4pairIKS7_S9_EEE
libes2fileformat.so:_ZN9CFKWriter22FinalizeAndReturnErrorER18ENUM_FK_ERROR_CODE
libes2fileformat.so:_ZN9CFKWriter23ClosePageAndReturnErrorER18ENUM_FK_ERROR_CODE
libes2fileformat.so:_ZN9CFKWriter24FinalizeWriterWithOptionEPSt3mapINSt7__cxx1112basic_stringIcSt11char_traitsIcESaIcEEEN5boost3anyESt4lessIS6_ESaISt4pairIKS6_S8_EEER18ENUM_FK_ERROR_CODE
libes2fileformat.so:_ZN9CFKWriter25AppendSourceToDestinationEP9CFKSourceR18ENUM_FK_ERROR_CODE
libes2fileformat.so:_ZN9CFKWriter25CloseWriterPageWithOptionEPSt3mapINSt7__cxx1112basic_stringIcSt11char_traitsIcESaIcEEEN5boost3anyESt4lessIS6_ESaISt4pairIKS6_S8_EEER18ENUM_FK_ERROR_CODE
libes2fileformat.so:_ZN9CFKWriter27InitializeDestinationAsJsonEP14IFKDestinationPKcR18ENUM_FK_ERROR_CODE
libes2fileformat.so:_ZN9CFKWriter27OpenPageWithImageInfoAsJsonEPKcS1_R18ENUM_FK_ERROR_CODE
libes2fileformat.so:_ZN9CFKWriter27OpenWriterPageWithImageInfoEPSt3mapINSt7__cxx1112basic_stringIcSt11char_traitsIcESaIcEEEiSt4lessIS6_ESaISt4pairIKS6_iEEEPS0_IS6_N5boost3anyES8_SaIS9_ISA_SG_EEER18ENUM_FK_ERROR_CODE
libes2fileformat.so:_ZN9CFKWriter28FinalizeAndReturnErrorAsJsonEPKcR18ENUM_FK_ERROR_CODE
libes2fileformat.so:_ZN9CFKWriter29ClosePageAndReturnErrorAsJsonEPKcR18ENUM_FK_ERROR_CODE
libes2fileformat.so:_ZN9CFKWriter30AppendConstSourceToDestinationEPK9CFKSourceR18ENUM_FK_ERROR_CODE
libes2fileformat.so:_ZN9CFKWriter31InitializeWriterWithDestinationEP14CFKDestinationPSt3mapINSt7__cxx1112basic_stringIcSt11char_traitsIcESaIcEEEN5boost3anyESt4lessIS8_ESaISt4pairIKS8_SA_EEER18ENUM_FK_ERROR_CODE
libes2fileformat.so:_ZN9CFKWriterC1Ev
libes2fileformat.so:_ZN9CFKWriterC2Ev
libes2fileformat.so:_ZN9CFKWriterD0Ev
libes2fileformat.so:_ZN9CFKWriterD1Ev
libes2fileformat.so:_ZN9CFKWriterD2Ev
libes2fileformat.so:_ZNK9CFKSource14GetConstSourceEv
libes2fileformat.so:_ZNK9CFKWriter16CheckWriterStateE13FKWriterStateR18ENUM_FK_ERROR_CODE
libes2fileformat.so:_ZThn80_N13CFKJpegReader20AppendSourceToReaderEP9IFKSourceR18ENUM_FK_ERROR_CODE
libes2fileformat.so:_ZThn80_N13CFKJpegReader26OpenReaderWithOptionAsJsonEPKcR18ENUM_FK_ERROR_CODE
libes2fileformat.so:_ZThn80_N13CFKJpegReader27CloseReaderWithOptionAsJsonEPKcR18ENUM_FK_ERROR_CODE
libsane-epsonscan2.so:_Z14epsonscan_openPKcPPv
libsane-epsonscan2.so:_Z17calculate_mm_sizeid
libsane-epsonscan2.so:_Z20calculate_pixel_sizeid
libsane-epsonscan2.so:_Z20restrict_value_rangeiii
libsane-epsonscan2.so:_Z23select_current_doc_sizeP13Epson_Scanner8SCANPARA
libsane-epsonscan2.so:_Z26calculate_pixel_size_inchiid
libsane-epsonscan2.so:_ZN10DeviceList11device_listB5cxx11E
libsane-epsonscan2.so:_ZN10DeviceList13select_deviceE
libsane-epsonscan2.so:_ZN10DeviceList22select_manu_ip_addressE
libsane-epsonscan2.so:_ZN10DeviceList24manu_network_device_listB5cxx11E
libsane-epsonscan2.so:_ZN10DeviceList4listEPKc
libsane-epsonscan2.so:_ZN10DeviceList9show_listEv
libsane-epsonscan2.so:_ZN10DeviceListC1Ev
libsane-epsonscan2.so:_ZN10DeviceListC2Ev
libsane-epsonscan2.so:_ZN10DeviceListD1Ev
libsane-epsonscan2.so:_ZN10DeviceListD2Ev
libsane-epsonscan2.so:_ZN10Supervisor10Scan_StartE16SDIOperationType
libsane-epsonscan2.so:_ZN10Supervisor11Dispose_PtrEv
libsane-epsonscan2.so:_ZN10Supervisor11Save_Image2EPFviiE
libsane-epsonscan2.so:_ZN10Supervisor13Get_All_ValueEv
libsane-epsonscan2.so:_ZN10Supervisor13Set_All_ValueEv
libsane-epsonscan2.so:_ZN10Supervisor14Scan_TerminateEv
libsane-epsonscan2.so:_ZN10Supervisor15Cancel_ScanningEv
libsane-epsonscan2.so:_ZN10Supervisor15Dispose_ScannerEv
libsane-epsonscan2.so:_ZN10Supervisor17CheckImageIsBlankEv
libsane-epsonscan2.so:_ZN10Supervisor17Continue_ScanningEv
libsane-epsonscan2.so:_ZN10Supervisor17DeviceInfoResolveEP13SDIDeviceInfo
libsane-epsonscan2.so:_ZN10Supervisor17Get_Counter_ValueEv
libsane-epsonscan2.so:_ZN10Supervisor17SANEManuNetfinderEv
libsane-epsonscan2.so:_ZN10Supervisor18CheckScanningErrorE8SDIError
libsane-epsonscan2.so:_ZN10Supervisor18Connecting_ScannerE13SDIDeviceInfoPFvP16SDIScannerDriver21SDIInterruptEventTypePvE
libsane-epsonscan2.so:_ZN10Supervisor18GetScannerPositionEv
libsane-epsonscan2.so:_ZN10Supervisor19Get_Exclusion_ValueEv
libsane-epsonscan2.so:_ZN10Supervisor19Set_Exclusion_ValueEv
libsane-epsonscan2.so:_ZN10Supervisor20GetPaperLoadedStatusEv
libsane-epsonscan2.so:_ZN10Supervisor21Disconnecting_ScannerEv
libsane-epsonscan2.so:_ZN10Supervisor22CheckDeviceErrorStatusEv
libsane-epsonscan2.so:_ZN10Supervisor22CheckNextTransferEventEb
libsane-epsonscan2.so:_ZN10Supervisor24Set_RollerCouunter_ValueEv
libsane-epsonscan2.so:_ZN10Supervisor26Reset_RollerCouunter_ValueEv
libsane-epsonscan2.so:_ZN10Supervisor33GetUnscannebleScanParameterStatusEv
libsane-epsonscan2.so:_ZN10Supervisor33Get_AdministratorRestrictedStatusEv
libsane-epsonscan2.so:_ZN10Supervisor36Check_SupportAdministratorRestrictedEv
libsane-epsonscan2.so:_ZN10Supervisor36Send_AdministratorRestrictedPasswordENSt7__cxx1112basic_stringIcSt11char_traitsIcESaIcEEE
libsane-epsonscan2.so:_ZN10Supervisor40GetUnscannebleScanParameterForAFMCStatusEv
libsane-epsonscan2.so:_ZN10Supervisor5SetUpEv
libsane-epsonscan2.so:_ZN10Supervisor8ScanningEv
libsane-epsonscan2.so:_ZN10Supervisor9Get_ImageEv
libsane-epsonscan2.so:_ZN10Supervisor9Save_PathEv
libsane-epsonscan2.so:_ZN10Supervisor9TerminateEv
libsane-epsonscan2.so:_ZN10SupervisorC1Ev
libsane-epsonscan2.so:_ZN10SupervisorC2Ev
libsane-epsonscan2.so:_ZN15DefaultSettings13SetDeviceDataENSt7__cxx1112basic_stringIcSt11char_traitsIcESaIcEEEP8SCANPARA
libsane-epsonscan2.so:_ZN15DefaultSettings16ReadSettingsFileEP8SCANPARA
libsane-epsonscan2.so:_ZN15DefaultSettings24CheckDefaultSettingsFileEv
libsane-epsonscan2.so:_ZN15DefaultSettings25DeleteDefaultSettingsFileEv
libsane-epsonscan2.so:_ZN15DefaultSettingsC1Ev
libsane-epsonscan2.so:_ZN15DefaultSettingsC2Ev
libsane-epsonscan2.so:_ZN17SaveImagePathList20save_image_path_listB5cxx11E
libsane-epsonscan2.so:_ZN17SaveImagePathListC1Ev
libsane-epsonscan2.so:_ZN17SaveImagePathListC2Ev
libsane-epsonscan2.so:calculate_pixel_size
libsane-epsonscan2.so:check_error
libsane-epsonscan2.so:dip_flip_bits
libsane-epsonscan2.so:handle_scan_area
libsane-epsonscan2.so:list_append
libsane-epsonscan2.so:list_create
libsane-epsonscan2.so:list_destroy
libsane-epsonscan2.so:list_next
libsane-epsonscan2.so:list_normalize
libsane-epsonscan2.so:list_reset
libsane-epsonscan2.so:list_size
libsane-epsonscan2.so:sane_epsonscan2_cancel
libsane-epsonscan2.so:sane_epsonscan2_close
libsane-epsonscan2.so:sane_epsonscan2_control_option
libsane-epsonscan2.so:sane_epsonscan2_exit
libsane-epsonscan2.so:sane_epsonscan2_get_devices
libsane-epsonscan2.so:sane_epsonscan2_get_option_descriptor
libsane-epsonscan2.so:sane_epsonscan2_get_parameters
libsane-epsonscan2.so:sane_epsonscan2_get_select_fd
libsane-epsonscan2.so:sane_epsonscan2_init
libsane-epsonscan2.so:sane_epsonscan2_open
libsane-epsonscan2.so:sane_epsonscan2_read
libsane-epsonscan2.so:sane_epsonscan2_set_io_mode
libsane-epsonscan2.so:sane_epsonscan2_start
