libKQuickImageEditor.so.1:_Z44qml_register_types_org_kde_kquickimageeditorv
libKQuickImageEditor.so.1:_ZN14AnnotationTool11fontChangedERK5QFont
libKQuickImageEditor.so.1:_ZN14AnnotationTool11qt_metacallEN11QMetaObject4CallEiPPv
libKQuickImageEditor.so.1:_ZN14AnnotationTool11qt_metacastEPKc
libKQuickImageEditor.so.1:_ZN14AnnotationTool11resetNumberEv
libKQuickImageEditor.so.1:_ZN14AnnotationTool11resetShadowEv
libKQuickImageEditor.so.1:_ZN14AnnotationTool11setGeometryERK6QRectF
libKQuickImageEditor.so.1:_ZN14AnnotationTool11setStrengthEd
libKQuickImageEditor.so.1:_ZN14AnnotationTool11typeChangedEv
libKQuickImageEditor.so.1:_ZN14AnnotationTool12setFillColorERK6QColor
libKQuickImageEditor.so.1:_ZN14AnnotationTool12setFontColorERK6QColor
libKQuickImageEditor.so.1:_ZN14AnnotationTool13numberChangedEi
libKQuickImageEditor.so.1:_ZN14AnnotationTool13resetGeometryEv
libKQuickImageEditor.so.1:_ZN14AnnotationTool13resetStrengthEv
libKQuickImageEditor.so.1:_ZN14AnnotationTool13shadowChangedEb
libKQuickImageEditor.so.1:_ZN14AnnotationTool14optionsChangedEv
libKQuickImageEditor.so.1:_ZN14AnnotationTool14resetFillColorEv
libKQuickImageEditor.so.1:_ZN14AnnotationTool14resetFontColorEv
libKQuickImageEditor.so.1:_ZN14AnnotationTool14setAspectRatioEd
libKQuickImageEditor.so.1:_ZN14AnnotationTool14setStrokeColorERK6QColor
libKQuickImageEditor.so.1:_ZN14AnnotationTool14setStrokeWidthEi
libKQuickImageEditor.so.1:_ZN14AnnotationTool15geometryChangedERK6QRectF
libKQuickImageEditor.so.1:_ZN14AnnotationTool15strengthChangedEd
libKQuickImageEditor.so.1:_ZN14AnnotationTool16fillColorChangedERK6QColor
libKQuickImageEditor.so.1:_ZN14AnnotationTool16fontColorChangedERK6QColor
libKQuickImageEditor.so.1:_ZN14AnnotationTool16resetAspectRatioEv
libKQuickImageEditor.so.1:_ZN14AnnotationTool16resetStrokeColorEv
libKQuickImageEditor.so.1:_ZN14AnnotationTool16resetStrokeWidthEv
libKQuickImageEditor.so.1:_ZN14AnnotationTool16staticMetaObjectE
libKQuickImageEditor.so.1:_ZN14AnnotationTool18aspectRatioChangedEd
libKQuickImageEditor.so.1:_ZN14AnnotationTool18strokeColorChangedERK6QColor
libKQuickImageEditor.so.1:_ZN14AnnotationTool18strokeWidthChangedEi
libKQuickImageEditor.so.1:_ZN14AnnotationTool7setFontERK5QFont
libKQuickImageEditor.so.1:_ZN14AnnotationTool7setTypeENS_4ToolE
libKQuickImageEditor.so.1:_ZN14AnnotationTool9resetFontEv
libKQuickImageEditor.so.1:_ZN14AnnotationTool9resetTypeEv
libKQuickImageEditor.so.1:_ZN14AnnotationTool9setNumberEi
libKQuickImageEditor.so.1:_ZN14AnnotationTool9setShadowEb
libKQuickImageEditor.so.1:_ZN14AnnotationToolC1EP7QObject
libKQuickImageEditor.so.1:_ZN14AnnotationToolC2EP7QObject
libKQuickImageEditor.so.1:_ZN14AnnotationToolD0Ev
libKQuickImageEditor.so.1:_ZN14AnnotationToolD1Ev
libKQuickImageEditor.so.1:_ZN14AnnotationToolD2Ev
libKQuickImageEditor.so.1:_ZN18AnnotationDocument10cropCanvasERK6QRectF
libKQuickImageEditor.so.1:_ZN18AnnotationDocument10finishItemEv
libKQuickImageEditor.so.1:_ZN18AnnotationDocument10selectItemERK6QRectF
libKQuickImageEditor.so.1:_ZN18AnnotationDocument11qt_metacallEN11QMetaObject4CallEiPPv
libKQuickImageEditor.so.1:_ZN18AnnotationDocument11qt_metacastEPKc
libKQuickImageEditor.so.1:_ZN18AnnotationDocument11setModifiedEb
libKQuickImageEditor.so.1:_ZN18AnnotationDocument12continueItemERK7QPointF6QFlagsINS_14ContinueOptionEE
libKQuickImageEditor.so.1:_ZN18AnnotationDocument12deselectItemEv
libKQuickImageEditor.so.1:_ZN18AnnotationDocument12setBaseImageERK4QUrl
libKQuickImageEditor.so.1:_ZN18AnnotationDocument12setBaseImageERK6QImage
libKQuickImageEditor.so.1:_ZN18AnnotationDocument12setBaseImageERK7QString
libKQuickImageEditor.so.1:_ZN18AnnotationDocument13repaintNeededE6QFlagsINS_11RepaintTypeEE
libKQuickImageEditor.so.1:_ZN18AnnotationDocument14applyTransformERK10QMatrix4x4
libKQuickImageEditor.so.1:_ZN18AnnotationDocument15imageDprChangedEv
libKQuickImageEditor.so.1:_ZN18AnnotationDocument15modifiedChangedEv
libKQuickImageEditor.so.1:_ZN18AnnotationDocument16clearAnnotationsEv
libKQuickImageEditor.so.1:_ZN18AnnotationDocument16imageSizeChangedEv
libKQuickImageEditor.so.1:_ZN18AnnotationDocument16staticMetaObjectE
libKQuickImageEditor.so.1:_ZN18AnnotationDocument16transformChangedEv
libKQuickImageEditor.so.1:_ZN18AnnotationDocument17canvasRectChangedEv
libKQuickImageEditor.so.1:_ZN18AnnotationDocument18deleteSelectedItemEv
libKQuickImageEditor.so.1:_ZN18AnnotationDocument21redoStackDepthChangedEv
libKQuickImageEditor.so.1:_ZN18AnnotationDocument21undoStackDepthChangedEv
libKQuickImageEditor.so.1:_ZN18AnnotationDocument26selectedItemWrapperChangedEv
libKQuickImageEditor.so.1:_ZN18AnnotationDocument4redoEv
libKQuickImageEditor.so.1:_ZN18AnnotationDocument4undoEv
libKQuickImageEditor.so.1:_ZN18AnnotationDocument5clearEv
libKQuickImageEditor.so.1:_ZN18AnnotationDocument9beginItemERK7QPointF
libKQuickImageEditor.so.1:_ZN18AnnotationDocumentC1EP7QObject
libKQuickImageEditor.so.1:_ZN18AnnotationDocumentC2EP7QObject
libKQuickImageEditor.so.1:_ZN18AnnotationDocumentD0Ev
libKQuickImageEditor.so.1:_ZN18AnnotationDocumentD1Ev
libKQuickImageEditor.so.1:_ZN18AnnotationDocumentD2Ev
libKQuickImageEditor.so.1:_ZN18AnnotationViewport10itemChangeEN10QQuickItem10ItemChangeERKNS0_14ItemChangeDataE
libKQuickImageEditor.so.1:_ZN18AnnotationViewport11qt_metacallEN11QMetaObject4CallEiPPv
libKQuickImageEditor.so.1:_ZN18AnnotationViewport11qt_metacastEPKc
libKQuickImageEditor.so.1:_ZN18AnnotationViewport11setDocumentEP18AnnotationDocument
libKQuickImageEditor.so.1:_ZN18AnnotationViewport13keyPressEventEP9QKeyEvent
libKQuickImageEditor.so.1:_ZN18AnnotationViewport14hoverMoveEventEP11QHoverEvent
libKQuickImageEditor.so.1:_ZN18AnnotationViewport14hoveredChangedEv
libKQuickImageEditor.so.1:_ZN18AnnotationViewport14mouseMoveEventEP11QMouseEvent
libKQuickImageEditor.so.1:_ZN18AnnotationViewport14pressedChangedEv
libKQuickImageEditor.so.1:_ZN18AnnotationViewport15documentChangedEv
libKQuickImageEditor.so.1:_ZN18AnnotationViewport15hoverEnterEventEP11QHoverEvent
libKQuickImageEditor.so.1:_ZN18AnnotationViewport15hoverLeaveEventEP11QHoverEvent
libKQuickImageEditor.so.1:_ZN18AnnotationViewport15keyReleaseEventEP9QKeyEvent
libKQuickImageEditor.so.1:_ZN18AnnotationViewport15mousePressEventEP11QMouseEvent
libKQuickImageEditor.so.1:_ZN18AnnotationViewport15setViewportRectERK6QRectF
libKQuickImageEditor.so.1:_ZN18AnnotationViewport15updatePaintNodeEP7QSGNodePN10QQuickItem19UpdatePaintNodeDataE
libKQuickImageEditor.so.1:_ZN18AnnotationViewport16staticMetaObjectE
libKQuickImageEditor.so.1:_ZN18AnnotationViewport17anyPressedChangedEv
libKQuickImageEditor.so.1:_ZN18AnnotationViewport17mouseReleaseEventEP11QMouseEvent
libKQuickImageEditor.so.1:_ZN18AnnotationViewport19viewportRectChangedEv
libKQuickImageEditor.so.1:_ZN18AnnotationViewport20hoverPositionChangedEv
libKQuickImageEditor.so.1:_ZN18AnnotationViewport20pressPositionChangedEv
libKQuickImageEditor.so.1:_ZN18AnnotationViewport23hoveredMousePathChangedEv
libKQuickImageEditor.so.1:_ZN18AnnotationViewportC1EP10QQuickItem
libKQuickImageEditor.so.1:_ZN18AnnotationViewportC2EP10QQuickItem
libKQuickImageEditor.so.1:_ZN18AnnotationViewportD0Ev
libKQuickImageEditor.so.1:_ZN18AnnotationViewportD1Ev
libKQuickImageEditor.so.1:_ZN18AnnotationViewportD2Ev
libKQuickImageEditor.so.1:_ZN19SelectedItemWrapper11fontChangedEv
libKQuickImageEditor.so.1:_ZN19SelectedItemWrapper11qt_metacallEN11QMetaObject4CallEiPPv
libKQuickImageEditor.so.1:_ZN19SelectedItemWrapper11qt_metacastEPKc
libKQuickImageEditor.so.1:_ZN19SelectedItemWrapper11setStrengthEd
libKQuickImageEditor.so.1:_ZN19SelectedItemWrapper11textChangedEv
libKQuickImageEditor.so.1:_ZN19SelectedItemWrapper12setFillColorERK6QColor
libKQuickImageEditor.so.1:_ZN19SelectedItemWrapper12setFontColorERK6QColor
libKQuickImageEditor.so.1:_ZN19SelectedItemWrapper13commitChangesEv
libKQuickImageEditor.so.1:_ZN19SelectedItemWrapper13numberChangedEv
libKQuickImageEditor.so.1:_ZN19SelectedItemWrapper13shadowChangedEv
libKQuickImageEditor.so.1:_ZN19SelectedItemWrapper14applyTransformERK10QMatrix4x4
libKQuickImageEditor.so.1:_ZN19SelectedItemWrapper14setStrokeColorERK6QColor
libKQuickImageEditor.so.1:_ZN19SelectedItemWrapper14setStrokeWidthEi
libKQuickImageEditor.so.1:_ZN19SelectedItemWrapper15strengthChangedEv
libKQuickImageEditor.so.1:_ZN19SelectedItemWrapper16fillColorChangedEv
libKQuickImageEditor.so.1:_ZN19SelectedItemWrapper16fontColorChangedEv
libKQuickImageEditor.so.1:_ZN19SelectedItemWrapper16mousePathChangedEv
libKQuickImageEditor.so.1:_ZN19SelectedItemWrapper16staticMetaObjectE
libKQuickImageEditor.so.1:_ZN19SelectedItemWrapper16transformChangedEv
libKQuickImageEditor.so.1:_ZN19SelectedItemWrapper18strokeColorChangedEv
libKQuickImageEditor.so.1:_ZN19SelectedItemWrapper18strokeWidthChangedEv
libKQuickImageEditor.so.1:_ZN19SelectedItemWrapper19geometryPathChangedEv
libKQuickImageEditor.so.1:_ZN19SelectedItemWrapper7setFontERK5QFont
libKQuickImageEditor.so.1:_ZN19SelectedItemWrapper7setTextERK7QString
libKQuickImageEditor.so.1:_ZN19SelectedItemWrapper9setNumberEi
libKQuickImageEditor.so.1:_ZN19SelectedItemWrapper9setShadowEb
libKQuickImageEditor.so.1:_ZN19SelectedItemWrapperC1EP18AnnotationDocument
libKQuickImageEditor.so.1:_ZN19SelectedItemWrapperC2EP18AnnotationDocument
libKQuickImageEditor.so.1:_ZN19SelectedItemWrapperD0Ev
libKQuickImageEditor.so.1:_ZN19SelectedItemWrapperD1Ev
libKQuickImageEditor.so.1:_ZN19SelectedItemWrapperD2Ev
libKQuickImageEditor.so.1:_ZNK14AnnotationTool10isMetaToolEv
libKQuickImageEditor.so.1:_ZNK14AnnotationTool10metaObjectEv
libKQuickImageEditor.so.1:_ZNK14AnnotationTool11aspectRatioEv
libKQuickImageEditor.so.1:_ZNK14AnnotationTool11strokeColorEv
libKQuickImageEditor.so.1:_ZNK14AnnotationTool11strokeWidthEv
libKQuickImageEditor.so.1:_ZNK14AnnotationTool14isCreationToolEv
libKQuickImageEditor.so.1:_ZNK14AnnotationTool4fontEv
libKQuickImageEditor.so.1:_ZNK14AnnotationTool4typeEv
libKQuickImageEditor.so.1:_ZNK14AnnotationTool6numberEv
libKQuickImageEditor.so.1:_ZNK14AnnotationTool7optionsEv
libKQuickImageEditor.so.1:_ZNK14AnnotationTool8geometryEv
libKQuickImageEditor.so.1:_ZNK14AnnotationTool8isNoToolEv
libKQuickImageEditor.so.1:_ZNK14AnnotationTool8strengthEv
libKQuickImageEditor.so.1:_ZNK14AnnotationTool9fillColorEv
libKQuickImageEditor.so.1:_ZNK14AnnotationTool9fontColorEv
libKQuickImageEditor.so.1:_ZNK14AnnotationTool9hasShadowEv
libKQuickImageEditor.so.1:_ZNK18AnnotationDocument10canvasRectEv
libKQuickImageEditor.so.1:_ZNK18AnnotationDocument10isModifiedEv
libKQuickImageEditor.so.1:_ZNK18AnnotationDocument10metaObjectEv
libKQuickImageEditor.so.1:_ZNK18AnnotationDocument13renderToImageEv
libKQuickImageEditor.so.1:_ZNK18AnnotationDocument14inputTransformEv
libKQuickImageEditor.so.1:_ZNK18AnnotationDocument14redoStackDepthEv
libKQuickImageEditor.so.1:_ZNK18AnnotationDocument14undoStackDepthEv
libKQuickImageEditor.so.1:_ZNK18AnnotationDocument15canvasBaseImageEv
libKQuickImageEditor.so.1:_ZNK18AnnotationDocument15renderTransformEv
libKQuickImageEditor.so.1:_ZNK18AnnotationDocument16annotationsImageEv
libKQuickImageEditor.so.1:_ZNK18AnnotationDocument18isCurrentItemValidEv
libKQuickImageEditor.so.1:_ZNK18AnnotationDocument19selectedItemWrapperEv
libKQuickImageEditor.so.1:_ZNK18AnnotationDocument4toolEv
libKQuickImageEditor.so.1:_ZNK18AnnotationDocument8imageDprEv
libKQuickImageEditor.so.1:_ZNK18AnnotationDocument9baseImageEv
libKQuickImageEditor.so.1:_ZNK18AnnotationDocument9imageSizeEv
libKQuickImageEditor.so.1:_ZNK18AnnotationDocument9saveImageERK7QString
libKQuickImageEditor.so.1:_ZNK18AnnotationDocument9transformEv
libKQuickImageEditor.so.1:_ZNK18AnnotationViewport10metaObjectEv
libKQuickImageEditor.so.1:_ZNK18AnnotationViewport12isAnyPressedEv
libKQuickImageEditor.so.1:_ZNK18AnnotationViewport12viewportRectEv
libKQuickImageEditor.so.1:_ZNK18AnnotationViewport13hoverPositionEv
libKQuickImageEditor.so.1:_ZNK18AnnotationViewport13pressPositionEv
libKQuickImageEditor.so.1:_ZNK18AnnotationViewport16hoveredMousePathEv
libKQuickImageEditor.so.1:_ZNK18AnnotationViewport8documentEv
libKQuickImageEditor.so.1:_ZNK18AnnotationViewport9isHoveredEv
libKQuickImageEditor.so.1:_ZNK18AnnotationViewport9isPressedEv
libKQuickImageEditor.so.1:_ZNK19SelectedItemWrapper10metaObjectEv
libKQuickImageEditor.so.1:_ZNK19SelectedItemWrapper11strokeColorEv
libKQuickImageEditor.so.1:_ZNK19SelectedItemWrapper11strokeWidthEv
libKQuickImageEditor.so.1:_ZNK19SelectedItemWrapper12geometryPathEv
libKQuickImageEditor.so.1:_ZNK19SelectedItemWrapper12hasSelectionEv
libKQuickImageEditor.so.1:_ZNK19SelectedItemWrapper4fontEv
libKQuickImageEditor.so.1:_ZNK19SelectedItemWrapper4textEv
libKQuickImageEditor.so.1:_ZNK19SelectedItemWrapper6numberEv
libKQuickImageEditor.so.1:_ZNK19SelectedItemWrapper7optionsEv
libKQuickImageEditor.so.1:_ZNK19SelectedItemWrapper8strengthEv
libKQuickImageEditor.so.1:_ZNK19SelectedItemWrapper9fillColorEv
libKQuickImageEditor.so.1:_ZNK19SelectedItemWrapper9fontColorEv
libKQuickImageEditor.so.1:_ZNK19SelectedItemWrapper9hasShadowEv
libKQuickImageEditor.so.1:_ZNK19SelectedItemWrapper9mousePathEv
libKQuickImageEditor.so.1:_ZNK19SelectedItemWrapper9transformEv
libKQuickImageEditor.so.1:_ZTI14AnnotationTool
libKQuickImageEditor.so.1:_ZTI18AnnotationDocument
libKQuickImageEditor.so.1:_ZTI18AnnotationViewport
libKQuickImageEditor.so.1:_ZTI19SelectedItemWrapper
libKQuickImageEditor.so.1:_ZTS14AnnotationTool
libKQuickImageEditor.so.1:_ZTS18AnnotationDocument
libKQuickImageEditor.so.1:_ZTS18AnnotationViewport
libKQuickImageEditor.so.1:_ZTS19SelectedItemWrapper
libKQuickImageEditor.so.1:_ZTV14AnnotationTool
libKQuickImageEditor.so.1:_ZTV18AnnotationDocument
libKQuickImageEditor.so.1:_ZTV18AnnotationViewport
libKQuickImageEditor.so.1:_ZTV19SelectedItemWrapper
libKQuickImageEditor.so.1:_ZThn16_N18AnnotationViewportD0Ev
libKQuickImageEditor.so.1:_ZThn16_N18AnnotationViewportD1Ev
libKQuickImageEditorplugin.so:qt_plugin_instance
libKQuickImageEditorplugin.so:qt_plugin_query_metadata_v2
