rclone-browser:_IO_stdin_used
rclone-browser:_Z11GetSettingsv
rclone-browser:_Z12ReadSettingsP9QSettingsP7QObject
rclone-browser:_Z13GetRcloneConfv
rclone-browser:_Z13GetShowHiddenv
rclone-browser:_Z13SetRcloneConfRK7QString
rclone-browser:_Z13WriteSettingsP9QSettingsP7QObject
rclone-browser:_Z14IsPortableModev
rclone-browser:_Z14compareVersionNSt7__cxx1112basic_stringIcSt11char_traitsIcESaIcEEES4_
rclone-browser:_Z17SetRclonePasswordRK7QString
rclone-browser:_Z17UseRclonePasswordP8QProcess
rclone-browser:_Z20GetDriveSharedWithMev
rclone-browser:_Z24qInitResources_resourcesv
rclone-browser:_Z27GetDefaultRcloneOptionsListv
rclone-browser:_Z27qCleanupResources_resourcesv
rclone-browser:_Z5splitRKNSt7__cxx1112basic_stringIcSt11char_traitsIcESaIcEEEc
rclone-browser:_Z9GetRclonev
rclone-browser:_Z9SetRcloneRK7QString
rclone-browser:_ZN10JobOptions12classVersionE
rclone-browser:_ZN10JobOptionsC1Eb
rclone-browser:_ZN10JobOptionsC1Ev
rclone-browser:_ZN10JobOptionsC2Eb
rclone-browser:_ZN10JobOptionsC2Ev
rclone-browser:_ZN10JobOptionsD1Ev
rclone-browser:_ZN10JobOptionsD2Ev
rclone-browser:_ZN10MainWindow10closeEventEP11QCloseEvent
rclone-browser:_ZN10MainWindow11addTransferERK7QStringS2_S2_RK11QStringList
rclone-browser:_ZN10MainWindow11qt_metacallEN11QMetaObject4CallEiPPv
rclone-browser:_ZN10MainWindow11qt_metacastEPKc
rclone-browser:_ZN10MainWindow12rcloneConfigEv
rclone-browser:_ZN10MainWindow16editSelectedTaskEv
rclone-browser:_ZN10MainWindow16rcloneGetVersionEv
rclone-browser:_ZN10MainWindow16staticMetaObjectE
rclone-browser:_ZN10MainWindow17getConfigPasswordEP8QProcess
rclone-browser:_ZN10MainWindow17rcloneListRemotesEv
rclone-browser:_ZN10MainWindow7runItemEP24JobOptionsListWidgetItemb
rclone-browser:_ZN10MainWindow8addMountERK7QStringS2_
rclone-browser:_ZN10MainWindow8canCloseEv
rclone-browser:_ZN10MainWindow9addStreamERK7QStringS2_
rclone-browser:_ZN10MainWindow9listTasksEv
rclone-browser:_ZN10MainWindowC1Ev
rclone-browser:_ZN10MainWindowC2Ev
rclone-browser:_ZN10MainWindowD0Ev
rclone-browser:_ZN10MainWindowD1Ev
rclone-browser:_ZN10MainWindowD2Ev
rclone-browser:_ZN11MountWidget11qt_metacallEN11QMetaObject4CallEiPPv
rclone-browser:_ZN11MountWidget11qt_metacastEPKc
rclone-browser:_ZN11MountWidget16staticMetaObjectE
rclone-browser:_ZN11MountWidget6cancelEv
rclone-browser:_ZN11MountWidget6closedEv
rclone-browser:_ZN11MountWidget8finishedEv
rclone-browser:_ZN11MountWidgetC1EP8QProcessRK7QStringS4_P7QWidget
rclone-browser:_ZN11MountWidgetC2EP8QProcessRK7QStringS4_P7QWidget
rclone-browser:_ZN11MountWidgetD0Ev
rclone-browser:_ZN11MountWidgetD1Ev
rclone-browser:_ZN11MountWidgetD2Ev
rclone-browser:_ZN12ExportDialog11qt_metacallEN11QMetaObject4CallEiPPv
rclone-browser:_ZN12ExportDialog11qt_metacastEPKc
rclone-browser:_ZN12ExportDialog16staticMetaObjectE
rclone-browser:_ZN12ExportDialog4doneEi
rclone-browser:_ZN12ExportDialogC1ERK7QStringRK4QDirP7QWidget
rclone-browser:_ZN12ExportDialogC2ERK7QStringRK4QDirP7QWidget
rclone-browser:_ZN12ExportDialogD0Ev
rclone-browser:_ZN12ExportDialogD1Ev
rclone-browser:_ZN12ExportDialogD2Ev
rclone-browser:_ZN12RemoteWidget11addTransferERK7QStringS2_S2_RK11QStringList
rclone-browser:_ZN12RemoteWidget11qt_metacallEN11QMetaObject4CallEiPPv
rclone-browser:_ZN12RemoteWidget11qt_metacastEPKc
rclone-browser:_ZN12RemoteWidget16staticMetaObjectE
rclone-browser:_ZN12RemoteWidget8addMountERK7QStringS2_
rclone-browser:_ZN12RemoteWidget9addStreamERK7QStringS2_
rclone-browser:_ZN12RemoteWidgetC1EP9IconCacheRK7QStringbbP7QWidget
rclone-browser:_ZN12RemoteWidgetC2EP9IconCacheRK7QStringbbP7QWidget
rclone-browser:_ZN12RemoteWidgetD0Ev
rclone-browser:_ZN12RemoteWidgetD1Ev
rclone-browser:_ZN12RemoteWidgetD2Ev
rclone-browser:_ZN12StreamWidget11qt_metacallEN11QMetaObject4CallEiPPv
rclone-browser:_ZN12StreamWidget11qt_metacastEPKc
rclone-browser:_ZN12StreamWidget16staticMetaObjectE
rclone-browser:_ZN12StreamWidget6cancelEv
rclone-browser:_ZN12StreamWidget6closedEv
rclone-browser:_ZN12StreamWidget8finishedEv
rclone-browser:_ZN12StreamWidgetC1EP8QProcessS1_RK7QStringS4_P7QWidget
rclone-browser:_ZN12StreamWidgetC2EP8QProcessS1_RK7QStringS4_P7QWidget
rclone-browser:_ZN12StreamWidgetD0Ev
rclone-browser:_ZN12StreamWidgetD1Ev
rclone-browser:_ZN12StreamWidgetD2Ev
rclone-browser:_ZN14ProgressDialog11qt_metacallEN11QMetaObject4CallEiPPv
rclone-browser:_ZN14ProgressDialog11qt_metacastEPKc
rclone-browser:_ZN14ProgressDialog12allowToCloseEv
rclone-browser:_ZN14ProgressDialog16staticMetaObjectE
rclone-browser:_ZN14ProgressDialog6expandEv
rclone-browser:_ZN14ProgressDialogC1ERK7QStringS2_S2_P8QProcessP7QWidgetbb
rclone-browser:_ZN14ProgressDialogC2ERK7QStringS2_S2_P8QProcessP7QWidgetbb
rclone-browser:_ZN14ProgressDialogD0Ev
rclone-browser:_ZN14ProgressDialogD1Ev
rclone-browser:_ZN14ProgressDialogD2Ev
rclone-browser:_ZN14TransferDialog10getOptionsEv
rclone-browser:_ZN14TransferDialog11qt_metacallEN11QMetaObject4CallEiPPv
rclone-browser:_ZN14TransferDialog11qt_metacastEPKc
rclone-browser:_ZN14TransferDialog13getJobOptionsEv
rclone-browser:_ZN14TransferDialog13putJobOptionsEv
rclone-browser:_ZN14TransferDialog16staticMetaObjectE
rclone-browser:_ZN14TransferDialog16tasksListChangedEv
rclone-browser:_ZN14TransferDialog4doneEi
rclone-browser:_ZN14TransferDialog9setSourceERK7QString
rclone-browser:_ZN14TransferDialogC1EbbRK7QStringRK4QDirbP7QWidgetP10JobOptionsb
rclone-browser:_ZN14TransferDialogC2EbbRK7QStringRK4QDirbP7QWidgetP10JobOptionsb
rclone-browser:_ZN14TransferDialogD0Ev
rclone-browser:_ZN14TransferDialogD1Ev
rclone-browser:_ZN14TransferDialogD2Ev
rclone-browser:_ZN16ListOfJobOptions11getInstanceEv
rclone-browser:_ZN16ListOfJobOptions11qt_metacallEN11QMetaObject4CallEiPPv
rclone-browser:_ZN16ListOfJobOptions11qt_metacastEPKc
rclone-browser:_ZN16ListOfJobOptions15SavedJobOptionsE
rclone-browser:_ZN16ListOfJobOptions16staticMetaObjectE
rclone-browser:_ZN16ListOfJobOptions16tasksListUpdatedEv
rclone-browser:_ZN16ListOfJobOptions17PersistToUserDataEv
rclone-browser:_ZN16ListOfJobOptions18GetPersistenceFileEN9QIODevice12OpenModeFlagE
rclone-browser:_ZN16ListOfJobOptions19RestoreFromUserDataERS_
rclone-browser:_ZN16ListOfJobOptions19persistenceFileNameE
rclone-browser:_ZN16ListOfJobOptions6ForgetEP10JobOptions
rclone-browser:_ZN16ListOfJobOptions7PersistEP10JobOptions
rclone-browser:_ZN16ListOfJobOptionsC1Ev
rclone-browser:_ZN16ListOfJobOptionsC2Ev
rclone-browser:_ZN17PreferencesDialog11qt_metacallEN11QMetaObject4CallEiPPv
rclone-browser:_ZN17PreferencesDialog11qt_metacastEPKc
rclone-browser:_ZN17PreferencesDialog16staticMetaObjectE
rclone-browser:_ZN17PreferencesDialogC1EP7QWidget
rclone-browser:_ZN17PreferencesDialogC2EP7QWidget
rclone-browser:_ZN17PreferencesDialogD0Ev
rclone-browser:_ZN17PreferencesDialogD1Ev
rclone-browser:_ZN17PreferencesDialogD2Ev
rclone-browser:_ZN22SerializationExceptionC1E7QString
rclone-browser:_ZN22SerializationExceptionC2E7QString
rclone-browser:_ZN9IconCache11qt_metacallEN11QMetaObject4CallEiPPv
rclone-browser:_ZN9IconCache11qt_metacastEPKc
rclone-browser:_ZN9IconCache16staticMetaObjectE
rclone-browser:_ZN9IconCache7getIconEP4ItemRK21QPersistentModelIndex
rclone-browser:_ZN9IconCache9iconReadyEP4ItemRK21QPersistentModelIndexRK5QIcon
rclone-browser:_ZN9IconCacheC1EP7QObject
rclone-browser:_ZN9IconCacheC2EP7QObject
rclone-browser:_ZN9IconCacheD0Ev
rclone-browser:_ZN9IconCacheD1Ev
rclone-browser:_ZN9IconCacheD2Ev
rclone-browser:_ZN9ItemModel10removeRowsEiiRK11QModelIndex
rclone-browser:_ZN9ItemModel11qt_metacallEN11QMetaObject4CallEiPPv
rclone-browser:_ZN9ItemModel11qt_metacastEPKc
rclone-browser:_ZN9ItemModel12dropMimeDataEPK9QMimeDataN2Qt10DropActionEiiRK11QModelIndex
rclone-browser:_ZN9ItemModel13sortRecursiveEP4ItemRK10ItemSorter
rclone-browser:_ZN9ItemModel16staticMetaObjectE
rclone-browser:_ZN9ItemModel4dropERK4QDirRK11QModelIndex
rclone-browser:_ZN9ItemModel4loadERK21QPersistentModelIndexP4Item
rclone-browser:_ZN9ItemModel4sortERK11QModelIndexP4Item
rclone-browser:_ZN9ItemModel4sortEiN2Qt9SortOrderE
rclone-browser:_ZN9ItemModel6renameERK11QModelIndexRK7QString
rclone-browser:_ZN9ItemModel7addRootERK7QStringS2_
rclone-browser:_ZN9ItemModel7getIconEP4ItemRK21QPersistentModelIndex
rclone-browser:_ZN9ItemModel7refreshERK11QModelIndex
rclone-browser:_ZN9ItemModelC1EP9IconCacheRK7QStringP7QObject
rclone-browser:_ZN9ItemModelC2EP9IconCacheRK7QStringP7QObject
rclone-browser:_ZN9ItemModelD0Ev
rclone-browser:_ZN9ItemModelD1Ev
rclone-browser:_ZN9ItemModelD2Ev
rclone-browser:_ZN9JobWidget11qt_metacallEN11QMetaObject4CallEiPPv
rclone-browser:_ZN9JobWidget11qt_metacastEPKc
rclone-browser:_ZN9JobWidget11showDetailsEv
rclone-browser:_ZN9JobWidget16staticMetaObjectE
rclone-browser:_ZN9JobWidget6cancelEv
rclone-browser:_ZN9JobWidget6closedEv
rclone-browser:_ZN9JobWidget8finishedERK7QString
rclone-browser:_ZN9JobWidgetC1EP8QProcessRK7QStringRK11QStringListS4_S4_P7QWidget
rclone-browser:_ZN9JobWidgetC2EP8QProcessRK7QStringRK11QStringListS4_S4_P7QWidget
rclone-browser:_ZN9JobWidgetD0Ev
rclone-browser:_ZN9JobWidgetD1Ev
rclone-browser:_ZN9JobWidgetD2Ev
rclone-browser:_ZNK10JobOptions10getOptionsEv
rclone-browser:_ZNK10MainWindow10metaObjectEv
rclone-browser:_ZNK11MountWidget10metaObjectEv
rclone-browser:_ZNK12ExportDialog10getOptionsEv
rclone-browser:_ZNK12ExportDialog10metaObjectEv
rclone-browser:_ZNK12ExportDialog13onlyFilenamesEv
rclone-browser:_ZNK12ExportDialog14getDestinationEv
rclone-browser:_ZNK12RemoteWidget10metaObjectEv
rclone-browser:_ZNK12StreamWidget10metaObjectEv
rclone-browser:_ZNK14ProgressDialog10metaObjectEv
rclone-browser:_ZNK14ProgressDialog15outputAvailableERK7QString
rclone-browser:_ZNK14TransferDialog10metaObjectEv
rclone-browser:_ZNK14TransferDialog7getDestEv
rclone-browser:_ZNK14TransferDialog7getModeEv
rclone-browser:_ZNK14TransferDialog9getSourceEv
rclone-browser:_ZNK16ListOfJobOptions10metaObjectEv
rclone-browser:_ZNK17PreferencesDialog10getNoProxyEv
rclone-browser:_ZNK17PreferencesDialog10metaObjectEv
rclone-browser:_ZNK17PreferencesDialog11getDarkModeEv
rclone-browser:_ZNK17PreferencesDialog11getIconSizeEv
rclone-browser:_ZNK17PreferencesDialog11getUseProxyEv
rclone-browser:_ZNK17PreferencesDialog12getHttpProxyEv
rclone-browser:_ZNK17PreferencesDialog12getRowColorsEv
rclone-browser:_ZNK17PreferencesDialog13getHttpsProxyEv
rclone-browser:_ZNK17PreferencesDialog13getRcloneConfEv
rclone-browser:_ZNK17PreferencesDialog13getShowHiddenEv
rclone-browser:_ZNK17PreferencesDialog14getCloseToTrayEv
rclone-browser:_ZNK17PreferencesDialog16getShowFileIconsEv
rclone-browser:_ZNK17PreferencesDialog18getShowFolderIconsEv
rclone-browser:_ZNK17PreferencesDialog19getAlwaysShowInTrayEv
rclone-browser:_ZNK17PreferencesDialog19getDefaultUploadDirEv
rclone-browser:_ZNK17PreferencesDialog21getCheckRcloneUpdatesEv
rclone-browser:_ZNK17PreferencesDialog21getDefaultDownloadDirEv
rclone-browser:_ZNK17PreferencesDialog23getDefaultRcloneOptionsEv
rclone-browser:_ZNK17PreferencesDialog23getDefaultUploadOptionsEv
rclone-browser:_ZNK17PreferencesDialog25getDefaultDownloadOptionsEv
rclone-browser:_ZNK17PreferencesDialog26getNotifyFinishedTransfersEv
rclone-browser:_ZNK17PreferencesDialog28getCheckRcloneBrowserUpdatesEv
rclone-browser:_ZNK17PreferencesDialog8getMountEv
rclone-browser:_ZNK17PreferencesDialog9getRcloneEv
rclone-browser:_ZNK17PreferencesDialog9getStreamEv
rclone-browser:_ZNK9IconCache10metaObjectEv
rclone-browser:_ZNK9ItemModel10headerDataEiN2Qt11OrientationEi
rclone-browser:_ZNK9ItemModel10isTopLevelERK11QModelIndex
rclone-browser:_ZNK9ItemModel10metaObjectEv
rclone-browser:_ZNK9ItemModel11columnCountERK11QModelIndex
rclone-browser:_ZNK9ItemModel11hasChildrenERK11QModelIndex
rclone-browser:_ZNK9ItemModel15canDropMimeDataEPK9QMimeDataN2Qt10DropActionEiiRK11QModelIndex
rclone-browser:_ZNK9ItemModel3getERK11QModelIndex
rclone-browser:_ZNK9ItemModel4dataERK11QModelIndexi
rclone-browser:_ZNK9ItemModel4pathERK11QModelIndex
rclone-browser:_ZNK9ItemModel5flagsERK11QModelIndex
rclone-browser:_ZNK9ItemModel5indexEiiRK11QModelIndex
rclone-browser:_ZNK9ItemModel6parentERK11QModelIndex
rclone-browser:_ZNK9ItemModel8isFolderERK11QModelIndex
rclone-browser:_ZNK9ItemModel8rowCountERK11QModelIndex
rclone-browser:_ZNK9ItemModel9isLoadingERK11QModelIndex
rclone-browser:_ZNK9JobWidget10metaObjectEv
rclone-browser:_ZThn16_N10MainWindowD0Ev
rclone-browser:_ZThn16_N10MainWindowD1Ev
rclone-browser:_ZThn16_N11MountWidgetD0Ev
rclone-browser:_ZThn16_N11MountWidgetD1Ev
rclone-browser:_ZThn16_N12ExportDialogD0Ev
rclone-browser:_ZThn16_N12ExportDialogD1Ev
rclone-browser:_ZThn16_N12RemoteWidgetD0Ev
rclone-browser:_ZThn16_N12RemoteWidgetD1Ev
rclone-browser:_ZThn16_N12StreamWidgetD0Ev
rclone-browser:_ZThn16_N12StreamWidgetD1Ev
rclone-browser:_ZThn16_N14ProgressDialogD0Ev
rclone-browser:_ZThn16_N14ProgressDialogD1Ev
rclone-browser:_ZThn16_N14TransferDialogD0Ev
rclone-browser:_ZThn16_N14TransferDialogD1Ev
rclone-browser:_ZThn16_N17PreferencesDialogD0Ev
rclone-browser:_ZThn16_N17PreferencesDialogD1Ev
rclone-browser:_ZThn16_N9JobWidgetD0Ev
rclone-browser:_ZThn16_N9JobWidgetD1Ev
rclone-browser:__bss_start
rclone-browser:__data_start
rclone-browser:_edata
rclone-browser:_end
rclone-browser:_start
rclone-browser:main
